@game:110

_ZN2al14CameraPoser_RS9loadParamERKNS_9ByamlIterE = 0x008f7d20
_ZN2al14CameraPoser_RS6updateEv = 0x008f7980
_ZN2al14CameraPoser_RS4initEv = 0x008f7d00
_ZNK2al14CameraPoser_RS18getAreaObjDirectorEv = 0x00922700
_ZN2al14CameraPoser_RS18initByPlacementObjERKNS_13PlacementInfoE = 0x008f7d10
_ZN2al14CameraPoser_RS7endInitEv = 0x00067830
_ZN2al14CameraPoser_RS3endEv = 0x00067840
_ZNK2al14CameraPoser_RS16makeLookAtCameraEPN4sead12LookAtCameraE = 0x0006fc10
_ZN2al14CameraPoser_RS24receiveRequestFromObjectERKNS_23CameraObjectRequestInfoE = 0x00067850
_ZNK2al14CameraPoser_RS9isZoomingEv = 0x00067860
_ZNK2al14CameraPoser_RS19isEnableRotateByPadEv = 0x00922660
_ZN2al14CameraPoser_RS17startSnapShotModeEv = 0x00067860
_ZN2al14CameraPoser_RS15endSnapShotModeEv = 0x00067890
_ZNK2al14CameraPoser_RS7getNameEv = 0x000678a0
_ZNK2al14CameraPoser_RS20getCollisionDirectorEv = 0x00922710
_ZNK2al14CameraPoser_RS14getNerveKeeperEv = 0x000678b0
_ZNK2al14CameraPoser_RS14getAudioKeeperEv = 0x000678c0
_ZNK2al14CameraPoser_RS12getRailRiderEv = 0x00922760
_ZN2al14CameraPoser_RS4loadERKNS_9ByamlIterE = 0x009229e0
_ZN2al14CameraPoser_RS22requestTurnToDirectionEPKNS_14CameraTurnInfoE = 0x000678f0
_ZThn8_NK2al14CameraPoser_RS14getAudioKeeperEv = 0x00067900
_ZThn16_NK2al14CameraPoser_RS20getCollisionDirectorEv = 0x00922720
_ZThn24_NK2al14CameraPoser_RS7getNameEv = 0x00067910
_ZThn32_NK2al14CameraPoser_RS14getNerveKeeperEv = 0x00067920
_ZThn40_NK2al14CameraPoser_RS12getRailRiderEv = 0x00922780
