/* nnsdk */

nndetailImagePng_png_get_eXIf = 0x000000000027b390 + __sdk_start;
_ZN2nn4nifm6detail21ServiceProviderClientD2Ev = 0x00000000003252b0 + __sdk_start;
_ZNKSt3__110moneypunctIwLb1EE16do_decimal_pointEv = 0x00000000004c39d8 + __sdk_start;
_ZNK2nn5audio11SinkManager15IsValidSinkInfoEPKNS0_8SinkInfoE = 0x0000000000045c00 + __sdk_start;
_ZN2nn2sf4cmif6client6detail13CmifProxyImplINS_4bcat6detail3ipc16INotifierServiceENS2_19CmifDomainProxyKindINS0_4hipc6client38Hipc2ClientSessionManagedProxyKindBaseINSB_18Hipc2ProxyKindBaseILNSA_6detail11MessageTypeE6EEEEEEENS0_30MemoryResourceAllocationPolicyES8_NS3_19ProcessModifierImplINS2_21DefaultProxyFilterTagEEEE20_nn_sf_sync_GetEventENS0_3OutINS0_12NativeHandleEvEE = 0x0000000000084450 + __sdk_start;
nnmem_nlib_free_size = 0x00000000002e1490 + __sdk_start;
_ZN2nn3hid6detail19GetTouchScreenStateILm2EEENS_6ResultEPNS0_16TouchScreenStateIXT_EEE = 0x000000000020d5a0 + __sdk_start;
_ZTSN2nn3ldn6detail32ISystemLocalCommunicationServiceE = 0x0000000000a91c12 + __sdk_start;
_ZN2nn4util37GetLengthOfConvertedStringUtf32ToUtf8EPiPKDii = 0x00000000003b44d0 + __sdk_start;
connect = 0x0000000000518a58 + __sdk_start;
_ZN2nn3hid6system24SendKeyboardLockKeyEventENS_4util10BitFlagSetILi32ENS1_20KeyboardLockKeyEventEEE = 0x0000000000223e80 + __sdk_start;
_ZTSN2nn2sf4cmif6client6detail13CmifProxyImplINS_5visrv2sf23IApplicationRootServiceENS0_4hipc6client18Hipc2ProxyKindBaseILNS8_6detail11MessageTypeE6EEENS0_30MemoryResourceAllocationPolicyES7_NS3_19ProcessModifierImplINS2_21DefaultProxyFilterTagEEEEE = 0x0000000000abc276 + __sdk_start;
_ZN7android10VectorImpl3addEPKv = 0x0000000000452390 + __sdk_start;
_ZNSt3__127__insertion_sort_incompleteIRPFbRKN2nn6fontll15OtfKerningTable11KerningPairES6_EPS4_EEbT0_SB_T_ = 0x000000000015f900 + __sdk_start;
_ZN2nn2sf4cmif6client34CmifDomainProxyClientCoreProcessorINS0_4hipc6client38Hipc2ClientSessionManagedProxyKindBaseINS5_18Hipc2ProxyKindBaseILNS4_6detail11MessageTypeE6EEEEENS1_6detail14CoreMethodInfoINSt3__15tupleIJNSC_18OutRawArgumentInfoILm4ELm4ELl0EEENSG_ILm4ELm4ELl4EEENSC_17InRawArgumentInfoILm4ELm4ELl0EEENSC_18BufferArgumentInfoILi0ELi33ELm0EEENSJ_ILm4ELm4ELl4EEENSL_ILi1ELi33ELm0EEEEEELm8ELm8ELb0EEESP_E7ProcessEPNS2_23CmifDomainClientMessageISB_E15ProxyBaseObjectENS2_24OutRawClientArgumentTypeILm4ELm4EEESX_NS2_23InRawClientArgumentTypeILm4ELm4EvEENS2_24BufferClientArgumentTypeESZ_S10_j = 0x000000000038c8d0 + __sdk_start;
_ZN2nn7account34NetworkServiceAccountAdministrator30InvalidateRequiredLicenseCacheERKNS_13ApplicationIdE = 0x0000000000017240 + __sdk_start;
_ZN2nn2sf4cmif6client34CmifDomainProxyClientCoreProcessorINS0_4hipc6client38Hipc2ClientSessionManagedProxyKindBaseINS5_18Hipc2ProxyKindBaseILNS4_6detail11MessageTypeE6EEEEENS1_6detail14CoreMethodInfoINSt3__15tupleIJNSC_17InRawArgumentInfoILm32ELm1ELl0EEEEEELm32ELm0ELb0EEESI_E7ProcessEPNS2_23CmifDomainClientMessageISB_E15ProxyBaseObjectENS2_23InRawClientArgumentTypeILm32ELm1EvEEj = 0x0000000000085570 + __sdk_start;
_ZTSN2nn9bluetooth11GattServiceE = 0x0000000000a4e687 + __sdk_start;
_ZN2nn2fs3dbm8PathTool10PathParser8FinalizeEv = 0x00000000001b56a0 + __sdk_start;
_ZN2nn2fs19MountDeviceSaveDataEPKc = 0x00000000001c85d0 + __sdk_start;
_ZN2nn2os6detail25SharedMemoryImplByHorizon6CreateEPjmNS0_16MemoryPermissionES4_ = 0x0000000000342410 + __sdk_start;
_ZN2nn2sf4cmif6client6detail13CmifProxyImplINS_5visrv2sf22IManagerDisplayServiceENS0_4hipc6client18Hipc2ProxyKindBaseILNS8_6detail11MessageTypeE6EEENS0_30MemoryResourceAllocationPolicyES7_NS3_19ProcessModifierImplINS2_21DefaultProxyFilterTagEEEE31_nn_sf_sync_DestroySharedBufferENS_2vi7fbshare18SharedBufferHandleE = 0x00000000003bb8d0 + __sdk_start;
_ZN2nn8irsensor27GetClusteringProcessorStateEPNS0_24ClusteringProcessorStateERKNS0_14IrCameraHandleE = 0x00000000002aa160 + __sdk_start;
_ZN2nn6socket8resolver10serializer13DNSSerializer6SizeOfINS0_14ResolverOptionEEEmPKT_m = 0x000000000037f970 + __sdk_start;
_ZNK7android6Parcel12dataPositionEv = 0x0000000000420c20 + __sdk_start;
NvOsGetProcessInfo = 0x00000000003d9080 + __sdk_start;
_ZNSt3__18ios_base5imbueERKNS_6localeE = 0x00000000004b0b20 + __sdk_start;
_ZNK2nn2fs3dbm15AllocationTable20ConvertIndexToSectorEj = 0x00000000001b2fa0 + __sdk_start;
_ZN4nerd16VibrationDecoder15DoGenerateChunkEjjjjPs = 0x000000000021c500 + __sdk_start;
_ZN2nn5srepo6detail17VerifyBinaryValueEPKvm = 0x000000000034fb50 + __sdk_start;
_ZN2nn5swkbd6detail18InlineKeyboardImpl19SetKeytopAsFloatingEb = 0x000000000039d480 + __sdk_start;
_ZN2nn2sf4cmif6client34CmifDomainProxyClientCoreProcessorINS0_4hipc6client38Hipc2ClientSessionManagedProxyKindBaseINS5_18Hipc2ProxyKindBaseILNS4_6detail11MessageTypeE6EEEEENS1_6detail14CoreMethodInfoINSt3__15tupleIJNSC_18OutRawArgumentInfoILm32ELm4ELl0EEEEEELm0ELm32ELb0EEESI_E7ProcessEPNS2_23CmifDomainClientMessageISB_E15ProxyBaseObjectENS2_24OutRawClientArgumentTypeILm32ELm4EEEj = 0x00000000000286f0 + __sdk_start;
_ZTSN2nn2sf4cmif6client6detail13CmifProxyImplINS_4bcat6detail3ipc30IDeliveryCacheDirectoryServiceENS2_19CmifDomainProxyKindINS0_4hipc6client38Hipc2ClientSessionManagedProxyKindBaseINSB_18Hipc2ProxyKindBaseILNSA_6detail11MessageTypeE6EEEEEEENS0_30MemoryResourceAllocationPolicyES8_NS3_19ProcessModifierImplINS2_21DefaultProxyFilterTagEEEEE = 0x0000000000a4db7b + __sdk_start;
_ZN2nn2sf4cmif6client6detail13CmifProxyImplINS_3nim6detail20IShopServiceAccessorENS0_4hipc6client18Hipc2ProxyKindBaseILNS8_6detail11MessageTypeE6EEENS0_30MemoryResourceAllocationPolicyES7_NS3_19ProcessModifierImplINS2_21DefaultProxyFilterTagEEEE12GetProxyInfoEv = 0x00000000001527c0 + __sdk_start;
_ZN2nn4edid6detail25ModeExtensionBlockVisitorEPKhmPv = 0x000000000015a350 + __sdk_start;
_ZN2nn3hid6detail28SetDisallowedPalmaConnectionEPKNS_9bluetooth7AddressEi = 0x000000000020be50 + __sdk_start;
_ZN2nn2sf4cmif6client6detail13CmifProxyImplINS_8settings24ISettingsItemKeyIteratorENS0_4hipc6client18Hipc2ProxyKindBaseILNS7_6detail11MessageTypeE6EEENS0_30MemoryResourceAllocationPolicyES6_NS3_19ProcessModifierImplINS2_21DefaultProxyFilterTagEEEE17GetCmifBaseObjectEv = 0x000000000036a9c0 + __sdk_start;
_ZNKSt3__19money_getIwNS_19istreambuf_iteratorIwNS_11char_traitsIwEEEEE6do_getES4_S4_bRNS_8ios_baseERjRe = 0x00000000004c5b30 + __sdk_start;
_ZN2nn5codec32FDK_sbrDecoder_sbr_start_freq_44E = 0x0000000000a628a0 + __sdk_start;
stderr = 0x0000000000c54b90 + __sdk_start;
_ZZN2nn2sf31SimpleAllInOneHipcClientManagerILm1EE27InitializeShimLibraryHolderINS_4npns9INpnsUserENS0_4cmif6client6detail19ProcessModifierImplINS7_21DefaultProxyFilterTagEEEEENS_6ResultEPNS0_23ShimLibraryObjectHolderIT_EEPKcPNS_14MemoryResourceEENUlPNS0_13SharedPointerIS5_EEE_clESN_ = 0x000000000032fcb0 + __sdk_start;
_ZN2nn2sf4cmif6client6detail13CmifProxyImplINS_8settings21ISystemSettingsServerENS0_4hipc6client18Hipc2ProxyKindBaseILNS7_6detail11MessageTypeE6EEENS0_30MemoryResourceAllocationPolicyES6_NS3_19ProcessModifierImplINS2_21DefaultProxyFilterTagEEEE34_nn_sf_sync_GetHomeMenuSchemeModelENS0_3OutIjvEE = 0x000000000036d710 + __sdk_start;
_ZTSNSt3__115numpunct_bynameIcEE = 0x0000000000ac789a + __sdk_start;
_ZTIN2nn2am7service16IAudioControllerE = 0x0000000000c14660 + __sdk_start;
_ZThn32_N2nn2sf4cmif6client6detail13CmifProxyImplINS_2am7service18IAppletProxyCommonENS2_19CmifDomainProxyKindINS0_4hipc6client38Hipc2ClientSessionManagedProxyKindBaseINSA_18Hipc2ProxyKindBaseILNS9_6detail11MessageTypeE6EEEEEEENS0_30MemoryResourceAllocationPolicyENS6_18ISystemAppletProxyENS3_19ProcessModifierImplINS2_21DefaultProxyFilterTagEEEE17GetCmifBaseObjectEv = 0x0000000000022f00 + __sdk_start;
_ZN2nn2sf4cmif6client6detail13CmifProxyImplINS_7friends6detail3ipc14IFriendServiceENS2_19CmifDomainProxyKindINS0_4hipc6client38Hipc2ClientSessionManagedProxyKindBaseINSB_18Hipc2ProxyKindBaseILNSA_6detail11MessageTypeE6EEEEEEENS0_30MemoryResourceAllocationPolicyES8_NS3_19ProcessModifierImplINS2_21DefaultProxyFilterTagEEEE40_nn_sf_sync_DeclareOpenOnlinePlaySessionERKNS_7account3UidE = 0x00000000001a1150 + __sdk_start;
_ZN2nn4util10BitFlagSetILi256ENS_3hid11KeyboardKeyEE4FlagILi70EE4MaskE = 0x0000000000a71dd8 + __sdk_start;
_ZNK2nn3mii21ParamCharInfoAccessor16GetMustacheScaleEv = 0x00000000002f1dc0 + __sdk_start;
_ZTIN2nn2sf4cmif6client6detail9CmifProxyINS_3mii6detail14IStaticServiceENS2_19CmifDomainProxyKindINS0_4hipc6client38Hipc2ClientSessionManagedProxyKindBaseINSA_18Hipc2ProxyKindBaseILNS9_6detail11MessageTypeE6EEEEEEENS0_30MemoryResourceAllocationPolicyENS3_19ProcessModifierImplINS2_21DefaultProxyFilterTagEEEvEE = 0x0000000000c29b50 + __sdk_start;
_ZN2nn2os22MoveAllMultiWaitHolderEPNS0_13MultiWaitTypeES2_ = 0x000000000033aec0 + __sdk_start;
_ZTCNSt3__19strstreamE0_NS_14basic_iostreamIcNS_11char_traitsIcEEEE = 0x0000000000c494f8 + __sdk_start;
__trunctfsf2 = 0x000000000050ee60 + __sdk_start;
_Z21__nnmusl_get_dir_name18__nnmuslDescriptor = 0x0000000000558890 + __sdk_start;
_ZN2nn3mii6detail22RandomMiiNoseTypeTableE = 0x0000000000aa27dc + __sdk_start;
_ZN2nn2os6detail22SetMemoryAttributeImplEmmNS0_15MemoryAttributeE = 0x0000000000343d10 + __sdk_start;
__lgamma_r = 0x0000000000546ff0 + __sdk_start;
_ZN2nn5audio23InitializeLimiterEffectEPNS0_16LimiterParameterEPNS0_12LimiterStateEPvmi = 0x0000000000072290 + __sdk_start;
_ZN2nn4bcat26RequestSuspendDeliveryTaskEPNS0_22DeliveryTaskSuspensionENS_13ApplicationIdE = 0x000000000007fa30 + __sdk_start;
setLimiterRelease = 0x00000000001100e0 + __sdk_start;
_ZN2nn3kpr6detail22SetKeyCodeComposerModeEPNS1_22KeyCodeComposerStorageENS0_19KeyCodeComposerModeE = 0x00000000002c0810 + __sdk_start;
_ZN2nn3ngc15ProfanityFilter16CleanUpVariablesEv = 0x0000000000311c10 + __sdk_start;
_ZTVNSt3__117__assoc_sub_stateE = 0x0000000000c458b8 + __sdk_start;
_ZNK2nn2la21CommonArgumentsWriter15PushToInChannelENS_6applet19LibraryAppletHandleE = 0x00000000002c1eb0 + __sdk_start;
_ZTIN2nn2sf4cmif6client6detail13CmifProxyImplINS_7account7profile8IProfileENS2_19CmifDomainProxyKindINS0_4hipc6client38Hipc2ClientSessionManagedProxyKindBaseINSA_18Hipc2ProxyKindBaseILNS9_6detail11MessageTypeE6EEEEEEENS0_25StatelessAllocationPolicyINS0_22ExpHeapStaticAllocatorILm2048ENS5_6detail12ObjectHolder24ObjectHolderAllocatorTagEEEEENS6_14IProfileEditorENS3_19ProcessModifierImplINS2_21DefaultProxyFilterTagEEEEE = 0x0000000000c0e3c0 + __sdk_start;
_ZN2nn5swkbd14SetSubTextUtf8EPNS0_14KeyboardConfigEPKc = 0x000000000039bc60 + __sdk_start;
_ZN2nn4time6detail4util10DateToDaysEiii = 0x00000000003a71e0 + __sdk_start;
_ZTIN2nn5codec19HardwareOpusDecoderE = 0x0000000000c1c540 + __sdk_start;
_ZN2nn2fs4save11IFileSystem7HasFileEPbRKNS1_4PathE = 0x00000000001be5f0 + __sdk_start;
_ZN2nn3htc18GetBridgeIpAddressEPcm = 0x000000000023a640 + __sdk_start;
_ZN2nn2sf4cmif6client6detail13CmifProxyImplINS_5visrv2sf22IManagerDisplayServiceENS0_4hipc6client18Hipc2ProxyKindBaseILNS8_6detail11MessageTypeE6EEENS0_30MemoryResourceAllocationPolicyES7_NS3_19ProcessModifierImplINS2_21DefaultProxyFilterTagEEEE17GetCmifBaseObjectEv = 0x00000000003bbd20 + __sdk_start;
_ZTv0_n24_N7android10IInterfaceD0Ev = 0x000000000041b1e0 + __sdk_start;
_ZTSN2nn2sf4cmif6client6detail9CmifProxyINS_7account4baas22IManagerForApplicationENS2_19CmifDomainProxyKindINS0_4hipc6client38Hipc2ClientSessionManagedProxyKindBaseINSA_18Hipc2ProxyKindBaseILNS9_6detail11MessageTypeE6EEEEEEENS0_25StatelessAllocationPolicyINS0_22ExpHeapStaticAllocatorILm2048ENS5_6detail12ObjectHolder24ObjectHolderAllocatorTagEEEEENS3_19ProcessModifierImplINS2_21DefaultProxyFilterTagEEEvEE = 0x0000000000a28276 + __sdk_start;
_ZN2nn2fs4save22SaveDataFileSystemCore17OpenDirectoryImplEPPNS1_18ExclusiveDirectoryERKNS1_4PathE = 0x00000000001bfff0 + __sdk_start;
_ZN2nn2sf4cmif6client6detail13CmifProxyImplINS_3hid16IHidSystemServerENS0_4hipc6client18Hipc2ProxyKindBaseILNS7_6detail11MessageTypeE6EEENS0_30MemoryResourceAllocationPolicyES6_NS3_19ProcessModifierImplINS2_21DefaultProxyFilterTagEEEE34_nn_sf_sync_GetHidButtonConfigLeftENS0_3OutINS_9hidconfig16ButtonConfigLeftEvEENS5_6system11UniquePadIdE = 0x0000000000232bc0 + __sdk_start;
_ZN2nn3mii8Nickname3SetEPKt = 0x00000000002f18c0 + __sdk_start;
_ZN2nn4nifm33UnregisterTemporaryNetworkProfileEv = 0x000000000032c230 + __sdk_start;
_ZN2nn4npns8GetStateEv = 0x000000000032f1e0 + __sdk_start;
_ZN2nn3web6detail40WebSessionSendSystemMessageGroupIncludesENS1_25WebSessionSendMessageKindE = 0x00000000003ca890 + __sdk_start;
_ZNK7android6Parcel4dataEv = 0x0000000000420bd0 + __sdk_start;
_ZN7android21SurfaceComposerClient12getErrorTextEiRNS_7String8E = 0x0000000000444050 + __sdk_start;
_ZN2nn5audio20AppendAudioOutBufferEPNS0_8AudioOutEPNS0_14AudioOutBufferE = 0x0000000000056430 + __sdk_start;
_ZN2nn2fs24HierarchicalRomFileTable36QueryDirectoryEntryBucketStorageSizeEl = 0x00000000001a97b0 + __sdk_start;
_ZN2nn2sf4hipc6client24Hipc2ClientCoreProcessorILNS1_6detail11MessageTypeE6ENS0_4cmif6detail14CoreMethodInfoINSt3__15tupleIJNS7_18OutRawArgumentInfoILm4ELm4ELl0EEENSB_ILm16ELm8ELl8EEENSB_ILm16ELm8ELl24EEENS7_18BufferArgumentInfoILi0ELi5ELm0EEENS7_17InRawArgumentInfoILm8ELm8ELl8EEENSH_ILm16ELm8ELl16EEENSH_ILm16ELm8ELl32EEENSH_ILm32ELm8ELl48EEENSH_ILm4ELm4ELl0EEENSF_ILi1ELi6ELm0EEEEEELm80ELm40ELb0EEESO_E7ProcessEPNS2_26Hipc2ClientProxyBaseObjectENS6_6client24OutRawClientArgumentTypeILm4ELm4EEENSU_ILm16ELm8EEESW_NST_24BufferClientArgumentTypeENST_23InRawClientArgumentTypeILm8ELm8EvEENSY_ILm16ELm8EvEES10_NSY_ILm32ELm8EvEENSY_ILm4ELm4EvEESX_j = 0x00000000002bfa10 + __sdk_start;
NvWsiContextCreate = 0x0000000000415bc0 + __sdk_start;
_ZTSN2nn2am7service16IAudioControllerE = 0x0000000000a3297d + __sdk_start;
FSS_font_name_with_offset = 0x0000000000166730 + __sdk_start;
nndetailImagePng_png_colorspace_set_rgb_coefficients = 0x0000000000277040 + __sdk_start;
_ZN2nn2os17FinalizeBusyMutexEPNS0_13BusyMutexTypeE = 0x0000000000338770 + __sdk_start;
_ZN2nn2sf4cmif6client6detail13CmifProxyImplINS_3ssl2sf11ISslContextENS2_19CmifDomainProxyKindINS0_4hipc6client38Hipc2ClientSessionManagedProxyKindBaseINSA_18Hipc2ProxyKindBaseILNS9_6detail11MessageTypeE6EEEEEEENS0_24StatefulAllocationPolicyINS0_16ExpHeapAllocatorEEES7_NS3_19ProcessModifierImplINS2_21DefaultProxyFilterTagEEEE21_nn_sf_sync_ImportCrlENS0_3OutImvEERKNS0_8InBufferE = 0x00000000003983d0 + __sdk_start;
_ZN2nn3web10WebSessionC2Ev = 0x00000000003c9f70 + __sdk_start;
_ZNSt11logic_errorC1ERKS_ = 0x00000000004e4ef8 + __sdk_start;
_ZN2nn2fs11FileStorage12OperateRangeEPvmNS0_11OperationIdEllPKvm = 0x00000000001ad120 + __sdk_start;
_ZN2nn2sf4cmif6client6detail13CmifProxyImplINS_8irsensor15IIrSensorServerENS0_4hipc6client18Hipc2ProxyKindBaseILNS7_6detail11MessageTypeE6EEENS0_25StatelessAllocationPolicyINS0_22ExpHeapStaticAllocatorILm16384ENS5_6detail14IrSensorServerEEEEES6_NS3_19ProcessModifierImplINS2_21DefaultProxyFilterTagEEEE12GetProxyInfoEv = 0x00000000002ab700 + __sdk_start;
_ZN2nn4time32GetStandardSteadyClockTestOffsetEv = 0x00000000003a2390 + __sdk_start;
_ZN2nn4pctl45ClearFreeCommunicationApplicationListForDebugEv = 0x00000000003466c0 + __sdk_start;
_ZN2nn2sf4cmif6client34CmifDomainProxyClientCoreProcessorINS0_4hipc6client38Hipc2ClientSessionManagedProxyKindBaseINS5_18Hipc2ProxyKindBaseILNS4_6detail11MessageTypeE6EEEEENS1_6detail14CoreMethodInfoINSt3__15tupleIJNSC_18OutRawArgumentInfoILm8ELm4ELl0EEENSC_21OutHandleArgumentInfoILi0ELi1EEENSC_17InRawArgumentInfoILm8ELm8ELl8EEENSK_ILm1ELm1ELl0EEEEEELm16ELm8ELb0EEESN_E7ProcessEPNS2_23CmifDomainClientMessageISB_E15ProxyBaseObjectENS2_24OutRawClientArgumentTypeILm8ELm4EEENS2_27OutHandleClientArgumentTypeENS2_23InRawClientArgumentTypeILm8ELm8EvEENSX_ILm1ELm1EvEEj = 0x000000000034bed0 + __sdk_start;
NvRmGpuDeviceGetKindInfo = 0x00000000004042f0 + __sdk_start;
_ZN2nn7account36CheckNetworkServiceAvailabilityAsyncEPNS0_12AsyncContextE = 0x0000000000002ef0 + __sdk_start;
_ZN2nn2am33InitializeOverlayAppletInterfacesEv = 0x00000000000202f0 + __sdk_start;
_ZN2nn3hid14KeyboardLayout15RussianCyrillicE = 0x0000000000a7263c + __sdk_start;
_ZN2nn4nifm7RequestD2Ev = 0x000000000032c550 + __sdk_start;
_ZTVNSt3__17num_putIcNS_19ostreambuf_iteratorIcNS_11char_traitsIcEEEEEE = 0x0000000000c472c0 + __sdk_start;
putwchar_unlocked = 0x0000000000551338 + __sdk_start;
_ZTIN2nn2sf4cmif6client6detail9CmifProxyINS_7account6detail9INotifierENS2_19CmifDomainProxyKindINS0_4hipc6client38Hipc2ClientSessionManagedProxyKindBaseINSA_18Hipc2ProxyKindBaseILNS9_6detail11MessageTypeE6EEEEEEENS0_25StatelessAllocationPolicyINS0_22ExpHeapStaticAllocatorILm2048ENS6_12ObjectHolder24ObjectHolderAllocatorTagEEEEENS3_19ProcessModifierImplINS2_21DefaultProxyFilterTagEEEvEE = 0x0000000000c0de88 + __sdk_start;
_ZN2nn3err13MakeErrorCodeEjj = 0x000000000015b310 + __sdk_start;
_ZN2nn3mii6detail12StoreDataRaw13SetBeardColorEi = 0x00000000002fa570 + __sdk_start;
_ZTIN2nn2sf13InterfaceInfoINS0_4hipc6detail12IHipcManagerEE4_tABINS5_5_tO2NINS2_6server34HipcServerSessionManagerWithDomain15HipcManagerImplEE4typeES4_E4typeE = 0x0000000000c313f0 + __sdk_start;
_ZN2nn2sf4cmif6client6detail13CmifProxyImplINS_5visrv2sf22IManagerDisplayServiceENS0_4hipc6client18Hipc2ProxyKindBaseILNS8_6detail11MessageTypeE6EEENS0_30MemoryResourceAllocationPolicyES7_NS3_19ProcessModifierImplINS2_21DefaultProxyFilterTagEEEE43_nn_sf_sync_DestroyIndirectConsumerEndPointEm = 0x00000000003bb410 + __sdk_start;
_ZN7android11IMemoryHeap11asInterfaceERKNS_2spINS_7IBinderEEE = 0x000000000041c7b0 + __sdk_start;
_ZN2nn2fs22GetSaveDataRestoreFlagEPbPKc = 0x00000000001effe0 + __sdk_start;
_ZN2nn6socket10GetSockOptEiNS0_5LevelENS0_6OptionEPvPj = 0x000000000037bb20 + __sdk_start;
_ZN2nn4time23StandardUserSystemClock3nowEv = 0x00000000003a2540 + __sdk_start;
_ZNK2nn9bluetooth17GattAttributeUuideqERKS1_ = 0x0000000000090c20 + __sdk_start;
_ZN2nn2sf4cmif6client6detail13CmifProxyImplINS_8settings21ISystemSettingsServerENS0_4hipc6client18Hipc2ProxyKindBaseILNS7_6detail11MessageTypeE6EEENS0_30MemoryResourceAllocationPolicyES6_NS3_19ProcessModifierImplINS2_21DefaultProxyFilterTagEEEE44_nn_sf_sync_SetChineseTraditionalInputMethodEi = 0x000000000036d500 + __sdk_start;
_ZTINSt3__110ostrstreamE = 0x0000000000c494e0 + __sdk_start;
_ZN2nn5audio3dsp25MailBoxImplByMessageQueue4OpenEib = 0x00000000000715b0 + __sdk_start;
_ZTSN2nn4npns21INotificationReceiverE = 0x0000000000aaf30b + __sdk_start;
nnosReleaseSemaphoreCount = 0x000000000033d950 + __sdk_start;
_ZN7android12BnMemoryHeapD0Ev = 0x000000000041cac0 + __sdk_start;
_ZN7android18BufferItemConsumer13releaseBufferERKNS_22IGraphicBufferConsumer10BufferItemERKNS_2spINS_5FenceEEE = 0x000000000042d070 + __sdk_start;
_ZN2nn2sf4cmif6client6detail13CmifProxyImplINS_7account4http15IOAuthProcedureENS2_19CmifDomainProxyKindINS0_4hipc6client38Hipc2ClientSessionManagedProxyKindBaseINSA_18Hipc2ProxyKindBaseILNS9_6detail11MessageTypeE6EEEEEEENS0_25StatelessAllocationPolicyINS0_22ExpHeapStaticAllocatorILm2048ENS5_6detail12ObjectHolder24ObjectHolderAllocatorTagEEEEENS5_3nas34IOAuthProcedureForUserRegistrationENS3_19ProcessModifierImplINS2_21DefaultProxyFilterTagEEEE24_nn_sf_sync_PrepareAsyncENS0_3OutINS0_13SharedPointerINSK_13IAsyncContextEEEvEE = 0x000000000000faa0 + __sdk_start;
_ZN2nn2sf4cmif6client6detail13CmifProxyImplINS_6grcsrv11IMovieMakerENS2_19CmifDomainProxyKindINS0_4hipc6client38Hipc2ClientSessionManagedProxyKindBaseINS9_18Hipc2ProxyKindBaseILNS8_6detail11MessageTypeE6EEEEEEENS0_30MemoryResourceAllocationPolicyES6_NS3_19ProcessModifierImplINS2_21DefaultProxyFilterTagEEEE17GetCmifBaseObjectEv = 0x00000000000325e0 + __sdk_start;
_ZThn16_N2nn2sf4cmif6client6detail13CmifProxyImplINS_3nim6detail20IShopServiceAccessorENS0_4hipc6client18Hipc2ProxyKindBaseILNS8_6detail11MessageTypeE6EEENS0_30MemoryResourceAllocationPolicyES7_NS3_19ProcessModifierImplINS2_21DefaultProxyFilterTagEEEE17GetCmifBaseObjectEv = 0x0000000000152890 + __sdk_start;
_ZTSNSt3__17num_putIcNS_19ostreambuf_iteratorIcNS_11char_traitsIcEEEEEE = 0x0000000000ac79a1 + __sdk_start;
nncryptoDecryptAes128CtrPartial = 0x0000000000135e30 + __sdk_start;
_ZN2nn2oe17GetDisplayVersionEPNS0_14DisplayVersionE = 0x0000000000337360 + __sdk_start;
_ZN2nn8settings6system19SetShutdownRtcValueEl = 0x000000000035a500 + __sdk_start;
mbrtowc = 0x000000000054c4e8 + __sdk_start;
nndetailDiagOnAssertionFailure = 0x0000000000144e10 + __sdk_start;
_ZN2nn2fs25CleanDirectoryRecursivelyEPKc = 0x00000000001ba590 + __sdk_start;
nndetailImagePng_png_get_hIST = 0x000000000027b3f0 + __sdk_start;
pthread_mutex_unlock = 0x000000000051b988 + __sdk_start;
_ZN2nn5swkbd17SetHeaderTextUtf8EPNS0_14KeyboardConfigEPKc = 0x000000000039bb20 + __sdk_start;
_ZN2nn4timegeERKNS0_12CalendarTimeES3_ = 0x00000000003a0b80 + __sdk_start;
_ZNK2nn7account41CachedNintendoAccountInfoForSystemService9GetRegionEPm = 0x0000000000014b10 + __sdk_start;
_ZTVN2nn2sf6detail38ObjectImplFactoryWithStatefulAllocatorINS0_4cmif6client6detail9CmifProxyINS_2am7service26ILibraryAppletSelfAccessorENS4_19CmifDomainProxyKindINS0_4hipc6client38Hipc2ClientSessionManagedProxyKindBaseINSC_18Hipc2ProxyKindBaseILNSB_6detail11MessageTypeE6EEEEEEENS0_30MemoryResourceAllocationPolicyENS5_19ProcessModifierImplINS4_21DefaultProxyFilterTagEEEvEESK_E6ObjectE = 0x0000000000c15858 + __sdk_start;
_ZN2nn2fs32OpenSdCardDetectionEventNotifierEPNSt3__110unique_ptrINS0_14IEventNotifierENS1_14default_deleteIS3_EEEE = 0x00000000001f1b70 + __sdk_start;
_ZN2nn5codec11OpusEncoder10InitializeEiiPvm = 0x00000000000defe0 + __sdk_start;
_ZN2nn4lmem6detail27GetUnitHeapAllocatableCountEPNS1_8HeapHeadE = 0x00000000002ca940 + __sdk_start;
_ZN2nn3web21ShowSystemDataPageArgC2Ev = 0x00000000003c7dc0 + __sdk_start;
_ZTIN10__cxxabiv120__function_type_infoE = 0x0000000000c4b9e0 + __sdk_start;
_ZN2nn2sf4cmif6client6detail13CmifProxyImplINS_7account4http15IOAuthProcedureENS2_19CmifDomainProxyKindINS0_4hipc6client38Hipc2ClientSessionManagedProxyKindBaseINSA_18Hipc2ProxyKindBaseILNS9_6detail11MessageTypeE6EEEEEEENS0_25StatelessAllocationPolicyINS0_22ExpHeapStaticAllocatorILm2048ENS5_6detail12ObjectHolder24ObjectHolderAllocatorTagEEEEENS5_3nas29IOAuthProcedureForExternalNsaENS3_19ProcessModifierImplINS2_21DefaultProxyFilterTagEEEE30_nn_sf_sync_ApplyResponseAsyncENS0_3OutINS0_13SharedPointerINSK_13IAsyncContextEEEvEERKNS0_7InArrayIcEE = 0x0000000000013030 + __sdk_start;
_ZN2nn7nlibsdk4heap10CachedHeap15ReleaseAllCacheEv = 0x00000000002edaf0 + __sdk_start;
_ZN2nn2sf4hipc6client18DuplicateSessionExEPNS_3svc6HandleES4_j = 0x00000000003717a0 + __sdk_start;
_ZTIN2nn2sf4cmif6client6detail9CmifProxyINS_7account4baas14IAdministratorENS2_19CmifDomainProxyKindINS0_4hipc6client38Hipc2ClientSessionManagedProxyKindBaseINSA_18Hipc2ProxyKindBaseILNS9_6detail11MessageTypeE6EEEEEEENS0_25StatelessAllocationPolicyINS0_22ExpHeapStaticAllocatorILm2048ENS5_6detail12ObjectHolder24ObjectHolderAllocatorTagEEEEENS3_19ProcessModifierImplINS2_21DefaultProxyFilterTagEEEvEE = 0x0000000000c0e9b0 + __sdk_start;
_ZN2nn2ec24ShowShopSubscriptionListENS_13ApplicationIdERKNS_7account10UserHandleE = 0x000000000014f4e0 + __sdk_start;
_ZN2nn2fs6detail18IsSaveDataExistingEPbNS_3ncm13ApplicationIdERKNS0_6UserIdE = 0x00000000001e8f50 + __sdk_start;
_ZN2nn6socket6detail10InitializeEPvmmi = 0x00000000003806b0 + __sdk_start;
_ZNSt12domain_errorD1Ev = 0x0000000000506318 + __sdk_start;
nncodecLibopus_celt_preemphasis = 0x00000000000a0df0 + __sdk_start;
_ZN2nn2fs6detail28EnableSessionForRealtimeOnlyEv = 0x00000000001c9f80 + __sdk_start;
_ZN2nn6socket8SendMMsgEiP7mmsghdrmi = 0x000000000037bfb0 + __sdk_start;
_ZNSt3__119__shared_mutex_base15try_lock_sharedEv = 0x00000000004e4a98 + __sdk_start;
_ZN2nn6crypto6detail6BigNum6ModExpEPjPKjS5_iS5_iPNS2_14DigitAllocatorE = 0x0000000000139510 + __sdk_start;
_ZN2nn2fs6detail22LruFileDataCacheSystem39ReserveFreePagesBySinglePageReservationEPNS0_8IStorageElm = 0x00000000001fbff0 + __sdk_start;
nndetailImagePng_png_do_invert = 0x000000000028eb70 + __sdk_start;
_ZN2nn8irsensor6detail7SessionD1Ev = 0x00000000002a6cb0 + __sdk_start;
_ZN2nn3mii6detail12StoreDataRaw11SetEyebrowYEi = 0x00000000002fa4e0 + __sdk_start;
_ZTIN2nn2sf6detail38ObjectImplFactoryWithStatefulAllocatorINS0_4cmif6client6detail9CmifProxyINS_4npns21INotificationReceiverENS0_4hipc6client18Hipc2ProxyKindBaseILNS9_6detail11MessageTypeE6EEENS0_30MemoryResourceAllocationPolicyENS5_19ProcessModifierImplINS4_21DefaultProxyFilterTagEEEvEESF_E6ObjectE = 0x0000000000c2d0a8 + __sdk_start;
_ZN2nn2sf4hipc6client24Hipc2ClientCoreProcessorILNS1_6detail11MessageTypeE6ENS0_4cmif6detail14CoreMethodInfoINSt3__15tupleIJNS7_21OutObjectArgumentInfoILi0ELi0EEENS7_17InRawArgumentInfoILm4ELm4ELl8EEENSD_ILm8ELm1ELl0EEEEEELm12ELm0ELb0EEESG_E21ProcessWithOutObjectsEPNS2_26Hipc2ClientProxyBaseObjectENS6_6client27OutObjectClientArgumentTypeENSL_23InRawClientArgumentTypeILm4ELm4EvEENSN_ILm8ELm1EvEEjPNS0_13SharedPointerINS0_14IServiceObjectEEE = 0x00000000003bdb80 + __sdk_start;
_ZN2nn2sf4cmif6client34CmifDomainProxyClientCoreProcessorINS0_4hipc6client38Hipc2ClientSessionManagedProxyKindBaseINS5_18Hipc2ProxyKindBaseILNS4_6detail11MessageTypeE6EEEEENS1_6detail14CoreMethodInfoINSt3__15tupleIJNSC_18BufferArgumentInfoILi0ELi6ELm0EEENSC_17InRawArgumentInfoILm8ELm8ELl8EEENSI_ILm4ELm4ELl0EEEEEELm16ELm0ELb0EEESL_E7ProcessEPNS2_23CmifDomainClientMessageISB_E15ProxyBaseObjectENS2_24BufferClientArgumentTypeENS2_23InRawClientArgumentTypeILm8ELm8EvEENST_ILm4ELm4EvEEj = 0x00000000001d7de0 + __sdk_start;
_ZN2nn2sf4cmif6client6detail13CmifProxyImplINS_3hid10IHidServerENS0_4hipc6client18Hipc2ProxyKindBaseILNS7_6detail11MessageTypeE6EEENS0_30MemoryResourceAllocationPolicyES6_NS3_19ProcessModifierImplINS2_21DefaultProxyFilterTagEEEE25_nn_sf_sync_ReadPalmaStepENS5_21PalmaConnectionHandleE = 0x0000000000229980 + __sdk_start;
_ZThn32_N2nn2sf4cmif6client6detail13CmifProxyImplINS_2am7service17IWindowControllerENS2_19CmifDomainProxyKindINS0_4hipc6client38Hipc2ClientSessionManagedProxyKindBaseINSA_18Hipc2ProxyKindBaseILNS9_6detail11MessageTypeE6EEEEEEENS0_30MemoryResourceAllocationPolicyES7_NS3_19ProcessModifierImplINS2_21DefaultProxyFilterTagEEEE17GetCmifBaseObjectEv = 0x0000000000026920 + __sdk_start;
getchar = 0x0000000000550bc8 + __sdk_start;
_ZN2nn2fs6detail22LruFileDataCacheSystem10InitializeEPvm = 0x00000000001fa0e0 + __sdk_start;
_ZNK2nn2os6detail29MultiWaitHolderOfNativeHandle15GetNativeHandleEPj = 0x0000000000340910 + __sdk_start;
_ZNSt3__124__libcpp_debug_exceptionC1ERKNS_19__libcpp_debug_infoE = 0x00000000004a1ec0 + __sdk_start;
_ZN2nn6applet29BeginAutoSleepDisabledSectionEv = 0x000000000003c8d0 + __sdk_start;
_ZN2nn5codec11imdct_blockEPNS0_6mdct_tEPiS3_PKsiiiPK8FIXP_SPKiS8_ii = 0x0000000000103010 + __sdk_start;
_ZN2nn3hid6system6detail25FinalizeUsbFirmwareUpdateEv = 0x000000000021e8c0 + __sdk_start;
_ZN2nn2ro6detail36g_pLookupGlobalManualFunctionPointerE = 0x0000000000ce3e40 + __sdk_start;
_ZN2nn6socket8resolver14CreateRandomIdERi = 0x0000000000393770 + __sdk_start;
_ZN2nn4util6detail16IntrusiveDicImpl8MoveIterEPKNS0_16IntrusiveDicNodeEi = 0x00000000003ac100 + __sdk_start;
_ZTIN2nn7account4baas12IManagerBaseE = 0x0000000000c0d630 + __sdk_start;
_ZN2nn5audio22AudioRendererParameter17MixBufferCountMaxE = 0x0000000000a3b480 + __sdk_start;
_ZTSN2nn5audio6detail16IAudioOutManagerE = 0x0000000000a40442 + __sdk_start;
_ZN2nn5codec13IcsReadMaxSfbEPNS0_13FDK_BITSTREAMEPNS0_8CIcsInfoEPKNS0_16SamplingRateInfoE = 0x00000000000f1e70 + __sdk_start;
_ZN2nn2ec31BeginProvidableRightDataInquiryEPNS0_19ShopServiceAccessor13AsyncResponseERKNS_7account3UidEPKNS0_30ConsumableServiceItemRightDataEiPS1_PNS_3mem17StandardAllocatorE = 0x0000000000149be0 + __sdk_start;
_ZN2nn2sf4cmif6client6detail13CmifProxyImplINS_5visrv2sf22IManagerDisplayServiceENS0_4hipc6client18Hipc2ProxyKindBaseILNS8_6detail11MessageTypeE6EEENS0_30MemoryResourceAllocationPolicyES7_NS3_19ProcessModifierImplINS2_21DefaultProxyFilterTagEEEE48_nn_sf_sync_SetDetachedSharedFrameBufferSubImageENS_2vi7fbshare18SharedBufferHandleEliiiijRKNS0_8InBufferERKNSK_19SharedTextureOptionEj = 0x00000000003bbc70 + __sdk_start;
_ZN2nn5audio6detail25ApplyI3dl2ReverbEffect1chEPNS0_16I3dl2ReverbStateEPPKiPPii = 0x0000000000075b20 + __sdk_start;
nnmem_nlib_semaphore_trywait_for = 0x00000000002e0170 + __sdk_start;
_ZN2nn2vi6detail22ServiceReferenceHolder21GetApplicationServiceEPNS_2sf13SharedPointerINS_5visrv2sf26IApplicationDisplayServiceEEE = 0x00000000003c3050 + __sdk_start;
_ZN2nn3ssl10Connection16SetNextAlpnProtoEPKhj = 0x00000000003965e0 + __sdk_start;
_ZNSt3__16futureIvEC2EPNS_17__assoc_sub_stateE = 0x00000000004a4650 + __sdk_start;
_ZN2nn2fs4save12SaveDataFileC2ERNS_2os17SdkRecursiveMutexE = 0x00000000001c1730 + __sdk_start;
_ZN2nn2sf4cmif6client6detail13CmifProxyImplINS_3hid16IHidSystemServerENS0_4hipc6client18Hipc2ProxyKindBaseILNS7_6detail11MessageTypeE6EEENS0_30MemoryResourceAllocationPolicyES6_NS3_19ProcessModifierImplINS2_21DefaultProxyFilterTagEEEE57_nn_sf_sync_RetryCurrentAnalogStickManualCalibrationStageENS5_6system11UniquePadIdEl = 0x0000000000231cf0 + __sdk_start;
_ZN2nn6socket8resolver10serializer13DNSSerializer6SizeOfINS0_7HostEntEEEmRKT_ = 0x000000000037e3c0 + __sdk_start;
_ZTSN2nn2sf4cmif6client6detail9CmifProxyINS_2am7service18ICommonStateGetterENS2_19CmifDomainProxyKindINS0_4hipc6client38Hipc2ClientSessionManagedProxyKindBaseINSA_18Hipc2ProxyKindBaseILNS9_6detail11MessageTypeE6EEEEEEENS0_30MemoryResourceAllocationPolicyENS3_19ProcessModifierImplINS2_21DefaultProxyFilterTagEEEvEE = 0x0000000000a3027d + __sdk_start;
_ZN2nn4lmem30SetExpHeapUseMarginOfAlignmentEPNS0_6detail8HeapHeadEb = 0x00000000002c89e0 + __sdk_start;
_ZNK2nn2sf13SharedPointerINS_5visrv2sf26IApplicationDisplayServiceEE19FunctionForBoolTypeEv = 0x00000000003be1c0 + __sdk_start;
_ZNK2nn3mii8Database14IsFullDatabaseEv = 0x0000000000302d40 + __sdk_start;
ffsl = 0x000000000054b810 + __sdk_start;
_ZN2nn2sf4cmif6client34CmifDomainProxyClientCoreProcessorINS0_4hipc6client38Hipc2ClientSessionManagedProxyKindBaseINS5_18Hipc2ProxyKindBaseILNS4_6detail11MessageTypeE6EEEEENS1_6detail14CoreMethodInfoINSt3__15tupleIJNSC_18BufferArgumentInfoILi0ELi26ELm4096EEEEEELm0ELm0ELb0EEESI_E7ProcessEPNS2_23CmifDomainClientMessageISB_E15ProxyBaseObjectENS2_24BufferClientArgumentTypeEj = 0x0000000000012490 + __sdk_start;
_ZN2nn2fs40ListApplicationAccessibleSaveDataOwnerIdEPiPNS_3ncm13ApplicationIdES3_iii = 0x00000000001efea0 + __sdk_start;
_ZN2nn8settings6detail16GetPtmBatteryLotEPNS0_10BatteryLotE = 0x00000000003642a0 + __sdk_start;
_ZTSN2nn2am7service15IAppletAccessorE = 0x0000000000a33b59 + __sdk_start;
_ZN2nn3hid27EnableControlPadRestrictionERKNS_4util10BitFlagSetILi32ENS0_12NpadStyleTagEEEb = 0x00000000002145c0 + __sdk_start;
_ZN2nn8settings6detail17GetHomeMenuSchemeEPNS0_6system14HomeMenuSchemeE = 0x00000000003629e0 + __sdk_start;
_ZN2nn2sf4cmif6client6detail13CmifProxyImplINS_8settings22IFactorySettingsServerENS0_4hipc6client18Hipc2ProxyKindBaseILNS7_6detail11MessageTypeE6EEENS0_30MemoryResourceAllocationPolicyES6_NS3_19ProcessModifierImplINS2_21DefaultProxyFilterTagEEEE33_nn_sf_sync_GetBluetoothBdAddressENS0_3OutINS5_7factory9BdAddressEvEE = 0x0000000000367db0 + __sdk_start;
_ZN2nn3hid21IsSixAxisSensorAtRestERKNS0_19SixAxisSensorHandleE = 0x0000000000216890 + __sdk_start;
_ZN2nn7nlibsdk17VsnPrintfFallbackEPwmPKwSt9__va_list = 0x00000000002d7470 + __sdk_start;
_ZNSt3__19basic_iosIcNS_11char_traitsIcEEED1Ev = 0x00000000004a5938 + __sdk_start;
_ZN2nn3mii6detail12StoreDataRaw12SetEyeRotateEi = 0x00000000002fa450 + __sdk_start;
_ZN2nn4util8Color4u811ConstantRedE = 0x0000000000ab9e64 + __sdk_start;
_ZN2nn2sf13SharedPointerINS_3hid15IHidDebugServerEED2Ev = 0x000000000022d6c0 + __sdk_start;
_ZN2nn3hid6system6detail23GetNpadFullKeyGripColorEPNS_4util8Unorm8x4ES5_RKj = 0x00000000002206e0 + __sdk_start;
_ZN2nn3hid6system6detail23InitializeCaptureButtonEv = 0x00000000002260a0 + __sdk_start;
_ZN7android16SortedVectorImplD2Ev = 0x00000000004515e0 + __sdk_start;
__atomic_store = 0x0000000000514b70 + __sdk_start;
nndetailRoGetRoDataEnd = 0x00000000000003d0 + __sdk_start;
gcvt = 0x0000000000553120 + __sdk_start;
_ZTIN2nn7account6detail24SimpleOAuthProcedureBaseE = 0x0000000000c0d058 + __sdk_start;
_ZN2nn5audio6server16CommandGenerator33GenerateCircularBufferSinkCommandEiPNS1_12SinkInfoBaseE = 0x0000000000060f60 + __sdk_start;
_ZTIN2nn5fssrv2sf27ISaveDataTransferProhibiterE = 0x0000000000c21c88 + __sdk_start;
_ZN2nn2fs6detail21SaveDataChunkImporterD0Ev = 0x00000000001f8260 + __sdk_start;
_ZN2nn3hid19GetTouchScreenStateILm16EEEvPNS0_16TouchScreenStateIXT_EEE = 0x0000000000216e40 + __sdk_start;
_ZN2nn2sf4cmif6client6detail13CmifProxyImplINS_3hid10IHidServerENS0_4hipc6client18Hipc2ProxyKindBaseILNS7_6detail11MessageTypeE6EEENS0_30MemoryResourceAllocationPolicyES6_NS3_19ProcessModifierImplINS2_21DefaultProxyFilterTagEEEE33_nn_sf_sync_IsSixAxisSensorAtRestENS0_3OutIbvEENS_6applet20AppletResourceUserIdENS5_19SixAxisSensorHandleE = 0x0000000000228e10 + __sdk_start;
_ZN7android16SortedVectorImpl5mergeERKS0_ = 0x0000000000452f00 + __sdk_start;
_ZN2nn2sf6detail38ObjectImplFactoryWithStatefulAllocatorINS0_4cmif6client6detail9CmifProxyINS_2am7service21ILibraryAppletCreatorENS4_19CmifDomainProxyKindINS0_4hipc6client38Hipc2ClientSessionManagedProxyKindBaseINSC_18Hipc2ProxyKindBaseILNSB_6detail11MessageTypeE6EEEEEEENS0_30MemoryResourceAllocationPolicyENS5_19ProcessModifierImplINS4_21DefaultProxyFilterTagEEEvEESK_E6Object12AddReferenceEv = 0x00000000000297e0 + __sdk_start;
_ZN2nn2fs24HierarchicalRomFileTable17GetDirectoryEntryEPjPNS1_17DirectoryRomEntryERKNS1_8EntryKeyE = 0x00000000001aa360 + __sdk_start;
_ZN2nn5audio3dsp21GetRemainCommandCountEi = 0x0000000000070c70 + __sdk_start;
silk_LTP_vq_gain_ptrs_Q7 = 0x0000000000c1c410 + __sdk_start;
_ZN2nn4pctl6detail16ConvertNpnsErrorENS_6ResultE = 0x0000000000348100 + __sdk_start;
_ZN2nn2sf4cmif6client34CmifDomainProxyClientCoreProcessorINS0_4hipc6client38Hipc2ClientSessionManagedProxyKindBaseINS5_18Hipc2ProxyKindBaseILNS4_6detail11MessageTypeE6EEEEENS1_6detail14CoreMethodInfoINSt3__15tupleIJNSC_17InRawArgumentInfoILm56ELm8ELl0EEENSC_18BufferArgumentInfoILi0ELi25ELm128EEENSI_ILi1ELi5ELm0EEEEEELm56ELm0ELb0EEESL_E7ProcessEPNS2_23CmifDomainClientMessageISB_E15ProxyBaseObjectENS2_23InRawClientArgumentTypeILm56ELm8EvEENS2_24BufferClientArgumentTypeESU_j = 0x000000000000f290 + __sdk_start;
_ZTIN2nn2sf4cmif6client6detail9CmifProxyINS_2am7service17IApplicationProxyENS2_19CmifDomainProxyKindINS0_4hipc6client38Hipc2ClientSessionManagedProxyKindBaseINSA_18Hipc2ProxyKindBaseILNS9_6detail11MessageTypeE6EEEEEEENS0_30MemoryResourceAllocationPolicyENS3_19ProcessModifierImplINS2_21DefaultProxyFilterTagEEEvEE = 0x0000000000c15fa8 + __sdk_start;
_ZN2nn5codec9schur_divEiii = 0x0000000000101fa0 + __sdk_start;
FDKceil = 0x0000000000131e70 + __sdk_start;
_ZTVN2nn2fs6detail21SaveDataChunkExporterE = 0x0000000000c230d8 + __sdk_start;
_ZN2nn2sf4cmif6client6detail13CmifProxyImplINS_3hid15IHidDebugServerENS0_4hipc6client18Hipc2ProxyKindBaseILNS7_6detail11MessageTypeE6EEENS0_30MemoryResourceAllocationPolicyES6_NS3_19ProcessModifierImplINS2_21DefaultProxyFilterTagEEEE40_nn_sf_sync_SetTouchScreenAutoPilotStateERKNS0_7InArrayINS5_10TouchStateEEE = 0x000000000022d830 + __sdk_start;
_ZN2nn2sf6detail38ObjectImplFactoryWithStatefulAllocatorINS0_4cmif6client6detail9CmifProxyINS_6hidbus19IHidbusSystemServerENS0_4hipc6client18Hipc2ProxyKindBaseILNS9_6detail11MessageTypeE6EEENS0_30MemoryResourceAllocationPolicyENS5_19ProcessModifierImplINS4_21DefaultProxyFilterTagEEEvEESF_E6Object12AddReferenceEv = 0x0000000000234380 + __sdk_start;
_ZNK2nn3mii12AppletOutput22GetUpdateMiiImageIndexEv = 0x0000000000307730 + __sdk_start;
_ZN2nn2sf4hipc6client34HipcSimpleClientSessionManagerBaseINS2_29DefaultSessionResourceManagerEE4Impl18InitializeByHandleINS_4pctl6detail3ipc30IParentalControlServiceFactoryENS0_30MemoryResourceAllocationPolicyENS0_4cmif6client6detail19ProcessModifierImplINSE_21DefaultProxyFilterTagEEEEENS_6ResultEPNS0_13SharedPointerIT_EEPNT0_9AllocatorENS_3svc6HandleE = 0x0000000000348a90 + __sdk_start;
nvgr_set_video_metadata = 0x0000000000403c20 + __sdk_start;
_ZNKSt3__120__time_get_c_storageIwE7__am_pmEv = 0x00000000004d9350 + __sdk_start;
_ZN2nn2sf4cmif6client6detail13CmifProxyImplINS_7account4baas24IManagerForSystemServiceENS2_19CmifDomainProxyKindINS0_4hipc6client38Hipc2ClientSessionManagedProxyKindBaseINSA_18Hipc2ProxyKindBaseILNS9_6detail11MessageTypeE6EEEEEEENS0_25StatelessAllocationPolicyINS0_22ExpHeapStaticAllocatorILm2048ENS5_6detail12ObjectHolder24ObjectHolderAllocatorTagEEEEENS6_14IAdministratorENS3_19ProcessModifierImplINS2_21DefaultProxyFilterTagEEEE38_nn_sf_sync_CreateAuthorizationRequestENS0_3OutINS0_13SharedPointerINS5_3nas21IAuthorizationRequestEEEvEERKNSW_13NasClientInfoERKNS5_45NintendoAccountAuthorizationRequestParametersEONS0_12NativeHandleEj = 0x0000000000010e70 + __sdk_start;
_ZN2nn2sf4cmif6client6detail13CmifProxyImplINS_2am7service16IAudioControllerENS2_19CmifDomainProxyKindINS0_4hipc6client38Hipc2ClientSessionManagedProxyKindBaseINSA_18Hipc2ProxyKindBaseILNS9_6detail11MessageTypeE6EEEEEEENS0_30MemoryResourceAllocationPolicyES7_NS3_19ProcessModifierImplINS2_21DefaultProxyFilterTagEEEE40_nn_sf_sync_ChangeMainAppletMasterVolumeEfl = 0x0000000000026c20 + __sdk_start;
_ZN2nn2sf4cmif6client6detail13CmifProxyImplINS_3hid16IHidSystemServerENS0_4hipc6client18Hipc2ProxyKindBaseILNS7_6detail11MessageTypeE6EEENS0_30MemoryResourceAllocationPolicyES6_NS3_19ProcessModifierImplINS2_21DefaultProxyFilterTagEEEE33_nn_sf_sync_GetUniquePadsFromNpadENS0_3OutIlvEERKNS0_8OutArrayINS5_6system11UniquePadIdEEEj = 0x0000000000231580 + __sdk_start;
_ZN2nn5srepo6detail15ReportGenerator11AddKeyValueEPmPKcfPhmmm = 0x000000000034eda0 + __sdk_start;
_ZN2nn3hid6system20GetNpadInterfaceTypeERKj = 0x0000000000224460 + __sdk_start;
_ZN2nn2sf4cmif6client6detail13CmifProxyImplINS_4pctl6detail3ipc23IParentalControlServiceENS2_19CmifDomainProxyKindINS0_4hipc6client38Hipc2ClientSessionManagedProxyKindBaseINSB_18Hipc2ProxyKindBaseILNSA_6detail11MessageTypeE6EEEEEEENS0_30MemoryResourceAllocationPolicyES8_NS3_19ProcessModifierImplINS2_21DefaultProxyFilterTagEEEE22_nn_sf_sync_InitializeEv = 0x0000000000348eb0 + __sdk_start;
__nnmusl_TimerDelete = 0x000000000055c0f0 + __sdk_start;
_ZTIN2nn2sf4cmif6client6detail13CmifProxyImplINS_7account6detail9INotifierENS2_19CmifDomainProxyKindINS0_4hipc6client38Hipc2ClientSessionManagedProxyKindBaseINSA_18Hipc2ProxyKindBaseILNS9_6detail11MessageTypeE6EEEEEEENS0_25StatelessAllocationPolicyINS0_22ExpHeapStaticAllocatorILm2048ENS6_12ObjectHolder24ObjectHolderAllocatorTagEEEEES7_NS3_19ProcessModifierImplINS2_21DefaultProxyFilterTagEEEEE = 0x0000000000c0de40 + __sdk_start;
_ZN2nn2fs25SetVerifyWriteEnalbleFlagEb = 0x00000000001de250 + __sdk_start;
_ZN2nn2sf4cmif6client6detail13CmifProxyImplINS_4npns9INpnsUserENS0_4hipc6client18Hipc2ProxyKindBaseILNS7_6detail11MessageTypeE6EEENS0_30MemoryResourceAllocationPolicyENS5_11INpnsSystemENS3_19ProcessModifierImplINS2_21DefaultProxyFilterTagEEEE20_nn_sf_sync_ListenToENS_13ApplicationIdE = 0x0000000000330ef0 + __sdk_start;
_ZN2nn2sf4cmif6client6detail13CmifProxyImplINS_4pctl6detail3ipc23IParentalControlServiceENS2_19CmifDomainProxyKindINS0_4hipc6client38Hipc2ClientSessionManagedProxyKindBaseINSB_18Hipc2ProxyKindBaseILNSA_6detail11MessageTypeE6EEEEEEENS0_30MemoryResourceAllocationPolicyES8_NS3_19ProcessModifierImplINS2_21DefaultProxyFilterTagEEEE46_nn_sf_sync_ConfirmLaunchApplicationPermissionENS_3ncm13ApplicationIdERKNS0_7InArrayIaEEb = 0x0000000000348ef0 + __sdk_start;
NvOsMutexUnlock = 0x00000000003d7ea0 + __sdk_start;
_ZN2nn5codec21transportDec_SetParamEPNS0_12TRANSPORTDECENS0_11TPDEC_PARAMEi = 0x000000000010e6e0 + __sdk_start;
_ZN2nn4util14CopyUtf8StringEPcmPKcmi = 0x00000000003b10a0 + __sdk_start;
_ZN2nn2sf4cmif6client6detail13CmifProxyImplINS_4npns11INpnsSystemENS0_4hipc6client18Hipc2ProxyKindBaseILNS7_6detail11MessageTypeE6EEENS0_30MemoryResourceAllocationPolicyES6_NS3_19ProcessModifierImplINS2_21DefaultProxyFilterTagEEEE21_nn_sf_sync_AttachJidERKNS0_7InArrayIcEESL_ = 0x00000000003313d0 + __sdk_start;
_ZN2nn3nsd35SetApplicationServerEnvironmentTypeENS_2oe21ServerEnvironmentTypeE = 0x0000000000332170 + __sdk_start;
_ZN2nn4pctl23GetSynchronizationEventEv = 0x0000000000347240 + __sdk_start;
_ZNK7android6Parcel17readExceptionCodeEv = 0x0000000000423a50 + __sdk_start;
_ZN2nn7account6detail18OAuthProcedureBaseC1Ev = 0x0000000000000f70 + __sdk_start;
_ZTIN2nn2sf4cmif6client6detail13CmifProxyImplINS_4bcat6detail3ipc30IDeliveryCacheDirectoryServiceENS2_19CmifDomainProxyKindINS0_4hipc6client38Hipc2ClientSessionManagedProxyKindBaseINSB_18Hipc2ProxyKindBaseILNSA_6detail11MessageTypeE6EEEEEEENS0_30MemoryResourceAllocationPolicyES8_NS3_19ProcessModifierImplINS2_21DefaultProxyFilterTagEEEEE = 0x0000000000c1a888 + __sdk_start;
_ZN2nn6crypto6detail9GhashImpl7GfMultHEPNS2_5BlockE = 0x0000000000143df0 + __sdk_start;
_ZN2nn2fs6detail21LogResultErrorMessageENS_6ResultE = 0x00000000001af650 + __sdk_start;
_ZN2nn4util10BitFlagSetILi256ENS_3hid11KeyboardKeyEE4FlagILi7EE4MaskE = 0x0000000000a715f8 + __sdk_start;
_ZN2nn3mii6detail12StoreDataRaw9SetMouthYEi = 0x00000000002fa560 + __sdk_start;
_ZN2nn3web19ShowYouTubeVideoArgC2Ev = 0x00000000003c9ae0 + __sdk_start;
_ZN2nn2sf4cmif6client6detail13CmifProxyImplINS_2am7service26ILibraryAppletSelfAccessorENS2_19CmifDomainProxyKindINS0_4hipc6client38Hipc2ClientSessionManagedProxyKindBaseINSA_18Hipc2ProxyKindBaseILNS9_6detail11MessageTypeE6EEEEEEENS0_30MemoryResourceAllocationPolicyES7_NS3_19ProcessModifierImplINS2_21DefaultProxyFilterTagEEEE46_nn_sf_sync_UnreserveResourceForMovieOperationEv = 0x000000000002d170 + __sdk_start;
nnmem_nlib_rwlock_rdlock = 0x00000000002cb940 + __sdk_start;
_ZN2nn2oe18GetPerformanceModeEv = 0x0000000000336ea0 + __sdk_start;
_ZN2nn6socket6detail6AcceptEiP8sockaddrPj = 0x0000000000382910 + __sdk_start;
_ZZN2nn2sf31SimpleAllInOneHipcClientManagerILm17EE27InitializeShimLibraryHolderINS_6aocsrv6detail20IAddOnContentManagerENS0_4cmif6client6detail19ProcessModifierImplINS8_21DefaultProxyFilterTagEEEEENS_6ResultEPNS0_23ShimLibraryObjectHolderIT_EEPKcPNS_14MemoryResourceEENUlPvE_8__invokeESM_ = 0x0000000000037170 + __sdk_start;
_ZN2nn5audio6server14EffectInfoBase14GetStateBufferEv = 0x0000000000066230 + __sdk_start;
_ZN2nn3hid20GetTouchScreenStatesILm15EEEiPNS0_16TouchScreenStateIXT_EEEi = 0x00000000002173d0 + __sdk_start;
csinf = 0x0000000000533178 + __sdk_start;
_ZN2nn2fs15MountSystemDataEPKcNS_3ncm12SystemDataIdE = 0x00000000001f47c0 + __sdk_start;
nvgr_read_event_counter = 0x0000000000404000 + __sdk_start;
nncodecLibopus_opus_repacketizer_out_range = 0x00000000000d6b50 + __sdk_start;
_ZN2nn2sf4cmif6client6detail13CmifProxyImplINS_7friends6detail3ipc14IFriendServiceENS2_19CmifDomainProxyKindINS0_4hipc6client38Hipc2ClientSessionManagedProxyKindBaseINSB_18Hipc2ProxyKindBaseILNSA_6detail11MessageTypeE6EEEEEEENS0_30MemoryResourceAllocationPolicyES8_NS3_19ProcessModifierImplINS2_21DefaultProxyFilterTagEEEE28_nn_sf_sync_GetFriendListIdsENS0_3OutIivEERKNS0_8OutArrayINS_7account23NetworkServiceAccountIdEEERKNSR_3UidEiRKNS7_17SizedFriendFilterEm = 0x00000000001a0eb0 + __sdk_start;
_ZTSN2nn3nfp6detail6IDebugE = 0x0000000000aaa4ae + __sdk_start;
_ZNSt3__16locale7numericE = 0x0000000000ac729c + __sdk_start;
_ZNSt3__119piecewise_constructE = 0x0000000000ac8300 + __sdk_start;
csinh = 0x00000000005331a8 + __sdk_start;
_ZN2nn2sf6detail38ObjectImplFactoryWithStatefulAllocatorINS0_4cmif6client6detail9CmifProxyINS_2am7service22ILibraryAppletAccessorENS4_19CmifDomainProxyKindINS0_4hipc6client38Hipc2ClientSessionManagedProxyKindBaseINSC_18Hipc2ProxyKindBaseILNSB_6detail11MessageTypeE6EEEEEEENS0_30MemoryResourceAllocationPolicyENS5_19ProcessModifierImplINS4_21DefaultProxyFilterTagEEEvEESK_E6Object12AddReferenceEv = 0x0000000000029110 + __sdk_start;
_ZN2nn5audio6server24AudioRendererManagerImpl15AudioDeviceImpl27QueryAudioDeviceSystemEventENS_2sf3OutINS4_12NativeHandleEvEE = 0x000000000006ca70 + __sdk_start;
_ZN2nn8settings22GetDebugPadKeyboardMapEPNS0_19DebugPadKeyboardMapE = 0x000000000035aa50 + __sdk_start;
_ZN2nn4util6detail7msgpack14WriteExtensionEPNS0_17MessagePackWriter11StreamParamEaPKvj = 0x00000000003aeba0 + __sdk_start;
_ZN7android13GraphicBufferC2EjjijjP13native_handleb = 0x0000000000447c90 + __sdk_start;
_ZN2nn2sf4hipc6client24Hipc2ClientCoreProcessorILNS1_6detail11MessageTypeE6ENS0_4cmif6detail14CoreMethodInfoINSt3__15tupleIJNS7_18OutRawArgumentInfoILm8ELm1ELl0EEEEEELm0ELm8ELb0EEESD_E7ProcessEPNS2_26Hipc2ClientProxyBaseObjectENS6_6client24OutRawClientArgumentTypeILm8ELm1EEEj = 0x000000000036b160 + __sdk_start;
_ZN7android6Region3setEjj = 0x0000000000449ff0 + __sdk_start;
_ZN2nn2fs6detail21SaveDataChunkExporterD2Ev = 0x00000000001f77b0 + __sdk_start;
_ZN2nn3mii13ImageDatabase11ImageHeightE = 0x0000000000aa7a40 + __sdk_start;
nnsocketWrite = 0x000000000037c3a0 + __sdk_start;
NvRmGpuProfilerReserveHwpm = 0x0000000000404f50 + __sdk_start;
_ZN2nn2sf4cmif6client34CmifDomainProxyClientCoreProcessorINS0_4hipc6client38Hipc2ClientSessionManagedProxyKindBaseINS5_18Hipc2ProxyKindBaseILNS4_6detail11MessageTypeE6EEEEENS1_6detail14CoreMethodInfoINSt3__15tupleIJNSC_18OutRawArgumentInfoILm1ELm1ELl0EEENSG_ILm1ELm1ELl1EEEEEELm0ELm2ELb0EEESJ_E7ProcessEPNS2_23CmifDomainClientMessageISB_E15ProxyBaseObjectENS2_24OutRawClientArgumentTypeILm1ELm1EEESR_j = 0x000000000002e3a0 + __sdk_start;
_ZN2nn2sf13InterfaceInfoINS_5audio6detail14IAudioRendererEE4_tABINS5_5_tO2NINS2_6server24AudioRendererManagerImpl17AudioRendererImplEE4typeES4_E4type16_nn_sf_sync_StopEv = 0x000000000005c760 + __sdk_start;
csinl = 0x0000000000533718 + __sdk_start;
_ZN2nn2am20GetDisplayControllerEv = 0x000000000001e270 + __sdk_start;
_ZN2nn5audio6server38CommandProcessingTimeEstimatorVersion38EstimateERKNS0_12DelayCommandE = 0x00000000000632a0 + __sdk_start;
FDK_toolsGetLibInfo = 0x00000000000f9d70 + __sdk_start;
_ZN2nn2fs6detail18FileSystemAccessor26DeleteDirectoryRecursivelyEPKc = 0x00000000001b7650 + __sdk_start;
_ZN2nn4util37GetLengthOfConvertedStringUtf32ToUtf8EPiPKj = 0x00000000003b4570 + __sdk_start;
_ZTVNSt3__114collate_bynameIcEE = 0x0000000000c46118 + __sdk_start;
iswspace_l = 0x000000000053bd90 + __sdk_start;
_ZN2nn5audio14MemoryPoolInfo8FinalizeEv = 0x0000000000043a00 + __sdk_start;
_ZN2nn2fs6detail29DirectoryServiceObjectAdapterC2EONS_2sf13SharedPointerINS_5fssrv2sf10IDirectoryEEE = 0x00000000001dbc80 + __sdk_start;
_ZN2nn3hid15VibrationPlayerD0Ev = 0x0000000000219060 + __sdk_start;
_ZN2nn3hid6system18DeleteButtonConfigERKNS1_11UniquePadIdE = 0x0000000000222870 + __sdk_start;
nnmem_nlib_rwlock_tryrdlock = 0x00000000002cb9f0 + __sdk_start;
_ZTSN2nn2sf4cmif6client6detail13CmifProxyImplINS_7account4baas12IManagerBaseENS2_19CmifDomainProxyKindINS0_4hipc6client38Hipc2ClientSessionManagedProxyKindBaseINSA_18Hipc2ProxyKindBaseILNS9_6detail11MessageTypeE6EEEEEEENS0_25StatelessAllocationPolicyINS0_22ExpHeapStaticAllocatorILm2048ENS5_6detail12ObjectHolder24ObjectHolderAllocatorTagEEEEENS6_24IManagerForSystemServiceENS3_19ProcessModifierImplINS2_21DefaultProxyFilterTagEEEEE = 0x0000000000a2af22 + __sdk_start;
_ZN2nn2fs17RamDiskFileSystem12DoDeleteFileEPKc = 0x00000000001e4430 + __sdk_start;
_ZN2nn3hid6system20GetSleepButtonStatesEPNS1_16SleepButtonStateEi = 0x00000000002283f0 + __sdk_start;
_ZN2nn2os26GetThreadAvailableCoreMaskEv = 0x000000000033bfa0 + __sdk_start;
_ZN2nn4util23GetGzipDecompressedSizeEPKvm = 0x00000000003ab9e0 + __sdk_start;
_ZTv0_n24_N7android9BpRefBaseD1Ev = 0x0000000000419e80 + __sdk_start;
_ZN2nn2sf4cmif6client6detail13CmifProxyImplINS_8irsensor15IIrSensorServerENS0_4hipc6client18Hipc2ProxyKindBaseILNS7_6detail11MessageTypeE6EEENS0_25StatelessAllocationPolicyINS0_22ExpHeapStaticAllocatorILm16384ENS5_6detail14IrSensorServerEEEEES6_NS3_19ProcessModifierImplINS2_21DefaultProxyFilterTagEEEE42_nn_sf_sync_GetImageTransferProcessorStateENS_6applet20AppletResourceUserIdENS0_3OutINS5_27ImageTransferProcessorStateEvEERKNS0_9OutBufferENS5_14IrCameraHandleE = 0x00000000002ab830 + __sdk_start;
_ZN2nn3nfp6GetAllEPNS0_7NfpDataERKNS0_12DeviceHandleE = 0x000000000030f580 + __sdk_start;
_ZN2nn3ntc4shim31CorrectionNetworkClockAsyncTaskD1Ev = 0x00000000003a7cd0 + __sdk_start;
nvdcGetPhysicalSize = 0x00000000003cd900 + __sdk_start;
_ZNSt3__119__libcpp_mutex_lockEPNSt13__libcxx_shim19__libcxx_shim_ver_119__libcxx_shim_mutexE = 0x00000000004ef9d8 + __sdk_start;
_ZN2nn2fs6detail8IdString8ToStringINS0_11ContentTypeEEEPKcT_ = 0x00000000001a8150 + __sdk_start;
_ZN2nn4util6detail16IntrusiveDicImpl10FindParentEPKNS0_16IntrusiveDicNodeE = 0x00000000003ac1c0 + __sdk_start;
__nnmusl_errno_from_result = 0x00000000005588c8 + __sdk_start;
_ZZN2nn2sf40SimpleAllInOneHipcSubDomainClientManagerILm32EE27InitializeShimLibraryHolderINS_5codec6detail27IHardwareOpusDecoderManagerENS0_4cmif6client6detail19ProcessModifierImplINS8_21DefaultProxyFilterTagEEEEENS_6ResultEPNS0_23ShimLibraryObjectHolderIT_EEPKcPNS_14MemoryResourceEENUlPNS0_13SharedPointerIS6_EEE_clESO_ = 0x00000000000e02a0 + __sdk_start;
_ZN2nn3hid12GetNpadStateEPNS0_14NpadLuciaStateERKj = 0x0000000000215600 + __sdk_start;
_ZN2nn2sf4cmif6client6detail13CmifProxyImplINS_7account4baas14IAdministratorENS2_19CmifDomainProxyKindINS0_4hipc6client38Hipc2ClientSessionManagedProxyKindBaseINSA_18Hipc2ProxyKindBaseILNS9_6detail11MessageTypeE6EEEEEEENS0_25StatelessAllocationPolicyINS0_22ExpHeapStaticAllocatorILm2048ENS5_6detail12ObjectHolder24ObjectHolderAllocatorTagEEEEES7_NS3_19ProcessModifierImplINS2_21DefaultProxyFilterTagEEEE64_nn_sf_sync_CreateProcedureToUpdateLinkageStateOfNintendoAccountENS0_3OutINS0_13SharedPointerINS5_4http15IOAuthProcedureEEEvEE = 0x00000000000113c0 + __sdk_start;
_ZN2nn2sf4hipc6client24Hipc2ClientCoreProcessorILNS1_6detail11MessageTypeE6ENS0_4cmif6detail14CoreMethodInfoINSt3__15tupleIJNS7_17InRawArgumentInfoILm8ELm8ELl8EEENSB_ILm4ELm4ELl4EEENSB_ILm2ELm2ELl0EEEEEELm16ELm0ELb1EEESF_E7ProcessEPNS2_26Hipc2ClientProxyBaseObjectENS6_6client23InRawClientArgumentTypeILm8ELm8EvEENSL_ILm4ELm4EvEENSL_ILm2ELm2EvEEj = 0x0000000000094b50 + __sdk_start;
atanlo = 0x0000000000af6c50 + __sdk_start;
_ZN2nn3hid6detail28GetNpadOfHighestBatteryLevelEPjPKji = 0x0000000000207be0 + __sdk_start;
NvBlitForceFlag = 0x00000000003f5c20 + __sdk_start;
_ZNKSt12experimental15fundamentals_v112bad_any_cast4whatEv = 0x00000000004a1160 + __sdk_start;
_ZNKSt3__120__codecvt_utf8_utf16IDsE6do_outER11__mbstate_tPKDsS5_RS5_PcS7_RS7_ = 0x00000000004d7a88 + __sdk_start;
_ZN2nn5image6detail4jpeg11jpeg_aritabE = 0x0000000000a85ef4 + __sdk_start;
_ZN2nn2sf4cmif6client6detail13CmifProxyImplINS_4nifm6detail14IStaticServiceENS2_19CmifDomainProxyKindINS0_4hipc6client38Hipc2ClientSessionManagedProxyKindBaseINSA_18Hipc2ProxyKindBaseILNS9_6detail11MessageTypeE6EEEEEEENS0_30MemoryResourceAllocationPolicyES7_NS3_19ProcessModifierImplINS2_21DefaultProxyFilterTagEEEE17GetCmifBaseObjectEv = 0x0000000000325d90 + __sdk_start;
_ZN2nn2sf4cmif6client6detail13CmifProxyImplINS_4nifm6detail15IGeneralServiceENS2_19CmifDomainProxyKindINS0_4hipc6client38Hipc2ClientSessionManagedProxyKindBaseINSA_18Hipc2ProxyKindBaseILNS9_6detail11MessageTypeE6EEEEEEENS0_30MemoryResourceAllocationPolicyES7_NS3_19ProcessModifierImplINS2_21DefaultProxyFilterTagEEEE42_nn_sf_sync_IsEthernetCommunicationEnabledENS0_3OutIbvEE = 0x0000000000326380 + __sdk_start;
setLimiterAttack = 0x000000000010fff0 + __sdk_start;
fabsf = 0x0000000000541a60 + __sdk_start;
_ZTINSt3__114__codecvt_utf8IDsEE = 0x0000000000c46a68 + __sdk_start;
_ZNSt9bad_allocC2Ev = 0x00000000005062b8 + __sdk_start;
_ZN2nn4diag6detail11NotNullImplEm = 0x0000000000145c00 + __sdk_start;
pcmDmx_SetMatrixMixdownFromPce = 0x00000000001116a0 + __sdk_start;
_ZN2nn2sf6detail38ObjectImplFactoryWithStatefulAllocatorINS0_4cmif6client6detail9CmifProxyINS_3ngc1t6detail7IObjectENS0_4hipc6client18Hipc2ProxyKindBaseILNSB_6detail11MessageTypeE6EEENS0_30MemoryResourceAllocationPolicyENS5_19ProcessModifierImplINS4_21DefaultProxyFilterTagEEEvEESH_E6Object7ReleaseEv = 0x0000000000323d80 + __sdk_start;
_ZTINSt3__17num_putIcNS_19ostreambuf_iteratorIcNS_11char_traitsIcEEEEEE = 0x0000000000c47360 + __sdk_start;
_ZN2nn3hid6system6detail21GetUniquePadButtonSetEPNS_4util10BitFlagSetILi64ENS1_15UniquePadButtonEEERKNS1_11UniquePadIdE = 0x0000000000222280 + __sdk_start;
_ZTSN2nn2sf6detail19InterfaceInfoBottomINS0_14IServiceObjectEE4_tABINS0_13InterfaceInfoINS0_4hipc6detail12IHipcManagerEE5_tO2NINS7_6server34HipcServerSessionManagerWithDomain15HipcManagerImplEE4typeES9_E4typeE = 0x0000000000ab3a22 + __sdk_start;
silk_LTP_gain_middle_avg_RD_Q14 = 0x0000000000a53c76 + __sdk_start;
_ZN2nn2sf4cmif6client6detail13CmifProxyImplINS_8settings21ISystemSettingsServerENS0_4hipc6client18Hipc2ProxyKindBaseILNS7_6detail11MessageTypeE6EEENS0_30MemoryResourceAllocationPolicyES6_NS3_19ProcessModifierImplINS2_21DefaultProxyFilterTagEEEE51_nn_sf_sync_GetConsoleSixAxisSensorAccelerationBiasENS0_3OutINS5_6system36ConsoleSixAxisSensorAccelerationBiasEvEE = 0x000000000036cec0 + __sdk_start;
android_atomic_or = 0x0000000000429250 + __sdk_start;
aacDecoder_ConfigRaw = 0x00000000000ee7a0 + __sdk_start;
_ZN2nn3hid6system30UnregisterAppletResourceUserIdERKNS_6applet20AppletResourceUserIdE = 0x00000000002277d0 + __sdk_start;
_ZN3nne4nlib16NullOutputStreamD0Ev = 0x00000000003b5e70 + __sdk_start;
_ZNSt3__115numpunct_bynameIcEC1EPKcm = 0x00000000004d8038 + __sdk_start;
__ffsti2 = 0x0000000000511b28 + __sdk_start;
_ZN2nn2sf4hipc6client34HipcSimpleClientSessionManagerBaseINS2_29DefaultSessionResourceManagerEE4Impl10DeallocateENS_3svc6HandleE = 0x0000000000004d90 + __sdk_start;
_ZN2nn2sf4cmif6client6detail13CmifProxyImplINS_2am7service18IAppletProxyCommonENS2_19CmifDomainProxyKindINS0_4hipc6client38Hipc2ClientSessionManagedProxyKindBaseINSA_18Hipc2ProxyKindBaseILNS9_6detail11MessageTypeE6EEEEEEENS0_30MemoryResourceAllocationPolicyENS6_18ISystemAppletProxyENS3_19ProcessModifierImplINS2_21DefaultProxyFilterTagEEEE17GetCmifBaseObjectEv = 0x0000000000022ef0 + __sdk_start;
_ZN2nn5audio3dsp6detail14ResampleImplHQEPiPKsiS3_i = 0x000000000007b0b0 + __sdk_start;
_ZTIN2nn5codec30HardwareOpusMultiStreamDecoderE = 0x0000000000c1c5d8 + __sdk_start;
_ZNK2nn2fs6detail18FileSystemAccessor20GetSaveDataAttributeEPNS0_17SaveDataAttributeE = 0x00000000001b82a0 + __sdk_start;
_ZN2nn4npns14SubscribeTopicEPKc = 0x000000000032ef70 + __sdk_start;
_ZN2nn6socket8resolver10serializer13DNSSerializer8ToBufferI7in_addrEElPhmRKT_ = 0x000000000037eb20 + __sdk_start;
_ZN2nn7account25UserRegistrationProcedure4SwapERS1_ = 0x00000000000189b0 + __sdk_start;
fabsl = 0x0000000000545ab0 + __sdk_start;
_ZN2nn2sf4cmif6client6detail13CmifProxyImplINS_6hidbus19IHidbusSystemServerENS0_4hipc6client18Hipc2ProxyKindBaseILNS7_6detail11MessageTypeE6EEENS0_30MemoryResourceAllocationPolicyES6_NS3_19ProcessModifierImplINS2_21DefaultProxyFilterTagEEEE12GetProxyInfoEv = 0x0000000000234440 + __sdk_start;
_ZN2nn2sf4cmif6client6detail13CmifProxyImplINS_5visrv2sf21ISystemDisplayServiceENS0_4hipc6client18Hipc2ProxyKindBaseILNS8_6detail11MessageTypeE6EEENS0_30MemoryResourceAllocationPolicyES7_NS3_19ProcessModifierImplINS2_21DefaultProxyFilterTagEEEE29_nn_sf_sync_SetDisplayCmuLumaEmf = 0x00000000003ba180 + __sdk_start;
_ZNSt12length_errorD0Ev = 0x0000000000506578 + __sdk_start;
_ZN2nn2sf4cmif6client6detail13CmifProxyImplINS_7account4baas14IAdministratorENS2_19CmifDomainProxyKindINS0_4hipc6client38Hipc2ClientSessionManagedProxyKindBaseINSA_18Hipc2ProxyKindBaseILNS9_6detail11MessageTypeE6EEEEEEENS0_25StatelessAllocationPolicyINS0_22ExpHeapStaticAllocatorILm2048ENS5_6detail12ObjectHolder24ObjectHolderAllocatorTagEEEEES7_NS3_19ProcessModifierImplINS2_21DefaultProxyFilterTagEEEE70_nn_sf_sync_IsServiceEntryRequirementCacheRefreshRequiredForOnlinePlayENS0_3OutIbvEENS_13ApplicationIdE = 0x0000000000011780 + __sdk_start;
_ZN2nn2sf4cmif6client6detail13CmifProxyImplINS_8settings21ISystemSettingsServerENS0_4hipc6client18Hipc2ProxyKindBaseILNS7_6detail11MessageTypeE6EEENS0_30MemoryResourceAllocationPolicyES6_NS3_19ProcessModifierImplINS2_21DefaultProxyFilterTagEEEE25_nn_sf_sync_SetRegionCodeEi = 0x000000000036c440 + __sdk_start;
nvdcEnableVblank = 0x00000000003ccb30 + __sdk_start;
_ZN2nn4htcs10FdSetIsSetEiPKNS0_5FdSetE = 0x0000000000244ca0 + __sdk_start;
_ZN2nn3mii6detail16Ver3StoreDataRaw7SetNameERKNS0_8NicknameE = 0x0000000000300d10 + __sdk_start;
_ZN2nn2sf4hipc6client24Hipc2ClientCoreProcessorILNS1_6detail11MessageTypeE6ENS0_4cmif6detail14CoreMethodInfoINSt3__15tupleIJNS7_18BufferArgumentInfoILi0ELi22ELm4096EEEEEELm0ELm0ELb0EEESD_E7ProcessEPNS2_26Hipc2ClientProxyBaseObjectENS6_6client24BufferClientArgumentTypeEj = 0x000000000036b530 + __sdk_start;
_ZN2nn3web17OfflineWebSession24TryReceiveContentMessageEPmPcm = 0x00000000003c8830 + __sdk_start;
_ZNSt3__112basic_stringIwNS_11char_traitsIwEENS_9allocatorIwEEE6insertEmmw = 0x00000000004e8a58 + __sdk_start;
__towupper_l = 0x000000000053c230 + __sdk_start;
nncodecLibopus_opus_encoder_init = 0x00000000000d0780 + __sdk_start;
_ZTSN2nn3nsd6detail8IManagerE = 0x0000000000aafa11 + __sdk_start;
_ZN2nn8settings12LanguageCode18ChineseTraditionalEv = 0x000000000035be00 + __sdk_start;
_ZN7android6Parcel4BlobC1Ev = 0x0000000000424870 + __sdk_start;
_ZNKSt3__120__codecvt_utf8_utf16IDsE16do_always_noconvEv = 0x00000000004d7b70 + __sdk_start;
_ZN2nn2sf4hipc6client24Hipc2ClientCoreProcessorILNS1_6detail11MessageTypeE6ENS0_4cmif6detail14CoreMethodInfoINSt3__15tupleIJNS7_17InRawArgumentInfoILm8ELm8ELl8EEENSB_ILm4ELm4ELl0EEENSB_ILm8ELm8ELl16EEEEEELm24ELm0ELb1EEESF_E7ProcessEPNS2_26Hipc2ClientProxyBaseObjectENS6_6client23InRawClientArgumentTypeILm8ELm8EvEENSL_ILm4ELm4EvEESM_j = 0x000000000022b1c0 + __sdk_start;
_ZN2nn8settings6detail15SetLanguageCodeERKNS0_12LanguageCodeE = 0x0000000000362ed0 + __sdk_start;
_ZN2nn6socket12SocketExemptENS0_6FamilyENS0_4TypeENS0_8ProtocolE = 0x000000000037bbd0 + __sdk_start;
_ZN7android9SingletonINS_19GraphicBufferMapperEE9sInstanceE = 0x0000000000d0b3d8 + __sdk_start;
_ZNSt3__17codecvtIwc11__mbstate_tED2Ev = 0x00000000004e0460 + __sdk_start;
_ZN2nn3hid31BindPalmaOperationCompleteEventERKNS0_21PalmaConnectionHandleEPNS_2os15SystemEventTypeENS4_14EventClearModeE = 0x0000000000215950 + __sdk_start;
_ZN2nn4util10Executable4LockEv = 0x00000000003b6680 + __sdk_start;
_ZNSt3__115basic_streambufIwNS_11char_traitsIwEEE7seekoffExNS_8ios_base7seekdirEj = 0x00000000004a6ad8 + __sdk_start;
_ZTINSt3__113messages_baseE = 0x0000000000c48160 + __sdk_start;
_ZTIN2nn2sf6detail39ObjectImplFactoryWithStatelessAllocatorINS0_4cmif6client6detail9CmifProxyINS_7account31IAccountServiceForAdministratorENS4_19CmifDomainProxyKindINS0_4hipc6client38Hipc2ClientSessionManagedProxyKindBaseINSB_18Hipc2ProxyKindBaseILNSA_6detail11MessageTypeE6EEEEEEENS0_25StatelessAllocationPolicyINS0_22ExpHeapStaticAllocatorILm2048ENS7_6detail12ObjectHolder24ObjectHolderAllocatorTagEEEEENS5_19ProcessModifierImplINS4_21DefaultProxyFilterTagEEEvEESP_E6ObjectE = 0x0000000000c0e2f0 + __sdk_start;
_ZN2nn2fs26EraseAndWriteParamDirectlyEPvm = 0x00000000001de630 + __sdk_start;
_ZN2nn2os6detail25SharedMemoryImplByHorizon3MapEPPvjS3_mNS0_16MemoryPermissionE = 0x0000000000342550 + __sdk_start;
_ZNSt3__113basic_ostreamIwNS_11char_traitsIwEEElsEPFRNS_9basic_iosIwS2_EES6_E = 0x00000000004ae8c8 + __sdk_start;
_ZN2nn7account49ExternalNetworkServiceAccountIntroducingProcedureC2Ev = 0x0000000000018640 + __sdk_start;
_ZN2nn4nifm6detail29TemporaryNetworkProfileClient6UpdateERKNS0_18NetworkProfileDataE = 0x00000000003242e0 + __sdk_start;
_ZN2nn3ssl7Context6CreateENS1_10SslVersionE = 0x0000000000393f20 + __sdk_start;
_ZN2nn3ngc15ProfanityFilterC2EPvm = 0x0000000000311d60 + __sdk_start;
__divmodsi4 = 0x0000000000510840 + __sdk_start;
_ZN2nn2vi10InitializeEv = 0x00000000003b7420 + __sdk_start;
_ZN2nn2sf6detail19InterfaceInfoBottomINS0_14IServiceObjectEE4_tABINS0_13InterfaceInfoINS_5audio6detail21IAudioRendererManagerEE5_tO2NINS7_6server24AudioRendererManagerImplEE4typeES9_E4typeD2Ev = 0x000000000006d070 + __sdk_start;
_ZN2nn4diag6detail23ResetDefalutLogObserverEv = 0x0000000000145570 + __sdk_start;
_ZN2nn3hid13VibrationNode19SetCurrentVibrationERKNS0_14VibrationValueE = 0x0000000000218bd0 + __sdk_start;
_ZN2nn4nifm6detail34ConvertAccessPointDataToSfFromNifmEPNS1_2sf17AccessPointDataV1ERKNS0_15AccessPointDataE = 0x000000000032cd60 + __sdk_start;
_ZN2nn2vi21LayerCreationSettingsC1Eii = 0x00000000003c5860 + __sdk_start;
_ZN7android10FrameStats9unflattenEPKvm = 0x00000000004478a0 + __sdk_start;
nncryptoAes128CtrEncryptorInitialize = 0x00000000001364c0 + __sdk_start;
_ZN2nn2sf4cmif6client6detail13CmifProxyImplINS_3ngc1t6detail25IServiceWithManagementApiENS0_4hipc6client18Hipc2ProxyKindBaseILNS9_6detail11MessageTypeE6EEENS0_30MemoryResourceAllocationPolicyES8_NS3_19ProcessModifierImplINS2_21DefaultProxyFilterTagEEEE39_nn_sf_sync_CalculateContentFingerprintERKNS0_9OutBufferE = 0x0000000000323440 + __sdk_start;
_ZN2nn2sf4cmif6client6detail13CmifProxyImplINS_2am7service26ILibraryAppletSelfAccessorENS2_19CmifDomainProxyKindINS0_4hipc6client38Hipc2ClientSessionManagedProxyKindBaseINSA_18Hipc2ProxyKindBaseILNS9_6detail11MessageTypeE6EEEEEEENS0_30MemoryResourceAllocationPolicyES7_NS3_19ProcessModifierImplINS2_21DefaultProxyFilterTagEEEE29_nn_sf_sync_UnpopExtraStorageENS0_13SharedPointerINS6_8IStorageEEE = 0x000000000002cf30 + __sdk_start;
_ZN2nn2fs3dbm24FileSystemObjectTemplateINS1_13DirectoryNameENS1_8FileNameEE8OpenFileEPjPNS1_18FileObjectTemplateIS3_S4_EEPKc = 0x00000000001c0230 + __sdk_start;
_ZN2nn2fs31SaveDataTransferManagerVersion224OpenSaveDataImporterImplEPNSt3__110unique_ptrINS0_25ISaveDataDivisionImporterENS2_14default_deleteIS4_EEEERKNS0_19InitialDataVersion2ERKNS0_6UserIdENS0_15SaveDataSpaceIdEb = 0x00000000001f8cd0 + __sdk_start;
_ZTVN2nn2sf6detail38ObjectImplFactoryWithStatefulAllocatorINS0_4cmif6client6detail9CmifProxyINS_3ntc6detail7service14IStaticServiceENS0_4hipc6client18Hipc2ProxyKindBaseILNSB_6detail11MessageTypeE6EEENS0_30MemoryResourceAllocationPolicyENS5_19ProcessModifierImplINS4_21DefaultProxyFilterTagEEEvEESH_E6ObjectE = 0x0000000000c32d20 + __sdk_start;
_ZN2nn2sf6detail38ObjectImplFactoryWithStatefulAllocatorINS0_4cmif6client6detail9CmifProxyINS_6grcsrv17IGameMovieTrimmerENS4_19CmifDomainProxyKindINS0_4hipc6client38Hipc2ClientSessionManagedProxyKindBaseINSB_18Hipc2ProxyKindBaseILNSA_6detail11MessageTypeE6EEEEEEENS0_30MemoryResourceAllocationPolicyENS5_19ProcessModifierImplINS4_21DefaultProxyFilterTagEEEvEESJ_E6Object12AddReferenceEv = 0x000000000002db20 + __sdk_start;
_ZN2nn4htcs6detail25virtual_socket_collection6SocketERi = 0x0000000000247ab0 + __sdk_start;
_ZN2nn3mii8Nickname19ReplaceQuestionMarkEv = 0x00000000002f19d0 + __sdk_start;
_ZN2nn4nifm30IsEthernetCommunicationEnabledEv = 0x000000000032a450 + __sdk_start;
_ZN2nn12notification33WeeklyScheduleAlarmSettingBuilderC2ERKNS0_12AlarmSettingE = 0x000000000032d0d0 + __sdk_start;
nnosTimedSendMessageQueue = 0x000000000033dd00 + __sdk_start;
_ZNK2nn2fs11RomPathTool10PathParser15IsDirectoryPathEv = 0x00000000001aca90 + __sdk_start;
_ZN2nn5audio15BehaviorManager11CheckErrorsEv = 0x000000000003f230 + __sdk_start;
_ZN2nn5swkbd14InlineKeyboard28SetChangedStringCallbackUtf8EPFvPKNS0_20ChangedStringArgUtf8EE = 0x000000000039c540 + __sdk_start;
nanf = 0x0000000000549080 + __sdk_start;
_ZN2nn5codec28aaFractDelayPhaseFactorImQmfE = 0x0000000000a63e9a + __sdk_start;
nnmem_nlib_log_attr_setint = 0x00000000002d1660 + __sdk_start;
_ZN2nn2os6detail11VammManager14AllocateMemoryEPmm = 0x0000000000341080 + __sdk_start;
_ZN2nn8settings6detail28GetButtonConfigSettingsRightEPiPNS0_6system20ButtonConfigSettingsEi = 0x0000000000360b90 + __sdk_start;
_ZN2nn8settings6system31GetApplicationOwnKeyboardLayoutEPNS0_14KeyboardLayoutE = 0x000000000035baf0 + __sdk_start;
_ZNSt3__115basic_streambufIwNS_11char_traitsIwEEE4setgEPwS4_S4_ = 0x00000000004a6a98 + __sdk_start;
_ZN2nn5codec22rescalFilterBankValuesEPNS0_6PS_DECEPPiS4_ii = 0x0000000000127650 + __sdk_start;
_ZN2nn5codec20GetRam_SbrDecChannelEi = 0x000000000012c530 + __sdk_start;
nnmem_nlib_thread_attr_setint = 0x00000000002cb430 + __sdk_start;
_ZN2nn2sf4cmif6client6detail13CmifProxyImplINS_8settings21ISystemSettingsServerENS0_4hipc6client18Hipc2ProxyKindBaseILNS7_6detail11MessageTypeE6EEENS0_30MemoryResourceAllocationPolicyES6_NS3_19ProcessModifierImplINS2_21DefaultProxyFilterTagEEEE40_nn_sf_sync_GetNetworkSystemClockContextENS0_3OutINS_4time18SystemClockContextEvEE = 0x000000000036c470 + __sdk_start;
_ZNK2nn3web26OfflineHtmlPageReturnValue10GetLastUrlEv = 0x00000000003c6e80 + __sdk_start;
__nnmusl_random_lock_finalize = 0x000000000055c2c8 + __sdk_start;
__nnmusl_GetThreadNamePointer = 0x000000000055d6b0 + __sdk_start;
_ZN2nn2sf4cmif6client6detail13CmifProxyImplINS_4pctl6detail3ipc23IParentalControlServiceENS2_19CmifDomainProxyKindINS0_4hipc6client38Hipc2ClientSessionManagedProxyKindBaseINSB_18Hipc2ProxyKindBaseILNSA_6detail11MessageTypeE6EEEEEEENS0_30MemoryResourceAllocationPolicyES8_NS3_19ProcessModifierImplINS2_21DefaultProxyFilterTagEEEE37_nn_sf_sync_FinishRetrievePairingInfoENS0_3OutINS6_15PairingInfoBaseEvEENS6_9AsyncDataE = 0x0000000000349b20 + __sdk_start;
NvRmGpuLibAttachDevice = 0x0000000000404260 + __sdk_start;
_ZN7android8Composer27setAnimationTransactionImplEv = 0x0000000000443070 + __sdk_start;
_ZNSt3__112strstreambufD1Ev = 0x00000000004edbb0 + __sdk_start;
_ZN2nn2sf13SharedPointerINS_6capsrv2sf32IAlbumAccessorApplicationSessionEED2Ev = 0x0000000000096330 + __sdk_start;
get_charData_ttf = 0x00000000001841b0 + __sdk_start;
_ZNSt3__120__libcpp_thread_joinEPNS_10shared_ptrINS_21__horizon_thread_dataEEE = 0x00000000004efbe8 + __sdk_start;
__nnmusl_socket_shutdown = 0x0000000000560d88 + __sdk_start;
nanl = 0x0000000000549090 + __sdk_start;
_ZN2nn2ec6detail23ShopServiceAccessServer10ProxyStoreD2Ev = 0x0000000000156110 + __sdk_start;
_ZN2nn2fs18CreateCacheStorageEill = 0x0000000000201f70 + __sdk_start;
_ZN2nn8settings12LanguageCode7SpanishEv = 0x000000000035bd40 + __sdk_start;
snprintf = 0x0000000000551440 + __sdk_start;
_ZN7android8String166removeEmm = 0x000000000044dfb0 + __sdk_start;
_ZN2nn2sf4cmif6client6detail36GetClientProcessorImplWithObjectBaseINS2_19CmifDomainProxyKindINS0_4hipc6client38Hipc2ClientSessionManagedProxyKindBaseINS7_18Hipc2ProxyKindBaseILNS6_6detail11MessageTypeE6EEEEEEENS3_19ProcessModifierImplINS2_21DefaultProxyFilterTagEEEE14ObjectAssignerINS0_30MemoryResourceAllocationPolicyENS_14MemoryResourceEE14AllocateObjectINS_2am7service25IProcessWindingControllerEEEvi = 0x0000000000028b30 + __sdk_start;
_ZN2nn2ec28AsyncRecoverRightDataRequest5BeginEv = 0x0000000000148ed0 + __sdk_start;
_ZN2nn2ec19EndConsumeRightDataEPiPNS0_30ConsumableServiceItemRightDataEiPKS2_iPNS0_19ShopServiceAccessor13AsyncResponseEPvm = 0x000000000014b380 + __sdk_start;
_ZN2nn6fontll18ScalableFontEngineC2Ev = 0x000000000015fc70 + __sdk_start;
nndetailImagePng_png_read_data = 0x00000000002816e0 + __sdk_start;
_ZNK2nn3web20SharePageReturnValue18GetShareExitReasonEv = 0x000000000037a730 + __sdk_start;
_ZTIN2nn9bluetooth16IBluetoothDriverE = 0x0000000000c1b718 + __sdk_start;
_ZN2nn2sf4cmif6client34CmifDomainProxyClientCoreProcessorINS0_4hipc6client38Hipc2ClientSessionManagedProxyKindBaseINS5_18Hipc2ProxyKindBaseILNS4_6detail11MessageTypeE6EEEEENS1_6detail14CoreMethodInfoINSt3__15tupleIJNSC_18BufferArgumentInfoILi0ELi26ELm256EEEEEELm0ELm0ELb0EEESI_E7ProcessEPNS2_23CmifDomainClientMessageISB_E15ProxyBaseObjectENS2_24BufferClientArgumentTypeEj = 0x00000000001d5f10 + __sdk_start;
_ZN2nn3hid18VibrationConverter13ChunkDurationE = 0x0000000000a81ea0 + __sdk_start;
_ZN2nn4timeeqERKNS0_13ClockSnapshotES3_ = 0x00000000003a10a0 + __sdk_start;
_ZN7android19GraphicBufferMapper4lockEPK13native_handleiRKNS_4RectEPPv = 0x00000000004491b0 + __sdk_start;
_ZN2nn3btm4user19BleGetPairedDevicesEPNS_9bluetooth7AddressEhRKNS2_27BleAdvertisePacketParameterE = 0x00000000000927d0 + __sdk_start;
_ZN2nn2fs16SaveDataImporterC1EONS_2sf13SharedPointerINS_5fssrv2sf17ISaveDataImporterEEE = 0x00000000001f5ce0 + __sdk_start;
nncodecLibopus_silk_init_encoder = 0x00000000000bffa0 + __sdk_start;
_ZN2nn2ec6detail23ShopServiceAccessServer5ProxyC2Ev = 0x0000000000155780 + __sdk_start;
_ZN2nn2fs27PathNormalizationFileSystem10DoOpenFileEPNSt3__110unique_ptrINS0_3fsa5IFileENS2_14default_deleteIS5_EEEEPKcNS0_8OpenModeE = 0x00000000001e2320 + __sdk_start;
_ZN2nn8settings6system42GetConsoleSixAxisSensorAngularAccelerationEPNS1_39ConsoleSixAxisSensorAngularAccelerationE = 0x000000000035d690 + __sdk_start;
_ZN2nn2vi6detail18SystemServiceProxyC2Ev = 0x00000000003c3330 + __sdk_start;
_ZN7android12ConsumerBaseC2ERKNS_2spINS_22IGraphicBufferConsumerEEEb = 0x00000000004344c0 + __sdk_start;
_ZN2nn4diag27GetReadOnlyDataSectionRangeEPmS1_m = 0x00000000001460f0 + __sdk_start;
_ZN2nn2fs19GetGameCardDeviceIdEPvm = 0x00000000001ded40 + __sdk_start;
_ZN2nn5image6detail4jpeg17jpeg_new_colormapEPNS2_22jpeg_decompress_structE = 0x0000000000263d20 + __sdk_start;
_ZNK2nn5audio12SplitterInfo13GetSampleRateEv = 0x0000000000046dd0 + __sdk_start;
nncodecLibopus_downmix_float = 0x00000000000d0bb0 + __sdk_start;
_ZN2nn2sf4cmif6client6detail13CmifProxyImplINS_7timesrv6detail7service12ISteadyClockENS2_19CmifDomainProxyKindINS0_4hipc6client38Hipc2ClientSessionManagedProxyKindBaseINSB_18Hipc2ProxyKindBaseILNSA_6detail11MessageTypeE6EEEEEEENS0_30MemoryResourceAllocationPolicyES8_NS3_19ProcessModifierImplINS2_21DefaultProxyFilterTagEEEE29_nn_sf_sync_GetInternalOffsetENS0_3OutINS_12TimeSpanTypeEvEE = 0x00000000003a51b0 + __sdk_start;
_ZTIN2nn2sf4cmif6client6detail9CmifProxyINS_3ntc6detail7service38IEnsureNetworkClockAvailabilityServiceENS0_4hipc6client18Hipc2ProxyKindBaseILNS9_6detail11MessageTypeE6EEENS0_30MemoryResourceAllocationPolicyENS3_19ProcessModifierImplINS2_21DefaultProxyFilterTagEEEvEE = 0x0000000000c32f18 + __sdk_start;
_ZN2nn4util15FileInputStreamD2Ev = 0x00000000003b6be0 + __sdk_start;
_ZN7android9SingletonINS_8ComposerEE9sInstanceE = 0x0000000000d09f38 + __sdk_start;
_ZN2nn5audio6server10NullAspectC1EPNS1_13CommandBufferE = 0x000000000005d910 + __sdk_start;
_ZN2nn2ec6detail15ShowShopPageArg24CallbackableUrlMaxLengthE = 0x0000000000a671f0 + __sdk_start;
_ZN2nn2sf4cmif6client34CmifDomainProxyClientCoreProcessorINS0_4hipc6client38Hipc2ClientSessionManagedProxyKindBaseINS5_18Hipc2ProxyKindBaseILNS4_6detail11MessageTypeE6EEEEENS1_6detail14CoreMethodInfoINSt3__15tupleIJNSC_18OutRawArgumentInfoILm8ELm2ELl0EEENSG_ILm24ELm4ELl8EEENSC_17InRawArgumentInfoILm8ELm8ELl0EEENSC_18BufferArgumentInfoILi0ELi21ELm16384EEEEEELm8ELm32ELb0EEESN_E7ProcessEPNS2_23CmifDomainClientMessageISB_E15ProxyBaseObjectENS2_24OutRawClientArgumentTypeILm8ELm2EEENSU_ILm24ELm4EEENS2_23InRawClientArgumentTypeILm8ELm8EvEENS2_24BufferClientArgumentTypeEj = 0x00000000003a6180 + __sdk_start;
_ZNSt3__112basic_stringIcNS_11char_traitsIcEENS_9allocatorIcEEE9__grow_byEmmmmmm = 0x00000000004e5e40 + __sdk_start;
_ZN2nn4bcat6detail17ShimLibraryGlobal31IncrementDeliveryCacheFileCountEv = 0x0000000000082280 + __sdk_start;
_ZN2nn2sf4cmif6client34CmifDomainProxyClientCoreProcessorINS0_4hipc6client38Hipc2ClientSessionManagedProxyKindBaseINS5_18Hipc2ProxyKindBaseILNS4_6detail11MessageTypeE6EEEEENS1_6detail14CoreMethodInfoINSt3__15tupleIJNSC_18OutRawArgumentInfoILm4ELm4ELl0EEENSC_17InRawArgumentInfoILm88ELm4ELl0EEEEEELm88ELm4ELb0EEESK_E7ProcessEPNS2_23CmifDomainClientMessageISB_E15ProxyBaseObjectENS2_24OutRawClientArgumentTypeILm4ELm4EEENS2_23InRawClientArgumentTypeILm88ELm4EvEEj = 0x0000000000305e10 + __sdk_start;
_ZN2nn7account12AsyncContextC1EPNS0_6detail13IAsyncContextERKNS0_3UidE = 0x0000000000013500 + __sdk_start;
_ZN2nn7account44EnsureNetworkServiceAccountIdTokenCacheAsyncEPNS0_12AsyncContextERKNS0_10UserHandleE = 0x0000000000015580 + __sdk_start;
_ZN2nn3nfc11WriteMifareERKNS0_12DeviceHandleEPKNS0_25MifareWriteBlockParameterEm = 0x000000000030ac60 + __sdk_start;
_ZNKSt3__112basic_stringIcNS_11char_traitsIcEENS_9allocatorIcEEE4findEPKcmm = 0x00000000004e6f58 + __sdk_start;
nncodecLibopus_silk_stereo_encode_mid_only = 0x00000000000c34b0 + __sdk_start;
_ZNK2nn5audio6server17AudioRenderSystem13GetVoiceCountEv = 0x000000000005ba20 + __sdk_start;
_ZN2nn2fs23CorruptSaveDataForDebugEm = 0x00000000001ef370 + __sdk_start;
_ZN2nn2os19ClearInterruptEventEPNS0_18InterruptEventTypeE = 0x0000000000339eb0 + __sdk_start;
_ZTIN2nn2sf4cmif6client6detail13CmifProxyImplINS_7account4baas34IAsyncContextForLoginForOnlinePlayENS2_19CmifDomainProxyKindINS0_4hipc6client38Hipc2ClientSessionManagedProxyKindBaseINSA_18Hipc2ProxyKindBaseILNS9_6detail11MessageTypeE6EEEEEEENS0_25StatelessAllocationPolicyINS0_22ExpHeapStaticAllocatorILm2048ENS5_6detail12ObjectHolder24ObjectHolderAllocatorTagEEEEES7_NS3_19ProcessModifierImplINS2_21DefaultProxyFilterTagEEEEE = 0x0000000000c0da38 + __sdk_start;
_ZN2nn2sf4cmif6client34CmifDomainProxyClientCoreProcessorINS0_4hipc6client38Hipc2ClientSessionManagedProxyKindBaseINS5_18Hipc2ProxyKindBaseILNS4_6detail11MessageTypeE6EEEEENS1_6detail14CoreMethodInfoINSt3__15tupleIJNSC_18BufferArgumentInfoILi0ELi26ELm64EEENSC_17InRawArgumentInfoILm16ELm8ELl8EEENSI_ILm1ELm1ELl0EEEEEELm24ELm0ELb0EEESL_E7ProcessEPNS2_23CmifDomainClientMessageISB_E15ProxyBaseObjectENS2_24BufferClientArgumentTypeENS2_23InRawClientArgumentTypeILm16ELm8EvEENST_ILm1ELm1EvEEj = 0x00000000001a31c0 + __sdk_start;
__nnmusl_TimerSetTime = 0x000000000055c160 + __sdk_start;
_ZN2nn2sf4cmif6client6detail13CmifProxyImplINS_2am7service15ISelfControllerENS2_19CmifDomainProxyKindINS0_4hipc6client38Hipc2ClientSessionManagedProxyKindBaseINSA_18Hipc2ProxyKindBaseILNS9_6detail11MessageTypeE6EEEEEEENS0_30MemoryResourceAllocationPolicyES7_NS3_19ProcessModifierImplINS2_21DefaultProxyFilterTagEEEE39_nn_sf_sync_GetSystemSharedBufferHandleENS0_3OutINS_2vi7fbshare18SharedBufferHandleEvEE = 0x0000000000024a40 + __sdk_start;
_ZN2nn2fs6detail8RegisterEONSt3__110unique_ptrINS1_18FileSystemAccessorENS2_14default_deleteIS4_EEEE = 0x00000000001bd510 + __sdk_start;
_ZTIN2nn2sf6detail38ObjectImplFactoryWithStatefulAllocatorINS0_4cmif6client6detail9CmifProxyINS_6jitsrv11IJitServiceENS0_4hipc6client18Hipc2ProxyKindBaseILNS9_6detail11MessageTypeE6EEENS0_30MemoryResourceAllocationPolicyENS5_19ProcessModifierImplINS4_21DefaultProxyFilterTagEEEvEESF_E6ObjectE = 0x0000000000c28290 + __sdk_start;
_ZN2nn5prepo10PlayReport3AddEPKcRKNS0_5ArrayE = 0x0000000000352850 + __sdk_start;
_ZN2nn8settings6system13SetTvSettingsERKNS1_10TvSettingsE = 0x000000000035e2e0 + __sdk_start;
_ZN2nn5audio33GetI3dl2ReverbLateReverbDelayTimeEPKNS0_15I3dl2ReverbTypeE = 0x0000000000041c70 + __sdk_start;
_ZN2nn5audio6server24AudioRenderSystemManager3AddERNS1_17AudioRenderSystemE = 0x000000000005d060 + __sdk_start;
_ZN2nn2sf4cmif6client6detail13CmifProxyImplINS_6capsrv2sf32IAlbumAccessorApplicationSessionENS0_4hipc6client18Hipc2ProxyKindBaseILNS8_6detail11MessageTypeE6EEENS0_30MemoryResourceAllocationPolicyES7_NS3_19ProcessModifierImplINS2_21DefaultProxyFilterTagEEEE37_nn_sf_sync_CloseAlbumMovieReadStreamEm = 0x0000000000098ae0 + __sdk_start;
_ZN2nn5codec30GetAacDecoderStaticChannelInfoEi = 0x00000000000e2130 + __sdk_start;
_ZN2nn4pctl6detail17EventObjectHolderD2Ev = 0x0000000000345af0 + __sdk_start;
_ZN7android8Composer8setLayerERKNS_2spINS_21SurfaceComposerClientEEERKNS1_INS_7IBinderEEEi = 0x0000000000443320 + __sdk_start;
_ZNSt3__112ctype_bynameIwEC2ERKNS_12basic_stringIcNS_11char_traitsIcEENS_9allocatorIcEEEEm = 0x00000000004d3100 + __sdk_start;
_ZN2nn3htc8FinalizeEv = 0x000000000023a120 + __sdk_start;
_ZN2nn2vi6buffer11BufferQueue21GetRequiredMemorySizeERKNS1_10BufferInfoE = 0x00000000003c4b50 + __sdk_start;
NvRmGpuProfilerCreate = 0x0000000000404f00 + __sdk_start;
iswupper_l = 0x000000000053bde8 + __sdk_start;
_ZTSN2nn2sf4cmif6client6detail9CmifProxyINS_2am7service7IWindowENS2_19CmifDomainProxyKindINS0_4hipc6client38Hipc2ClientSessionManagedProxyKindBaseINSA_18Hipc2ProxyKindBaseILNS9_6detail11MessageTypeE6EEEEEEENS0_30MemoryResourceAllocationPolicyENS3_19ProcessModifierImplINS2_21DefaultProxyFilterTagEEEvEE = 0x0000000000a32321 + __sdk_start;
_ZN2nn2fs4save17SaveDataDirectory10InitializeEv = 0x00000000001c0100 + __sdk_start;
_ZNK2nn3hid6server8RingLifoINS0_16TouchScreenStateILm16EEELi16ENS1_29TouchScreenStateAtomicStorageEE8ReadImplINS3_ILm12EEEEEiPT_i = 0x0000000000210590 + __sdk_start;
_ZN2nn4nifm31SetWirelessCommunicationEnabledEb = 0x000000000032c350 + __sdk_start;
_ZN2nn2vi11CreateLayerEPPNS0_5LayerEPNS0_7DisplayE = 0x00000000003c1b20 + __sdk_start;
__set_tp = 0x000000000055ff38 + __sdk_start;
_ZN2nn7account12AsyncContextC1Ev = 0x0000000000013520 + __sdk_start;
_ZN2nn2sf4hipc6client34HipcSimpleClientSessionManagerBaseINS2_29DefaultSessionResourceManagerEE4Impl18InitializeByHandleINS_7friends6detail3ipc15IServiceCreatorENS0_30MemoryResourceAllocationPolicyENS0_4cmif6client6detail19ProcessModifierImplINSE_21DefaultProxyFilterTagEEEEENS_6ResultEPNS0_13SharedPointerIT_EEPNT0_9AllocatorENS_3svc6HandleE = 0x00000000001a09b0 + __sdk_start;
_ZN2nn2fs23SaveDataTransferManager20OpenSaveDataImporterEPNSt3__110unique_ptrINS0_16SaveDataImporterENS2_14default_deleteIS4_EEEEPlPKvmRKNS0_6UserIdENS0_15SaveDataSpaceIdE = 0x00000000001f5580 + __sdk_start;
_ZN2nn3hid6system6detail28GetUniquePadBluetoothAddressEPNS_9bluetooth7AddressENS1_11UniquePadIdE = 0x00000000002217a0 + __sdk_start;
NvOsAtomicExchangeAdd32 = 0x00000000003d8db0 + __sdk_start;
wcscoll_l = 0x000000000053f750 + __sdk_start;
gethostbyname = 0x0000000000518a80 + __sdk_start;
nndetailImagePng_png_read_finish_IDAT = 0x000000000028bd30 + __sdk_start;
_ZN2nn2sf4cmif6client6detail13CmifProxyImplINS_4nifm6detail15IGeneralServiceENS2_19CmifDomainProxyKindINS0_4hipc6client38Hipc2ClientSessionManagedProxyKindBaseINSA_18Hipc2ProxyKindBaseILNS9_6detail11MessageTypeE6EEEEEEENS0_30MemoryResourceAllocationPolicyES7_NS3_19ProcessModifierImplINS2_21DefaultProxyFilterTagEEEE34_nn_sf_sync_GetCurrentIpConfigInfoENS0_3OutINS5_16IpAddressSettingEvEENSN_INS5_10DnsSettingEvEE = 0x00000000003262c0 + __sdk_start;
nnosDetachReadableHandleOfSystemEvent = 0x000000000033db20 + __sdk_start;
nnResolverGetspecificPrivate = 0x000000000038f260 + __sdk_start;
_ZN2nn7account48NintendoAccountApplicationAuthorizationProcedureaSEOS1_ = 0x00000000000185b0 + __sdk_start;
_ZN2nn2sf4cmif6client6detail13CmifProxyImplINS_3hid16IHidSystemServerENS0_4hipc6client18Hipc2ProxyKindBaseILNS7_6detail11MessageTypeE6EEENS0_30MemoryResourceAllocationPolicyES6_NS3_19ProcessModifierImplINS2_21DefaultProxyFilterTagEEEE42_nn_sf_sync_SetButtonConfigStorageEmbeddedERKNS_9hidconfig20ButtonConfigEmbeddedEi = 0x0000000000232870 + __sdk_start;
_ZTIN2nn2sf4cmif6client6detail9CmifProxyINS_7friends6detail3ipc14IFriendServiceENS2_19CmifDomainProxyKindINS0_4hipc6client38Hipc2ClientSessionManagedProxyKindBaseINSB_18Hipc2ProxyKindBaseILNSA_6detail11MessageTypeE6EEEEEEENS0_30MemoryResourceAllocationPolicyENS3_19ProcessModifierImplINS2_21DefaultProxyFilterTagEEEvEE = 0x0000000000c1ef60 + __sdk_start;
nndetailImagePng_png_write_chunk_end = 0x0000000000292b40 + __sdk_start;
_ZN2nn2sf4cmif6client6detail36GetClientProcessorImplWithObjectBaseINS2_19CmifDomainProxyKindINS0_4hipc6client38Hipc2ClientSessionManagedProxyKindBaseINS7_18Hipc2ProxyKindBaseILNS6_6detail11MessageTypeE6EEEEEEENS3_19ProcessModifierImplINS2_21DefaultProxyFilterTagEEEE14ObjectAssignerINS0_30MemoryResourceAllocationPolicyENS_14MemoryResourceEE14AllocateObjectINS_3mii6detail16IDatabaseServiceEEEvi = 0x0000000000304b50 + __sdk_start;
_nnmusl_socket_TranslateFileDescriptorFromNativeToNnmusl = 0x00000000005602e0 + __sdk_start;
_ZN2nn5audio19InitializeResamplerEPNS0_14ResamplerStateEjb = 0x000000000004b360 + __sdk_start;
_ZN2nn5codec33FDK_sbrDecoder_sbr_frame_info2_15E = 0x0000000000a635a2 + __sdk_start;
_ZTSN2nn3ssl6detail18ISslServiceFactoryE = 0x0000000000ab598e + __sdk_start;
_ZN2nn5swkbd20SetTextCheckCallbackEPNS0_15ShowKeyboardArgEPFNS0_15TextCheckResultEPvPmPNS0_6StringEE = 0x000000000039c040 + __sdk_start;
_ZNK7android12SharedBuffer5resetEm = 0x000000000044d050 + __sdk_start;
_ZN2nn2sf4cmif6client6detail13CmifProxyImplINS_7account19IAccountServiceBaseENS2_19CmifDomainProxyKindINS0_4hipc6client38Hipc2ClientSessionManagedProxyKindBaseINS9_18Hipc2ProxyKindBaseILNS8_6detail11MessageTypeE6EEEEEEENS0_25StatelessAllocationPolicyINS0_22ExpHeapStaticAllocatorILm2048ENS5_6detail12ObjectHolder24ObjectHolderAllocatorTagEEEEENS5_29IAccountServiceForApplicationENS3_19ProcessModifierImplINS2_21DefaultProxyFilterTagEEEE24_nn_sf_sync_GetUserCountENS0_3OutIivEE = 0x0000000000005290 + __sdk_start;
_ZTVN2nn5audio6server10ReverbInfoE = 0x0000000000c19c58 + __sdk_start;
_ZN2nn6hidbus6detail25GetJoyPollingReceivedDataEPNS0_22JoyPollingReceivedDataERKNS0_9BusHandleE = 0x00000000002382e0 + __sdk_start;
_ZN2nn8settings12LanguageCode9EnglishUsEv = 0x000000000035bd00 + __sdk_start;
_ZN2nn5swkbd6detail18InlineKeyboardImpl28SetChangedStringCallbackUtf8EPFvPKNS0_20ChangedStringArgUtf8EE = 0x000000000039e5c0 + __sdk_start;
_ZN2nn6hidbus6detail23CreateHidbusServerProxyEPNS_2sf13SharedPointerINS0_13IHidbusServerEEE = 0x00000000002392b0 + __sdk_start;
_ZN2nn6socket6detail21GetResourceStatisticsENS0_14StatisticsTypeEPvmjPKcm = 0x0000000000386bf0 + __sdk_start;
_ZTSN2nn2sf6detail38ObjectImplFactoryWithStatefulAllocatorINS0_4cmif6client6detail9CmifProxyINS_5visrv2sf23IApplicationRootServiceENS0_4hipc6client18Hipc2ProxyKindBaseILNSA_6detail11MessageTypeE6EEENS0_30MemoryResourceAllocationPolicyENS5_19ProcessModifierImplINS4_21DefaultProxyFilterTagEEEvEESG_E6ObjectE = 0x0000000000abc058 + __sdk_start;
_ZNK7android6Parcel12dataCapacityEv = 0x0000000000420c30 + __sdk_start;
mtx_lock = 0x000000000051b640 + __sdk_start;
_ZNKSt3__117moneypunct_bynameIcLb1EE13do_pos_formatEv = 0x00000000004c3b48 + __sdk_start;
__nnmusl_tsd_keys = 0x0000000000d143f8 + __sdk_start;
_ZNK2nn4bcat8FileName7IsValidEv = 0x000000000007e390 + __sdk_start;
_ZN2nn5codec23FDK_sbrDecoder_invTableE = 0x0000000000a643ce + __sdk_start;
_ZTIN2nn5image11JpegEncoderE = 0x0000000000c27aa0 + __sdk_start;
_ZN2nn2oe21TryPopLaunchParameterEPmPvm = 0x0000000000336f10 + __sdk_start;
nvdcGetCrc = 0x00000000003cc120 + __sdk_start;
_ZN2nn2fs29SetConcatenationFileAttributeEPKc = 0x00000000001bd430 + __sdk_start;
nndetailImagePng_png_create_write_struct = 0x000000000028fd90 + __sdk_start;
nndetailImagePng_png_write_eXIf = 0x0000000000294f80 + __sdk_start;
_ZTSN2nn2sf4cmif6client6detail13CmifProxyImplINS_8irsensor15IIrSensorServerENS0_4hipc6client18Hipc2ProxyKindBaseILNS7_6detail11MessageTypeE6EEENS0_25StatelessAllocationPolicyINS0_22ExpHeapStaticAllocatorILm16384ENS5_6detail14IrSensorServerEEEEES6_NS3_19ProcessModifierImplINS2_21DefaultProxyFilterTagEEEEE = 0x0000000000a8be43 + __sdk_start;
_ZN2nn8settings6detail29GetAnalogStickModelParameterLEPNS0_7factory25AnalogStickModelParameterE = 0x000000000035f1e0 + __sdk_start;
_ZN2nn2sf4cmif6client6detail13CmifProxyImplINS_5visrv2sf22IManagerDisplayServiceENS0_4hipc6client18Hipc2ProxyKindBaseILNS8_6detail11MessageTypeE6EEENS0_30MemoryResourceAllocationPolicyES7_NS3_19ProcessModifierImplINS2_21DefaultProxyFilterTagEEEE52_nn_sf_sync_FinishDetachSharedLayerFromLowLevelLayerENS_2vi7fbshare17SharedLayerHandleE = 0x00000000003bba30 + __sdk_start;
NvRmMemCacheSyncForDevice = 0x00000000003e1080 + __sdk_start;
pthread_condattr_getpshared = 0x000000000051b700 + __sdk_start;
swab = 0x0000000000555df0 + __sdk_start;
_ZN2nn5codec32FDK_sbrDecoder_sbr_start_freq_48E = 0x0000000000a628b0 + __sdk_start;
_ZNK2nn3mii21ParamCharInfoAccessor8GetMoleYEv = 0x00000000002f1e50 + __sdk_start;
_ZNSt3__112basic_stringIcNS_11char_traitsIcEENS_9allocatorIcEEED1Ev = 0x00000000004e54e0 + __sdk_start;
wcstombs = 0x000000000054d0e0 + __sdk_start;
_ZN2nn3hid6detail25DisableAnyPalmaConnectionEv = 0x000000000020bbe0 + __sdk_start;
_ZN2nn3ngc6detail2Bp16ReleaseAllocatorEv = 0x000000000031ab80 + __sdk_start;
_ZNK2nn4time27PeriodicBenefitClaimContext40GetSpanToEndOfPenaltyAtLastClaimForDebugEPNS_8TimeSpanE = 0x000000000039fc10 + __sdk_start;
_ZN2nn4util10SwapEndianEPNS0_9ResEndianEPNS0_10StringPoolE = 0x00000000003ac990 + __sdk_start;
NvRmChannelSetSubmitTimeout = 0x00000000003e9860 + __sdk_start;
_nnmusl_socket_TranslateFileDescriptorFromNnmuslToNative = 0x0000000000560268 + __sdk_start;
_ZNKSt3__112basic_stringIcNS_11char_traitsIcEENS_9allocatorIcEEE5rfindEPKcmm = 0x00000000004e70a0 + __sdk_start;
_ZN2nn2sf4cmif6client34CmifDomainProxyClientCoreProcessorINS0_4hipc6client38Hipc2ClientSessionManagedProxyKindBaseINS5_18Hipc2ProxyKindBaseILNS4_6detail11MessageTypeE6EEEEENS1_6detail14CoreMethodInfoINSt3__15tupleIJNSC_18OutRawArgumentInfoILm1ELm1ELl0EEENSC_17InRawArgumentInfoILm8ELm8ELl0EEEEEELm8ELm1ELb0EEESK_E7ProcessEPNS2_23CmifDomainClientMessageISB_E15ProxyBaseObjectENS2_24OutRawClientArgumentTypeILm1ELm1EEENS2_23InRawClientArgumentTypeILm8ELm8EvEEj = 0x0000000000012680 + __sdk_start;
_Znwm = 0x00000000004e4288 + __sdk_start;
_ZNSt3__118__insertion_sort_3IRPFbRKN2nn6fontll15OtfKerningTable11KerningPairES6_EPS4_EEvT0_SB_T_ = 0x000000000015f780 + __sdk_start;
_ZN2nn2sf4cmif6client6detail13CmifProxyImplINS_3hid16IHidSystemServerENS0_4hipc6client18Hipc2ProxyKindBaseILNS7_6detail11MessageTypeE6EEENS0_30MemoryResourceAllocationPolicyES6_NS3_19ProcessModifierImplINS2_21DefaultProxyFilterTagEEEE38_nn_sf_sync_GetButtonConfigStorageFullENS0_3OutINS_9hidconfig16ButtonConfigFullEvEEi = 0x00000000002327e0 + __sdk_start;
_ZN2nn2sf4cmif6client34CmifDomainProxyClientCoreProcessorINS0_4hipc6client38Hipc2ClientSessionManagedProxyKindBaseINS5_18Hipc2ProxyKindBaseILNS4_6detail11MessageTypeE6EEEEENS1_6detail14CoreMethodInfoINSt3__15tupleIJNSC_18OutRawArgumentInfoILm4ELm4ELl0EEENSG_ILm4ELm4ELl4EEENSC_17InRawArgumentInfoILm4ELm4ELl0EEENSC_18BufferArgumentInfoILi0ELi33ELm0EEEEEELm4ELm8ELb0EEESN_E7ProcessEPNS2_23CmifDomainClientMessageISB_E15ProxyBaseObjectENS2_24OutRawClientArgumentTypeILm4ELm4EEESV_NS2_23InRawClientArgumentTypeILm4ELm4EvEENS2_24BufferClientArgumentTypeEj = 0x000000000038cd20 + __sdk_start;
_ZN2nn6fontll18ScalableFontEngine17AcquireOtfKerningEPKNS0_15OtfKerningTableEjjj = 0x0000000000160000 + __sdk_start;
_ZTSNSt3__18ios_base7failureE = 0x0000000000ac6d54 + __sdk_start;
_ZN2nn3ssl6detail16SslMemoryManager11g_pHeapHeadE = 0x0000000000ce9f98 + __sdk_start;
_ZN2nn2fs4save17SaveDataDirectoryD0Ev = 0x00000000001c2110 + __sdk_start;
_ZN2nn2fs25ReadSaveDataThumbnailFileEmRKNS_7account3UidEPvmS5_m = 0x0000000000202620 + __sdk_start;
_ZN2nn3nsd6detail3ipc17GetNasRequestFqdnEPNS0_4FqdnE = 0x0000000000333000 + __sdk_start;
_ZN2nn8settings7factory12GetAmiiboKeyEPNS1_9AmiiboKeyE = 0x0000000000358d00 + __sdk_start;
_ZN7android6RegionC1Ev = 0x00000000004498b0 + __sdk_start;
_ZTSN2nn6grcsrv17IGameMovieTrimmerE = 0x0000000000a36858 + __sdk_start;
_ZN22nerd_gillette_internal5otete12Downscale2x2ERKNS_15StaticImageViewIhEERKNS1_IKhEE = 0x00000000002b4720 + __sdk_start;
_ZN2nn9bluetooth24AcquireBleMtuConfigEventEPNS_2os15SystemEventTypeE = 0x000000000008fd10 + __sdk_start;
_ZN2nn3ngc15ProfanityFilter19CheckProfanityWordsEPjjPPKtm = 0x0000000000312a40 + __sdk_start;
NvRmStreamFlushSync = 0x00000000003e8500 + __sdk_start;
_ZN2nn7account26LoadSaveDataThumbnailImageEPvmRKNS0_3UidERKNS_13ApplicationIdE = 0x00000000000040c0 + __sdk_start;
_ZN2nn2fs30RegisterSaveDataAtomicDeletionEPmi = 0x00000000001eac10 + __sdk_start;
_ZN2nn5codec26qmf_phaseshift_sin64_cldfbE = 0x0000000000a60db8 + __sdk_start;
_ZN2nn2sf4hipc6client24Hipc2ClientCoreProcessorILNS1_6detail11MessageTypeE6ENS0_4cmif6detail14CoreMethodInfoINSt3__15tupleIJNS7_18OutRawArgumentInfoILm4ELm4ELl0EEENS7_18BufferArgumentInfoILi0ELi34ELm0EEENS7_17InRawArgumentInfoILm8ELm8ELl0EEEEEELm8ELm4ELb1EEESH_E7ProcessEPNS2_26Hipc2ClientProxyBaseObjectENS6_6client24OutRawClientArgumentTypeILm4ELm4EEENSM_24BufferClientArgumentTypeENSM_23InRawClientArgumentTypeILm8ELm8EvEEj = 0x000000000022efb0 + __sdk_start;
_ZN2nn8irsensor6detail15IrSensorSession25GetWindowOfInterestConfigERKNS0_14IrCameraHandleE = 0x00000000002a75f0 + __sdk_start;
_ZTVN2nn2sf6detail38ObjectImplFactoryWithStatefulAllocatorINS0_4cmif6client6detail9CmifProxyINS_2am7service15ISelfControllerENS4_19CmifDomainProxyKindINS0_4hipc6client38Hipc2ClientSessionManagedProxyKindBaseINSC_18Hipc2ProxyKindBaseILNSB_6detail11MessageTypeE6EEEEEEENS0_30MemoryResourceAllocationPolicyENS5_19ProcessModifierImplINS4_21DefaultProxyFilterTagEEEvEESK_E6ObjectE = 0x0000000000c13ce0 + __sdk_start;
_ZN2nn4bcat8NotifierC2Ev = 0x0000000000081c60 + __sdk_start;
_ZN2nn5codec10CTns_ResetEPNS0_8CTnsDataE = 0x00000000000ea0c0 + __sdk_start;
_ZNSt3__18ios_base34__set_failbit_and_consider_rethrowEv = 0x00000000004a7470 + __sdk_start;
__nnmusl_Dup = 0x000000000055ff48 + __sdk_start;
nnmem_nlib_memchr_gt_simd = 0x00000000002e2120 + __sdk_start;
_ZTVN10__cxxabiv129__pointer_to_member_type_infoE = 0x0000000000c4c4d0 + __sdk_start;
_ZN2nn2sf6detail38ObjectImplFactoryWithStatefulAllocatorINS0_4cmif6client6detail9CmifProxyINS_4nifm6detail14IStaticServiceENS4_19CmifDomainProxyKindINS0_4hipc6client38Hipc2ClientSessionManagedProxyKindBaseINSC_18Hipc2ProxyKindBaseILNSB_6detail11MessageTypeE6EEEEEEENS0_30MemoryResourceAllocationPolicyENS5_19ProcessModifierImplINS4_21DefaultProxyFilterTagEEEvEESK_E6Object12AddReferenceEv = 0x0000000000325bd0 + __sdk_start;
_ZN2nn8settings6detail11GetDeviceIdEPm = 0x00000000003619f0 + __sdk_start;
_ZN2nn8settings6detail33GetConsoleSixAxisSensorModuleTypeEPh = 0x00000000003635f0 + __sdk_start;
_ZNKSt3__18time_getIwNS_19istreambuf_iteratorIwNS_11char_traitsIwEEEEE10__get_hourERiRS4_S4_RjRKNS_5ctypeIwEE = 0x00000000004c2308 + __sdk_start;
_ZN2nn2fs27DisableAutoSaveDataCreationEv = 0x00000000001ef5e0 + __sdk_start;
_ZN2nn2sf4cmif6client6detail13CmifProxyImplINS_3hid10IHidServerENS0_4hipc6client18Hipc2ProxyKindBaseILNS7_6detail11MessageTypeE6EEENS0_30MemoryResourceAllocationPolicyES6_NS3_19ProcessModifierImplINS2_21DefaultProxyFilterTagEEEE22_nn_sf_sync_GetXpadIdsENS0_3OutIlvEERKNS0_8OutArrayINS5_11BasicXpadIdEEE = 0x0000000000228930 + __sdk_start;
_ZN2nn2sf4cmif6client6detail13CmifProxyImplINS_3hid15IHidDebugServerENS0_4hipc6client18Hipc2ProxyKindBaseILNS7_6detail11MessageTypeE6EEENS0_30MemoryResourceAllocationPolicyES6_NS3_19ProcessModifierImplINS2_21DefaultProxyFilterTagEEEE33_nn_sf_sync_RequestBatteryVoltageENS5_6system11UniquePadIdE = 0x000000000022e2c0 + __sdk_start;
_ZTSN2nn8irsensor21IIrSensorSystemServerE = 0x0000000000a8c3b5 + __sdk_start;
nnmem_nlib_unlink = 0x00000000002e0df0 + __sdk_start;
_ZN7android8String16D1Ev = 0x000000000044d6e0 + __sdk_start;
_ZN2nn2sf4cmif6client6detail13CmifProxyImplINS_4bcat6detail3ipc12IBcatServiceENS2_19CmifDomainProxyKindINS0_4hipc6client38Hipc2ClientSessionManagedProxyKindBaseINSB_18Hipc2ProxyKindBaseILNSA_6detail11MessageTypeE6EEEEEEENS0_30MemoryResourceAllocationPolicyES8_NS3_19ProcessModifierImplINS2_21DefaultProxyFilterTagEEEE49_nn_sf_sync_GetDeliveryCacheStorageUpdateNotifierENS0_3OutINS0_13SharedPointerINS7_16INotifierServiceEEEvEENS_13ApplicationIdE = 0x0000000000083600 + __sdk_start;
_ZN2nn2ec31FinalizeForShopServiceAccessorsEv = 0x00000000001561a0 + __sdk_start;
_ZTIN2nn5fssrv2sf16IProgramRegistryE = 0x0000000000c22690 + __sdk_start;
_ZN2nn3mii6detail11CoreDataRaw15SetEyebrowScaleEi = 0x00000000002f6060 + __sdk_start;
_ZTVNSt3__113basic_istreamIcNS_11char_traitsIcEEEE = 0x0000000000c45ab0 + __sdk_start;
_ZTSNSt3__115__codecvt_utf16IDiLb1EEE = 0x0000000000ac772a + __sdk_start;
imaxdiv = 0x0000000000553168 + __sdk_start;
silk_Transition_LP_B_Q28 = 0x0000000000a54660 + __sdk_start;
_ZN2nn2sf4cmif6client6detail13CmifProxyImplINS_7friends6detail3ipc14IFriendServiceENS2_19CmifDomainProxyKindINS0_4hipc6client38Hipc2ClientSessionManagedProxyKindBaseINSB_18Hipc2ProxyKindBaseILNSA_6detail11MessageTypeE6EEEEEEENS0_30MemoryResourceAllocationPolicyES8_NS3_19ProcessModifierImplINS2_21DefaultProxyFilterTagEEEE24_nn_sf_sync_ClearPlayLogERKNS_7account3UidE = 0x00000000001a1c80 + __sdk_start;
nnosClearEvent = 0x000000000033dc30 + __sdk_start;
_ZN2nn4pctl6detail3ipc14GetServiceImplEv = 0x0000000000348a80 + __sdk_start;
_ZN2nn2sf4cmif6client6detail13CmifProxyImplINS_3hid15IHidDebugServerENS0_4hipc6client18Hipc2ProxyKindBaseILNS7_6detail11MessageTypeE6EEENS0_30MemoryResourceAllocationPolicyES6_NS3_19ProcessModifierImplINS2_21DefaultProxyFilterTagEEEE26_nn_sf_sync_DeactivateXpadENS5_11BasicXpadIdE = 0x000000000022d960 + __sdk_start;
_ZN2nn3hid6system28GetPlusMinusButtonCapabilityEPbS2_RKj = 0x0000000000224980 + __sdk_start;
_ZN2nn3mii6detail16Ver3StoreDataRaw11SetPadding9Ei = 0x0000000000300d00 + __sdk_start;
_ZN2nn2sf4cmif6client6detail13CmifProxyImplINS_7friends6detail3ipc14IFriendServiceENS2_19CmifDomainProxyKindINS0_4hipc6client38Hipc2ClientSessionManagedProxyKindBaseINSB_18Hipc2ProxyKindBaseILNSA_6detail11MessageTypeE6EEEEEEENS0_30MemoryResourceAllocationPolicyES8_NS3_19ProcessModifierImplINS2_21DefaultProxyFilterTagEEEE29_nn_sf_sync_ReadFriendRequestERKNS_7account3UidENS5_9RequestIdE = 0x00000000001a1920 + __sdk_start;
_ZNK2nn5album24MovieMakerMovieParameter17GetVideoFrameRateEv = 0x000000000001c150 + __sdk_start;
_ZTIN2nn2sf6detail38ObjectImplFactoryWithStatefulAllocatorINS0_4cmif6client6detail9CmifProxyINS_2am7service22ILibraryAppletAccessorENS4_19CmifDomainProxyKindINS0_4hipc6client38Hipc2ClientSessionManagedProxyKindBaseINSC_18Hipc2ProxyKindBaseILNSB_6detail11MessageTypeE6EEEEEEENS0_30MemoryResourceAllocationPolicyENS5_19ProcessModifierImplINS4_21DefaultProxyFilterTagEEEvEESK_E6ObjectE = 0x0000000000c14d40 + __sdk_start;
_ZN2nn5audio12RemoveReverbEPNS0_19AudioRendererConfigEPNS0_10ReverbTypeEPNS0_10SubMixTypeE = 0x00000000000429f0 + __sdk_start;
nnmem_nlib_fd_close = 0x00000000002e0950 + __sdk_start;
_ZN2nn3mii13ImageDatabase6ReloadEv = 0x00000000003038e0 + __sdk_start;
_ZN2nn2sf4cmif6client6detail13CmifProxyImplINS_3hid10IHidServerENS0_4hipc6client18Hipc2ProxyKindBaseILNS7_6detail11MessageTypeE6EEENS0_30MemoryResourceAllocationPolicyES6_NS3_19ProcessModifierImplINS2_21DefaultProxyFilterTagEEEE36_nn_sf_sync_IsVibrationDeviceMountedENS0_3OutIbvEENS_6applet20AppletResourceUserIdENS5_21VibrationDeviceHandleE = 0x0000000000229540 + __sdk_start;
_ZN2nn2sf4hipc6server2v16detail29HipcAllInOneServerManagerBase14InitializePortEiiPKc = 0x0000000000372f40 + __sdk_start;
_ZNKSt3__16locale9use_facetERNS0_2idE = 0x00000000004d1200 + __sdk_start;
_ZN2nn5album27EncodeMovieMakerAudioSampleEPKvm = 0x000000000001bee0 + __sdk_start;
_ZN2nn2sf4cmif6client6detail13CmifProxyImplINS_2am7service22IGlobalStateControllerENS2_19CmifDomainProxyKindINS0_4hipc6client38Hipc2ClientSessionManagedProxyKindBaseINSA_18Hipc2ProxyKindBaseILNS9_6detail11MessageTypeE6EEEEEEENS0_30MemoryResourceAllocationPolicyES7_NS3_19ProcessModifierImplINS2_21DefaultProxyFilterTagEEEE42_nn_sf_sync_LoadAndApplyIdlePolicySettingsEv = 0x000000000002a9e0 + __sdk_start;
_ZN2nn5codec33FDK_sbrDecoder_sbr_frame_info2_16E = 0x0000000000a635d8 + __sdk_start;
_ZN2nn2fs18GetSaveDataOwnerIdEPmm = 0x00000000001ece50 + __sdk_start;
_ZN2nn4util10BitFlagSetILi256ENS_3hid11KeyboardKeyEE4FlagILi21EE4MaskE = 0x0000000000a717b8 + __sdk_start;
_ZN2nn6socket10SetSockOptEiiiPKvj = 0x000000000037bb60 + __sdk_start;
_ZTIN2nn2sf6detail38ObjectImplFactoryWithStatefulAllocatorINS0_4cmif6client6detail9CmifProxyINS_2am7service19IApplicationCreatorENS4_19CmifDomainProxyKindINS0_4hipc6client38Hipc2ClientSessionManagedProxyKindBaseINSC_18Hipc2ProxyKindBaseILNSB_6detail11MessageTypeE6EEEEEEENS0_30MemoryResourceAllocationPolicyENS5_19ProcessModifierImplINS4_21DefaultProxyFilterTagEEEvEESK_E6ObjectE = 0x0000000000c15240 + __sdk_start;
_ZN2nn2fs27GetFileTimeStampRawForDebugEPNS0_16FileTimeStampRawEPKc = 0x00000000001bd0c0 + __sdk_start;
_ZN2nn5image10PngDecoderC1Ev = 0x00000000002978f0 + __sdk_start;
_ZN2nn8settings6detail30GetExternalSteadyClockSourceIdEPNS_4util4UuidE = 0x0000000000360ff0 + __sdk_start;
_ZN2nn5codec26transportDec_EndAccessUnitEPNS0_12TRANSPORTDECE = 0x000000000010e3f0 + __sdk_start;
_ZN2nn2fs3dbm30BufferedAllocationTableStorage18InitializeBufferedEPNS1_15AllocationTableEjjNS0_10SubStorageEPNS0_14IBufferManagerE = 0x00000000001b4920 + __sdk_start;
_ZN2nn2fs6detail22LruFileDataCacheSystem5PurgeEPNS0_8IStorageE = 0x00000000001fb1a0 + __sdk_start;
_ZN2nn3hid6detail25GetGyroscopeZeroDriftModeEPNS0_22GyroscopeZeroDriftModeENS0_19SixAxisSensorHandleE = 0x000000000020cfe0 + __sdk_start;
_ZTIN2nn2sf6detail38ObjectImplFactoryWithStatefulAllocatorINS0_4cmif6client6detail9CmifProxyINS_8settings21ISystemSettingsServerENS0_4hipc6client18Hipc2ProxyKindBaseILNS9_6detail11MessageTypeE6EEENS0_30MemoryResourceAllocationPolicyENS5_19ProcessModifierImplINS4_21DefaultProxyFilterTagEEEvEESF_E6ObjectE = 0x0000000000c308b8 + __sdk_start;
_ZN2nn6socket6detail4OpenEPKcNS0_8OpenFlagE = 0x0000000000385f80 + __sdk_start;
_ZN2nn7account8NotifierC1EPNS0_6detail9INotifierE = 0x0000000000018150 + __sdk_start;
_ZTIN2nn2sf4cmif6client6detail9CmifProxyINS_7account4baas28IFloatingRegistrationRequestENS2_19CmifDomainProxyKindINS0_4hipc6client38Hipc2ClientSessionManagedProxyKindBaseINSA_18Hipc2ProxyKindBaseILNS9_6detail11MessageTypeE6EEEEEEENS0_25StatelessAllocationPolicyINS0_22ExpHeapStaticAllocatorILm2048ENS5_6detail12ObjectHolder24ObjectHolderAllocatorTagEEEEENS3_19ProcessModifierImplINS2_21DefaultProxyFilterTagEEEvEE = 0x0000000000c0e598 + __sdk_start;
_ZN2nn8irsensor6detail13StatusManager22GetIrSensorAruidStatusEPNS_4util10BitFlagSetILi32ENS1_16AppletStatusFlagEEERKNS_6applet20AppletResourceUserIdE = 0x00000000002a6290 + __sdk_start;
_ZN2nn3mem17StandardAllocator10InitializeEPvmb = 0x00000000002ede80 + __sdk_start;
_ZTIN2nn3nfc6detail14ISystemManagerE = 0x0000000000c2a758 + __sdk_start;
nnosWaitConditionVariable = 0x000000000033dab0 + __sdk_start;
_ZNK2nn3mii21ParamCharInfoAccessor12GetGlassTypeEv = 0x00000000002f1de0 + __sdk_start;
_ZN2nn4time13ClockSnapshotC1Ev = 0x00000000003a0c60 + __sdk_start;
nndetailImagePng_png_write_hIST = 0x0000000000295110 + __sdk_start;
_ZN2nn4npns11CreateTokenEPNS0_17NotificationTokenERKNS_7account3UidENS_13ApplicationIdE = 0x000000000032f060 + __sdk_start;
_ZN2nn2sf4cmif6client6detail13CmifProxyImplINS_3ssl2sf11ISslContextENS2_19CmifDomainProxyKindINS0_4hipc6client38Hipc2ClientSessionManagedProxyKindBaseINSA_18Hipc2ProxyKindBaseILNS9_6detail11MessageTypeE6EEEEEEENS0_24StatefulAllocationPolicyINS0_16ExpHeapAllocatorEEES7_NS3_19ProcessModifierImplINS2_21DefaultProxyFilterTagEEEE28_nn_sf_sync_CreateConnectionENS0_3OutINS0_13SharedPointerINS6_14ISslConnectionEEEvEE = 0x0000000000398210 + __sdk_start;
_ZN2nn2vi13ObjectManager25GetValidDisplayHolderListEv = 0x00000000003c2690 + __sdk_start;
_ZN2nn6fontll6detail24PickKerningFromGposTableEPNS0_15OtfKerningTableEPKvb = 0x000000000015ee60 + __sdk_start;
tdelete = 0x000000000054e870 + __sdk_start;
_ZN2nn5audio20GetSplitterMixVolumeEPKNS0_12SplitterTypeEiPKNS0_10SubMixTypeEii = 0x0000000000046290 + __sdk_start;
_ZN2nn2fs20DeleteSystemSaveDataEmRKNS_7account3UidE = 0x0000000000202d10 + __sdk_start;
_ZN2nn7nlibsdk4heap14TlsHeapCentral12CalcHeapHashEP8HeapHash = 0x00000000002ec130 + __sdk_start;
_ZThn32_N2nn2sf4cmif6client6detail13CmifProxyImplINS_7account7profile8IProfileENS2_19CmifDomainProxyKindINS0_4hipc6client38Hipc2ClientSessionManagedProxyKindBaseINSA_18Hipc2ProxyKindBaseILNS9_6detail11MessageTypeE6EEEEEEENS0_25StatelessAllocationPolicyINS0_22ExpHeapStaticAllocatorILm2048ENS5_6detail12ObjectHolder24ObjectHolderAllocatorTagEEEEENS6_14IProfileEditorENS3_19ProcessModifierImplINS2_21DefaultProxyFilterTagEEEE17GetCmifBaseObjectEv = 0x000000000000f050 + __sdk_start;
_ZN2nn2fs20DeleteSystemSaveDataENS0_15SaveDataSpaceIdEmRKNS0_6UserIdE = 0x00000000001eaa30 + __sdk_start;
nndetailImagePng_png_set_strip_alpha = 0x0000000000281a90 + __sdk_start;
_ZN2nn3ngc61RequestProfanityWordDatabaseUpdateCheckForPlatformRegionChinaEv = 0x0000000000322560 + __sdk_start;
_ZN7android19GraphicBufferMapper14lockAsyncYCbCrEPK13native_handleiRKNS_4RectEP13android_ycbcri = 0x00000000004493b0 + __sdk_start;
_ZNSt11logic_errorD0Ev = 0x0000000000506380 + __sdk_start;
_ZN2nn5audio10EffectInfoC1Ev = 0x0000000000042260 + __sdk_start;
_ZN2nn2sf4hipc6client24Hipc2ClientCoreProcessorILNS1_6detail11MessageTypeE6ENS0_4cmif6detail14CoreMethodInfoINSt3__15tupleIJNS7_17InRawArgumentInfoILm4ELm4ELl4EEENSB_ILm24ELm4ELl8EEENSB_ILm1ELm1ELl0EEENSB_ILm24ELm4ELl32EEENSB_ILm24ELm4ELl56EEENSB_ILm1ELm1ELl1EEEEEELm80ELm0ELb0EEESI_E7ProcessEPNS2_26Hipc2ClientProxyBaseObjectENS6_6client23InRawClientArgumentTypeILm4ELm4EvEENSO_ILm24ELm4EvEENSO_ILm1ELm1EvEESQ_SQ_SR_j = 0x000000000008a470 + __sdk_start;
_ZN2nn5image6detail4jpeg13jpeg_idct_6x3EPNS2_22jpeg_decompress_structEPNS2_19jpeg_component_infoEPsPPhi = 0x000000000026adb0 + __sdk_start;
_ZTIN7android12ConsumerBaseE = 0x0000000000c3dca0 + __sdk_start;
strsep = 0x0000000000555558 + __sdk_start;
_ZN2nn5audio6common20GetSplitterInfoMagicEv = 0x00000000000494a0 + __sdk_start;
_ZN2nn5audio6common19WorkBufferAllocatorC2EPvm = 0x00000000000496b0 + __sdk_start;
_ZZN2nn2sf40SimpleAllInOneHipcSubDomainClientManagerILm16EE27InitializeShimLibraryHolderINS_4nifm6detail14IStaticServiceENS0_4cmif6client6detail19ProcessModifierImplINS8_21DefaultProxyFilterTagEEEEENS_6ResultEPNS0_23ShimLibraryObjectHolderIT_EEPKcPNS_14MemoryResourceEENUlPvE_8__invokeESM_ = 0x00000000003299e0 + __sdk_start;
nnsocketInetHtonll = 0x000000000037c4e0 + __sdk_start;
_ZN2nn2fs6detail18FileSystemAccessor15DeleteDirectoryEPKc = 0x00000000001b75b0 + __sdk_start;
_ZN2nn3hid6system26GetXcdHandleForNpadWithNfcEPNS_3xcd12DeviceHandleEj = 0x0000000000227e00 + __sdk_start;
_ZN2nn2sf4cmif6client6detail13CmifProxyImplINS_5visrv2sf22IManagerDisplayServiceENS0_4hipc6client18Hipc2ProxyKindBaseILNS8_6detail11MessageTypeE6EEENS0_30MemoryResourceAllocationPolicyES7_NS3_19ProcessModifierImplINS2_21DefaultProxyFilterTagEEEE45_nn_sf_sync_SetDetachedSharedFrameBufferImageENS_2vi7fbshare18SharedBufferHandleElRKNS0_8InBufferERKNSK_19SharedTextureOptionEj = 0x00000000003bbbf0 + __sdk_start;
_ZNSt3__15stoldERKNS_12basic_stringIcNS_11char_traitsIcEENS_9allocatorIcEEEEPm = 0x00000000004eb358 + __sdk_start;
_ZN2nn2sf4cmif6client6detail13CmifProxyImplINS_2am7service21IApplicationFunctionsENS2_19CmifDomainProxyKindINS0_4hipc6client38Hipc2ClientSessionManagedProxyKindBaseINSA_18Hipc2ProxyKindBaseILNS9_6detail11MessageTypeE6EEEEEEENS0_30MemoryResourceAllocationPolicyES7_NS3_19ProcessModifierImplINS2_21DefaultProxyFilterTagEEEE30_nn_sf_sync_SetTerminateResultEj = 0x000000000002fd40 + __sdk_start;
_ZN2nn2sf4cmif6client6detail13CmifProxyImplINS_2am7service21IApplicationFunctionsENS2_19CmifDomainProxyKindINS0_4hipc6client38Hipc2ClientSessionManagedProxyKindBaseINSA_18Hipc2ProxyKindBaseILNS9_6detail11MessageTypeE6EEEEEEENS0_30MemoryResourceAllocationPolicyES7_NS3_19ProcessModifierImplINS2_21DefaultProxyFilterTagEEEE67_nn_sf_sync_CreateApplicationWithAttributeAndRequestToStartForQuestENS_3ncm13ApplicationIdERKNS5_20ApplicationAttributeE = 0x000000000002fcd0 + __sdk_start;
_ZN2nn2sf4cmif6client6detail13CmifProxyImplINS_2am7service30IAllSystemAppletProxiesServiceENS2_19CmifDomainProxyKindINS0_4hipc6client38Hipc2ClientSessionManagedProxyKindBaseINSA_18Hipc2ProxyKindBaseILNS9_6detail11MessageTypeE6EEEEEEENS0_30MemoryResourceAllocationPolicyES7_NS3_19ProcessModifierImplINS2_21DefaultProxyFilterTagEEEE37_nn_sf_sync_OpenLibraryAppletProxyOldENS0_3OutINS0_13SharedPointerINS6_19ILibraryAppletProxyEEEvEEmONS0_12NativeHandleE = 0x0000000000021f50 + __sdk_start;
_ZN2nn2sf4cmif6client34CmifDomainProxyClientCoreProcessorINS0_4hipc6client38Hipc2ClientSessionManagedProxyKindBaseINS5_18Hipc2ProxyKindBaseILNS4_6detail11MessageTypeE6EEEEENS1_6detail14CoreMethodInfoINSt3__15tupleIJNSC_18OutRawArgumentInfoILm4ELm4ELl0EEENSC_21OutObjectArgumentInfoILi0ELi0EEEEEELm0ELm4ELb0EEESK_E21ProcessWithOutObjectsEPNS2_23CmifDomainClientMessageISB_E15ProxyBaseObjectENS2_24OutRawClientArgumentTypeILm4ELm4EEENS2_27OutObjectClientArgumentTypeEjPNS0_13SharedPointerINS0_14IServiceObjectEEE = 0x0000000000241370 + __sdk_start;
_ZN2nn3mii6detail16Ver3StoreDataRaw12SetMouthTypeEi = 0x0000000000300b20 + __sdk_start;
_ZNK2nn3mii6detail16Ver3StoreDataRaw12GetMouthTypeEv = 0x00000000002fd670 + __sdk_start;
nvdcQueryNumHeads = 0x00000000003cc4d0 + __sdk_start;
_ZNSt3__112__get_sp_mutEPKv = 0x00000000004e3a30 + __sdk_start;
conj = 0x0000000000532e60 + __sdk_start;
_ZTIN2nn2sf4cmif6client6detail13CmifProxyImplINS_7account24IBaasAccessTokenAccessorENS2_19CmifDomainProxyKindINS0_4hipc6client38Hipc2ClientSessionManagedProxyKindBaseINS9_18Hipc2ProxyKindBaseILNS8_6detail11MessageTypeE6EEEEEEENS0_30MemoryResourceAllocationPolicyES6_NS3_19ProcessModifierImplINS2_21DefaultProxyFilterTagEEEEE = 0x0000000000c0eed0 + __sdk_start;
_ZTSN2nn3hid13VibrationNodeE = 0x0000000000a81ef8 + __sdk_start;
duplocale = 0x000000000053d148 + __sdk_start;
_ZN2nn5audio19GetReverbColorationEPKNS0_10ReverbTypeE = 0x0000000000042f30 + __sdk_start;
_ZN2nn5codec12LdDataVectorEPiS1_i = 0x0000000000101cb0 + __sdk_start;
_ZN2nn3hid6detail41EnableUnintendedHomeButtonInputProtectionERKjb = 0x0000000000207430 + __sdk_start;
_ZN2nn3mii6detail16Ver3StoreDataRaw11SetPadding3Ei = 0x0000000000300ca0 + __sdk_start;
_ZN2nn3mii18GetAppendMiiResultEPiNS_6applet13StorageHandleE = 0x0000000000307ac0 + __sdk_start;
_ZN2nn3ngc6detail11InputStream11CheckBufferEv = 0x000000000031c2c0 + __sdk_start;
_ZN2nn2sf4cmif6client34CmifDomainProxyClientCoreProcessorINS0_4hipc6client38Hipc2ClientSessionManagedProxyKindBaseINS5_18Hipc2ProxyKindBaseILNS4_6detail11MessageTypeE6EEEEENS1_6detail14CoreMethodInfoINSt3__15tupleIJNSC_18OutRawArgumentInfoILm4ELm4ELl0EEENSG_ILm4ELm4ELl4EEENSC_17InRawArgumentInfoILm4ELm4ELl0EEENSC_18BufferArgumentInfoILi0ELi6ELm0EEENSJ_ILm4ELm4ELl4EEENSJ_ILm4ELm4ELl8EEEEEELm12ELm8ELb0EEESP_E7ProcessEPNS2_23CmifDomainClientMessageISB_E15ProxyBaseObjectENS2_24OutRawClientArgumentTypeILm4ELm4EEESX_NS2_23InRawClientArgumentTypeILm4ELm4EvEENS2_24BufferClientArgumentTypeESZ_SZ_j = 0x000000000038de90 + __sdk_start;
_ZN2nn2sf4cmif6client6detail13CmifProxyImplINS_7timesrv6detail7service16ITimeZoneServiceENS2_19CmifDomainProxyKindINS0_4hipc6client38Hipc2ClientSessionManagedProxyKindBaseINSB_18Hipc2ProxyKindBaseILNSA_6detail11MessageTypeE6EEEEEEENS0_30MemoryResourceAllocationPolicyES8_NS3_19ProcessModifierImplINS2_21DefaultProxyFilterTagEEEE23_nn_sf_sync_ToPosixTimeENS0_3OutIivEERKNS0_8OutArrayINS_4time9PosixTimeEEENSR_12CalendarTimeERKNSR_12TimeZoneRuleE = 0x00000000003a5660 + __sdk_start;
_ZNKSt3__120__time_get_c_storageIcE7__am_pmEv = 0x00000000004d9258 + __sdk_start;
_ZNSt3__118__time_get_storageIwEC2ERKNS_12basic_stringIcNS_11char_traitsIcEENS_9allocatorIcEEEE = 0x00000000004dcfe8 + __sdk_start;
_ZTIN2nn2sf4cmif6client6detail9CmifProxyINS_7account4http15IOAuthProcedureENS2_19CmifDomainProxyKindINS0_4hipc6client38Hipc2ClientSessionManagedProxyKindBaseINSA_18Hipc2ProxyKindBaseILNS9_6detail11MessageTypeE6EEEEEEENS0_25StatelessAllocationPolicyINS0_22ExpHeapStaticAllocatorILm2048ENS5_6detail12ObjectHolder24ObjectHolderAllocatorTagEEEEENS3_19ProcessModifierImplINS2_21DefaultProxyFilterTagEEEvEE = 0x0000000000c0ec10 + __sdk_start;
_ZN2nn2sf4cmif6client6detail13CmifProxyImplINS_2am7service22IGlobalStateControllerENS2_19CmifDomainProxyKindINS0_4hipc6client38Hipc2ClientSessionManagedProxyKindBaseINSA_18Hipc2ProxyKindBaseILNS9_6detail11MessageTypeE6EEEEEEENS0_30MemoryResourceAllocationPolicyES7_NS3_19ProcessModifierImplINS2_21DefaultProxyFilterTagEEEE33_nn_sf_sync_StartShutdownSequenceEv = 0x000000000002a980 + __sdk_start;
_ZN2nn5audio38AcquireAudioDeviceNotificationForInputEPNS_2os11SystemEventE = 0x00000000000555c0 + __sdk_start;
nnosGetReadableHandleOfSystemEvent = 0x000000000033dba0 + __sdk_start;
_ZN2nn6socket6detail11GetPeerNameEiPNS0_8SockAddrEPj = 0x00000000003830f0 + __sdk_start;
_ZNK7android22GraphicBufferAllocator4dumpERNS_7String8E = 0x0000000000448a20 + __sdk_start;
_ZTVSt13runtime_error = 0x0000000000c4b698 + __sdk_start;
_ZTSN2nn2sf6detail39ObjectImplFactoryWithStatelessAllocatorINS0_4cmif6client6detail9CmifProxyINS_7account4http15IOAuthProcedureENS4_19CmifDomainProxyKindINS0_4hipc6client38Hipc2ClientSessionManagedProxyKindBaseINSC_18Hipc2ProxyKindBaseILNSB_6detail11MessageTypeE6EEEEEEENS0_25StatelessAllocationPolicyINS0_22ExpHeapStaticAllocatorILm2048ENS7_6detail12ObjectHolder24ObjectHolderAllocatorTagEEEEENS5_19ProcessModifierImplINS4_21DefaultProxyFilterTagEEEvEESQ_E6ObjectE = 0x0000000000a2df2b + __sdk_start;
_ZN2nn2sf4hipc6client24Hipc2ClientCoreProcessorILNS1_6detail11MessageTypeE6ENS0_4cmif6detail14CoreMethodInfoINSt3__15tupleIJNS7_17InRawArgumentInfoILm8ELm8ELl0EEENS7_21OutObjectArgumentInfoILi0ELi0EEENS7_18BufferArgumentInfoILi0ELi5ELm0EEENSB_ILm8ELm4ELl8EEENS7_20InHandleArgumentInfoILi0ELi1EEENS7_18OutRawArgumentInfoILm16ELm4ELl0EEENSF_ILi1ELi6ELm0EEENSB_ILm8ELm8ELl16EEEEEELm24ELm16ELb1EEESO_E21ProcessWithOutObjectsEPNS2_26Hipc2ClientProxyBaseObjectENS6_6client23InRawClientArgumentTypeILm8ELm8EvEENST_27OutObjectClientArgumentTypeENST_24BufferClientArgumentTypeENSU_ILm8ELm4EvEENST_26InHandleClientArgumentTypeENST_24OutRawClientArgumentTypeILm16ELm4EEESX_SV_jPNS0_13SharedPointerINS0_14IServiceObjectEEE = 0x000000000004fee0 + __sdk_start;
_ZN2nn3ngc6detail11InputStreamD0Ev = 0x000000000031cdf0 + __sdk_start;
_ZN2nn2sf4cmif6client6detail13CmifProxyImplINS_8settings21ISystemSettingsServerENS0_4hipc6client18Hipc2ProxyKindBaseILNS7_6detail11MessageTypeE6EEENS0_30MemoryResourceAllocationPolicyES6_NS3_19ProcessModifierImplINS2_21DefaultProxyFilterTagEEEE46_nn_sf_sync_SetServiceDiscoveryControlSettingsENS5_6system31ServiceDiscoveryControlSettingsE = 0x000000000036cdf0 + __sdk_start;
_ZNK2nn3mii6detail12StoreDataRaw7GetTypeEv = 0x00000000002f9b90 + __sdk_start;
_ZN2nn4edid24GetDisplayModePreferenceEPNS0_15DisplayModeInfoEPNS0_17DisplayTimingInfoEPNS0_13ImageSizeInfoEPKNS0_4EdidE = 0x0000000000159330 + __sdk_start;
_ZN2nn2os24GetThreadCurrentPriorityEPKNS0_10ThreadTypeE = 0x000000000033be90 + __sdk_start;
_ZN7android12ConsumerBase16freeBufferLockedEi = 0x0000000000434ec0 + __sdk_start;
strtold = 0x0000000000530518 + __sdk_start;
_ZTINSt3__114error_categoryE = 0x0000000000c496b0 + __sdk_start;
_ZTIN2nn2sf6detail38ObjectImplFactoryWithStatefulAllocatorINS0_4cmif6client6detail9CmifProxyINS_2ec21IPurchaseEventManagerENS0_4hipc6client18Hipc2ProxyKindBaseILNS9_6detail11MessageTypeE6EEENS0_30MemoryResourceAllocationPolicyENS5_19ProcessModifierImplINS4_21DefaultProxyFilterTagEEEvEESF_E6ObjectE = 0x0000000000c16f48 + __sdk_start;
_ZNK2nn5audio6server12VoiceContext8GetStateEi = 0x000000000006b700 + __sdk_start;
_ZTSN2nn2sf6detail38ObjectImplFactoryWithStatefulAllocatorINS0_4cmif6client6detail9CmifProxyINS_4bcat6detail3ipc25IDeliveryCacheFileServiceENS4_19CmifDomainProxyKindINS0_4hipc6client38Hipc2ClientSessionManagedProxyKindBaseINSD_18Hipc2ProxyKindBaseILNSC_6detail11MessageTypeE6EEEEEEENS0_30MemoryResourceAllocationPolicyENS5_19ProcessModifierImplINS4_21DefaultProxyFilterTagEEEvEESL_E6ObjectE = 0x0000000000a4d46a + __sdk_start;
_ZN2nn2sf4hipc6client24Hipc2ClientCoreProcessorILNS1_6detail11MessageTypeE6ENS0_4cmif6detail14CoreMethodInfoINSt3__15tupleIJNS7_17InRawArgumentInfoILm6ELm1ELl0EEENSB_ILm2ELm2ELl6EEENSB_ILm2ELm2ELl8EEEEEELm10ELm0ELb0EEESF_E7ProcessEPNS2_26Hipc2ClientProxyBaseObjectENS6_6client23InRawClientArgumentTypeILm6ELm1EvEENSL_ILm2ELm2EvEESN_j = 0x0000000000088f20 + __sdk_start;
_ZN2nn4util10BitFlagSetILi256ENS_3hid11KeyboardKeyEE4FlagILi65EE4MaskE = 0x0000000000a71d38 + __sdk_start;
_ZN2nn2sf4cmif6client6detail13CmifProxyImplINS_6jitsrv15IJitEnvironmentENS0_4hipc6client18Hipc2ProxyKindBaseILNS7_6detail11MessageTypeE6EEENS0_30MemoryResourceAllocationPolicyES6_NS3_19ProcessModifierImplINS2_21DefaultProxyFilterTagEEEE24_nn_sf_sync_GenerateCodeENS0_3OutIivEENSI_INS_3jit9CodeRangeEvEESM_RKNS0_8InBufferEmRKSL_SR_RKNS5_8Struct32EjRKNS0_9OutBufferE = 0x00000000002bf760 + __sdk_start;
_ZTSN2nn2sf4cmif6client6detail9CmifProxyINS_5visrv2sf19IManagerRootServiceENS0_4hipc6client18Hipc2ProxyKindBaseILNS8_6detail11MessageTypeE6EEENS0_30MemoryResourceAllocationPolicyENS3_19ProcessModifierImplINS2_21DefaultProxyFilterTagEEEvEE = 0x0000000000abc4bf + __sdk_start;
_ZNSt3__119__shared_weak_count12__add_sharedEv = 0x00000000004e3880 + __sdk_start;
_ZN2nn9bluetooth11GattServiceC1Ev = 0x0000000000090790 + __sdk_start;
_ZN2nn2fs3dbm22AllocationTableStorage7SetSizeEl = 0x00000000001b3fb0 + __sdk_start;
_ZN2nn2fs3dbm29HierarchicalFileTableTemplateINS1_13DirectoryNameENS1_8FileNameENS1_6detail13DirectoryInfoENS5_8FileInfoEE10DeleteFileEPKc = 0x00000000001c38d0 + __sdk_start;
_ZN2nn4nifm6detail39ConvertNetworkInterfaceInfoToSfFromNifmEPNS1_2sf20NetworkInterfaceInfoERKNS0_20NetworkInterfaceInfoE = 0x000000000032cf00 + __sdk_start;
nnosSetTlsValue = 0x000000000033dec0 + __sdk_start;
_ZN2nn2sf4cmif6client6detail13CmifProxyImplINS_8settings22IFactorySettingsServerENS0_4hipc6client18Hipc2ProxyKindBaseILNS7_6detail11MessageTypeE6EEENS0_30MemoryResourceAllocationPolicyES6_NS3_19ProcessModifierImplINS2_21DefaultProxyFilterTagEEEE26_nn_sf_sync_GetGameCardKeyENS0_3OutINS5_7factory11GameCardKeyEvEE = 0x0000000000368020 + __sdk_start;
_ZN7android12NativeHandle6createEP13native_handleb = 0x000000000044c560 + __sdk_start;
_Unwind_Resume_or_Rethrow = 0x000000000050d418 + __sdk_start;
_ZN2nn4bcat37RegisterSystemApplicationDeliveryTaskENS_13ApplicationIdE = 0x00000000000801f0 + __sdk_start;
nnmem_nlib_munlock = 0x00000000002dfed0 + __sdk_start;
_ZN2nn3mii6detail12StoreDataRaw8SetMoleXEi = 0x00000000002fa620 + __sdk_start;
_ZN2nn5srepo6detail15ReportGenerator11AddKeyValueEPmPKcRKNS0_5ArrayEPhmmm = 0x000000000034f2a0 + __sdk_start;
_ZNSt3__18numpunctIcE2idE = 0x0000000000d0eac0 + __sdk_start;
_ZN2nn5codec11ApplyPsSlotEPNS0_6PS_DECEPPiS4_S3_S3_ = 0x0000000000127f30 + __sdk_start;
_ZN2nn3hid6system6detail30IsAnalogStickInReleasePositionEPbNS1_11UniquePadIdENS1_19AnalogStickPositionE = 0x0000000000221de0 + __sdk_start;
_ZN2nn2sf4cmif6client6detail13CmifProxyImplINS_3hid10IHidServerENS0_4hipc6client18Hipc2ProxyKindBaseILNS7_6detail11MessageTypeE6EEENS0_30MemoryResourceAllocationPolicyES6_NS3_19ProcessModifierImplINS2_21DefaultProxyFilterTagEEEE35_nn_sf_sync_MergeSingleJoyAsDualJoyENS_6applet20AppletResourceUserIdEjj = 0x00000000002290f0 + __sdk_start;
_ZN7android8Composer11setPositionERKNS_2spINS_21SurfaceComposerClientEEERKNS1_INS_7IBinderEEEff = 0x0000000000443230 + __sdk_start;
_ZTSNSt3__115messages_bynameIcEE = 0x0000000000ac8046 + __sdk_start;
_ZN2nn5audio24GetI3dl2ReverbParametersEPKNS0_15I3dl2ReverbTypeE = 0x00000000000420e0 + __sdk_start;
_ZN2nn3hid15VibrationWriterD0Ev = 0x0000000000219bd0 + __sdk_start;
_ZN2nn2vi6native8ParcelIo10OpenParcelEPN7android6ParcelEPKvm = 0x00000000003c45a0 + __sdk_start;
_ZN2nn2sf4hipc6client24Hipc2ClientCoreProcessorILNS1_6detail11MessageTypeE6ENS0_4cmif6detail14CoreMethodInfoINSt3__15tupleIJNS7_17InRawArgumentInfoILm8ELm8ELl0EEENS7_18BufferArgumentInfoILi0ELi9ELm0EEENSD_ILi1ELi9ELm0EEEEEELm8ELm0ELb0EEESG_E7ProcessEPNS2_26Hipc2ClientProxyBaseObjectENS6_6client23InRawClientArgumentTypeILm8ELm8EvEENSL_24BufferClientArgumentTypeESO_j = 0x000000000022ba60 + __sdk_start;
_ZN2nn2oe22GetNotificationMessageEv = 0x0000000000336920 + __sdk_start;
nvdcGetMode = 0x00000000003cd8b0 + __sdk_start;
_ZN2nn2sf4cmif6client6detail13CmifProxyImplINS_2am7service18IAppletProxyCommonENS2_19CmifDomainProxyKindINS0_4hipc6client38Hipc2ClientSessionManagedProxyKindBaseINSA_18Hipc2ProxyKindBaseILNS9_6detail11MessageTypeE6EEEEEEENS0_30MemoryResourceAllocationPolicyENS6_18ISystemAppletProxyENS3_19ProcessModifierImplINS2_21DefaultProxyFilterTagEEEE32_nn_sf_sync_GetDisplayControllerENS0_3OutINS0_13SharedPointerINS6_18IDisplayControllerEEEvEE = 0x00000000000229f0 + __sdk_start;
_ZN2nn2os18FinalizeLightEventEPNS0_14LightEventTypeE = 0x0000000000339000 + __sdk_start;
_ZTv0_n24_NSt3__113basic_ostreamIcNS_11char_traitsIcEEED1Ev = 0x00000000004ac638 + __sdk_start;
_ZNKSt3__110__time_put8__do_putEPwRS1_PK2tmcc = 0x00000000004c3730 + __sdk_start;
_ZN2nn2fs20ResolveAccessFailureEm = 0x00000000001c5de0 + __sdk_start;
nndetailImagePng_png_set_crc_action = 0x00000000002817b0 + __sdk_start;
strtoll = 0x0000000000553b48 + __sdk_start;
_ZN2nn2sf4cmif6client34CmifDomainProxyClientCoreProcessorINS0_4hipc6client38Hipc2ClientSessionManagedProxyKindBaseINS5_18Hipc2ProxyKindBaseILNS4_6detail11MessageTypeE6EEEEENS1_6detail14CoreMethodInfoINSt3__15tupleIJNSC_17InRawArgumentInfoILm16ELm8ELl0EEENSC_18BufferArgumentInfoILi0ELi5ELm0EEEEEELm16ELm0ELb0EEESK_E7ProcessEPNS2_23CmifDomainClientMessageISB_E15ProxyBaseObjectENS2_23InRawClientArgumentTypeILm16ELm8EvEENS2_24BufferClientArgumentTypeEj = 0x0000000000009e10 + __sdk_start;
_ZN2nn3mii13ImageDatabase11MaxFileSizeE = 0x0000000000aa7a4c + __sdk_start;
_ZN2nn2vi6detail22ServiceReferenceHolder23ResetApplicationServiceEv = 0x00000000003c3270 + __sdk_start;
_ZN2nn2sf4cmif6client6detail13CmifProxyImplINS_8settings21ISystemSettingsServerENS0_4hipc6client18Hipc2ProxyKindBaseILNS7_6detail11MessageTypeE6EEENS0_30MemoryResourceAllocationPolicyES6_NS3_19ProcessModifierImplINS2_21DefaultProxyFilterTagEEEE44_nn_sf_sync_AcquireFatalDirtyFlagEventHandleENS0_3OutINS0_12NativeHandleEvEE = 0x000000000036c960 + __sdk_start;
NvRmGpuChannelGetInfo = 0x0000000000404aa0 + __sdk_start;
_ZN2nn5image6detail4jpeg10jpeg_abortEPNS2_18jpeg_common_structE = 0x00000000002549f0 + __sdk_start;
_ZN2nn2sf4hipc6client24Hipc2ClientCoreProcessorILNS1_6detail11MessageTypeE6ENS0_4cmif6detail14CoreMethodInfoINSt3__15tupleIJNS7_17InRawArgumentInfoILm8ELm8ELl0EEENSB_ILm8ELm8ELl8EEENSB_ILm8ELm8ELl16EEEEEELm24ELm0ELb1EEESF_E7ProcessEPNS2_26Hipc2ClientProxyBaseObjectENS6_6client23InRawClientArgumentTypeILm8ELm8EvEESM_SM_j = 0x0000000000356720 + __sdk_start;
_ZTSNSt3__112system_errorE = 0x0000000000ac8274 + __sdk_start;
_ZN2nn5codec11DeletePsDecEPPNS0_6PS_DECE = 0x0000000000124b40 + __sdk_start;
_ZN2nn8irsensor6detail20InternalErrorHandlerD1Ev = 0x00000000002a6b50 + __sdk_start;
_ZN2nn2sf4cmif6client34CmifDomainProxyClientCoreProcessorINS0_4hipc6client38Hipc2ClientSessionManagedProxyKindBaseINS5_18Hipc2ProxyKindBaseILNS4_6detail11MessageTypeE6EEEEENS1_6detail14CoreMethodInfoINSt3__15tupleIJNSC_18OutRawArgumentInfoILm16ELm1ELl0EEENSC_18BufferArgumentInfoILi0ELi25ELm380EEEEEELm0ELm16ELb0EEESK_E7ProcessEPNS2_23CmifDomainClientMessageISB_E15ProxyBaseObjectENS2_24OutRawClientArgumentTypeILm16ELm1EEENS2_24BufferClientArgumentTypeEj = 0x0000000000328330 + __sdk_start;
_ZNSt3__111__libcpp_db4swapEPvS1_ = 0x00000000004a3920 + __sdk_start;
_ZTINSt3__19time_baseE = 0x0000000000c47508 + __sdk_start;
_ZNK2nn5audio6server12BehaviorInfo25IsWaveBufferVer2SupportedEv = 0x0000000000066010 + __sdk_start;
_ZN2nn4edid6detail13GetColorDepthEh = 0x00000000001596a0 + __sdk_start;
_ZN2nn2sf4cmif6client6detail13CmifProxyImplINS_7friends6detail3ipc14IFriendServiceENS2_19CmifDomainProxyKindINS0_4hipc6client38Hipc2ClientSessionManagedProxyKindBaseINSB_18Hipc2ProxyKindBaseILNSA_6detail11MessageTypeE6EEEEEEENS0_30MemoryResourceAllocationPolicyES8_NS3_19ProcessModifierImplINS2_21DefaultProxyFilterTagEEEE43_nn_sf_sync_IsBlockedUserListCacheAvailableENS0_3OutIbvEERKNS_7account3UidE = 0x00000000001a10d0 + __sdk_start;
nnosTryAcquireSemaphore = 0x000000000033d920 + __sdk_start;
_ZTIN2nn2sf4cmif6client6detail13CmifProxyImplINS_2am7service18ISystemAppletProxyENS2_19CmifDomainProxyKindINS0_4hipc6client38Hipc2ClientSessionManagedProxyKindBaseINSA_18Hipc2ProxyKindBaseILNS9_6detail11MessageTypeE6EEEEEEENS0_30MemoryResourceAllocationPolicyES7_NS3_19ProcessModifierImplINS2_21DefaultProxyFilterTagEEEEE = 0x0000000000c13910 + __sdk_start;
_ZN2nn2sf4cmif6client6detail13CmifProxyImplINS_2lm10ILogGetterENS2_19CmifDomainProxyKindINS0_4hipc6client38Hipc2ClientSessionManagedProxyKindBaseINS9_18Hipc2ProxyKindBaseILNS8_6detail11MessageTypeE6EEEEEEENS0_30MemoryResourceAllocationPolicyES6_NS3_19ProcessModifierImplINS2_21DefaultProxyFilterTagEEEE23_nn_sf_sync_StopLoggingEv = 0x00000000002c77f0 + __sdk_start;
_ZN7android11BufferQueue23createBufferQueueForAppEPNS_2spINS_22IGraphicBufferProducerEEEPNS1_INS_22IGraphicBufferConsumerEEERKNS1_INS_19IGraphicBufferAllocEEEi = 0x000000000042d9d0 + __sdk_start;
_ZNSt3__113basic_istreamIwNS_11char_traitsIwEEEC1EPNS_15basic_streambufIwS2_EE = 0x00000000004a99d8 + __sdk_start;
_ZN2nn5audio16LimiterParameter24SupportedChannelCountMaxE = 0x0000000000a45f14 + __sdk_start;
_ZN2nn9bluetooth14GattDescriptorD0Ev = 0x00000000000912c0 + __sdk_start;
_ZN2nn6crypto6detail11CtrModeImplINS0_12AesEncryptorILm24EEEE16IncrementCounterEv = 0x0000000000134b90 + __sdk_start;
_ZN2nn3err14SystemErrorArg18DetachErrorContextEv = 0x000000000015cb60 + __sdk_start;
_ZN2nn2fs8PathTool9NormalizeEPcPmPKcmbb = 0x00000000001adaa0 + __sdk_start;
_ZNK2nn3mii6detail16Ver3StoreDataRaw13GetFontRegionEv = 0x00000000002fc3f0 + __sdk_start;
_ZN2nn3ssl10Connection19GetServerCertDetailEPNS1_16ServerCertDetailEPKcj = 0x0000000000395870 + __sdk_start;
_ZNK2nn2fs3dbm15AllocationTable20ConvertSectorToIndexEj = 0x00000000001b2bb0 + __sdk_start;
_ZN2nn3hid6system20BindNfcActivateEventEjPNS_2os15SystemEventTypeENS2_14EventClearModeE = 0x0000000000227e60 + __sdk_start;
_ZN2nn5image6detail4jpeg19jpeg_write_raw_dataEPNS2_20jpeg_compress_structEPPPhi = 0x0000000000249a10 + __sdk_start;
_ZN2nn2sf4hipc6client24Hipc2ClientCoreProcessorILNS1_6detail11MessageTypeE6ENS0_4cmif6detail14CoreMethodInfoINSt3__15tupleIJNS7_18OutRawArgumentInfoILm4ELm4ELl0EEENSB_ILm4ELm4ELl4EEENS7_17InRawArgumentInfoILm8ELm8ELl0EEEEEELm8ELm8ELb0EEESG_E7ProcessEPNS2_26Hipc2ClientProxyBaseObjectENS6_6client24OutRawClientArgumentTypeILm4ELm4EEESN_NSL_23InRawClientArgumentTypeILm8ELm8EvEEj = 0x00000000003ba370 + __sdk_start;
_ZNSt3__115__libcpp_tl_getEN2nn2os7TlsSlotE = 0x00000000004efe38 + __sdk_start;
_ZN2nn2sf4cmif6client6detail13CmifProxyImplINS_7account31IAccountServiceForAdministratorENS2_19CmifDomainProxyKindINS0_4hipc6client38Hipc2ClientSessionManagedProxyKindBaseINS9_18Hipc2ProxyKindBaseILNS8_6detail11MessageTypeE6EEEEEEENS0_25StatelessAllocationPolicyINS0_22ExpHeapStaticAllocatorILm2048ENS5_6detail12ObjectHolder24ObjectHolderAllocatorTagEEEEES6_NS3_19ProcessModifierImplINS2_21DefaultProxyFilterTagEEEE60_nn_sf_sync_ResumeProcedureToRegisterUserWithNintendoAccountENS0_3OutINS0_13SharedPointerINS5_3nas34IOAuthProcedureForUserRegistrationEEEvEERKNSJ_4UuidEONS0_12NativeHandleEj = 0x000000000000e8b0 + __sdk_start;
_ZN2nn6crypto6detail11CtrModeImplINS0_12AesEncryptorILm24EEEE6UpdateEPvmPKvm = 0x0000000000134810 + __sdk_start;
_ZN2nn2sf4cmif6client34CmifDomainProxyClientCoreProcessorINS0_4hipc6client38Hipc2ClientSessionManagedProxyKindBaseINS5_18Hipc2ProxyKindBaseILNS4_6detail11MessageTypeE6EEEEENS1_6detail14CoreMethodInfoINSt3__15tupleIJNSC_21OutObjectArgumentInfoILi0ELi0EEENSC_18BufferArgumentInfoILi0ELi25ELm769EEENSC_17InRawArgumentInfoILm8ELm8ELl8EEENSK_ILm4ELm4ELl0EEEEEELm16ELm0ELb0EEESN_E21ProcessWithOutObjectsEPNS2_23CmifDomainClientMessageISB_E15ProxyBaseObjectENS2_27OutObjectClientArgumentTypeENS2_24BufferClientArgumentTypeENS2_23InRawClientArgumentTypeILm8ELm8EvEENSW_ILm4ELm4EvEEjPNS0_13SharedPointerINS0_14IServiceObjectEEE = 0x00000000001ceae0 + __sdk_start;
_ZNK2nn3mii6detail16Ver3StoreDataRaw7IsValidEv = 0x00000000002fe090 + __sdk_start;
_ZN2nn4edid6cea86120VisitDetailedTimingsEPKhmPFbPKNS0_15DisplayModeInfoEPKNS0_17DisplayTimingInfoEPKNS0_13ImageSizeInfoEPvESD_ = 0x000000000015a940 + __sdk_start;
_ZN2nn3hid14VibrationMixerD2Ev = 0x0000000000218160 + __sdk_start;
_ZN2nn2sf33ScopedCurrentMemoryResourceSetterD2Ev = 0x0000000000370780 + __sdk_start;
_ZN2nn2sf13InterfaceInfoINS0_4hipc6detail12IHipcManagerEE4_tABINS5_5_tO2NINS2_6server2v134HipcServerSessionManagerWithDomain15HipcManagerImplEE4typeES4_E4type30_nn_sf_sync_CloneCurrentObjectENS0_3OutINS0_12NativeHandleEvEE = 0x0000000000375470 + __sdk_start;
__nnmusl_socket_sockatmark = 0x0000000000560cf8 + __sdk_start;
_ZTSN2nn2sf4cmif6client6detail13CmifProxyImplINS_2am7service15IAppletAccessorENS2_19CmifDomainProxyKindINS0_4hipc6client38Hipc2ClientSessionManagedProxyKindBaseINSA_18Hipc2ProxyKindBaseILNS9_6detail11MessageTypeE6EEEEEEENS0_30MemoryResourceAllocationPolicyES7_NS3_19ProcessModifierImplINS2_21DefaultProxyFilterTagEEEEE = 0x0000000000a353f3 + __sdk_start;
_ZN2nn2ec6detail23ShopServiceAccessServer5Proxy8FinalizeEv = 0x0000000000155850 + __sdk_start;
_ZN4nerd7g_freqsE = 0x0000000000a82040 + __sdk_start;
nndetailImagePng_png_get_sCAL_fixed = 0x000000000027b590 + __sdk_start;
_ZNK2nn3mii6detail12StoreDataRaw11GetMoleTypeEv = 0x00000000002f9e10 + __sdk_start;
_ZN2nn2oe38BeginHandlingCaptureButtonShortPressedEv = 0x0000000000335970 + __sdk_start;
_ZN2nn2sf4hipc6server28HipcServerSessionManagerBase14ProcessRequestEPNS2_21HipcServerSessionBaseEPvm = 0x00000000003779c0 + __sdk_start;
_ZN2nn2sf4cmif6client6detail13CmifProxyImplINS_2am7service26ILibraryAppletSelfAccessorENS2_19CmifDomainProxyKindINS0_4hipc6client38Hipc2ClientSessionManagedProxyKindBaseINSA_18Hipc2ProxyKindBaseILNS9_6detail11MessageTypeE6EEEEEEENS0_30MemoryResourceAllocationPolicyES7_NS3_19ProcessModifierImplINS2_21DefaultProxyFilterTagEEEE27_nn_sf_sync_PopExtraStorageENS0_3OutINS0_13SharedPointerINS6_8IStorageEEEvEE = 0x000000000002ce20 + __sdk_start;
_ZN2nn5audio14SetVoiceVolumeEPNS0_9VoiceTypeEf = 0x0000000000047980 + __sdk_start;
_ZNK2nn5audio6common10EdgeMatrix9ConnectedEii = 0x0000000000048d80 + __sdk_start;
_ZTIN2nn2sf4cmif6client6detail13CmifProxyImplINS_7account31IAccountServiceForSystemServiceENS2_19CmifDomainProxyKindINS0_4hipc6client38Hipc2ClientSessionManagedProxyKindBaseINS9_18Hipc2ProxyKindBaseILNS8_6detail11MessageTypeE6EEEEEEENS0_25StatelessAllocationPolicyINS0_22ExpHeapStaticAllocatorILm2048ENS5_6detail12ObjectHolder24ObjectHolderAllocatorTagEEEEENS5_31IAccountServiceForAdministratorENS3_19ProcessModifierImplINS2_21DefaultProxyFilterTagEEEEE = 0x0000000000c0e2a8 + __sdk_start;
_ZNK2nn3mii6detail16Ver3StoreDataRaw9GetGenderEv = 0x00000000002fc670 + __sdk_start;
_ZN2nn2os6detail29ReaderWriterLockImplByHorizon15AcquireReadLockEPNS0_20ReaderWriterLockTypeE = 0x0000000000344780 + __sdk_start;
_ZN2nn2fs6detail24GetSaveDataAvailableSizeEPlNS0_15SaveDataSpaceIdEm = 0x00000000001ee2c0 + __sdk_start;
_ZNK2nn3mii21ParamCharInfoAccessor15GetFacelineTypeEv = 0x00000000002f1bc0 + __sdk_start;
getsockopt = 0x0000000000518aa0 + __sdk_start;
silk_pitch_lag_iCDF = 0x0000000000a546c4 + __sdk_start;
_ZN2nn6crypto6detail6BigNum7SetZeroEPji = 0x0000000000138150 + __sdk_start;
_ZN2nn2sf4cmif6client34CmifDomainProxyClientCoreProcessorINS0_4hipc6client38Hipc2ClientSessionManagedProxyKindBaseINS5_18Hipc2ProxyKindBaseILNS4_6detail11MessageTypeE6EEEEENS1_6detail14CoreMethodInfoINSt3__15tupleIJNSC_21OutObjectArgumentInfoILi0ELi0EEENSC_18BufferArgumentInfoILi0ELi5ELm0EEENSI_ILi1ELi5ELm0EEENSC_17InRawArgumentInfoILm16ELm8ELl8EEENSL_ILm1ELm1ELl0EEEEEELm24ELm0ELb0EEESO_E21ProcessWithOutObjectsEPNS2_23CmifDomainClientMessageISB_E15ProxyBaseObjectENS2_27OutObjectClientArgumentTypeENS2_24BufferClientArgumentTypeESW_NS2_23InRawClientArgumentTypeILm16ELm8EvEENSX_ILm1ELm1EvEEjPNS0_13SharedPointerINS0_14IServiceObjectEEE = 0x00000000001d6100 + __sdk_start;
isblank = 0x000000000053b538 + __sdk_start;
_ZN2nn5audio23OpenFinalOutputRecorderEPNS0_19FinalOutputRecorderEPNS_2os11SystemEventERKNS0_28FinalOutputRecorderParameterE = 0x00000000000580e0 + __sdk_start;
_ZN2nn5audio6server24AudioRenderSystemManager16InitializeUnsafeEv = 0x000000000005cdb0 + __sdk_start;
_ZN2nn2fs3dbm15AllocationTable10InitializeENS0_10SubStorageEj = 0x00000000001b23f0 + __sdk_start;
_ZN2nn3mii6detail21GetMouthColorFromVer3ENS1_14Ver3MouthColorE = 0x00000000002f3890 + __sdk_start;
_ZN2nn4time19ToCalendarTimeInUtcERKNS0_9PosixTimeE = 0x00000000003a2900 + __sdk_start;
_ZN7android6Parcel25writeParcelFileDescriptorEii = 0x0000000000422d00 + __sdk_start;
_ZN2nn2fs35GetAndClearFileSystemProxyErrorInfoEPNS0_24FileSystemProxyErrorInfoE = 0x00000000001c8a80 + __sdk_start;
_ZTSN2nn2sf6detail38ObjectImplFactoryWithStatefulAllocatorINS0_4cmif6client6detail9CmifProxyINS_6hidbus19IHidbusSystemServerENS0_4hipc6client18Hipc2ProxyKindBaseILNS9_6detail11MessageTypeE6EEENS0_30MemoryResourceAllocationPolicyENS5_19ProcessModifierImplINS4_21DefaultProxyFilterTagEEEvEESF_E6ObjectE = 0x0000000000a83710 + __sdk_start;
_ZN2nn2sf4cmif6client6detail13CmifProxyImplINS_12notification6server27INotificationServicesCommonENS2_19CmifDomainProxyKindINS0_4hipc6client38Hipc2ClientSessionManagedProxyKindBaseINSA_18Hipc2ProxyKindBaseILNS9_6detail11MessageTypeE6EEEEEEENS0_30MemoryResourceAllocationPolicyENS6_35INotificationServicesForApplicationENS3_19ProcessModifierImplINS2_21DefaultProxyFilterTagEEEE32_nn_sf_sync_RegisterAlarmSettingENS0_3OutINS5_14AlarmSettingIdEvEERKNS5_12AlarmSettingERKNS0_8InBufferE = 0x000000000032dc80 + __sdk_start;
_ZN2nn4util17MessagePackWriter21WriteExtension8HeaderEah = 0x00000000003ac350 + __sdk_start;
_ZN2nn2sf4cmif6client6detail13CmifProxyImplINS_5visrv2sf21ISystemDisplayServiceENS0_4hipc6client18Hipc2ProxyKindBaseILNS8_6detail11MessageTypeE6EEENS0_30MemoryResourceAllocationPolicyES7_NS3_19ProcessModifierImplINS2_21DefaultProxyFilterTagEEEE35_nn_sf_sync_SetDisplayContrastRatioEmf = 0x00000000003ba0e0 + __sdk_start;
_ZN2nn2sf4cmif6client6detail13CmifProxyImplINS_7account31IAccountServiceForSystemServiceENS2_19CmifDomainProxyKindINS0_4hipc6client38Hipc2ClientSessionManagedProxyKindBaseINS9_18Hipc2ProxyKindBaseILNS8_6detail11MessageTypeE6EEEEEEENS0_25StatelessAllocationPolicyINS0_22ExpHeapStaticAllocatorILm2048ENS5_6detail12ObjectHolder24ObjectHolderAllocatorTagEEEEENS5_31IAccountServiceForAdministratorENS3_19ProcessModifierImplINS2_21DefaultProxyFilterTagEEEE38_nn_sf_sync_ListOpenUsersInApplicationERKNS0_8OutArrayINS5_3UidEEENS_3arp21ApplicationInstanceIdE = 0x000000000000e3c0 + __sdk_start;
_ZNK2nn3mii6detail10NicknameLe7IsEmptyEv = 0x00000000002f7d70 + __sdk_start;
_ZN2nn2sf4cmif6client6detail13CmifProxyImplINS_3mii6detail16IDatabaseServiceENS2_19CmifDomainProxyKindINS0_4hipc6client38Hipc2ClientSessionManagedProxyKindBaseINSA_18Hipc2ProxyKindBaseILNS9_6detail11MessageTypeE6EEEEEEENS0_30MemoryResourceAllocationPolicyES7_NS3_19ProcessModifierImplINS2_21DefaultProxyFilterTagEEEE25_nn_sf_sync_UpdateLatest1ENS0_3OutINS5_9StoreDataEvEERKSO_i = 0x0000000000304e90 + __sdk_start;
_ZN2nn6socket11GetAddrInfoEPKcS2_PKNS0_8AddrInfoEPPS3_ = 0x000000000037c060 + __sdk_start;
_ZN7android19BufferQueueProducer28getBufferReleasedEventHandleERjRb = 0x0000000000433c10 + __sdk_start;
_ZNKSt3__120__time_get_c_storageIcE3__xEv = 0x00000000004d9448 + __sdk_start;
_ZNKSt3__17codecvtIwc11__mbstate_tE6do_outERS1_PKwS5_RS5_PcS7_RS7_ = 0x00000000004d3ec0 + __sdk_start;
_ZNSt15underflow_errorD2Ev = 0x00000000005063e8 + __sdk_start;
_ZNK2nn5audio6server7AuxInfo13GetWorkBufferENS1_14EffectInfoBase5IndexE = 0x0000000000066a70 + __sdk_start;
nncodecLibopus_silk_scale_vector32_Q26_lshift_18 = 0x00000000000cd7d0 + __sdk_start;
_ZN2nn2fs14IsWindowsDriveEPKc = 0x00000000001af3f0 + __sdk_start;
_ZN3nne4nlib12OutputStream14GetWorkBuffer_EPm = 0x00000000003b5c40 + __sdk_start;
_ZN2nn3btm4user25StopBleScanForSmartDeviceEv = 0x0000000000091d30 + __sdk_start;
_ZN2nn6crypto6detail9GhashImpl8GetGhashEPvm = 0x0000000000144460 + __sdk_start;
_ZNK2nn6crypto6detail7AesImplILm32EE12DecryptBlockEPvmPKvm = 0x0000000000140a00 + __sdk_start;
_ZTIN2nn2sf6detail38ObjectImplFactoryWithStatefulAllocatorINS0_4cmif6client6detail9CmifProxyINS_3nim6detail33IShopServiceAccessServerInterfaceENS0_4hipc6client18Hipc2ProxyKindBaseILNSA_6detail11MessageTypeE6EEENS0_30MemoryResourceAllocationPolicyENS5_19ProcessModifierImplINS4_21DefaultProxyFilterTagEEEvEESG_E6ObjectE = 0x0000000000c1dcc8 + __sdk_start;
_ZN2nn2fs12GetSdCardCidEPvm = 0x00000000001f2510 + __sdk_start;
nndetailImagePng_png_handle_tRNS = 0x00000000002890c0 + __sdk_start;
_ZNK2nn2sf13SharedPointerINS_4npns11INpnsSystemEE19FunctionForBoolTypeEv = 0x0000000000331f10 + __sdk_start;
_ZN2nn2vi28GetDisplayVsyncEventForDebugEPNS_2os15SystemEventTypeEPNS0_7DisplayE = 0x00000000003bf1c0 + __sdk_start;
_ZN2nn3web20SetScreenShotEnabledEPNS0_14ShowWebPageArgE = 0x00000000003c99a0 + __sdk_start;
_ZNSt3__112basic_stringIwNS_11char_traitsIwEENS_9allocatorIwEEE6assignEmw = 0x00000000004e87b8 + __sdk_start;
nncodecLibopus_opus_multistream_surround_encoder_create = 0x00000000000dc190 + __sdk_start;
_ZN2nn3hid6system6detail31IsButtonConfigStorageRightEmptyEPbi = 0x000000000021ef40 + __sdk_start;
_ZN2nn2os6detail13ThreadManager11ExitProcessEv = 0x000000000033d310 + __sdk_start;
_ZTVNSt3__114__codecvt_utf8IDiEE = 0x0000000000c46a80 + __sdk_start;
wctob = 0x000000000054d108 + __sdk_start;
_ZN2nn5audio6server15BufferMixerInfo6UpdateEPNS0_6common17BehaviorParameter9ErrorInfoEPKNS0_10EffectInfo11InParameterERNS1_10PoolMapperE = 0x0000000000066360 + __sdk_start;
nndetailImagePng_png_do_strip_channel = 0x000000000028ed40 + __sdk_start;
nnsocketRegisterResourceStatisticsName = 0x000000000037c760 + __sdk_start;
_ZN2nn5audio16GetAuxSampleRateEPKNS0_7AuxTypeE = 0x000000000003fcb0 + __sdk_start;
_ZN2nn2fs27PathNormalizationFileSystem19DoGetTotalSpaceSizeEPlPKc = 0x00000000001e25a0 + __sdk_start;
unw_init_local = 0x0000000000509b18 + __sdk_start;
_ZN2nn5image6detail15PngStreamReader10InitializeEPKvm = 0x0000000000298540 + __sdk_start;
_ZN2nn2sf4hipc6client24Hipc2ClientCoreProcessorILNS1_6detail11MessageTypeE6ENS0_4cmif6detail14CoreMethodInfoINSt3__15tupleIJNS7_21OutObjectArgumentInfoILi0ELi0EEENS7_17InRawArgumentInfoILm48ELm8ELl0EEENSD_ILm8ELm8ELl48EEEEEELm56ELm0ELb1EEESG_E21ProcessWithOutObjectsEPNS2_26Hipc2ClientProxyBaseObjectENS6_6client27OutObjectClientArgumentTypeENSL_23InRawClientArgumentTypeILm48ELm8EvEENSN_ILm8ELm8EvEEjPNS0_13SharedPointerINS0_14IServiceObjectEEE = 0x0000000000098770 + __sdk_start;
_ZN2nn3err6detail28IsApplicationErrorCodeStringEPKc = 0x000000000015cd00 + __sdk_start;
_ZN2nn2sf4hipc6client24Hipc2ClientCoreProcessorILNS1_6detail11MessageTypeE6ENS0_4cmif6detail14CoreMethodInfoINSt3__15tupleIJNS7_18OutRawArgumentInfoILm1ELm1ELl0EEENS7_18BufferArgumentInfoILi0ELi9ELm0EEEEEELm0ELm1ELb0EEESF_E7ProcessEPNS2_26Hipc2ClientProxyBaseObjectENS6_6client24OutRawClientArgumentTypeILm1ELm1EEENSK_24BufferClientArgumentTypeEj = 0x0000000000323530 + __sdk_start;
_ZNK2nn2sf4hipc6detail25HipcMessageBufferAccessor10GetReceiveEi = 0x0000000000372a80 + __sdk_start;
_ZN2nn7account34IsUserRegistrationRequestPermittedEPb = 0x0000000000002880 + __sdk_start;
_ZN2nn5audio26GetBiquadFilterInputOutputEPKNS0_16BiquadFilterTypeEPaS4_Pii = 0x000000000003fef0 + __sdk_start;
_ZN2nn2fs4save12SaveDataFileD2Ev = 0x00000000001c17e0 + __sdk_start;
__nnmusl_stdout_lock_finalize = 0x000000000051a470 + __sdk_start;
pthread_rwlock_destroy = 0x000000000051b9a0 + __sdk_start;
__iscntrl_l = 0x000000000053b580 + __sdk_start;
_ZN2nn3hid13VibrationNodeD1Ev = 0x00000000002185d0 + __sdk_start;
_ZN2nn4nifm6detail13RequestClient20PrepareLibraryAppletEPNS_6applet19LibraryAppletHandleE = 0x0000000000324d70 + __sdk_start;
nnosWaitThread = 0x000000000033d800 + __sdk_start;
_ZN2nn4util8Vector2f11ConstantOneE = 0x0000000000abab60 + __sdk_start;
_ZTINSt3__18time_putIcNS_19ostreambuf_iteratorIcNS_11char_traitsIcEEEEEE = 0x0000000000c47920 + __sdk_start;
_ZN2nn5audio10MixManager20UpdateMixInParameterEPv = 0x0000000000044680 + __sdk_start;
fopen = 0x0000000000519918 + __sdk_start;
_ZTIN2nn2fs6detail7NewableE = 0x0000000000c1fa18 + __sdk_start;
_ZTIN2nn2sf6detail38ObjectImplFactoryWithStatefulAllocatorINS0_4cmif6client6detail9CmifProxyINS_5visrv2sf18ISystemRootServiceENS0_4hipc6client18Hipc2ProxyKindBaseILNSA_6detail11MessageTypeE6EEENS0_30MemoryResourceAllocationPolicyENS5_19ProcessModifierImplINS4_21DefaultProxyFilterTagEEEvEESG_E6ObjectE = 0x0000000000c33560 + __sdk_start;
_ZN7android22GraphicBufferAllocatorD1Ev = 0x0000000000448a10 + __sdk_start;
_ZNSt3__112strstreambufC1EPclS1_ = 0x00000000004ed880 + __sdk_start;
_ZN2nn3ngc6detail14ContentsReader17GetFilterFilePathEPcNS0_26ProfanityFilterPatternListEj = 0x0000000000316660 + __sdk_start;
_ZTSN2nn3ngc6detail12OutputStreamE = 0x0000000000aac350 + __sdk_start;
_ZNSt13runtime_errorC1ERKS_ = 0x00000000004e50a8 + __sdk_start;
__getdelim = 0x0000000000550bd8 + __sdk_start;
_ZN2nn5audio6server11InfoUpdater23UpdatePerformanceBufferEPvmPNS1_18PerformanceManagerE = 0x0000000000064a10 + __sdk_start;
_ZN2nn9bluetooth11GattServiceC2ERKNS0_17GattAttributeUuidEtjttb = 0x00000000000907e0 + __sdk_start;
nncodecLibopus_opus_decoder_create = 0x00000000000cea30 + __sdk_start;
_ZN2nn6crypto6detail6BigNum7CompareEPKjS4_i = 0x0000000000138970 + __sdk_start;
_ZN2nn3hid23MergeSingleJoyAsDualJoyERKjS2_ = 0x0000000000214c10 + __sdk_start;
NvRmGpuProfilerClose = 0x0000000000404f10 + __sdk_start;
_ZTVNSt3__112future_errorE = 0x0000000000c45878 + __sdk_start;
_Unwind_Find_FDE = 0x000000000050d648 + __sdk_start;
_ZN2nn6applet30GetExpectedThemeColorForSystemEv = 0x000000000003aa80 + __sdk_start;
_ZTSN2nn3nfp6detail12IUserManagerE = 0x0000000000aab3cc + __sdk_start;
_ZN2nn2os6detail10TlsManagerC2Ev = 0x000000000033eec0 + __sdk_start;
_ZN2nn2sf4cmif6client6detail13CmifProxyImplINS_6aocsrv6detail20IAddOnContentManagerENS0_4hipc6client18Hipc2ProxyKindBaseILNS8_6detail11MessageTypeE6EEENS0_30MemoryResourceAllocationPolicyES7_NS3_19ProcessModifierImplINS2_21DefaultProxyFilterTagEEEE12GetProxyInfoEv = 0x0000000000035b90 + __sdk_start;
_ZNK2nn2sf13SharedPointerINS_2ec21IPurchaseEventManagerEE19FunctionForBoolTypeEv = 0x000000000014f130 + __sdk_start;
_ZN2nn2sf4cmif6client6detail36GetClientProcessorImplWithObjectBaseINS2_19CmifDomainProxyKindINS0_4hipc6client38Hipc2ClientSessionManagedProxyKindBaseINS7_18Hipc2ProxyKindBaseILNS6_6detail11MessageTypeE6EEEEEEENS3_19ProcessModifierImplINS2_21DefaultProxyFilterTagEEEE14ObjectAssignerINS0_30MemoryResourceAllocationPolicyENS_14MemoryResourceEE14AllocateObjectINS_7timesrv6detail7service12ISteadyClockEEEvi = 0x00000000003a4fc0 + __sdk_start;
_ZNKSt3__18numpunctIwE16do_thousands_sepEv = 0x00000000004d7ef0 + __sdk_start;
_ZN2nn5codec6detail21SetComplexityInternalEP26nncodecLibopus_OpusEncoderi = 0x00000000000e0000 + __sdk_start;
getsockname = 0x0000000000518a98 + __sdk_start;
_ZN2nn3nfc6client16GetUserInterfaceEv = 0x0000000000309b60 + __sdk_start;
_ZN2nn5audio26GetReleasedMemoryPoolCountEPKNS0_19AudioRendererConfigE = 0x00000000000438d0 + __sdk_start;
_ZNK2nn5audio23SplitterDestinationData12NeedToUpdateEv = 0x0000000000046fc0 + __sdk_start;
_ZTSN2nn2fs6detail9RomFsFileE = 0x0000000000a697a1 + __sdk_start;
_ZN2nn2vi6detail18SystemServiceProxy47InitializeIndirectDisplayTransactionServiceImplEv = 0x00000000003c3d30 + __sdk_start;
NvOsInterruptPriorityThreadCreate = 0x00000000003d0e20 + __sdk_start;
_ZNK7android6Parcel11readString8Ev = 0x0000000000423890 + __sdk_start;
_ZN2nn7account13ProfileEditor11SetUserDataEPKcm = 0x0000000000019430 + __sdk_start;
_ZN2nn6capsrv28SaveScreenShotForApplicationEPNS0_21ApplicationAlbumEntryEPKvmRKNS0_19ScreenShotAttributeERKNS0_15ApplicationDataEj = 0x0000000000095350 + __sdk_start;
_ZNKSt3__120__time_get_c_storageIcE3__rEv = 0x00000000004d97e8 + __sdk_start;
__truncdfhf2 = 0x00000000005140b8 + __sdk_start;
_ZN2nn2sf6detail38ObjectImplFactoryWithStatefulAllocatorINS0_4cmif6client6detail9CmifProxyINS_2am7service18IHomeMenuFunctionsENS4_19CmifDomainProxyKindINS0_4hipc6client38Hipc2ClientSessionManagedProxyKindBaseINSC_18Hipc2ProxyKindBaseILNSB_6detail11MessageTypeE6EEEEEEENS0_30MemoryResourceAllocationPolicyENS5_19ProcessModifierImplINS4_21DefaultProxyFilterTagEEEvEESK_E6Object7ReleaseEv = 0x000000000002a260 + __sdk_start;
_ZN2nn5audio19RegisterBufferEventEPNS0_8AudioOutEPNS_2os11SystemEventE = 0x00000000000566b0 + __sdk_start;
_ZN2nn6hidbus6detail20ClientResourceHolder5ClearEv = 0x0000000000238e90 + __sdk_start;
_ZN2nn5image6detail4jpeg15jpeg_free_smallEPNS2_18jpeg_common_structEPvm = 0x000000000026cf40 + __sdk_start;
_ZN2nn3jit10InitializeEv = 0x00000000002bed50 + __sdk_start;
_ZN2nn2la27AppletToNifmArgumentsReaderD1Ev = 0x00000000002c19d0 + __sdk_start;
_ZN2nn2sf4cmif6client6detail13CmifProxyImplINS_7account24IBaasAccessTokenAccessorENS2_19CmifDomainProxyKindINS0_4hipc6client38Hipc2ClientSessionManagedProxyKindBaseINS9_18Hipc2ProxyKindBaseILNS8_6detail11MessageTypeE6EEEEEEENS0_30MemoryResourceAllocationPolicyES6_NS3_19ProcessModifierImplINS2_21DefaultProxyFilterTagEEEE30_nn_sf_sync_GetDeviceAccountIdENS0_3OutImvEERKNS5_3UidE = 0x0000000000014210 + __sdk_start;
_ZN2nn2sf4cmif6client6detail13CmifProxyImplINS_2am7service20IApplicationAccessorENS2_19CmifDomainProxyKindINS0_4hipc6client38Hipc2ClientSessionManagedProxyKindBaseINSA_18Hipc2ProxyKindBaseILNS9_6detail11MessageTypeE6EEEEEEENS0_30MemoryResourceAllocationPolicyES7_NS3_19ProcessModifierImplINS2_21DefaultProxyFilterTagEEEE44_nn_sf_sync_PushToNotificationStorageChannelENS0_13SharedPointerINS6_8IStorageEEE = 0x000000000002b3f0 + __sdk_start;
_ZTIN2nn2fs4save16IExclusiveObjectE = 0x0000000000c20360 + __sdk_start;
nndetailImagePng_png_set_sCAL = 0x000000000028d430 + __sdk_start;
nvcecEnable = 0x00000000003cb5f0 + __sdk_start;
__pthread_once = 0x000000000051b998 + __sdk_start;
_ZN2nn5album26GetAlbumScreenshotFileListEPiPNS0_14AlbumFileEntryEiRKNS_7account3UidE = 0x0000000000019790 + __sdk_start;
_ZN2nn3web6detail23SharePageReturnValue2_0C1Ev = 0x000000000037aaf0 + __sdk_start;
_ZN2nn6applet18StartLibraryAppletENS0_19LibraryAppletHandleEPv = 0x0000000000039c30 + __sdk_start;
_ZN2nn2fs13MountSaveDataEPKcNS_13ApplicationIdERKNS_7account3UidE = 0x0000000000201800 + __sdk_start;
_ZTIN2nn5prepo6detail3ipc13IPrepoServiceE = 0x0000000000c2e6a0 + __sdk_start;
_ZN2nn6hidbus10InitializeERKNS0_9BusHandleE = 0x00000000002375a0 + __sdk_start;
_ZTSN2nn5image11JpegDecoderE = 0x0000000000a871fa + __sdk_start;
_ZTSN2nn4pctl6detail3ipc23IParentalControlServiceE = 0x0000000000ab05a5 + __sdk_start;
_ZN2nn2ro18RegisterModuleInfoEPNS0_16RegistrationInfoEPKv = 0x0000000000355b20 + __sdk_start;
NvRmStreamSetWaitSync = 0x00000000003e7f50 + __sdk_start;
android_atomic_add = 0x0000000000429190 + __sdk_start;
_ZNSt3__16localeD2Ev = 0x00000000004d0aa0 + __sdk_start;
_ZZN2nn7friends6detail17ShimLibraryGlobal11GetInstanceEvE10s_Instance = 0x0000000000cabf90 + __sdk_start;
_ZN2nn4htcs23CreateHtcsManagerByHipcEPNS_2sf30HipcSimpleClientSessionManagerE = 0x000000000023c990 + __sdk_start;
_ZN2nn5audio6server12VoiceContext22UpdateStateByDspSharedEv = 0x000000000006b780 + __sdk_start;
_ZN2nn5audio6server6detail19ListAudioDeviceNameEPNS0_15AudioDeviceNameEij = 0x000000000006cc10 + __sdk_start;
_ZN2nn2sf4cmif6client6detail13CmifProxyImplINS_3hid10IHidServerENS0_4hipc6client18Hipc2ProxyKindBaseILNS7_6detail11MessageTypeE6EEENS0_30MemoryResourceAllocationPolicyES6_NS3_19ProcessModifierImplINS2_21DefaultProxyFilterTagEEEE31_nn_sf_sync_HasLeftRightBatteryENS0_3OutIbvEESJ_j = 0x00000000002297e0 + __sdk_start;
_ZN2nn8irsensor6detail15IrSensorSession18RunMomentProcessorERKNS0_14IrCameraHandleERKNS0_27PackedMomentProcessorConfigE = 0x00000000002a7620 + __sdk_start;
_ZNK2nn5audio6server12BehaviorInfo34IsVoicePitchAndSrcSkippedSupportedEv = 0x0000000000065f50 + __sdk_start;
_ZN2nn2fs11FileStorageC1EPNS0_3fsa5IFileE = 0x00000000001acd70 + __sdk_start;
_ZN2nn5prepo6detail17HandleSrepoResultENS_6ResultE = 0x000000000034df70 + __sdk_start;
FsLtt_getSubfamilyName = 0x0000000000189e10 + __sdk_start;
_ZN2nn7friends6detail17ShimLibraryGlobal18CreateAsyncSessionEPPNS1_3ipc14IFriendServiceE = 0x000000000019fca0 + __sdk_start;
nnmem_nlib_rwlock_trywrlock_until = 0x00000000002cbe40 + __sdk_start;
_ZN2nn6socket6detail8RecvFromEiPvmNS0_7MsgFlagEPNS0_8SockAddrEPj = 0x0000000000380c20 + __sdk_start;
__uflow = 0x000000000054f290 + __sdk_start;
_ZN2nn2sf4cmif6client6detail13CmifProxyImplINS_3hid16IHidSystemServerENS0_4hipc6client18Hipc2ProxyKindBaseILNS7_6detail11MessageTypeE6EEENS0_30MemoryResourceAllocationPolicyES6_NS3_19ProcessModifierImplINS2_21DefaultProxyFilterTagEEEE39_nn_sf_sync_SetButtonConfigStorageRightERKNS_9hidconfig17ButtonConfigRightEi = 0x0000000000232900 + __sdk_start;
_ZN2nn2sf4cmif6client6detail13CmifProxyImplINS_3hid16IHidSystemServerENS0_4hipc6client18Hipc2ProxyKindBaseILNS7_6detail11MessageTypeE6EEENS0_30MemoryResourceAllocationPolicyES6_NS3_19ProcessModifierImplINS2_21DefaultProxyFilterTagEEEE48_nn_sf_sync_GetAnalogStickManualCalibrationStageENS0_3OutIlvEENS5_6system11UniquePadIdEl = 0x0000000000231d70 + __sdk_start;
_ZN2nn3mii6detail12StoreDataRaw13SetMouthScaleEi = 0x00000000002fa540 + __sdk_start;
_ZN2nn3mii13AppletManagerD2Ev = 0x0000000000307750 + __sdk_start;
nnsocketGetHostByNameWithOptions = 0x000000000037c5f0 + __sdk_start;
_ZNSt3__111__libcpp_db11__insert_icEPvPKv = 0x00000000004a2450 + __sdk_start;
_ZTIN2nn2am7service15IDebugFunctionsE = 0x0000000000c149b8 + __sdk_start;
_ZN2nn2os14IsReadLockHeldEPKNS0_20ReaderWriterLockTypeE = 0x000000000033b260 + __sdk_start;
_ZTIN2nn7account6detail14ISessionObjectE = 0x0000000000c0d4f0 + __sdk_start;
_ZN2nn2fs10CreateFileEPKcli = 0x00000000001bd190 + __sdk_start;
_ZN2nn2sf4hipc6client24Hipc2ClientCoreProcessorILNS1_6detail11MessageTypeE6ENS0_4cmif6detail14CoreMethodInfoINSt3__15tupleIJNS7_18OutRawArgumentInfoILm2ELm2ELl0EEEEEELm0ELm2ELb0EEESD_E7ProcessEPNS2_26Hipc2ClientProxyBaseObjectENS6_6client24OutRawClientArgumentTypeILm2ELm2EEEj = 0x00000000002c4560 + __sdk_start;
_ZN2nn2sf4cmif6client6detail13CmifProxyImplINS_4nifm6detail15IGeneralServiceENS2_19CmifDomainProxyKindINS0_4hipc6client38Hipc2ClientSessionManagedProxyKindBaseINSA_18Hipc2ProxyKindBaseILNS9_6detail11MessageTypeE6EEEEEEENS0_30MemoryResourceAllocationPolicyES7_NS3_19ProcessModifierImplINS2_21DefaultProxyFilterTagEEEE37_nn_sf_sync_ConfirmSystemAvailabilityEv = 0x00000000003265b0 + __sdk_start;
_ZNKSt3__110moneypunctIwLb0EE13do_neg_formatEv = 0x00000000004c39c8 + __sdk_start;
_ZN2nn7account28DeleteSaveDataThumbnailImageERKNS0_3UidE = 0x0000000000003300 + __sdk_start;
_ZN2nn5audio6server14MemoryPoolInfo13SetDspAddressEm = 0x0000000000066b90 + __sdk_start;
_ZN2nn2sf4cmif6client34CmifDomainProxyClientCoreProcessorINS0_4hipc6client38Hipc2ClientSessionManagedProxyKindBaseINS5_18Hipc2ProxyKindBaseILNS4_6detail11MessageTypeE6EEEEENS1_6detail14CoreMethodInfoINSt3__15tupleIJNSC_18OutRawArgumentInfoILm16ELm8ELl0EEENSC_17InRawArgumentInfoILm8ELm8ELl8EEENSI_ILm1ELm1ELl0EEEEEELm16ELm16ELb0EEESL_E7ProcessEPNS2_23CmifDomainClientMessageISB_E15ProxyBaseObjectENS2_24OutRawClientArgumentTypeILm16ELm8EEENS2_23InRawClientArgumentTypeILm8ELm8EvEENSU_ILm1ELm1EvEEj = 0x00000000001d9270 + __sdk_start;
_ZN2nn2sf6detail38ObjectImplFactoryWithStatefulAllocatorINS0_4cmif6client6detail9CmifProxyINS_8settings15ISettingsServerENS0_4hipc6client18Hipc2ProxyKindBaseILNS9_6detail11MessageTypeE6EEENS0_30MemoryResourceAllocationPolicyENS5_19ProcessModifierImplINS4_21DefaultProxyFilterTagEEEvEESF_E6Object7ReleaseEv = 0x000000000036aec0 + __sdk_start;
NvRmChannelModuleMutexLock = 0x00000000003e9820 + __sdk_start;
_ZN2nn2sf4cmif6client6detail13CmifProxyImplINS_6aocsrv6detail20IAddOnContentManagerENS0_4hipc6client18Hipc2ProxyKindBaseILNS8_6detail11MessageTypeE6EEENS0_30MemoryResourceAllocationPolicyES7_NS3_19ProcessModifierImplINS2_21DefaultProxyFilterTagEEEE31_nn_sf_sync_PrepareAddOnContentEim = 0x0000000000035c20 + __sdk_start;
_ZThn16_N2nn2sf4cmif6client6detail13CmifProxyImplINS_3apm14ISystemManagerENS0_4hipc6client18Hipc2ProxyKindBaseILNS7_6detail11MessageTypeE6EEENS0_30MemoryResourceAllocationPolicyES6_NS3_19ProcessModifierImplINS2_21DefaultProxyFilterTagEEEE17GetCmifBaseObjectEv = 0x0000000000038f60 + __sdk_start;
_ZTIN2nn2sf4cmif6client6detail9CmifProxyINS_4bcat6detail3ipc28IDeliveryCacheStorageServiceENS2_19CmifDomainProxyKindINS0_4hipc6client38Hipc2ClientSessionManagedProxyKindBaseINSB_18Hipc2ProxyKindBaseILNSA_6detail11MessageTypeE6EEEEEEENS0_30MemoryResourceAllocationPolicyENS3_19ProcessModifierImplINS2_21DefaultProxyFilterTagEEEvEE = 0x0000000000c1a698 + __sdk_start;
nndetailImagePng_png_set_packing = 0x000000000028e8f0 + __sdk_start;
nnmem_nlib_memrchr_generic = 0x00000000002cd090 + __sdk_start;
_ZN2nn5prepo16SystemPlayReport16SetApplicationIdERKNS_13ApplicationIdE = 0x00000000003532d0 + __sdk_start;
_ZN7android6Region7andSelfERKNS_4RectE = 0x000000000044a230 + __sdk_start;
__nesf2 = 0x0000000000510148 + __sdk_start;
__freadptrinc = 0x000000000054f510 + __sdk_start;
_ZN2nn5audio6server12DetailAspectC1EPNS1_16CommandGeneratorENS0_20PerformanceEntryTypeEjNS0_21PerformanceDetailTypeE = 0x000000000005d630 + __sdk_start;
_ZN2nn2sf4cmif6client34CmifDomainProxyClientCoreProcessorINS0_4hipc6client38Hipc2ClientSessionManagedProxyKindBaseINS5_18Hipc2ProxyKindBaseILNS4_6detail11MessageTypeE6EEEEENS1_6detail14CoreMethodInfoINSt3__15tupleIJNSC_17InRawArgumentInfoILm16ELm8ELl8EEENSG_ILm8ELm8ELl24EEENSG_ILm4ELm4ELl0EEENSG_ILm16ELm8ELl32EEENSC_18BufferArgumentInfoILi0ELi25ELm72EEEEEELm48ELm0ELb0EEESN_E7ProcessEPNS2_23CmifDomainClientMessageISB_E15ProxyBaseObjectENS2_23InRawClientArgumentTypeILm16ELm8EvEENSU_ILm8ELm8EvEENSU_ILm4ELm4EvEESV_NS2_24BufferClientArgumentTypeEj = 0x00000000001a6650 + __sdk_start;
_ZN2nn2fs6detail20OpenSaveDataIteratorEPNSt3__110unique_ptrINS0_16SaveDataIteratorENS2_14default_deleteIS4_EEEENS0_15SaveDataSpaceIdERKNS0_14SaveDataFilterE = 0x00000000001eb020 + __sdk_start;
_ZN2nn8settings6detail13GetColorSetIdEPi = 0x0000000000365460 + __sdk_start;
_ZTVN2nn2sf4hipc6server18Hipc2ServerMessageE = 0x0000000000c30dd8 + __sdk_start;
_ZNSt3__112basic_stringIwNS_11char_traitsIwEENS_9allocatorIwEEEaSERKS5_ = 0x00000000004e7b70 + __sdk_start;
_ZN2nn5album14LoadAlbumImageEPiS1_PNS0_18AlbumFileAttributeEPmPvmS5_mS5_mRKNS0_14AlbumFileEntryE = 0x0000000000019f50 + __sdk_start;
_ZN2nn3ngc6detail15CompressedArray12SetAllocatorEPNS1_16WorkBufAllocatorE = 0x00000000003211e0 + __sdk_start;
_ZN2nn2sf6detail39ObjectImplFactoryWithStatelessAllocatorINS0_4cmif6client6detail9CmifProxyINS_7account3nas21IAuthorizationRequestENS4_19CmifDomainProxyKindINS0_4hipc6client38Hipc2ClientSessionManagedProxyKindBaseINSC_18Hipc2ProxyKindBaseILNSB_6detail11MessageTypeE6EEEEEEENS0_25StatelessAllocationPolicyINS0_22ExpHeapStaticAllocatorILm2048ENS7_6detail12ObjectHolder24ObjectHolderAllocatorTagEEEEENS5_19ProcessModifierImplINS4_21DefaultProxyFilterTagEEEvEESQ_E6Object7ReleaseEv = 0x00000000000096c0 + __sdk_start;
_ZN2nn2sf6detail38ObjectImplFactoryWithStatefulAllocatorINS0_4cmif6client6detail9CmifProxyINS_2am7service30IAllSystemAppletProxiesServiceENS4_19CmifDomainProxyKindINS0_4hipc6client38Hipc2ClientSessionManagedProxyKindBaseINSC_18Hipc2ProxyKindBaseILNSB_6detail11MessageTypeE6EEEEEEENS0_30MemoryResourceAllocationPolicyENS5_19ProcessModifierImplINS4_21DefaultProxyFilterTagEEEvEESK_E6Object7ReleaseEv = 0x0000000000021e30 + __sdk_start;
_ZN2nn2sf4hipc6client34HipcSimpleClientSessionManagerBaseINS2_29DefaultSessionResourceManagerEE4Impl18InitializeByHandleINS_5codec6detail27IHardwareOpusDecoderManagerENS0_30MemoryResourceAllocationPolicyENS0_4cmif6client6detail19ProcessModifierImplINSD_21DefaultProxyFilterTagEEEEENS_6ResultEPNS0_13SharedPointerIT_EEPNT0_9AllocatorENS_3svc6HandleE = 0x00000000000e05d0 + __sdk_start;
_ZN2nn6crypto6detail11XtsModeImpl13UpdateGenericEPvmPKvm = 0x0000000000143240 + __sdk_start;
_ZN2nn3hid6system6detail38GetSupportedNpadStyleSetOfCallerAppletEPNS_4util10BitFlagSetILi32ENS0_12NpadStyleTagEEE = 0x0000000000220800 + __sdk_start;
NvOsEventPoolWait = 0x00000000003d78b0 + __sdk_start;
_ZTVN2nn5audio6server22CircularBufferSinkInfoE = 0x0000000000c19d98 + __sdk_start;
_ZN2nn2os6detail26g_UserExceptionStackBottomE = 0x0000000000ce1418 + __sdk_start;
FsLtt_done = 0x0000000000189cd0 + __sdk_start;
_ZN2nn4util6detail7msgpack28WriteUnsignedIntegerAutoSizeEPNS0_17MessagePackWriter11StreamParamEm = 0x00000000003af290 + __sdk_start;
_ZN2nn2sf4hipc6client24Hipc2ClientCoreProcessorILNS1_6detail11MessageTypeE6ENS0_4cmif6detail14CoreMethodInfoINSt3__15tupleIJNS7_18BufferArgumentInfoILi0ELi22ELm4096EEENS7_18OutRawArgumentInfoILm4ELm4ELl0EEENS7_17InRawArgumentInfoILm8ELm8ELl0EEENSF_ILm8ELm8ELl8EEEEEELm16ELm4ELb0EEESI_E7ProcessEPNS2_26Hipc2ClientProxyBaseObjectENS6_6client24BufferClientArgumentTypeENSN_24OutRawClientArgumentTypeILm4ELm4EEENSN_23InRawClientArgumentTypeILm8ELm8EvEESS_j = 0x00000000003bc170 + __sdk_start;
NvRmFencePutToFile = 0x00000000003e97b0 + __sdk_start;
_ZTVNSt3__113basic_ostreamIwNS_11char_traitsIwEEEE = 0x0000000000c45bd0 + __sdk_start;
_ZN2nn3hid6system6detail22SetDefaultButtonConfigERKNS1_11UniquePadIdE = 0x000000000021f660 + __sdk_start;
_ZTSN2nn2sf6detail38ObjectImplFactoryWithStatefulAllocatorINS0_4cmif6client6detail9CmifProxyINS_8settings28IFirmwareDebugSettingsServerENS0_4hipc6client18Hipc2ProxyKindBaseILNS9_6detail11MessageTypeE6EEENS0_30MemoryResourceAllocationPolicyENS5_19ProcessModifierImplINS4_21DefaultProxyFilterTagEEEvEESF_E6ObjectE = 0x0000000000ab1d5e + __sdk_start;
_ZN2nn4util16FileOutputStream5FlushEv = 0x00000000003b6ce0 + __sdk_start;
__nnmusl_TimerCreate = 0x000000000055c0b0 + __sdk_start;
_ZN2nn5audio12SplitterInfo14StoreParameterEPNS1_11InParameterE = 0x0000000000046c50 + __sdk_start;
_ZTIN2nn2fs17RamDiskFileSystemE = 0x0000000000c22d78 + __sdk_start;
_ZN2nn3web16ShowSharePageArg22SetAdditionalMediaDataEPKhm = 0x000000000037a500 + __sdk_start;
_ZNSt3__113basic_ostreamIwNS_11char_traitsIwEEEC1EPNS_15basic_streambufIwS2_EE = 0x00000000004ae670 + __sdk_start;
_ZNSt3__116__narrow_to_utf8ILm16EED0Ev = 0x00000000004d7cd8 + __sdk_start;
_ZN2nn2fs15RomFsFileSystem19DoGetTotalSpaceSizeEPlPKc = 0x00000000001b15d0 + __sdk_start;
_ZN2nn2sf4cmif6client34CmifDomainProxyClientCoreProcessorINS0_4hipc6client38Hipc2ClientSessionManagedProxyKindBaseINS5_18Hipc2ProxyKindBaseILNS4_6detail11MessageTypeE6EEEEENS1_6detail14CoreMethodInfoINSt3__15tupleIJNSC_18OutRawArgumentInfoILm36ELm4ELl0EEEEEELm0ELm36ELb0EEESI_E7ProcessEPNS2_23CmifDomainClientMessageISB_E15ProxyBaseObjectENS2_24OutRawClientArgumentTypeILm36ELm4EEEj = 0x0000000000327540 + __sdk_start;
_ZN2nn3ssl6detail15BuiltinDataInfo5GetIdEv = 0x00000000003977d0 + __sdk_start;
_ZN2nn4util10BitFlagSetILi256ENS_3hid11KeyboardKeyEE4FlagILi80EE4MaskE = 0x0000000000a71f18 + __sdk_start;
_ZN2nn8settings6detail20GetAppletLaunchFlagsEPNS_4util10BitFlagSetILi32ENS0_6system16AppletLaunchFlagEEE = 0x00000000003659e0 + __sdk_start;
_ZNK2nn5audio16SharedRingBuffer24GetWorkBufferDataAddressEv = 0x00000000000591b0 + __sdk_start;
_ZN7android8String16C1ERKS0_ = 0x000000000044d240 + __sdk_start;
_ZN7android11DisplayEDIDC2Ev = 0x00000000004470e0 + __sdk_start;
_ZTVN2nn2sf6detail39ObjectImplFactoryWithStatelessAllocatorINS0_4cmif6client6detail9CmifProxyINS_7account7profile8IProfileENS4_19CmifDomainProxyKindINS0_4hipc6client38Hipc2ClientSessionManagedProxyKindBaseINSC_18Hipc2ProxyKindBaseILNSB_6detail11MessageTypeE6EEEEEEENS0_25StatelessAllocationPolicyINS0_22ExpHeapStaticAllocatorILm2048ENS7_6detail12ObjectHolder24ObjectHolderAllocatorTagEEEEENS5_19ProcessModifierImplINS4_21DefaultProxyFilterTagEEEvEESQ_E6ObjectE = 0x0000000000c0d378 + __sdk_start;
_ZN2nn2sf4cmif6client6detail13CmifProxyImplINS_4bcat6detail3ipc28IDeliveryCacheStorageServiceENS2_19CmifDomainProxyKindINS0_4hipc6client38Hipc2ClientSessionManagedProxyKindBaseINSB_18Hipc2ProxyKindBaseILNSA_6detail11MessageTypeE6EEEEEEENS0_30MemoryResourceAllocationPolicyES8_NS3_19ProcessModifierImplINS2_21DefaultProxyFilterTagEEEE12GetProxyInfoEv = 0x0000000000084ca0 + __sdk_start;
_ZN2nn3hid18ParseVibrationFileEPNS0_17VibrationFileInfoEPNS0_26VibrationFileParserContextEPKvm = 0x0000000000217d80 + __sdk_start;
_ZTIN2nn3hid15VibrationTargetE = 0x0000000000c23708 + __sdk_start;
nnutilZlib_inflateSyncPoint = 0x00000000002a0ab0 + __sdk_start;
_ZN2nn3ngc6detail3SetD1Ev = 0x000000000031e5d0 + __sdk_start;
NvOsSemaphoreDestroy = 0x00000000003d7e00 + __sdk_start;
_ZN7android12ConsumerBaseD0Ev = 0x0000000000434d10 + __sdk_start;
_ZNKSt3__120__codecvt_utf8_utf16IDiE16do_always_noconvEv = 0x00000000004d7c98 + __sdk_start;
ccos = 0x0000000000532558 + __sdk_start;
_ZN2nn3mii11AppletInput14InitializeImplENS0_10AppletModeEi = 0x00000000003072f0 + __sdk_start;
_ZNK2nn5album24MovieMakerMovieParameter20GetAudioChannelCountEv = 0x000000000001c1e0 + __sdk_start;
_ZN2nn4nifm17NetworkConnectionC1Ev = 0x000000000032c5e0 + __sdk_start;
_ZN2nn4nifm23GetRequestClientPointerENS0_13RequestHandleE = 0x000000000032ba90 + __sdk_start;
_ZN2nn5srepo6StructC2Ev = 0x0000000000355440 + __sdk_start;
NvOsGetSystemTime = 0x00000000003d9150 + __sdk_start;
_ZN2nn2sf4hipc6client24Hipc2ClientCoreProcessorILNS1_6detail11MessageTypeE6ENS0_4cmif6detail14CoreMethodInfoINSt3__15tupleIJNS7_18BufferArgumentInfoILi0ELi6ELm0EEENS7_18OutRawArgumentInfoILm1ELm1ELl0EEENS7_17InRawArgumentInfoILm8ELm8ELl8EEENSF_ILm4ELm4ELl0EEEEEELm16ELm1ELb1EEESI_E7ProcessEPNS2_26Hipc2ClientProxyBaseObjectENS6_6client24BufferClientArgumentTypeENSN_24OutRawClientArgumentTypeILm1ELm1EEENSN_23InRawClientArgumentTypeILm8ELm8EvEENSR_ILm4ELm4EvEEj = 0x0000000000094350 + __sdk_start;
_ZN2nn4edid22GetAudioFormatBitDepthEPiPKNS0_15AudioFormatInfoE = 0x0000000000158da0 + __sdk_start;
update_sp_ep = 0x0000000000183d10 + __sdk_start;
_ZN2nn2fs4save22SaveDataFileSystemCore16HasDirectoryImplEPbRKNS1_4PathE = 0x00000000001c0310 + __sdk_start;
_ZN2nn2sf4cmif6client6detail13CmifProxyImplINS_3hid10IHidServerENS0_4hipc6client18Hipc2ProxyKindBaseILNS7_6detail11MessageTypeE6EEENS0_30MemoryResourceAllocationPolicyES6_NS3_19ProcessModifierImplINS2_21DefaultProxyFilterTagEEEE38_nn_sf_sync_SetAccelerometerParametersENS_6applet20AppletResourceUserIdENS5_19SixAxisSensorHandleEff = 0x0000000000228c60 + __sdk_start;
nnmem_nlib_memchr_lt_generic = 0x00000000002cd640 + __sdk_start;
_ZN2nn4nifm6detail39ConvertNetworkInterfaceInfoToNifmFromSfEPNS0_20NetworkInterfaceInfoERKNS1_2sf20NetworkInterfaceInfoE = 0x000000000032cf30 + __sdk_start;
_ZN2nn2sf4cmif6client34CmifDomainProxyClientCoreProcessorINS0_4hipc6client38Hipc2ClientSessionManagedProxyKindBaseINS5_18Hipc2ProxyKindBaseILNS4_6detail11MessageTypeE6EEEEENS1_6detail14CoreMethodInfoINSt3__15tupleIJNSC_18OutRawArgumentInfoILm2ELm2ELl0EEENSC_18BufferArgumentInfoILi0ELi21ELm64EEENSI_ILi1ELi5ELm0EEEEEELm0ELm2ELb0EEESL_E7ProcessEPNS2_23CmifDomainClientMessageISB_E15ProxyBaseObjectENS2_24OutRawClientArgumentTypeILm2ELm2EEENS2_24BufferClientArgumentTypeESU_j = 0x000000000032ddb0 + __sdk_start;
_ZThn8_N7android12BnMemoryHeapD1Ev = 0x000000000041caa0 + __sdk_start;
nncodecLibopus_silk_decode_frame = 0x00000000000bc7e0 + __sdk_start;
_ZNSt3__118shared_timed_mutex6unlockEv = 0x00000000004e4c68 + __sdk_start;
_ZN2nn2sf4cmif6client6detail13CmifProxyImplINS_7account4http15IOAuthProcedureENS2_19CmifDomainProxyKindINS0_4hipc6client38Hipc2ClientSessionManagedProxyKindBaseINSA_18Hipc2ProxyKindBaseILNS9_6detail11MessageTypeE6EEEEEEENS0_25StatelessAllocationPolicyINS0_22ExpHeapStaticAllocatorILm2048ENS5_6detail12ObjectHolder24ObjectHolderAllocatorTagEEEEENS5_3nas40IOAuthProcedureForNintendoAccountLinkageENS3_19ProcessModifierImplINS2_21DefaultProxyFilterTagEEEE19_nn_sf_sync_SuspendENS0_3OutINSK_4UuidEvEE = 0x0000000000011cf0 + __sdk_start;
_ZN2nn2ec37ShowShopApplicationInformationForMenuENS0_5NsUidERKNS_7account3UidENS0_8SourceIdEPKc = 0x000000000014fdf0 + __sdk_start;
_ZTIN2nn2sf6detail38ObjectImplFactoryWithStatefulAllocatorINS0_4cmif6client6detail9CmifProxyINS_6hidbus19IHidbusSystemServerENS0_4hipc6client18Hipc2ProxyKindBaseILNS9_6detail11MessageTypeE6EEENS0_30MemoryResourceAllocationPolicyENS5_19ProcessModifierImplINS4_21DefaultProxyFilterTagEEEvEESF_E6ObjectE = 0x0000000000c265a8 + __sdk_start;
_ZN2nn2sf4cmif6client34CmifDomainProxyClientCoreProcessorINS0_4hipc6client38Hipc2ClientSessionManagedProxyKindBaseINS5_18Hipc2ProxyKindBaseILNS4_6detail11MessageTypeE6EEEEENS1_6detail14CoreMethodInfoINSt3__15tupleIJNSC_18OutRawArgumentInfoILm4ELm4ELl0EEENSG_ILm4ELm4ELl4EEENSG_ILm4ELm4ELl8EEENSC_18BufferArgumentInfoILi0ELi6ELm0EEENSC_17InRawArgumentInfoILm4ELm4ELl0EEEEEELm4ELm12ELb0EEESO_E7ProcessEPNS2_23CmifDomainClientMessageISB_E15ProxyBaseObjectENS2_24OutRawClientArgumentTypeILm4ELm4EEESW_SW_NS2_24BufferClientArgumentTypeENS2_23InRawClientArgumentTypeILm4ELm4EvEEj = 0x00000000003276b0 + __sdk_start;
_ZThn8_N2nn2sf4cmif6server23CmifServerDomainManager6Domain14UnReserveEntryEPKNS1_18CmifDomainObjectIdEi = 0x0000000000370ef0 + __sdk_start;
_ZZN2nn2sf31SimpleAllInOneHipcClientManagerILm10EE27InitializeShimLibraryHolderINS_5visrv2sf18ISystemRootServiceENS0_4cmif6client6detail19ProcessModifierImplINS8_21DefaultProxyFilterTagEEEEENS_6ResultEPNS0_23ShimLibraryObjectHolderIT_EEPKcPNS_14MemoryResourceEENUlPNS0_13SharedPointerIS6_EEE_clESO_ = 0x00000000003b85d0 + __sdk_start;
nnmem_utf16chr_mb_simd = 0x00000000002e14b0 + __sdk_start;
_ZNK2nn2sf4hipc6detail25HipcMessageBufferAccessor10GetPointerEi = 0x0000000000372950 + __sdk_start;
_ZTVN2nn2sf6detail38ObjectImplFactoryWithStatefulAllocatorINS0_4cmif6client6detail9CmifProxyINS_5visrv2sf26IApplicationDisplayServiceENS0_4hipc6client18Hipc2ProxyKindBaseILNSA_6detail11MessageTypeE6EEENS0_30MemoryResourceAllocationPolicyENS5_19ProcessModifierImplINS4_21DefaultProxyFilterTagEEEvEESG_E6ObjectE = 0x0000000000c33598 + __sdk_start;
_ZN2nn2os16GetCurrentThreadEv = 0x000000000033be10 + __sdk_start;
_ZN2nn2sf4cmif6client6detail13CmifProxyImplINS_4npns9INpnsUserENS0_4hipc6client18Hipc2ProxyKindBaseILNS7_6detail11MessageTypeE6EEENS0_30MemoryResourceAllocationPolicyENS5_11INpnsSystemENS3_19ProcessModifierImplINS2_21DefaultProxyFilterTagEEEE21_nn_sf_sync_ListenAllEv = 0x0000000000330ed0 + __sdk_start;
NvRmGpuChannelReschedule = 0x0000000000404b60 + __sdk_start;
_ZN2nn5audio6server38CommandProcessingTimeEstimatorVersion28EstimateERKNS0_12DelayCommandE = 0x0000000000062400 + __sdk_start;
_ZTIN2nn2os6detail34MultiWaitHolderOfInterProcessEventE = 0x0000000000c2da68 + __sdk_start;
_ZTSN2nn2sf6detail19InterfaceInfoBottomINS0_14IServiceObjectEE4_tABINS0_13InterfaceInfoINS0_4hipc6detail12IHipcManagerEE5_tO2NINS7_6server2v134HipcServerSessionManagerWithDomain15HipcManagerImplEE4typeES9_E4typeE = 0x0000000000ab35d3 + __sdk_start;
_ZNSt3__113basic_ostreamIcNS_11char_traitsIcEEElsEPNS_15basic_streambufIcS2_EE = 0x00000000004adf00 + __sdk_start;
_ZN2nn4time11IsValidDateEiii = 0x000000000039fa00 + __sdk_start;
_ZN2nn5codec11OpusEncoderC1Ev = 0x00000000000def90 + __sdk_start;
_ZN2nn3hid18VibrationConverterC1Ei = 0x00000000002176c0 + __sdk_start;
_ZN2nn2sf4cmif6client34CmifDomainProxyClientCoreProcessorINS0_4hipc6client38Hipc2ClientSessionManagedProxyKindBaseINS5_18Hipc2ProxyKindBaseILNS4_6detail11MessageTypeE6EEEEENS1_6detail14CoreMethodInfoINSt3__15tupleIJNSC_18OutRawArgumentInfoILm4ELm4ELl0EEENSG_ILm8ELm8ELl8EEENSC_18BufferArgumentInfoILi0ELi33ELm0EEENSC_17InRawArgumentInfoILm4ELm4ELl0EEEEEELm4ELm16ELb0EEESN_E7ProcessEPNS2_23CmifDomainClientMessageISB_E15ProxyBaseObjectENS2_24OutRawClientArgumentTypeILm4ELm4EEENSU_ILm8ELm8EEENS2_24BufferClientArgumentTypeENS2_23InRawClientArgumentTypeILm4ELm4EvEEj = 0x00000000002421a0 + __sdk_start;
_ZN2nn3mem17StandardAllocator10ReallocateEPvm = 0x00000000002ee150 + __sdk_start;
nnsocketGetPeerName = 0x000000000037c320 + __sdk_start;
_ZN2nn3web19ShowYouTubeVideoArg19RequestUrlMaxLengthE = 0x0000000000abc7a8 + __sdk_start;
__nnmusl_ConsoleWrite = 0x000000000055b120 + __sdk_start;
_ZN2nn2sf4cmif6client6detail13CmifProxyImplINS_7account4baas14IAdministratorENS2_19CmifDomainProxyKindINS0_4hipc6client38Hipc2ClientSessionManagedProxyKindBaseINSA_18Hipc2ProxyKindBaseILNS9_6detail11MessageTypeE6EEEEEEENS0_25StatelessAllocationPolicyINS0_22ExpHeapStaticAllocatorILm2048ENS5_6detail12ObjectHolder24ObjectHolderAllocatorTagEEEEES7_NS3_19ProcessModifierImplINS2_21DefaultProxyFilterTagEEEE24_nn_sf_sync_IsRegisteredENS0_3OutIbvEE = 0x0000000000010f40 + __sdk_start;
_ZN7android8String166appendEPKDsm = 0x000000000044d9c0 + __sdk_start;
_ZN2nn2sf4cmif6client6detail13CmifProxyImplINS_7account19IAccountServiceBaseENS2_19CmifDomainProxyKindINS0_4hipc6client38Hipc2ClientSessionManagedProxyKindBaseINS9_18Hipc2ProxyKindBaseILNS8_6detail11MessageTypeE6EEEEEEENS0_25StatelessAllocationPolicyINS0_22ExpHeapStaticAllocatorILm2048ENS5_6detail12ObjectHolder24ObjectHolderAllocatorTagEEEEENS5_29IAccountServiceForApplicationENS3_19ProcessModifierImplINS2_21DefaultProxyFilterTagEEEE22_nn_sf_sync_GetProfileENS0_3OutINS0_13SharedPointerINS5_7profile8IProfileEEEvEERKNS5_3UidE = 0x0000000000005350 + __sdk_start;
_ZTIN2nn5codec22OpusMultiStreamDecoderE = 0x0000000000c1c7b0 + __sdk_start;
_ZTVN2nn2fs4save12SaveDataFileE = 0x0000000000c20260 + __sdk_start;
_ZTSN2nn3hid16IHidSystemServerE = 0x0000000000a836f4 + __sdk_start;
_ZN2nn8irsensor6detail15IrSensorSession29AttachSharedMemoryIfNotMappedEv = 0x00000000002a7350 + __sdk_start;
_ZN2nn2sf4cmif6client6detail13CmifProxyImplINS_7timesrv6detail7service12ISystemClockENS2_19CmifDomainProxyKindINS0_4hipc6client38Hipc2ClientSessionManagedProxyKindBaseINSB_18Hipc2ProxyKindBaseILNSA_6detail11MessageTypeE6EEEEEEENS0_30MemoryResourceAllocationPolicyES8_NS3_19ProcessModifierImplINS2_21DefaultProxyFilterTagEEEE26_nn_sf_sync_GetCurrentTimeENS0_3OutINS_4time9PosixTimeEvEE = 0x00000000003a4c50 + __sdk_start;
nvdcutilDsiPacketShortWrite = 0x00000000003ce950 + __sdk_start;
wcsxfrm = 0x000000000053f800 + __sdk_start;
ecvt = 0x0000000000552f40 + __sdk_start;
_ZNSt3__113utf8_to_utf16IjEENS_9enable_ifIXoosr7is_sameIT_tEE5valuesr7is_sameIS2_jEE5valueENS_12codecvt_base6resultEE4typeEPKhS8_RS8_PS2_SA_RSA_mNS_12codecvt_modeE = 0x00000000004d7728 + __sdk_start;
_ZN2nn5codec25FreeRam_SbrDecWorkBuffer2EPPi = 0x000000000012c6d0 + __sdk_start;
_ZN2nn2fs8MountRomEPKciPvm = 0x00000000001e7a60 + __sdk_start;
_ZNKSt3__120__time_get_c_storageIwE3__xEv = 0x00000000004d94e0 + __sdk_start;
cprojf = 0x0000000000533078 + __sdk_start;
_ZN2nn2sf4cmif6client6detail13CmifProxyImplINS_7account31IAccountServiceForSystemServiceENS2_19CmifDomainProxyKindINS0_4hipc6client38Hipc2ClientSessionManagedProxyKindBaseINS9_18Hipc2ProxyKindBaseILNS8_6detail11MessageTypeE6EEEEEEENS0_25StatelessAllocationPolicyINS0_22ExpHeapStaticAllocatorILm2048ENS5_6detail12ObjectHolder24ObjectHolderAllocatorTagEEEEES6_NS3_19ProcessModifierImplINS2_21DefaultProxyFilterTagEEEE34_nn_sf_sync_DebugSetUserStateCloseERKNS5_3UidENS_3arp21ApplicationInstanceIdE = 0x000000000000b190 + __sdk_start;
_ZN2nn2sf4cmif6client6detail13CmifProxyImplINS_2am7service22IAppletCommonFunctionsENS2_19CmifDomainProxyKindINS0_4hipc6client38Hipc2ClientSessionManagedProxyKindBaseINSA_18Hipc2ProxyKindBaseILNS9_6detail11MessageTypeE6EEEEEEENS0_30MemoryResourceAllocationPolicyES7_NS3_19ProcessModifierImplINS2_21DefaultProxyFilterTagEEEE43_nn_sf_sync_IsHomeButtonShortPressedBlockedENS0_3OutIbvEE = 0x000000000002bfa0 + __sdk_start;
_ZN2nn3nfc6client27RequiredMcuVersionDataCountE = 0x0000000000aa9abc + __sdk_start;
_ZNK2nn3ngc6detail3Set6ExportEPNS1_12BinaryWriterE = 0x000000000031ede0 + __sdk_start;
_ZNSt3__112ctype_bynameIcEC2ERKNS_12basic_stringIcNS_11char_traitsIcEENS_9allocatorIcEEEEm = 0x00000000004d2d38 + __sdk_start;
_ZN2nn2sf4cmif6client6detail13CmifProxyImplINS_4nifm6detail15IGeneralServiceENS2_19CmifDomainProxyKindINS0_4hipc6client38Hipc2ClientSessionManagedProxyKindBaseINSA_18Hipc2ProxyKindBaseILNS9_6detail11MessageTypeE6EEEEEEENS0_30MemoryResourceAllocationPolicyES7_NS3_19ProcessModifierImplINS2_21DefaultProxyFilterTagEEEE42_nn_sf_sync_IsAnyForegroundRequestAcceptedENS0_3OutIbvEE = 0x00000000003263e0 + __sdk_start;
_ZN2nn3ntc4shim31CorrectionNetworkClockAsyncTask9GetResultEv = 0x00000000003a7c70 + __sdk_start;
_ZN2nn2sf4cmif6client6detail13CmifProxyImplINS_7timesrv6detail7service16ITimeZoneServiceENS2_19CmifDomainProxyKindINS0_4hipc6client38Hipc2ClientSessionManagedProxyKindBaseINSB_18Hipc2ProxyKindBaseILNSA_6detail11MessageTypeE6EEEEEEENS0_30MemoryResourceAllocationPolicyES8_NS3_19ProcessModifierImplINS2_21DefaultProxyFilterTagEEEE31_nn_sf_sync_ParseTimeZoneBinaryENS0_3OutINS_4time12TimeZoneRuleEvEERKNS0_8InBufferE = 0x00000000003a55c0 + __sdk_start;
_ZTSN2nn7account25UserRegistrationProcedureE = 0x0000000000a2f4f8 + __sdk_start;
_ZN2nn6crypto6detail19RsaKeyPairGenerator8GenerateEv = 0x000000000013f140 + __sdk_start;
_ZTSN2nn2fs4save18ExclusiveDirectoryE = 0x0000000000a69bb1 + __sdk_start;
_ZN2nn3hid6system32BindAudioControlStateChangeEventEPNS_2os15SystemEventTypeENS2_14EventClearModeE = 0x00000000002279c0 + __sdk_start;
nndetailImagePng_png_image_write_to_memory = 0x00000000002909b0 + __sdk_start;
_ZNK2nn3web21ShowSystemDataPageArg15PushToInChannelENS_6applet19LibraryAppletHandleE = 0x00000000003c8390 + __sdk_start;
_ZN7android8Composer7setSizeERKNS_2spINS_21SurfaceComposerClientEEERKNS1_INS_7IBinderEEEjj = 0x00000000004432a0 + __sdk_start;
__subvsi3 = 0x0000000000513fc0 + __sdk_start;
_ZN2nn2fs6detail24SaveDataExporterVersion230GetInitialDataMacKeyGenerationEPi = 0x00000000001f6fd0 + __sdk_start;
_ZN2nn2sf4cmif6client6detail13CmifProxyImplINS_3hid10IHidServerENS0_4hipc6client18Hipc2ProxyKindBaseILNS7_6detail11MessageTypeE6EEENS0_30MemoryResourceAllocationPolicyES6_NS3_19ProcessModifierImplINS2_21DefaultProxyFilterTagEEEE31_nn_sf_sync_SuspendPalmaFeatureENS5_21PalmaConnectionHandleENS_4util10BitFlagSetILi32ENS5_12PalmaFeatureEEE = 0x0000000000229b40 + __sdk_start;
_ZN2nn5image6detail20WritePngDataCallbackEP14png_struct_defPhm = 0x0000000000297520 + __sdk_start;
_ZN2nn8settings6detail18GetXpadKeyboardMapEPNS0_20BasicXpadKeyboardMapEi = 0x00000000003679e0 + __sdk_start;
nnsocketShutdown = 0x000000000037c380 + __sdk_start;
_ZNK2nn5audio15PerformanceInfo10GetEntriesEPi = 0x0000000000044dc0 + __sdk_start;
_ZN2nn4http4json8JsonPathILi8ELi128ELb0EE7TryPushERKNS1_4NodeEPKc = 0x000000000014daa0 + __sdk_start;
_ZN2nn2sf4cmif6client34CmifDomainProxyClientCoreProcessorINS0_4hipc6client38Hipc2ClientSessionManagedProxyKindBaseINS5_18Hipc2ProxyKindBaseILNS4_6detail11MessageTypeE6EEEEENS1_6detail14CoreMethodInfoINSt3__15tupleIJNSC_18BufferArgumentInfoILi0ELi6ELm0EEENSG_ILi1ELi5ELm0EEENSG_ILi2ELi5ELm0EEENSC_17InRawArgumentInfoILm4ELm4ELl0EEEEEELm4ELm0ELb0EEESM_E7ProcessEPNS2_23CmifDomainClientMessageISB_E15ProxyBaseObjectENS2_24BufferClientArgumentTypeEST_ST_NS2_23InRawClientArgumentTypeILm4ELm4EvEEj = 0x00000000001d86d0 + __sdk_start;
cprojl = 0x00000000005330b8 + __sdk_start;
nndetailRoGetRoDataStart = 0x00000000000003c0 + __sdk_start;
_ZN2nn5codec28CProgramConfig_LookupElementEPNS0_14CProgramConfigEjjjPhP18AUDIO_CHANNEL_TYPES3_S3_P14MP4_ELEMENT_IDS6_ = 0x0000000000108610 + __sdk_start;
_ZN2nn2fs6detail30FileSystemServiceObjectAdapter21DoGetFileTimeStampRawEPNS0_16FileTimeStampRawEPKc = 0x00000000001dcae0 + __sdk_start;
pthread_setname_np = 0x000000000055d700 + __sdk_start;
_ZNK2nn3mii6detail11CoreDataRaw13GetMouthColorEv = 0x00000000002f6ff0 + __sdk_start;
_ZN2nn3nsd18GetCurrentSaveDataEPNS0_8SaveDataE = 0x00000000003323e0 + __sdk_start;
_ZN2nn2sf4cmif6client6detail13CmifProxyImplINS_7account6detail13IAsyncContextENS2_19CmifDomainProxyKindINS0_4hipc6client38Hipc2ClientSessionManagedProxyKindBaseINSA_18Hipc2ProxyKindBaseILNS9_6detail11MessageTypeE6EEEEEEENS0_25StatelessAllocationPolicyINS0_22ExpHeapStaticAllocatorILm2048ENS6_12ObjectHolder24ObjectHolderAllocatorTagEEEEES7_NS3_19ProcessModifierImplINS2_21DefaultProxyFilterTagEEEE26_nn_sf_sync_GetSystemEventENS0_3OutINS0_12NativeHandleEvEE = 0x0000000000008dc0 + __sdk_start;
_ZN2nn5codec13delayIndexQmfE = 0x0000000000a64311 + __sdk_start;
_ZN2nn4diag15OnResultRethrowENS_6ResultERKNS0_10SourceInfoE = 0x0000000000145a10 + __sdk_start;
nndetailImagePng_png_read_start_row = 0x000000000028c200 + __sdk_start;
_ZN2nn3nfc9GetNpadIdEPjRKNS0_12DeviceHandleE = 0x000000000030acf0 + __sdk_start;
_ZN2nn2ro6detail8RoModule26InitializeArchitectureDataEv = 0x0000000000357570 + __sdk_start;
_ZN2nn2sf4hipc6client24Hipc2ClientCoreProcessorILNS1_6detail11MessageTypeE6ENS0_4cmif6detail14CoreMethodInfoINSt3__15tupleIJNS7_18OutRawArgumentInfoILm72ELm4ELl0EEEEEELm0ELm72ELb0EEESD_E7ProcessEPNS2_26Hipc2ClientProxyBaseObjectENS6_6client24OutRawClientArgumentTypeILm72ELm4EEEj = 0x00000000003696b0 + __sdk_start;
_ZTIN2nn6capsrv2sf32IAlbumAccessorApplicationSessionE = 0x0000000000c1c0a8 + __sdk_start;
_ZN2nn4edid6detail27GetDetailedTimingStereoModeEh = 0x0000000000159ee0 + __sdk_start;
_ZN2nn3hid18VibrationConverterC1Ev = 0x0000000000217610 + __sdk_start;
_ZTIN2nn2os6detail37MultiWaitHolderOfMessageQueueNotEmptyE = 0x0000000000c2db08 + __sdk_start;
_ZN2nn2sf4cmif6client6detail13CmifProxyImplINS_8settings21ISystemSettingsServerENS0_4hipc6client18Hipc2ProxyKindBaseILNS7_6detail11MessageTypeE6EEENS0_30MemoryResourceAllocationPolicyES6_NS3_19ProcessModifierImplINS2_21DefaultProxyFilterTagEEEE28_nn_sf_sync_GetPctlReadyFlagENS0_3OutIbvEE = 0x000000000036d2c0 + __sdk_start;
_ZN2nn2sf4hipc6client24Hipc2ClientCoreProcessorILNS1_6detail11MessageTypeE6ENS0_4cmif6detail14CoreMethodInfoINSt3__15tupleIJNS7_17InRawArgumentInfoILm4ELm4ELl0EEENSB_ILm4ELm4ELl4EEENS7_18BufferArgumentInfoILi0ELi33ELm0EEENSE_ILi1ELi34ELm0EEENSB_ILm4ELm4ELl8EEEEEELm12ELm0ELb0EEESI_E7ProcessEPNS2_26Hipc2ClientProxyBaseObjectENS6_6client23InRawClientArgumentTypeILm4ELm4EvEESP_NSN_24BufferClientArgumentTypeESQ_SP_j = 0x00000000003b9920 + __sdk_start;
_ZNSt3__113basic_ostreamIwNS_11char_traitsIwEEE6sentryD2Ev = 0x00000000004ae820 + __sdk_start;
_ZN2nn7account13ProfileEditoraSEOS1_ = 0x0000000000019070 + __sdk_start;
_ZTSN2nn2sf4cmif6client6detail9CmifProxyINS_3apm14ISystemManagerENS0_4hipc6client18Hipc2ProxyKindBaseILNS7_6detail11MessageTypeE6EEENS0_30MemoryResourceAllocationPolicyENS3_19ProcessModifierImplINS2_21DefaultProxyFilterTagEEEvEE = 0x0000000000a3b19d + __sdk_start;
_ZN2nn5audio6server16UpsamplerManagerC2EiPNS0_13UpsamplerInfoEPa = 0x000000000004c5d0 + __sdk_start;
_ZN2nn2la4auth26ShowParentalAuthenticationERKNS1_25ParentalAuthenticationArgE = 0x00000000002c1c40 + __sdk_start;
_ZTVN2nn2os6detail22MultiWaitHolderOfEventE = 0x0000000000c2d928 + __sdk_start;
NvUHashDeinit = 0x00000000003d1680 + __sdk_start;
_ZNSt3__18valarrayImED2Ev = 0x00000000004efeb8 + __sdk_start;
_ZN2nn2sf4cmif6client34CmifDomainProxyClientCoreProcessorINS0_4hipc6client38Hipc2ClientSessionManagedProxyKindBaseINS5_18Hipc2ProxyKindBaseILNS4_6detail11MessageTypeE6EEEEENS1_6detail14CoreMethodInfoINSt3__15tupleIJNSC_18OutRawArgumentInfoILm8ELm8ELl0EEENSC_18BufferArgumentInfoILi0ELi6ELm0EEEEEELm0ELm8ELb0EEESK_E7ProcessEPNS2_23CmifDomainClientMessageISB_E15ProxyBaseObjectENS2_24OutRawClientArgumentTypeILm8ELm8EEENS2_24BufferClientArgumentTypeEj = 0x00000000001ce250 + __sdk_start;
_ZN2nn2vi9SetLayerZEPNS0_5LayerEi = 0x00000000003c2230 + __sdk_start;
_ZN7android6Parcel15restoreAllowFdsEb = 0x00000000004214a0 + __sdk_start;
_ZNSt3__16localeC1ERKS0_RKNS_12basic_stringIcNS_11char_traitsIcEENS_9allocatorIcEEEEi = 0x00000000004d0e40 + __sdk_start;
fgetc_unlocked = 0x0000000000550ba8 + __sdk_start;
nncodecLibopus_opus_packet_get_nb_channels = 0x00000000000cfed0 + __sdk_start;
_ZThn16_N2nn2sf4cmif6client6detail13CmifProxyImplINS_4npns9INpnsUserENS0_4hipc6client18Hipc2ProxyKindBaseILNS7_6detail11MessageTypeE6EEENS0_30MemoryResourceAllocationPolicyENS5_11INpnsSystemENS3_19ProcessModifierImplINS2_21DefaultProxyFilterTagEEEE17GetCmifBaseObjectEv = 0x00000000003314f0 + __sdk_start;
_ZN2nn2sf4cmif6client6detail13CmifProxyImplINS_4pctl6detail3ipc23IParentalControlServiceENS2_19CmifDomainProxyKindINS0_4hipc6client38Hipc2ClientSessionManagedProxyKindBaseINSB_18Hipc2ProxyKindBaseILNSA_6detail11MessageTypeE6EEEEEEENS0_30MemoryResourceAllocationPolicyES8_NS3_19ProcessModifierImplINS2_21DefaultProxyFilterTagEEEE47_nn_sf_sync_FinishGetAccountMiiImageContentTypeENS0_3OutIjvEERKNS0_8OutArrayIcEENS6_9AsyncDataE = 0x0000000000349c30 + __sdk_start;
_ZTVSt16invalid_argument = 0x0000000000c4b718 + __sdk_start;
lrint = 0x0000000000541ad8 + __sdk_start;
_ZN2nn3hid13VibrationNode6UpdateEv = 0x0000000000218d00 + __sdk_start;
_ZN2nn4nifm4ScanEPKsiNS0_17RequirementPresetE = 0x000000000032bad0 + __sdk_start;
_ZNK7android16SortedVectorImpl7indexOfEPKv = 0x0000000000452c00 + __sdk_start;
_ZN2nn3hid6system6detail27CheckFirmwareUpdateRequiredEPNS1_28FirmwareUpdateRequiredReasonENS1_11UniquePadIdE = 0x000000000021e680 + __sdk_start;
_ZN2nn8settings6detail23SetDataDeletionSettingsERKNS0_6system20DataDeletionSettingsE = 0x00000000003617f0 + __sdk_start;
_ZN2nn2sf4cmif6client6detail13CmifProxyImplINS_8settings22IFactorySettingsServerENS0_4hipc6client18Hipc2ProxyKindBaseILNS7_6detail11MessageTypeE6EEENS0_30MemoryResourceAllocationPolicyES6_NS3_19ProcessModifierImplINS2_21DefaultProxyFilterTagEEEE35_nn_sf_sync_SetOverlayDispProgramIdENS_3ncm9ProgramIdE = 0x0000000000367f20 + __sdk_start;
_ZN2nn4util10Executable7ExecuteEPvm = 0x00000000003b65d0 + __sdk_start;
_ZNK7android7IMemory7pointerEv = 0x000000000041b3e0 + __sdk_start;
_ZNK7android12ConsumerBase4dumpERNS_7String8EPKc = 0x0000000000435430 + __sdk_start;
_ZTIN2nn7account7profile8IProfileE = 0x0000000000c0d3e8 + __sdk_start;
_ZTSN2nn2sf4cmif6client6detail9CmifProxyINS_2am7service17IOverlayFunctionsENS2_19CmifDomainProxyKindINS0_4hipc6client38Hipc2ClientSessionManagedProxyKindBaseINSA_18Hipc2ProxyKindBaseILNS9_6detail11MessageTypeE6EEEEEEENS0_30MemoryResourceAllocationPolicyENS3_19ProcessModifierImplINS2_21DefaultProxyFilterTagEEEvEE = 0x0000000000a370e8 + __sdk_start;
_ZNK2nn4bcat21DeliveryCacheProgress23GetCurrentDirectoryNameEv = 0x0000000000081820 + __sdk_start;
ttf_read = 0x0000000000197fc0 + __sdk_start;
_ZN2nn3hid6detail16GetKeyboardStateEPNS0_13KeyboardStateE = 0x0000000000206150 + __sdk_start;
_ZN2nn4util10BitFlagSetILi256ENS_3hid11KeyboardKeyEE4FlagILi133EE4MaskE = 0x0000000000a72398 + __sdk_start;
_ZNK2nn3mii6detail11CoreDataRaw15GetEyebrowColorEv = 0x00000000002f6d80 + __sdk_start;
_ZN2nn8settings6system30GetAnalogStickUserCalibrationLEPNS1_26AnalogStickUserCalibrationE = 0x000000000035b520 + __sdk_start;
_ZN2nn4util6detail15AtanSampleTableE = 0x0000000000ab98dc + __sdk_start;
strncasecmp = 0x00000000005552e0 + __sdk_start;
wcscspn = 0x0000000000555f90 + __sdk_start;
_ZN2nn6crypto23EncryptAes128CtrPartialEPvmPKvmS3_mlS3_m = 0x00000000001340c0 + __sdk_start;
nnmem_nlib_thread_setname = 0x00000000002e05e0 + __sdk_start;
_ZN2nn5audio6server24AudioRendererManagerImplD1Ev = 0x000000000005bff0 + __sdk_start;
_ZN2nn6crypto6detail6BigNum3AddEPjPKjS5_i = 0x0000000000138180 + __sdk_start;
_ZN2nn2sf4cmif6client6detail13CmifProxyImplINS_7account4http15IOAuthProcedureENS2_19CmifDomainProxyKindINS0_4hipc6client38Hipc2ClientSessionManagedProxyKindBaseINSA_18Hipc2ProxyKindBaseILNS9_6detail11MessageTypeE6EEEEEEENS0_25StatelessAllocationPolicyINS0_22ExpHeapStaticAllocatorILm2048ENS5_6detail12ObjectHolder24ObjectHolderAllocatorTagEEEEENS5_3nas34IOAuthProcedureForUserRegistrationENS3_19ProcessModifierImplINS2_21DefaultProxyFilterTagEEEE12GetProxyInfoEv = 0x000000000000fa90 + __sdk_start;
_ZN2nn9bluetooth4user14GetLeEventInfoEPNS0_12BleEventTypeEPhm = 0x000000000008cff0 + __sdk_start;
_ZNK2nn5image13ExifExtractor25ExtractEffectiveDimensionEPNS0_9DimensionE = 0x0000000000273400 + __sdk_start;
_ZN2nn2sf4cmif6client6detail13CmifProxyImplINS_3ssl2sf14ISslConnectionENS2_19CmifDomainProxyKindINS0_4hipc6client38Hipc2ClientSessionManagedProxyKindBaseINSA_18Hipc2ProxyKindBaseILNS9_6detail11MessageTypeE6EEEEEEENS0_24StatefulAllocationPolicyINS0_16ExpHeapAllocatorEEES7_NS3_19ProcessModifierImplINS2_21DefaultProxyFilterTagEEEE21_nn_sf_sync_SetIoModeENS6_6IoModeE = 0x0000000000398620 + __sdk_start;
__unorddf2 = 0x000000000050fda8 + __sdk_start;
_ZN2nn5audio15GetAudioInStateEPKNS0_7AudioInE = 0x00000000000574b0 + __sdk_start;
_ZN2nn4bcat35ClearDeliveryTaskSubscriptionStatusEv = 0x000000000007f810 + __sdk_start;
_ZN2nn2fs6detail12FileAccessorC2EONSt3__110unique_ptrINS0_3fsa5IFileENS3_14default_deleteIS6_EEEEPNS1_18FileSystemAccessorEi = 0x00000000001b5f20 + __sdk_start;
_ZTSN2nn2sf6detail38ObjectImplFactoryWithStatefulAllocatorINS0_4cmif6client6detail9CmifProxyINS_3hid10IHidServerENS0_4hipc6client18Hipc2ProxyKindBaseILNS9_6detail11MessageTypeE6EEENS0_30MemoryResourceAllocationPolicyENS5_19ProcessModifierImplINS4_21DefaultProxyFilterTagEEEvEESF_E6ObjectE = 0x0000000000a8274a + __sdk_start;
nnmem_nlib_mempagesize = 0x00000000002df610 + __sdk_start;
_ZN2nn3nfp6client21CreateSystemInterfaceEv = 0x000000000030d720 + __sdk_start;
_ZN2nn3ngc6detail11InputStream5CloseEv = 0x000000000031c120 + __sdk_start;
nnosInitializeMultiWaitHolderForSemaphore = 0x000000000033d970 + __sdk_start;
_ZN2nn2sf4cmif6server23CmifServerDomainManager6Domain7ReleaseEv = 0x0000000000371530 + __sdk_start;
_ZN2nn2sf4hipc6client24Hipc2ClientCoreProcessorILNS1_6detail11MessageTypeE6ENS0_4cmif6detail14CoreMethodInfoINSt3__15tupleIJNS7_17InRawArgumentInfoILm8ELm8ELl0EEENS7_18OutRawArgumentInfoILm8ELm8ELl0EEEEEELm8ELm8ELb0EEESF_E7ProcessEPNS2_26Hipc2ClientProxyBaseObjectENS6_6client23InRawClientArgumentTypeILm8ELm8EvEENSK_24OutRawClientArgumentTypeILm8ELm8EEEj = 0x0000000000054bc0 + __sdk_start;
_ZN2nn2fs6detail29DirectoryServiceObjectAdapterD1Ev = 0x00000000001dbcb0 + __sdk_start;
_ZN2nn6socket8resolver11GetAddrInfoEPKcS3_PKNS0_8AddrInfoEPPS4_ = 0x0000000000390570 + __sdk_start;
_ZNKSt3__120__time_get_c_storageIwE3__rEv = 0x00000000004d9888 + __sdk_start;
_ZNSt3__16localeC2ERKS0_RKNS_12basic_stringIcNS_11char_traitsIcEENS_9allocatorIcEEEEi = 0x00000000004d0e40 + __sdk_start;
_ZN2nn5codec22CProgramConfig_IsValidEPKNS0_14CProgramConfigE = 0x0000000000106a90 + __sdk_start;
_ZN2nn4pctl28SetPlayTimerSettingsForDebugERKNS0_17PlayTimerSettingsE = 0x0000000000347810 + __sdk_start;
_ZN2nn2fs22GetSystemSaveDataFlagsEPjNS0_15SaveDataSpaceIdEmRKNS0_6UserIdE = 0x00000000001ed590 + __sdk_start;
_ZN2nn2sf4cmif6client6detail13CmifProxyImplINS_3hid16IHidSystemServerENS0_4hipc6client18Hipc2ProxyKindBaseILNS7_6detail11MessageTypeE6EEENS0_30MemoryResourceAllocationPolicyES6_NS3_19ProcessModifierImplINS2_21DefaultProxyFilterTagEEEE31_nn_sf_sync_AbortFirmwareUpdateEv = 0x0000000000231fb0 + __sdk_start;
_ZN2nn6crypto6detail9GhashImpl22SwitchMessageSizeDigitEv = 0x000000000013d340 + __sdk_start;
_ZN2nn2sf4cmif6client6detail13CmifProxyImplINS_3hid15IHidDebugServerENS0_4hipc6client18Hipc2ProxyKindBaseILNS7_6detail11MessageTypeE6EEENS0_30MemoryResourceAllocationPolicyES6_NS3_19ProcessModifierImplINS2_21DefaultProxyFilterTagEEEE34_nn_sf_sync_SetMouseAutoPilotStateERKNS5_5debug19MouseAutoPilotStateE = 0x000000000022d8c0 + __sdk_start;
_ZN2nn2sf4cmif6client6detail13CmifProxyImplINS_4nifm6detail15IGeneralServiceENS2_19CmifDomainProxyKindINS0_4hipc6client38Hipc2ClientSessionManagedProxyKindBaseINSA_18Hipc2ProxyKindBaseILNS9_6detail11MessageTypeE6EEEEEEENS0_30MemoryResourceAllocationPolicyES7_NS3_19ProcessModifierImplINS2_21DefaultProxyFilterTagEEEE38_nn_sf_sync_EnumerateNetworkInterfacesERKNS0_8OutArrayINS6_2sf20NetworkInterfaceInfoEEENS0_3OutIivEEj = 0x0000000000326080 + __sdk_start;
_ZN7android9BpRefBaseD2Ev = 0x0000000000419db0 + __sdk_start;
_ZN2nn2sf4cmif6client6detail13CmifProxyImplINS_2am7service18ICommonStateGetterENS2_19CmifDomainProxyKindINS0_4hipc6client38Hipc2ClientSessionManagedProxyKindBaseINSA_18Hipc2ProxyKindBaseILNS9_6detail11MessageTypeE6EEEEEEENS0_30MemoryResourceAllocationPolicyES7_NS3_19ProcessModifierImplINS2_21DefaultProxyFilterTagEEEE36_nn_sf_sync_ActivateMigrationServiceEv = 0x0000000000023750 + __sdk_start;
_ZN2nn3hid6detail20GetTouchScreenStatesILm13EEENS_6ResultEPiPNS0_16TouchScreenStateIXT_EEEi = 0x000000000020ee50 + __sdk_start;
_ZN2nn6socket6detail4SendEiPKvmi = 0x0000000000381cd0 + __sdk_start;
_ZNSt3__113shared_futureIvEaSERKS1_ = 0x00000000004a4b40 + __sdk_start;
_ZN2nn7account38ExternalNetworkServiceAccountRegistrarC2EPNS0_4baas28IFloatingRegistrationRequestE = 0x0000000000014e50 + __sdk_start;
_ZN2nn2sf4cmif6client6detail13CmifProxyImplINS_3hid15IHidDebugServerENS0_4hipc6client18Hipc2ProxyKindBaseILNS7_6detail11MessageTypeE6EEENS0_30MemoryResourceAllocationPolicyES6_NS3_19ProcessModifierImplINS2_21DefaultProxyFilterTagEEEE31_nn_sf_sync_ConnectUsbPadsAsyncEv = 0x000000000022e000 + __sdk_start;
_ZN2nn3kpr6detail34GetKeyCodeComposerCompositionCountERKNS1_22KeyCodeComposerStorageE = 0x00000000002c0860 + __sdk_start;
_ZNSt11range_errorD0Ev = 0x0000000000506638 + __sdk_start;
_ZN2nn7account12ListAllUsersEPiPNS0_3UidEi = 0x0000000000001f60 + __sdk_start;
_ZN2nn2fs10QueryRangeEPNS0_14QueryRangeInfoENS0_10FileHandleEll = 0x00000000001b9d90 + __sdk_start;
_ZN2nn2fs6detail44OpenSaveDataTransferProhibiterForCloudBackUpEPNSt3__110unique_ptrINS0_40SaveDataTransferProhibiterForCloudBackUpENS2_14default_deleteIS4_EEEENS_3ncm13ApplicationIdE = 0x00000000001f91e0 + __sdk_start;
_ZNSt3__120__threads_data_queueD1Ev = 0x00000000004a53f0 + __sdk_start;
_ZNK7android6Region3endEv = 0x0000000000449df0 + __sdk_start;
copy_outline = 0x000000000018d4f0 + __sdk_start;
_ZN2nn5swkbd14InlineKeyboard22SetMovedCursorCallbackEPFvPKNS0_14MovedCursorArgEE = 0x000000000039c570 + __sdk_start;
_ZNSt3__112basic_stringIwNS_11char_traitsIwEENS_9allocatorIwEEE6assignEPKw = 0x00000000004e86e0 + __sdk_start;
_ZN2nn2fs6detail22LruFileDataCacheSystem16DoCompactionCoreEPNS2_10PageRegionEii = 0x00000000001fcc70 + __sdk_start;
_ZN2nn3hid17StopSixAxisSensorERKNS0_19SixAxisSensorHandleE = 0x0000000000216510 + __sdk_start;
_ZN2nn2sf4cmif6server6detail34CmifProcessFunctionTableGetterImplINS0_4hipc6detail12IHipcManagerEE30Process_QueryPointerBufferSizeEPPNS1_13CmifOutHeaderEPS7_PNS2_17CmifServerMessageEONS0_6detail14PointerAndSizeE = 0x0000000000376400 + __sdk_start;
_ZN2nn4util7Color4f11ConstantRedE = 0x0000000000ab9ec0 + __sdk_start;
_ZN2nn6capsrv38GetAlbumContentsFileListForApplicationEPiPNS0_21ApplicationAlbumEntryEihNS0_17AlbumFileDateTimeES4_ = 0x0000000000096640 + __sdk_start;
_ZN2nn6applet28TryPopFromAppletBoundChannelEPNS0_13StorageHandleE = 0x000000000003c040 + __sdk_start;
_ZNK2nn5audio6server14EffectInfoBase8GetUsageEv = 0x0000000000066260 + __sdk_start;
_ZN2nn3hid14KeyboardLayout23ChineseTraditionalLatinE = 0x0000000000a72660 + __sdk_start;
_ZTSN2nn4util9IFunctionIFNS_6ResultEmmEEE = 0x0000000000ab1970 + __sdk_start;
_ZN2nn6socket6SelectEiP6fd_setS2_S2_P7timeval = 0x000000000037bc30 + __sdk_start;
_ZN2nn6socket6detail11GetSockNameEiPNS0_8SockAddrEPj = 0x0000000000383430 + __sdk_start;
_ZTSN2nn3ssl6detail22ISslServiceFactoryBaseE = 0x0000000000ab59b3 + __sdk_start;
nncodecLibopus_silk_InitEncoder = 0x00000000000bd6c0 + __sdk_start;
_ZN2nn3mii6detail12StoreDataRaw13SetRegionMoveEi = 0x00000000002fa390 + __sdk_start;
_ZN2nn2os15JamMessageQueueEPNS0_16MessageQueueTypeEm = 0x000000000033a5c0 + __sdk_start;
_ZTINSt3__110__time_getE = 0x0000000000c47750 + __sdk_start;
_ZN2nn2fs6detail22PathBasedFileDataCache13FindHashIndexEPiPNS1_18FileSystemAccessorERKNS1_12FilePathHashEPKc = 0x00000000001fddf0 + __sdk_start;
_ZN2nn2sf6detail38ObjectImplFactoryWithStatefulAllocatorINS0_4cmif6client6detail9CmifProxyINS_3nim6detail20IShopServiceAccessorENS0_4hipc6client18Hipc2ProxyKindBaseILNSA_6detail11MessageTypeE6EEENS0_30MemoryResourceAllocationPolicyENS5_19ProcessModifierImplINS4_21DefaultProxyFilterTagEEEvEESG_E6Object12AddReferenceEv = 0x0000000000152700 + __sdk_start;
_ZN2nn3hid6system6detail23IsButtonConfigSupportedEPbRKNS1_11UniquePadIdE = 0x000000000021dd70 + __sdk_start;
_ZTSN2nn3ssl2sf11ISslContextE = 0x0000000000ab61fe + __sdk_start;
_ZNSt3__112basic_stringIwNS_11char_traitsIwEENS_9allocatorIwEEE6__initEmw = 0x00000000004e9a38 + __sdk_start;
_ZN2nn5audio32SetFinalOutputRecorderBufferInfoEPNS0_25FinalOutputRecorderBufferEPvmm = 0x0000000000058520 + __sdk_start;
_ZTIN2nn7friends6detail3ipc20INotificationServiceE = 0x0000000000c1f018 + __sdk_start;
_ZN2nn2fs24HierarchicalRomFileTable8OpenFileEPNS0_11RomFileInfoEi = 0x00000000001aaaf0 + __sdk_start;
_ZN2nn6socket7ConnectEiPKNS0_8SockAddrEj = 0x000000000037bac0 + __sdk_start;
_ZN2nn5audio16ApplyDelayEffectEPKNS0_14DelayParameterEPNS0_10DelayStateEbPPKiPPii = 0x0000000000071c70 + __sdk_start;
_ZN2nn5audio6server16CommandGenerator21GenerateVoiceCommandsEv = 0x000000000005ed40 + __sdk_start;
_ZN2nn5audio6server13CommandBuffer8GenerateINS1_7command14DataSourceBaseINS0_26TDataSourceCommandVersion2ILNS0_9CommandIdE6EEELNS0_24PerformanceSysDetailTypeE15EEEJPNS1_9VoiceInfoEPNS0_10VoiceStateERiSF_EEEPNT_3DefEjDpOT0_ = 0x000000000005e120 + __sdk_start;
_ZN2nn2sf4cmif6client6detail13CmifProxyImplINS_4bcat6detail3ipc30IDeliveryCacheDirectoryServiceENS2_19CmifDomainProxyKindINS0_4hipc6client38Hipc2ClientSessionManagedProxyKindBaseINSB_18Hipc2ProxyKindBaseILNSA_6detail11MessageTypeE6EEEEEEENS0_30MemoryResourceAllocationPolicyES8_NS3_19ProcessModifierImplINS2_21DefaultProxyFilterTagEEEE17GetCmifBaseObjectEv = 0x0000000000085550 + __sdk_start;
_ZN2nn3mii6detail24NfpStoreDataExtentionRaw15SetEyebrowColorEi = 0x00000000002f7fd0 + __sdk_start;
_ZN2nn2sf4cmif6client34CmifDomainProxyClientCoreProcessorINS0_4hipc6client38Hipc2ClientSessionManagedProxyKindBaseINS5_18Hipc2ProxyKindBaseILNS4_6detail11MessageTypeE6EEEEENS1_6detail14CoreMethodInfoINSt3__15tupleIJNSC_18OutRawArgumentInfoILm1ELm1ELl0EEENSC_21OutHandleArgumentInfoILi0ELi1EEEEEELm0ELm1ELb0EEESK_E7ProcessEPNS2_23CmifDomainClientMessageISB_E15ProxyBaseObjectENS2_24OutRawClientArgumentTypeILm1ELm1EEENS2_27OutHandleClientArgumentTypeEj = 0x0000000000027a30 + __sdk_start;
_ZN2nn2sf4cmif6client6detail13CmifProxyImplINS_2am7service18ICommonStateGetterENS2_19CmifDomainProxyKindINS0_4hipc6client38Hipc2ClientSessionManagedProxyKindBaseINSA_18Hipc2ProxyKindBaseILNS9_6detail11MessageTypeE6EEEEEEENS0_30MemoryResourceAllocationPolicyES7_NS3_19ProcessModifierImplINS2_21DefaultProxyFilterTagEEEE27_nn_sf_sync_IsVrModeEnabledENS0_3OutIbvEE = 0x0000000000023450 + __sdk_start;
_ZN2nn9bluetooth17TriggerConnectionERKNS0_7AddressEt = 0x000000000008b410 + __sdk_start;
_ZN2nn8settings12LanguageCode8JapaneseEv = 0x000000000035bcf0 + __sdk_start;
_ZdlPvRKSt9nothrow_t = 0x00000000004e4368 + __sdk_start;
_ZN2nn9bluetooth10DisableBleEv = 0x000000000008be30 + __sdk_start;
_ZN2nn5codec8DecodePsEPNS0_6PS_DECEh = 0x00000000001220d0 + __sdk_start;
_ZZN3nne9rapidjson6WriterIN2nn2ec4json24NoAllocationOutputStreamENS0_4UTF8IcEES7_NS0_19MemoryPoolAllocatorINS2_4http4json23NoAllocatorForRapidJsonEEELj0EE11WriteStringEPKcjE9hexDigits = 0x0000000000a65e70 + __sdk_start;
_ZN2nn8settings6detail32SetChineseTraditionalInputMethodENS0_29ChineseTraditionalInputMethodE = 0x0000000000362b90 + __sdk_start;
_ZN2nn3web19ShowYouTubeVideoArg18SetBootDisplayKindENS0_18WebBootDisplayKindE = 0x00000000003c9d20 + __sdk_start;
_ZNSt3__113basic_istreamIwNS_11char_traitsIwEEE7getlineEPwlw = 0x00000000004ab700 + __sdk_start;
_ZZN2nn2sf40SimpleAllInOneHipcSubDomainClientManagerILm100EE27InitializeShimLibraryHolderINS_2am7service24IApplicationProxyServiceENS0_4cmif6client6detail19ProcessModifierImplINS8_21DefaultProxyFilterTagEEEEENS_6ResultEPNS0_23ShimLibraryObjectHolderIT_EEPKcPNS_14MemoryResourceEENKUlPvE_clESM_ = 0x0000000000035080 + __sdk_start;
_ZN2nn2fs11GetRightsIdEPNS0_8RightsIdEPKc = 0x00000000001e6eb0 + __sdk_start;
_ZN2nn2sf4cmif6client6detail13CmifProxyImplINS_2am7service15ISelfControllerENS2_19CmifDomainProxyKindINS0_4hipc6client38Hipc2ClientSessionManagedProxyKindBaseINSA_18Hipc2ProxyKindBaseILNS9_6detail11MessageTypeE6EEEEEEENS0_30MemoryResourceAllocationPolicyES7_NS3_19ProcessModifierImplINS2_21DefaultProxyFilterTagEEEE33_nn_sf_sync_GetCurrentIlluminanceENS0_3OutIfvEE = 0x0000000000024c00 + __sdk_start;
_ZN2nn3mii16GetEyeGreenColorENS0_9GammaTypeE = 0x00000000002f2160 + __sdk_start;
_ZN2nn2sf4cmif6client6detail13CmifProxyImplINS_4pctl6detail3ipc23IParentalControlServiceENS2_19CmifDomainProxyKindINS0_4hipc6client38Hipc2ClientSessionManagedProxyKindBaseINSB_18Hipc2ProxyKindBaseILNSA_6detail11MessageTypeE6EEEEEEENS0_30MemoryResourceAllocationPolicyES8_NS3_19ProcessModifierImplINS2_21DefaultProxyFilterTagEEEE30_nn_sf_sync_IsPlayTimerEnabledENS0_3OutIbvEE = 0x0000000000349710 + __sdk_start;
_ZNKSt3__110__time_put8__do_putEPcRS1_PK2tmcc = 0x00000000004c3300 + __sdk_start;
_ZNKSt3__112basic_stringIwNS_11char_traitsIwEENS_9allocatorIwEEE12find_last_ofEPKwmm = 0x00000000004e94d0 + __sdk_start;
_ZN2nn2ec28AsyncConsumeRightDataRequest7EndImplEPiPNS0_30ConsumableServiceItemRightDataEi = 0x0000000000148d40 + __sdk_start;
_ZN4nerd11Butterworth6Apply6EPKsPsmm = 0x000000000021b670 + __sdk_start;
NvRmSyncCalculateSizeForInplaceSyncpoints = 0x00000000003ded40 + __sdk_start;
fdopen = 0x0000000000518f60 + __sdk_start;
_ZN2nn6socket8resolver11GetNameInfoEPKNS0_8SockAddrEjPcmS5_mNS0_12NameInfoFlagEPKNS0_14ResolverOptionEm = 0x0000000000391110 + __sdk_start;
_ZN2nn2sf4hipc6client22QueryPointerBufferSizeEPtNS_3svc6HandleE = 0x0000000000371650 + __sdk_start;
_ZN2nn2ec19ShopServiceAccessor13AsyncResponse6DetachEv = 0x0000000000150910 + __sdk_start;
_ZN2nn2sf4cmif6client6detail13CmifProxyImplINS_3hid15IHidDebugServerENS0_4hipc6client18Hipc2ProxyKindBaseILNS7_6detail11MessageTypeE6EEENS0_30MemoryResourceAllocationPolicyES6_NS3_19ProcessModifierImplINS2_21DefaultProxyFilterTagEEEE30_nn_sf_sync_EnableWiredPairingEb = 0x000000000022e570 + __sdk_start;
nnmem_nlib_strchr_simd = 0x00000000002e1640 + __sdk_start;
_ZN2nn4time6detail18SharedMemoryClient40GetStandardNetworkSystemClockCurrentTimeEPNS0_9PosixTimeE = 0x00000000003a3720 + __sdk_start;
_ZNK2nn4util14AsyncExecution13IsInitializedEv = 0x00000000003b6940 + __sdk_start;
nvdcutilDsiPacketLongWrite = 0x00000000003ce9e0 + __sdk_start;
_ZTSN2nn2sf4cmif6client6detail9CmifProxyINS_2ec21IPurchaseEventManagerENS0_4hipc6client18Hipc2ProxyKindBaseILNS7_6detail11MessageTypeE6EEENS0_30MemoryResourceAllocationPolicyENS3_19ProcessModifierImplINS2_21DefaultProxyFilterTagEEEvEE = 0x0000000000a3a873 + __sdk_start;
nnosGetSystemTickOrdered = 0x000000000033def0 + __sdk_start;
hdcp_enable = 0x00000000003cf080 + __sdk_start;
_ZNSt3__113shared_futureIvED1Ev = 0x00000000004a4b30 + __sdk_start;
__mulosi4 = 0x0000000000512e98 + __sdk_start;
__negti2 = 0x0000000000513ce0 + __sdk_start;
_ZN2nn8irsensor6detail20RunPointingProcessorERKNS0_14IrCameraHandleE = 0x00000000002a5090 + __sdk_start;
_ZNK2nn8irsensor6detail13StatusManager17GetTeraPluginLifoERKNS0_14IrCameraHandleE = 0x00000000002a67d0 + __sdk_start;
_ZN2nn2os6detail17CallFiberFunctionEPFPNS0_9FiberTypeEPvES4_ = 0x00000000003423f4 + __sdk_start;
_ZTSN2nn2sf4cmif6client6detail13CmifProxyImplINS_7timesrv6detail7service14IStaticServiceENS2_19CmifDomainProxyKindINS0_4hipc6client38Hipc2ClientSessionManagedProxyKindBaseINSB_18Hipc2ProxyKindBaseILNSA_6detail11MessageTypeE6EEEEEEENS0_30MemoryResourceAllocationPolicyES8_NS3_19ProcessModifierImplINS2_21DefaultProxyFilterTagEEEEE = 0x0000000000ab69e0 + __sdk_start;
_ZN2nn5audio17GetReverbLateGainEPKNS0_10ReverbTypeE = 0x0000000000043030 + __sdk_start;
_ZN2nn2fs19SetSaveDataCommitIdENS0_15SaveDataSpaceIdEmRKl = 0x00000000001eedd0 + __sdk_start;
_ZN2nn2lm6detail24LogPacketTransmitterBase13PushDataChunkENS1_15LogDataChunkKeyEPKvm = 0x00000000002c6810 + __sdk_start;
_ZN2nn2oe22PopNotificationMessageEv = 0x0000000000336ac0 + __sdk_start;
_ZNSt3__18ios_base4InitD1Ev = 0x00000000004b16a0 + __sdk_start;
_ZN2nn9bluetooth11FinalizeHidEv = 0x000000000008b680 + __sdk_start;
_ZN2nn2sf4cmif6client6detail13CmifProxyImplINS_2lm11ILogServiceENS2_19CmifDomainProxyKindINS0_4hipc6client38Hipc2ClientSessionManagedProxyKindBaseINS9_18Hipc2ProxyKindBaseILNS8_6detail11MessageTypeE6EEEEEEENS0_30MemoryResourceAllocationPolicyES6_NS3_19ProcessModifierImplINS2_21DefaultProxyFilterTagEEEE17GetCmifBaseObjectEv = 0x00000000002c8260 + __sdk_start;
_ZN2nn2sf4cmif6client34CmifDomainProxyClientCoreProcessorINS0_4hipc6client38Hipc2ClientSessionManagedProxyKindBaseINS5_18Hipc2ProxyKindBaseILNS4_6detail11MessageTypeE6EEEEENS1_6detail14CoreMethodInfoINSt3__15tupleIJNSC_18OutRawArgumentInfoILm4ELm4ELl0EEENSG_ILm4ELm4ELl4EEENSC_17InRawArgumentInfoILm4ELm4ELl0EEENSC_18BufferArgumentInfoILi0ELi6ELm0EEENSJ_ILm4ELm4ELl4EEENSJ_ILm4ELm4ELl8EEENSJ_ILm16ELm8ELl16EEEEEELm32ELm8ELb0EEESQ_E7ProcessEPNS2_23CmifDomainClientMessageISB_E15ProxyBaseObjectENS2_24OutRawClientArgumentTypeILm4ELm4EEESY_NS2_23InRawClientArgumentTypeILm4ELm4EvEENS2_24BufferClientArgumentTypeES10_S10_NSZ_ILm16ELm8EvEEj = 0x000000000038dc40 + __sdk_start;
_ZNK2nn5audio6server15SplitterContext12GetDataCountEv = 0x0000000000069420 + __sdk_start;
_ZN2nn2oe29SaveGamePlayRecordingForDebugENS_8TimeSpanE = 0x0000000000337a30 + __sdk_start;
_ZTIN2nn2sf4cmif6client6detail9CmifProxyINS_3ssl2sf14ISslConnectionENS2_19CmifDomainProxyKindINS0_4hipc6client38Hipc2ClientSessionManagedProxyKindBaseINSA_18Hipc2ProxyKindBaseILNS9_6detail11MessageTypeE6EEEEEEENS0_24StatefulAllocationPolicyINS0_16ExpHeapAllocatorEEENS3_19ProcessModifierImplINS2_21DefaultProxyFilterTagEEEvEE = 0x0000000000c32370 + __sdk_start;
_ZN2nn2vi11OpenDisplayEPPNS0_7DisplayEPKc = 0x00000000003be820 + __sdk_start;
_ZN7android7BBinderD0Ev = 0x00000000004199f0 + __sdk_start;
_ZN2nn3hid6system6detail34SetTouchScreenDefaultConfigurationERKNS0_29TouchScreenConfigurationForNxE = 0x00000000002211e0 + __sdk_start;
_ZTIN2nn4nifm6detail15IGeneralServiceE = 0x0000000000c2c140 + __sdk_start;
nnosAttachSystemEvent = 0x000000000033daf0 + __sdk_start;
_ZNK2nn2sf4hipc6detail25HipcMessageBufferAccessor6GetTagEv = 0x00000000003728a0 + __sdk_start;
nnsocketGetNameInfo = 0x000000000037c620 + __sdk_start;
_ZN2nn5audio27GetFinalOutputRecorderStateEPKNS0_19FinalOutputRecorderE = 0x00000000000581f0 + __sdk_start;
_ZN2nn2sf4cmif6client6detail13CmifProxyImplINS_4bcat6detail3ipc25IDeliveryCacheFileServiceENS2_19CmifDomainProxyKindINS0_4hipc6client38Hipc2ClientSessionManagedProxyKindBaseINSB_18Hipc2ProxyKindBaseILNSA_6detail11MessageTypeE6EEEEEEENS0_30MemoryResourceAllocationPolicyES8_NS3_19ProcessModifierImplINS2_21DefaultProxyFilterTagEEEE12GetProxyInfoEv = 0x0000000000084f60 + __sdk_start;
strrchr = 0x0000000000555528 + __sdk_start;
_ZN2nn5image6detail4jpeg21jpeg_destroy_compressEPNS2_20jpeg_compress_structE = 0x0000000000249410 + __sdk_start;
_ZN2nn5prepo16SystemPlayReport3AddEPKcRKNS0_6StructE = 0x0000000000353470 + __sdk_start;
_ZN2nn2sf6detail38ObjectImplFactoryWithStatefulAllocatorINS0_4cmif6client6detail9CmifProxyINS_6grcsrv11IMovieMakerENS4_19CmifDomainProxyKindINS0_4hipc6client38Hipc2ClientSessionManagedProxyKindBaseINSB_18Hipc2ProxyKindBaseILNSA_6detail11MessageTypeE6EEEEEEENS0_30MemoryResourceAllocationPolicyENS5_19ProcessModifierImplINS4_21DefaultProxyFilterTagEEEvEESJ_E6Object7ReleaseEv = 0x0000000000032290 + __sdk_start;
_ZN2nn5audio23SetAuxLimiterParametersEPNS0_14AuxLimiterTypeEPKNS0_19LimiterParameterSetE = 0x000000000003eb30 + __sdk_start;
_ZTVN2nn2sf6detail38ObjectImplFactoryWithStatefulAllocatorINS0_13InterfaceInfoINS_5audio6detail14IAudioRendererEE4_tABINS7_5_tO2NINS4_6server24AudioRendererManagerImpl17AudioRendererImplEE4typeES6_E4typeENS0_24StatefulAllocationPolicyINS0_16ExpHeapAllocatorEEEE6ObjectE = 0x0000000000c191e8 + __sdk_start;
_ZN2nn2sf4cmif6client6detail13CmifProxyImplINS_7friends6detail3ipc14IFriendServiceENS2_19CmifDomainProxyKindINS0_4hipc6client38Hipc2ClientSessionManagedProxyKindBaseINSB_18Hipc2ProxyKindBaseILNSA_6detail11MessageTypeE6EEEEEEENS0_30MemoryResourceAllocationPolicyES8_NS3_19ProcessModifierImplINS2_21DefaultProxyFilterTagEEEE61_nn_sf_sync_SendFriendRequestWithExternalApplicationCatalogIdERKNS_7account3UidENSO_23NetworkServiceAccountIdEiRKNS5_28ExternalApplicationCatalogIdERKNS5_15InAppScreenNameESY_ = 0x00000000001a1a10 + __sdk_start;
_ZN2nn9hidconfig22SetDefaultButtonConfigERKNS_3hid6system11UniquePadIdE = 0x00000000002236f0 + __sdk_start;
_ZNSt12experimental19bad_optional_accessD0Ev = 0x00000000004e44f8 + __sdk_start;
_ZN2nn2fs3fsa8RegisterEPKcPNS1_18IMultiCommitTargetEONSt3__110unique_ptrINS1_11IFileSystemENS6_14default_deleteIS8_EEEEONS7_INS1_25ICommonMountNameGeneratorENS9_ISD_EEEEONS7_INS1_24ISaveDataAttributeGetterENS9_ISH_EEEEbb = 0x00000000001b9190 + __sdk_start;
_ZN2nn2os6detail26ThreadManagerImplByHorizon18ResumeThreadUnsafeEPNS0_10ThreadTypeE = 0x00000000003431c0 + __sdk_start;
_ZN2nn4util6detail7msgpack26WriteSignedIntegerAutoSizeEPNS0_17MessagePackWriter11StreamParamEl = 0x00000000003aefa0 + __sdk_start;
_ZN2nn7account25ShowUserCreatorForStarterEv = 0x0000000000000970 + __sdk_start;
_ZN2nn2os20TimedWaitSystemEventEPNS0_15SystemEventTypeENS_8TimeSpanE = 0x000000000033a120 + __sdk_start;
_ZN2nn5audio8SinkInfoC2Ev = 0x0000000000045a10 + __sdk_start;
_ZN7android21SurfaceComposerClient17getDisplayConfigsERKNS_2spINS_7IBinderEEEPNS_6VectorINS_11DisplayInfoEEE = 0x0000000000444b50 + __sdk_start;
_ZN2nn2sf4cmif6client6detail13CmifProxyImplINS_7account4baas22IManagerForApplicationENS2_19CmifDomainProxyKindINS0_4hipc6client38Hipc2ClientSessionManagedProxyKindBaseINSA_18Hipc2ProxyKindBaseILNS9_6detail11MessageTypeE6EEEEEEENS0_25StatelessAllocationPolicyINS0_22ExpHeapStaticAllocatorILm2048ENS5_6detail12ObjectHolder24ObjectHolderAllocatorTagEEEEES7_NS3_19ProcessModifierImplINS2_21DefaultProxyFilterTagEEEE48_nn_sf_sync_EnsureIdTokenCacheForOnlinePlayAsyncENS0_3OutINS0_13SharedPointerINS6_34IAsyncContextForLoginForOnlinePlayEEEvEE = 0x0000000000008a70 + __sdk_start;
nncryptoAes192CtrEncryptorSwitchMessage = 0x0000000000136660 + __sdk_start;
_ZTIN2nn3hid6detail24NpadSharedMemoryAccessorE = 0x0000000000c234b8 + __sdk_start;
_ZN2nn2sf4hipc6client24Hipc2ClientCoreProcessorILNS1_6detail11MessageTypeE6ENS0_4cmif6detail14CoreMethodInfoINSt3__15tupleIJNS7_18OutRawArgumentInfoILm6ELm1ELl0EEENS7_17InRawArgumentInfoILm8ELm8ELl0EEEEEELm8ELm6ELb0EEESF_E7ProcessEPNS2_26Hipc2ClientProxyBaseObjectENS6_6client24OutRawClientArgumentTypeILm6ELm1EEENSK_23InRawClientArgumentTypeILm8ELm8EvEEj = 0x000000000022d110 + __sdk_start;
nnmem_nlib_snprintf = 0x00000000002cc490 + __sdk_start;
_ZNK2nn3mii6detail15BufferAllocator13GetCurrentPtrEv = 0x00000000002f23f0 + __sdk_start;
_ZN2nn3nfp18GetApplicationAreaEPvPmRKNS0_12DeviceHandleEm = 0x0000000000310fa0 + __sdk_start;
_ZN2nn3nsd20GetNasServiceSettingEPNS0_17NasServiceSettingERKNS0_14NasServiceNameE = 0x00000000003327b0 + __sdk_start;
_ZN2nn2oe28SetFocusHandlingModeForDebugEbbbb = 0x0000000000336bf0 + __sdk_start;
__cxa_unexpected_handler = 0x0000000000c497e0 + __sdk_start;
_ZN2nn2sf4hipc6client34HipcSimpleClientSessionManagerBaseINS2_29DefaultSessionResourceManagerEE4Impl18InitializeByHandleINS_7account31IAccountServiceForSystemServiceENS0_25StatelessAllocationPolicyINS0_22ExpHeapStaticAllocatorILm2048ENS8_6detail12ObjectHolder24ObjectHolderAllocatorTagEEEEENS0_4cmif6client6detail19ProcessModifierImplINSI_21DefaultProxyFilterTagEEEEENS_6ResultEPNS0_13SharedPointerIT_EENS_3svc6HandleE = 0x000000000000a6e0 + __sdk_start;
_ZTIN2nn4bcat6detail3ipc12IBcatServiceE = 0x0000000000c1a200 + __sdk_start;
mbtowc = 0x000000000054cb28 + __sdk_start;
_ZN2nn5audio17GetFinalMixVolumeEPKNS0_12FinalMixTypeE = 0x0000000000043650 + __sdk_start;
_ZN2nn4bcat6detail3ipc33CreateDeliveryCacheStorageServiceEPPNS2_28IDeliveryCacheStorageServiceE = 0x0000000000082990 + __sdk_start;
_ZNKSt3__120__codecvt_utf8_utf16IDiE10do_unshiftER11__mbstate_tPcS4_RS4_ = 0x00000000004d7c80 + __sdk_start;
_ZNSt3__112basic_stringIcNS_11char_traitsIcEENS_9allocatorIcEEE7replaceEmmPKc = 0x00000000004e6c68 + __sdk_start;
perror = 0x0000000000550f78 + __sdk_start;
_ZN2nn7account13ProfileEditorC2Ev = 0x0000000000018ee0 + __sdk_start;
nnmem_nlib_utf16ncpy_ = 0x00000000002cfec0 + __sdk_start;
_ZN2nn7nlibsdk4heap13TlsHeapStatic11kSize2ClassE = 0x0000000000a93560 + __sdk_start;
_ZN2nn2sf4cmif6client6detail13CmifProxyImplINS_3ssl2sf14ISslConnectionENS2_19CmifDomainProxyKindINS0_4hipc6client38Hipc2ClientSessionManagedProxyKindBaseINSA_18Hipc2ProxyKindBaseILNS9_6detail11MessageTypeE6EEEEEEENS0_24StatefulAllocationPolicyINS0_16ExpHeapAllocatorEEES7_NS3_19ProcessModifierImplINS2_21DefaultProxyFilterTagEEEE29_nn_sf_sync_FlushSessionCacheEv = 0x00000000003988a0 + __sdk_start;
_ZN2nn4time6detail21GetSfClockSnapshotPtrEPNS0_13ClockSnapshotE = 0x00000000003a2a20 + __sdk_start;
_ZN2nn7account31NintendoAccountLinkageProcedureC1Ev = 0x0000000000018320 + __sdk_start;
_ZTIN2nn2fs22ISaveDataChunkExporterE = 0x0000000000c23108 + __sdk_start;
_ZTIN2nn2fs6detail21SaveDataChunkImporterE = 0x0000000000c23248 + __sdk_start;
_ZTIN2nn7account7profile14IProfileEditorE = 0x0000000000c0e3a8 + __sdk_start;
_ZNK2nn2sf4hipc6server18Hipc2ServerMessage18GetInNativeHandlesEPNS0_12NativeHandleE = 0x0000000000374a60 + __sdk_start;
_ZN2nn2sf4cmif6client6detail13CmifProxyImplINS_5visrv2sf22IManagerDisplayServiceENS0_4hipc6client18Hipc2ProxyKindBaseILNS8_6detail11MessageTypeE6EEENS0_30MemoryResourceAllocationPolicyES7_NS3_19ProcessModifierImplINS2_21DefaultProxyFilterTagEEEE30_nn_sf_sync_DestroySharedLayerENS_2vi7fbshare17SharedLayerHandleE = 0x00000000003bb9b0 + __sdk_start;
cosf = 0x0000000000543d90 + __sdk_start;
_ZNK2nn5audio3dsp20CommandListProcessor19GetTargetSampleRateEv = 0x000000000006ed50 + __sdk_start;
_ZNKSt3__120__vector_base_commonILb1EE20__throw_out_of_rangeEv = 0x00000000004f0258 + __sdk_start;
_ZN2nn2sf4cmif6client6detail36GetClientProcessorImplWithObjectBaseINS2_19CmifDomainProxyKindINS0_4hipc6client38Hipc2ClientSessionManagedProxyKindBaseINS7_18Hipc2ProxyKindBaseILNS6_6detail11MessageTypeE6EEEEEEENS3_19ProcessModifierImplINS2_21DefaultProxyFilterTagEEEE14ObjectAssignerINS0_30MemoryResourceAllocationPolicyENS_14MemoryResourceEE14AllocateObjectINS_2am7service17IApplicationProxyEEEvi = 0x000000000002f2c0 + __sdk_start;
_ZN2nn2sf4cmif6client6detail13CmifProxyImplINS_3apm14ISystemManagerENS0_4hipc6client18Hipc2ProxyKindBaseILNS7_6detail11MessageTypeE6EEENS0_30MemoryResourceAllocationPolicyES6_NS3_19ProcessModifierImplINS2_21DefaultProxyFilterTagEEEE32_nn_sf_sync_LoadAndApplySettingsEv = 0x0000000000038ee0 + __sdk_start;
_ZN2nn5audio6server24AudioRendererManagerImpl17AudioRendererImpl21SetRenderingTimeLimitEi = 0x000000000005bc00 + __sdk_start;
_ZN2nn4lmem36GetExpHeapAllocationDirectionOfBlockEPKv = 0x00000000002c8b60 + __sdk_start;
_ZNK2nn3mii8Database11IsAvailableEv = 0x0000000000302cc0 + __sdk_start;
_ZN2nn8settings6detail12ReadSettingsEPmPhmi = 0x0000000000358960 + __sdk_start;
cosh = 0x0000000000543f88 + __sdk_start;
silk_lsb_iCDF = 0x0000000000a5461d + __sdk_start;
_ZN2nn7friends6detail17ShimLibraryGlobal25CreateNotificationServiceEPPNS1_3ipc20INotificationServiceERKNS_7account3UidE = 0x000000000019fd30 + __sdk_start;
_ZNSt3__110__time_putC2ERKNS_12basic_stringIcNS_11char_traitsIcEENS_9allocatorIcEEEE = 0x00000000004de210 + __sdk_start;
_ZN2nn2sf4hipc6client24Hipc2ClientCoreProcessorILNS1_6detail11MessageTypeE6ENS0_4cmif6detail14CoreMethodInfoINSt3__15tupleIJNS7_17InRawArgumentInfoILm1ELm1ELl0EEENSB_ILm6ELm1ELl1EEENSB_ILm1ELm1ELl7EEEEEELm8ELm0ELb0EEESF_E7ProcessEPNS2_26Hipc2ClientProxyBaseObjectENS6_6client23InRawClientArgumentTypeILm1ELm1EvEENSL_ILm6ELm1EvEESM_j = 0x0000000000089490 + __sdk_start;
__nnmusl_GetPID = 0x000000000055c280 + __sdk_start;
_ZN2nn2sf4cmif6client6detail13CmifProxyImplINS_3ntc6detail7service38IEnsureNetworkClockAvailabilityServiceENS0_4hipc6client18Hipc2ProxyKindBaseILNS9_6detail11MessageTypeE6EEENS0_30MemoryResourceAllocationPolicyES8_NS3_19ProcessModifierImplINS2_21DefaultProxyFilterTagEEEE21_nn_sf_sync_GetResultEv = 0x00000000003a86e0 + __sdk_start;
nvdcFreeEventFds = 0x00000000003ccc00 + __sdk_start;
_ZN2nn5audio6server10PoolMapperC1EjPNS1_14MemoryPoolInfoEib = 0x00000000000670d0 + __sdk_start;
_ZN2nn2fs8EraseMmcENS0_12MmcPartitionE = 0x00000000001e10e0 + __sdk_start;
nnmem_nlib_realloc_ = 0x00000000002e1470 + __sdk_start;
NvRmStreamPushIncr = 0x00000000003e7a40 + __sdk_start;
cosl = 0x0000000000544128 + __sdk_start;
_ZTIN2nn2sf4cmif6client6detail13CmifProxyImplINS_2lm7ILoggerENS2_19CmifDomainProxyKindINS0_4hipc6client38Hipc2ClientSessionManagedProxyKindBaseINS9_18Hipc2ProxyKindBaseILNS8_6detail11MessageTypeE6EEEEEEENS0_30MemoryResourceAllocationPolicyES6_NS3_19ProcessModifierImplINS2_21DefaultProxyFilterTagEEEEE = 0x0000000000c29350 + __sdk_start;
_ZN2nn2os19GenerateRandomBytesEPvm = 0x000000000033b100 + __sdk_start;
_ZTVN2nn2sf6detail38ObjectImplFactoryWithStatefulAllocatorINS0_4cmif6client6detail9CmifProxyINS_5prepo6detail3ipc13IPrepoServiceENS4_19CmifDomainProxyKindINS0_4hipc6client38Hipc2ClientSessionManagedProxyKindBaseINSD_18Hipc2ProxyKindBaseILNSC_6detail11MessageTypeE6EEEEEEENS0_30MemoryResourceAllocationPolicyENS5_19ProcessModifierImplINS4_21DefaultProxyFilterTagEEEvEESL_E6ObjectE = 0x0000000000c2e598 + __sdk_start;
_ZNSt3__125notify_all_at_thread_exitERNS_18condition_variableENS_11unique_lockINS_5mutexEEE = 0x00000000004a1b08 + __sdk_start;
_ZNKSt3__114error_category23default_error_conditionEi = 0x00000000004ee710 + __sdk_start;
FsScratchSpace_release = 0x0000000000197300 + __sdk_start;
_ZN2nn2sf4cmif6client6detail13CmifProxyImplINS_3ntc6detail7service14IStaticServiceENS0_4hipc6client18Hipc2ProxyKindBaseILNS9_6detail11MessageTypeE6EEENS0_30MemoryResourceAllocationPolicyES8_NS3_19ProcessModifierImplINS2_21DefaultProxyFilterTagEEEE52_nn_sf_sync_GetEnsureNetworkClockAvailabilityServiceENS0_3OutINS0_13SharedPointerINS7_38IEnsureNetworkClockAvailabilityServiceEEEvEEiNS_4nifm8ClientIdE = 0x00000000003a8270 + __sdk_start;
_ZN2nn2fs18RomFsFileDataCacheD1Ev = 0x00000000001ff330 + __sdk_start;
_ZN2nn8settings6detail19SetHostFsMountPointERKNS0_6system16HostFsMountPointE = 0x0000000000366bb0 + __sdk_start;
_ZN2nn2sf4cmif6client6detail13CmifProxyImplINS_7timesrv6detail7service14IStaticServiceENS2_19CmifDomainProxyKindINS0_4hipc6client38Hipc2ClientSessionManagedProxyKindBaseINSB_18Hipc2ProxyKindBaseILNSA_6detail11MessageTypeE6EEEEEEENS0_30MemoryResourceAllocationPolicyES8_NS3_19ProcessModifierImplINS2_21DefaultProxyFilterTagEEEE64_nn_sf_sync_SetStandardUserSystemClockAutomaticCorrectionEnabledEb = 0x00000000003a4980 + __sdk_start;
__gnu_h2f_ieee = 0x0000000000511ad8 + __sdk_start;
_ZNK2nn5audio6server16CommandGenerator19GetQForMixAndVolumeEv = 0x000000000005e4d0 + __sdk_start;
_ZN2nn2fs27PathNormalizationFileSystemD2Ev = 0x00000000001e26f0 + __sdk_start;
uselocale = 0x0000000000518960 + __sdk_start;
_ZTVN2nn2sf6detail38ObjectImplFactoryWithStatefulAllocatorINS0_4cmif6client6detail9CmifProxyINS_2am7service31ISystemAppletControllerForDebugENS4_19CmifDomainProxyKindINS0_4hipc6client38Hipc2ClientSessionManagedProxyKindBaseINSC_18Hipc2ProxyKindBaseILNSB_6detail11MessageTypeE6EEEEEEENS0_30MemoryResourceAllocationPolicyENS5_19ProcessModifierImplINS4_21DefaultProxyFilterTagEEEvEESK_E6ObjectE = 0x0000000000c16640 + __sdk_start;
_ZN2nn3hid22RetrieveVibrationValueEPNS0_14VibrationValueEiPNS0_26VibrationFileParserContextE = 0x0000000000217e10 + __sdk_start;
nndetailImagePng_png_set_filter_heuristics_fixed = 0x0000000000290610 + __sdk_start;
_ZTSN2nn4nifm6detail15IGeneralServiceE = 0x0000000000aadabc + __sdk_start;
_ZN2nn5swkbd6detail18InlineKeyboardImpl20CalcChangedStringV2_ENS_6applet13StorageHandleEmb = 0x000000000039e1f0 + __sdk_start;
NvRmGpuDeviceChooseKind = 0x00000000004044c0 + __sdk_start;
_ZN7android7String85setToEPKc = 0x000000000044e9d0 + __sdk_start;
_ZNSt3__14stofERKNS_12basic_stringIcNS_11char_traitsIcEENS_9allocatorIcEEEEPm = 0x00000000004eace8 + __sdk_start;
_ZN2nn7friends6detail20AsyncContextInternalD2Ev = 0x000000000019f190 + __sdk_start;
_ZN2nn4lmem6detail20GetUnitHeapAlignmentEPNS1_8HeapHeadE = 0x00000000002ca980 + __sdk_start;
_ZN2nn3ngc15ProfanityFilterD0Ev = 0x0000000000311e70 + __sdk_start;
_ZTSN2nn2sf4cmif6client6detail13CmifProxyImplINS_3ngc1t6detail9INotifierENS0_4hipc6client18Hipc2ProxyKindBaseILNS9_6detail11MessageTypeE6EEENS0_30MemoryResourceAllocationPolicyES8_NS3_19ProcessModifierImplINS2_21DefaultProxyFilterTagEEEEE = 0x0000000000aacbbc + __sdk_start;
_ZN2nn2sf4cmif6client6detail13CmifProxyImplINS_5prepo6detail3ipc13IPrepoServiceENS2_19CmifDomainProxyKindINS0_4hipc6client38Hipc2ClientSessionManagedProxyKindBaseINSB_18Hipc2ProxyKindBaseILNSA_6detail11MessageTypeE6EEEEEEENS0_30MemoryResourceAllocationPolicyES8_NS3_19ProcessModifierImplINS2_21DefaultProxyFilterTagEEEE40_nn_sf_sync_RequestImmediateTransmissionEv = 0x00000000003543d0 + __sdk_start;
_ZN2nn6socket4SendEiPKvmi = 0x000000000037ba50 + __sdk_start;
_ZN2nn5codec5fLog2Eii = 0x0000000000101c60 + __sdk_start;
_ZN2nn2ec28ConsumableServiceItemManager19MarkServiceProvidedERKNS0_23ConsumableServiceItemIdE = 0x00000000001482f0 + __sdk_start;
_ZN2nn2sf4hipc6client24Hipc2ClientCoreProcessorILNS1_6detail11MessageTypeE6ENS0_4cmif6detail14CoreMethodInfoINSt3__15tupleIJNS7_17InRawArgumentInfoILm8ELm8ELl16EEENS7_18BufferArgumentInfoILi0ELi5ELm0EEENSD_ILi1ELi6ELm0EEENSD_ILi2ELi6ELm0EEENSB_ILm4ELm4ELl0EEENS7_18OutRawArgumentInfoILm4ELm4ELl0EEENSB_ILm4ELm4ELl4EEENSD_ILi3ELi33ELm0EEENSB_ILm4ELm4ELl8EEENSI_ILm4ELm4ELl4EEENSI_ILm4ELm4ELl8EEEEEELm24ELm12ELb1EEESP_E7ProcessEPNS2_26Hipc2ClientProxyBaseObjectENS6_6client23InRawClientArgumentTypeILm8ELm8EvEENSU_24BufferClientArgumentTypeESX_SX_NSV_ILm4ELm4EvEENSU_24OutRawClientArgumentTypeILm4ELm4EEESY_SX_SY_S10_S10_j = 0x0000000000392ec0 + __sdk_start;
_ZN2nn2sf4cmif6client6detail13CmifProxyImplINS_5visrv2sf22IManagerDisplayServiceENS0_4hipc6client18Hipc2ProxyKindBaseILNS8_6detail11MessageTypeE6EEENS0_30MemoryResourceAllocationPolicyES7_NS3_19ProcessModifierImplINS2_21DefaultProxyFilterTagEEEE51_nn_sf_sync_GetSharedLowLevelLayerSynchronizedEventENS0_3OutINS0_12NativeHandleEvEEm = 0x00000000003bba70 + __sdk_start;
_Z23hosGetSystemEventHandleijPN2nn2os15SystemEventTypeE = 0x00000000003ddb90 + __sdk_start;
NvUHashInsert = 0x00000000003d1e50 + __sdk_start;
nncodecLibopus_opus_encode = 0x00000000000d53d0 + __sdk_start;
_ZN2nn6socket6detail21RegisterForStatisticsEPKcm = 0x0000000000386bd0 + __sdk_start;
_ZN7android7BBinder17onGetNativeHandleEjRjRb = 0x0000000000419c70 + __sdk_start;
_ZNK2nn4bcat21DeliveryCacheProgress18GetWholeDownloadedEv = 0x0000000000081900 + __sdk_start;
_ZThn16_N2nn2sf4cmif6client6detail13CmifProxyImplINS_6capsrv2sf32IAlbumAccessorApplicationSessionENS0_4hipc6client18Hipc2ProxyKindBaseILNS8_6detail11MessageTypeE6EEENS0_30MemoryResourceAllocationPolicyES7_NS3_19ProcessModifierImplINS2_21DefaultProxyFilterTagEEEE17GetCmifBaseObjectEv = 0x0000000000098b80 + __sdk_start;
_ZN2nn2fs18CreateCacheStorageENS_3ncm13ApplicationIdENS0_15SaveDataSpaceIdEmtllj = 0x00000000001ec170 + __sdk_start;
_ZTVN2nn5codec22OpusMultiStreamDecoderE = 0x0000000000c1c740 + __sdk_start;
_ZN2nn3ngc1t21SetupForSystemServiceEv = 0x0000000000322810 + __sdk_start;
_ZN2nn6socket8resolver13GetHostByAddrEPKvjjPKNS0_14ResolverOptionEm = 0x0000000000390560 + __sdk_start;
_ZN2nn2sf4hipc6client24Hipc2ClientCoreProcessorILNS1_6detail11MessageTypeE6ENS0_4cmif6detail14CoreMethodInfoINSt3__15tupleIJNS7_18OutRawArgumentInfoILm4ELm4ELl0EEENS7_21OutHandleArgumentInfoILi0ELi1EEENS7_17InRawArgumentInfoILm4ELm4ELl0EEENSF_ILm4ELm4ELl4EEENSF_ILm8ELm8ELl16EEENS7_20InHandleArgumentInfoILi0ELi1EEENSF_ILm4ELm4ELl8EEEEEELm24ELm4ELb0EEESM_E7ProcessEPNS2_26Hipc2ClientProxyBaseObjectENS6_6client24OutRawClientArgumentTypeILm4ELm4EEENSR_27OutHandleClientArgumentTypeENSR_23InRawClientArgumentTypeILm4ELm4EvEESW_NSV_ILm8ELm8EvEENSR_26InHandleClientArgumentTypeESW_j = 0x000000000023f140 + __sdk_start;
ftello64 = 0x00000000005505f0 + __sdk_start;
pthread_barrierattr_destroy = 0x00000000005569d8 + __sdk_start;
_ZN2nn5audio6server22PerformanceManagerImplINS1_33PerformanceManagerImplVersion2TagENS0_6common30PerformanceFrameHeaderVersion2ENS4_24PerformanceEntryVersion2ENS4_25PerformanceDetailVersion2ENS0_20PerformanceSysDetailEE9CopyFrameEPS5_PKS5_bil = 0x00000000000650b0 + __sdk_start;
_ZN2nn2fs14SetPriorityRawEPNS_2os10ThreadTypeENS0_11PriorityRawE = 0x00000000001e2c00 + __sdk_start;
_ZN2nn4util10BitFlagSetILi256ENS_3hid11KeyboardKeyEE4FlagILi16EE4MaskE = 0x0000000000a71718 + __sdk_start;
_ZN2nn2vi29InitializeForIndirectProducerEv = 0x00000000003c1740 + __sdk_start;
_ZNK7android5Fence7flattenERPvRmRPiS3_ = 0x00000000004474a0 + __sdk_start;
_ZTSN2nn2sf6detail19InterfaceInfoBottomINS0_14IServiceObjectEE4_tABINS0_13InterfaceInfoINS_5audio6detail12IAudioDeviceEE5_tO2NINS7_6server24AudioRendererManagerImpl15AudioDeviceImplEE4typeES9_E4typeE = 0x0000000000a43ae3 + __sdk_start;
_ZN2nn4time23StandardUserSystemClock21GetSystemClockContextEPNS0_18SystemClockContextE = 0x00000000003a2500 + __sdk_start;
_ZN2nn2vi6detail18IndirectLayerTable8CapacityE = 0x0000000000abc6cc + __sdk_start;
_ZTINSt3__110__time_putE = 0x0000000000c47910 + __sdk_start;
_ZN2nn5audio6server16CommandGenerator21GenerateSubMixCommandERNS1_7MixInfoE = 0x000000000005ffa0 + __sdk_start;
_ZN2nn5codec4ifftEiPiS1_ = 0x0000000000100e50 + __sdk_start;
_ZN2nn8irsensor6detail13StatusManagerD2Ev = 0x00000000002a6160 + __sdk_start;
_ZNK2nn3mii6detail12StoreDataRaw11GetCoreDataEv = 0x00000000002f9e60 + __sdk_start;
_ZN2nn7account59ShowLicenseRequirementsForNetworkServiceForUnspecifiedUsersERKNS_3err9ErrorCodeE = 0x0000000000000e00 + __sdk_start;
_ZN2nn4lmem6detail12DumpHeapHeadEPKNS1_8HeapHeadE = 0x00000000002c9500 + __sdk_start;
_ZN2nn2os16ReleaseSemaphoreEPNS0_13SemaphoreTypeEi = 0x000000000033b9e0 + __sdk_start;
_ZNKSt3__119__shared_weak_count13__get_deleterERKSt9type_info = 0x00000000004e39b0 + __sdk_start;
fputwc = 0x00000000005500c8 + __sdk_start;
_ZN2nn6capsrv38PrecheckToCreateContentsForApplicationEhm = 0x0000000000097420 + __sdk_start;
_ZN2nn9bluetooth19RespondToPinRequestERKNS0_7AddressEbRKNS0_16BluetoothPinCodeEi = 0x000000000008b170 + __sdk_start;
_ZN2nn3err14SystemErrorArgC1ENS0_9ErrorCodeEPKcS4_RKNS_8settings12LanguageCodeE = 0x000000000015c7b0 + __sdk_start;
_ZN2nn2fs17FileHandleStorage12OperateRangeEPvmNS0_11OperationIdEllPKvm = 0x00000000001ad7b0 + __sdk_start;
NvWsiGetFormatInfo = 0x0000000000416180 + __sdk_start;
_ZN2nn3hid15VibrationTargetC2ERKNS0_21VibrationDeviceHandleE = 0x0000000000219850 + __sdk_start;
_ZNSt3__110__time_getC2ERKNS_12basic_stringIcNS_11char_traitsIcEENS_9allocatorIcEEEE = 0x00000000004d9a60 + __sdk_start;
setbuf = 0x00000000005513a0 + __sdk_start;
_ZTIN2nn2am7service15ISelfControllerE = 0x0000000000c13e90 + __sdk_start;
_ZN2nn8settings6detail36GetDeviceTimeZoneLocationUpdatedTimeEPNS_4time20SteadyClockTimePointE = 0x0000000000366170 + __sdk_start;
_ZTSN2nn2sf4cmif6server23CmifServerDomainManager6DomainE = 0x0000000000ab2aec + __sdk_start;
_ZN2nn2sf4hipc6client24Hipc2ClientCoreProcessorILNS1_6detail11MessageTypeE6ENS0_4cmif6detail14CoreMethodInfoINSt3__15tupleIJNS7_17InRawArgumentInfoILm24ELm8ELl0EEEEEELm24ELm0ELb0EEESD_E7ProcessEPNS2_26Hipc2ClientProxyBaseObjectENS6_6client23InRawClientArgumentTypeILm24ELm8EvEEj = 0x0000000000054ef0 + __sdk_start;
FDKfopen = 0x0000000000131ec0 + __sdk_start;
_ZN2nn2sf4cmif6client6detail13CmifProxyImplINS_4npns9INpnsUserENS0_4hipc6client18Hipc2ProxyKindBaseILNS7_6detail11MessageTypeE6EEENS0_30MemoryResourceAllocationPolicyES6_NS3_19ProcessModifierImplINS2_21DefaultProxyFilterTagEEEE29_nn_sf_sync_QueryIsTokenValidENS0_3OutIbvEERKNS5_17NotificationTokenE = 0x0000000000330060 + __sdk_start;
_ZTSPa = 0x0000000000ac9a43 + __sdk_start;
_ZN2nn2sf4cmif6client6detail13CmifProxyImplINS_2am7service20IApplicationAccessorENS2_19CmifDomainProxyKindINS0_4hipc6client38Hipc2ClientSessionManagedProxyKindBaseINSA_18Hipc2ProxyKindBaseILNS9_6detail11MessageTypeE6EEEEEEENS0_30MemoryResourceAllocationPolicyES7_NS3_19ProcessModifierImplINS2_21DefaultProxyFilterTagEEEE41_nn_sf_sync_GetApplicationControlPropertyERKNS0_9OutBufferE = 0x000000000002b210 + __sdk_start;
_ZN2nn2sf4cmif6client6detail13CmifProxyImplINS_8irsensor21IIrSensorSystemServerENS0_4hipc6client18Hipc2ProxyKindBaseILNS7_6detail11MessageTypeE6EEENS0_25StatelessAllocationPolicyINS0_22ExpHeapStaticAllocatorILm16384ENS5_6detail20IrSensorSystemServerEEEEES6_NS3_19ProcessModifierImplINS2_21DefaultProxyFilterTagEEEE42_nn_sf_sync_UnregisterAppletResourceUserIdENS_6applet20AppletResourceUserIdE = 0x00000000002acac0 + __sdk_start;
_ZN2nn2lm21CreateLogGetterByHipcEv = 0x00000000002c7130 + __sdk_start;
_ZN2nn3mii8Database3GetEPiPNS0_15CharInfoElementEii = 0x0000000000302e30 + __sdk_start;
_ZTSPb = 0x0000000000ac9a1f + __sdk_start;
nnfontllFsTellFile = 0x000000000019bb40 + __sdk_start;
_ZN2nn2fs4save11IFileSystem34DeleteDirectoryRecursivelyInternalERKNS1_4PathEb = 0x00000000001be710 + __sdk_start;
_ZN2nn3hid6system25GetUsbFirmwareUpdateStateEPNS1_19FirmwareUpdateStateEPiS4_ = 0x0000000000222db0 + __sdk_start;
_ZNK2nn8irsensor6detail8RingLifoINS0_28PointingProcessorMarkerStateELi6EE4ReadEPS3_ij = 0x00000000002a5270 + __sdk_start;
_ZTIN2nn2sf6detail16ObjectHolderImplINS0_13InterfaceInfoINS0_4hipc6detail12IHipcManagerEE5_tO2NINS4_6server34HipcServerSessionManagerWithDomain15HipcManagerImplEE4typeEvEE = 0x0000000000c313a8 + __sdk_start;
_ZTSPc = 0x0000000000ac9a31 + __sdk_start;
_ZN2nn6applet16PushToOutChannelENS0_23LibraryAppletSelfHandleENS0_13StorageHandleE = 0x000000000003b390 + __sdk_start;
FDKprintf = 0x0000000000131ac0 + __sdk_start;
_ZN2nn2sf4hipc6server6detail29HipcAllInOneServerManagerBase16ReceiveAsSessionEPNS_2os19MultiWaitHolderTypeE = 0x0000000000376d80 + __sdk_start;
_ZN2nn3web10WebSession8FinalizeEv = 0x00000000003ca250 + __sdk_start;
_ZNSt3__113basic_ostreamIcNS_11char_traitsIcEEE6sentryD1Ev = 0x00000000004ac758 + __sdk_start;
_ZTSPd = 0x0000000000ac9abb + __sdk_start;
_ZN2nn2sf4cmif6client6detail13CmifProxyImplINS_2am7service18IHomeMenuFunctionsENS2_19CmifDomainProxyKindINS0_4hipc6client38Hipc2ClientSessionManagedProxyKindBaseINSA_18Hipc2ProxyKindBaseILNS9_6detail11MessageTypeE6EEEEEEENS0_30MemoryResourceAllocationPolicyES7_NS3_19ProcessModifierImplINS2_21DefaultProxyFilterTagEEEE47_nn_sf_sync_PopRequestLaunchApplicationForDebugENS0_3OutINS_3ncm13ApplicationIdEvEENSN_IivEERKNS0_8OutArrayINS_7account3UidEEE = 0x000000000002a530 + __sdk_start;
_ZTIN2nn2am7service20IApplicationAccessorE = 0x0000000000c153a0 + __sdk_start;
nncodecLibopus_opus_custom_encoder_ctl = 0x00000000000a7590 + __sdk_start;
_ZN2nn5srepo6detail14ArrayGenerator8AddValueEPmPKcPhmm = 0x000000000034e4b0 + __sdk_start;
_ZNSt3__113basic_ostreamIwNS_11char_traitsIwEEE3putEw = 0x00000000004b0268 + __sdk_start;
_ZNSt14overflow_errorD2Ev = 0x00000000005063e8 + __sdk_start;
_ZTSPe = 0x0000000000ac9ac4 + __sdk_start;
_Z22__nnmusl_duplicate_fd2ss = 0x0000000000558708 + __sdk_start;
_ZN2nn7account28NetworkServiceAccountManagerD1Ev = 0x0000000000017730 + __sdk_start;
_ZN2nn5audio6server16UpsamplerManager8AllocateEv = 0x000000000004c5e0 + __sdk_start;
_ZN2nn5audio6server16BiquadFilterInfo6UpdateEPNS0_6common17BehaviorParameter9ErrorInfoEPKNS0_10EffectInfo11InParameterERNS1_10PoolMapperE = 0x0000000000066a90 + __sdk_start;
androidGetThreadId = 0x00000000004504c0 + __sdk_start;
_ZTSPf = 0x0000000000ac9ab2 + __sdk_start;
_ZTSN2nn2sf4cmif6client6detail9CmifProxyINS_5codec6detail20IHardwareOpusDecoderENS2_19CmifDomainProxyKindINS0_4hipc6client38Hipc2ClientSessionManagedProxyKindBaseINSA_18Hipc2ProxyKindBaseILNS9_6detail11MessageTypeE6EEEEEEENS0_30MemoryResourceAllocationPolicyENS3_19ProcessModifierImplINS2_21DefaultProxyFilterTagEEEvEE = 0x0000000000a5623b + __sdk_start;
_ZTSPg = 0x0000000000ac9acd + __sdk_start;
_ZN2nn2sf4cmif6client6detail13CmifProxyImplINS_7account7profile8IProfileENS2_19CmifDomainProxyKindINS0_4hipc6client38Hipc2ClientSessionManagedProxyKindBaseINSA_18Hipc2ProxyKindBaseILNS9_6detail11MessageTypeE6EEEEEEENS0_25StatelessAllocationPolicyINS0_22ExpHeapStaticAllocatorILm2048ENS5_6detail12ObjectHolder24ObjectHolderAllocatorTagEEEEENS6_14IProfileEditorENS3_19ProcessModifierImplINS2_21DefaultProxyFilterTagEEEE21_nn_sf_sync_LoadImageENS0_3OutIjvEERKNS0_9OutBufferE = 0x000000000000efb0 + __sdk_start;
_ZN2nn2ec28ShowShopConsumableItemDetailERKNS0_12ConsumableIdENS0_5NsUidERKNS_7account10UserHandleE = 0x000000000014f9a0 + __sdk_start;
_ZTSPh = 0x0000000000ac9a3a + __sdk_start;
j0f = 0x0000000000520d70 + __sdk_start;
nncryptoAes192CtrEncryptorIvSize = 0x0000000000a646f0 + __sdk_start;
nnmem_nlib_write_stdout = 0x00000000002e0800 + __sdk_start;
sleep = 0x0000000000557eb0 + __sdk_start;
_ZNKSt3__115__codecvt_utf16IwLb0EE16do_always_noconvEv = 0x00000000004d63d0 + __sdk_start;
isxdigit = 0x000000000053be60 + __sdk_start;
_ZTSPi = 0x0000000000ac9a5e + __sdk_start;
__nnmusl_init_locks = 0x000000000055c288 + __sdk_start;
_ZN2nn5audio32GetOscMessageNextArgumentAsFloatEPNS0_14OscMessageTypeE = 0x00000000000449a0 + __sdk_start;
_ZTSN2nn2sf6detail38ObjectImplFactoryWithStatefulAllocatorINS0_4cmif6client6detail9CmifProxyINS_3hid15IAppletResourceENS0_4hipc6client18Hipc2ProxyKindBaseILNS9_6detail11MessageTypeE6EEENS0_30MemoryResourceAllocationPolicyENS5_19ProcessModifierImplINS4_21DefaultProxyFilterTagEEEvEESF_E6ObjectE = 0x0000000000a82a3e + __sdk_start;
_ZN2nn5image6detail4jpeg19jinit_marker_writerEPNS2_20jpeg_compress_structE = 0x00000000002513b0 + __sdk_start;
_ZN2nn4util30ConvertStringUtf16NativeToUtf8EPciPKDs = 0x00000000003b36b0 + __sdk_start;
_ZTSPj = 0x0000000000ac9a67 + __sdk_start;
_ZTIN2nn7account4baas34IAsyncContextForLoginForOnlinePlayE = 0x0000000000c0d9d8 + __sdk_start;
_ZN2nn2sf4cmif6client6detail13CmifProxyImplINS_3hid16IHidSystemServerENS0_4hipc6client18Hipc2ProxyKindBaseILNS7_6detail11MessageTypeE6EEENS0_30MemoryResourceAllocationPolicyES6_NS3_19ProcessModifierImplINS2_21DefaultProxyFilterTagEEEE41_nn_sf_sync_GetPlayReportControllerUsagesENS0_3OutIlvEERKNS0_8OutArrayINS5_6system25PlayReportControllerUsageEEE = 0x00000000002318d0 + __sdk_start;
_ZN2nn5swkbd12ShowKeyboardEPNS0_6StringERKNS0_15ShowKeyboardArgENS0_7TriggerE = 0x000000000039b090 + __sdk_start;
_ZN2nn2sf4cmif6client6detail13CmifProxyImplINS_2am7service30IAllSystemAppletProxiesServiceENS2_19CmifDomainProxyKindINS0_4hipc6client38Hipc2ClientSessionManagedProxyKindBaseINSA_18Hipc2ProxyKindBaseILNS9_6detail11MessageTypeE6EEEEEEENS0_30MemoryResourceAllocationPolicyES7_NS3_19ProcessModifierImplINS2_21DefaultProxyFilterTagEEEE33_nn_sf_sync_OpenSystemAppletProxyENS0_3OutINS0_13SharedPointerINS6_18ISystemAppletProxyEEEvEEmONS0_12NativeHandleE = 0x0000000000021ea0 + __sdk_start;
delete_kern = 0x00000000001897e0 + __sdk_start;
_ZN2nn2fs24HierarchicalRomFileTable8FindOpenEPNS1_12FindPositionERKNS1_8EntryKeyE = 0x00000000001aae30 + __sdk_start;
_ZN2nn4lmem14CreateUnitHeapEPvmmiiNS0_13InfoPlacementE = 0x00000000002c9190 + __sdk_start;
_ZSt19uncaught_exceptionsv = 0x00000000004a3b88 + __sdk_start;
_ZTSPl = 0x0000000000ac9a70 + __sdk_start;
_ZTSPm = 0x0000000000ac9a79 + __sdk_start;
fputws = 0x0000000000550120 + __sdk_start;
_ZN2nn5audio3dsp13ConvertFormatEPfPKii = 0x0000000000070db0 + __sdk_start;
_ZN2nn2sf4hipc6client24Hipc2ClientCoreProcessorILNS1_6detail11MessageTypeE6ENS0_4cmif6detail14CoreMethodInfoINSt3__15tupleIJNS7_18BufferArgumentInfoILi0ELi6ELm0EEENS7_18OutRawArgumentInfoILm1ELm1ELl0EEENS7_17InRawArgumentInfoILm8ELm8ELl0EEEEEELm8ELm1ELb1EEESH_E7ProcessEPNS2_26Hipc2ClientProxyBaseObjectENS6_6client24BufferClientArgumentTypeENSM_24OutRawClientArgumentTypeILm1ELm1EEENSM_23InRawClientArgumentTypeILm8ELm8EvEEj = 0x0000000000093910 + __sdk_start;
_ZN2nn4htcs6detail25virtual_socket_collection4RecvEiPvmiRi = 0x0000000000248c90 + __sdk_start;
_ZN2nn6socket8RecvFromEiPvmNS0_7MsgFlagEPNS0_8SockAddrEPj = 0x000000000037ba20 + __sdk_start;
_ZNK7android7String816getPathExtensionEv = 0x00000000004500c0 + __sdk_start;
_ZTSPn = 0x0000000000ac9a94 + __sdk_start;
opterr = 0x0000000000c54f54 + __sdk_start;
_ZN2nn2sf4cmif6client6detail13CmifProxyImplINS_2am7service21IStackableAppletProxyENS2_19CmifDomainProxyKindINS0_4hipc6client38Hipc2ClientSessionManagedProxyKindBaseINSA_18Hipc2ProxyKindBaseILNS9_6detail11MessageTypeE6EEEEEEENS0_30MemoryResourceAllocationPolicyENS6_18ISystemAppletProxyENS3_19ProcessModifierImplINS2_21DefaultProxyFilterTagEEEE35_nn_sf_sync_GetLibraryAppletCreatorENS0_3OutINS0_13SharedPointerINS6_21ILibraryAppletCreatorEEEvEE = 0x0000000000022bd0 + __sdk_start;
_ZNK2nn3mii6detail11CoreDataRaw18GetFacelineWrinkleEv = 0x00000000002f6a80 + __sdk_start;
_ZN2nn8settings6system21IsBluetoothAfhEnabledEv = 0x0000000000359af0 + __sdk_start;
_ZTSPo = 0x0000000000ac9a9d + __sdk_start;
_ZN2nn3ssl10Connection9SetOptionENS1_10OptionTypeEb = 0x0000000000396340 + __sdk_start;
NvOsGetConfigU32 = 0x00000000003d1020 + __sdk_start;
_ZNSt3__18ios_base9__xindex_E = 0x0000000000d0e388 + __sdk_start;
_ZN2nn5codec24CBlock_ScaleSpectralDataEPNS0_22CAacDecoderChannelInfoEPNS0_16SamplingRateInfoE = 0x00000000000eff80 + __sdk_start;
_ZTCN7android23BnSurfaceComposerClientE0_NS_10IInterfaceE = 0x0000000000c419e8 + __sdk_start;
iswgraph = 0x000000000053baf8 + __sdk_start;
_ZN2nn3hid6system6detail26GetXcdHandleForNpadWithNfcEPNS_3xcd12DeviceHandleERj = 0x0000000000220110 + __sdk_start;
_ZNK2nn3hid15VibrationPlayer10IsPlayableEv = 0x0000000000219180 + __sdk_start;
_ZN2nn2sf4cmif6client6detail13CmifProxyImplINS_3hid15IHidDebugServerENS0_4hipc6client18Hipc2ProxyKindBaseILNS7_6detail11MessageTypeE6EEENS0_30MemoryResourceAllocationPolicyES6_NS3_19ProcessModifierImplINS2_21DefaultProxyFilterTagEEEE35_nn_sf_sync_GetUniquePadDriverStateENS0_3OutINS_8hidtypes11PadRawStateEvEENS5_6system11UniquePadIdE = 0x000000000022e080 + __sdk_start;
_ZNSt3__112basic_stringIcNS_11char_traitsIcEENS_9allocatorIcEEE6insertEmmc = 0x00000000004e6528 + __sdk_start;
_ZTSPs = 0x0000000000ac9a4c + __sdk_start;
_ZTSN2nn2sf4cmif6client6detail13CmifProxyImplINS_2am7service21IStackableAppletProxyENS2_19CmifDomainProxyKindINS0_4hipc6client38Hipc2ClientSessionManagedProxyKindBaseINSA_18Hipc2ProxyKindBaseILNS9_6detail11MessageTypeE6EEEEEEENS0_30MemoryResourceAllocationPolicyENS6_17IApplicationProxyENS3_19ProcessModifierImplINS2_21DefaultProxyFilterTagEEEEE = 0x0000000000a37768 + __sdk_start;
_ZN2nn3hid6system6detail18DeleteButtonConfigERKNS1_11UniquePadIdE = 0x000000000021de00 + __sdk_start;
_ZTIN2nn2sf4cmif6client6detail9CmifProxyINS_6hidbus19IHidbusSystemServerENS0_4hipc6client18Hipc2ProxyKindBaseILNS7_6detail11MessageTypeE6EEENS0_30MemoryResourceAllocationPolicyENS3_19ProcessModifierImplINS2_21DefaultProxyFilterTagEEEvEE = 0x0000000000c26590 + __sdk_start;
_ZN2nn3ntc6detail4shim40EnsureNetworkClockAvailabilityClientImplC1ENS_2os14EventClearModeENS0_34EnsureNetworkClockAvailabilityModeE = 0x00000000003a87f0 + __sdk_start;
_ZTSPt = 0x0000000000ac9a55 + __sdk_start;
_ZN2nn5audio24GetAuxLimiterInputOutputEPaS1_PiPKNS0_14AuxLimiterTypeEi = 0x000000000003e9f0 + __sdk_start;
read_comp_parms_ttf = 0x0000000000183b90 + __sdk_start;
_ZN2nn2sf4cmif6client6detail13CmifProxyImplINS_8irsensor21IIrSensorSystemServerENS0_4hipc6client18Hipc2ProxyKindBaseILNS7_6detail11MessageTypeE6EEENS0_25StatelessAllocationPolicyINS0_22ExpHeapStaticAllocatorILm16384ENS5_6detail20IrSensorSystemServerEEEEES6_NS3_19ProcessModifierImplINS2_21DefaultProxyFilterTagEEEE34_nn_sf_sync_EnableAppletToGetInputENS_6applet20AppletResourceUserIdEb = 0x00000000002acae0 + __sdk_start;
_ZN2nn3mii12GetSkinColorEiNS0_9GammaTypeE = 0x00000000002f1a20 + __sdk_start;
_ZNK2nn3mii21ParamCharInfoAccessor11GetNoseTypeEv = 0x00000000002f1d10 + __sdk_start;
nnosSignalConditionVariable = 0x000000000033da90 + __sdk_start;
_ZTSPv = 0x0000000000ac9a0a + __sdk_start;
_ZN2nn2sf4cmif6client6detail13CmifProxyImplINS_2am7service15IAppletAccessorENS2_19CmifDomainProxyKindINS0_4hipc6client38Hipc2ClientSessionManagedProxyKindBaseINSA_18Hipc2ProxyKindBaseILNS9_6detail11MessageTypeE6EEEEEEENS0_30MemoryResourceAllocationPolicyENS6_20IApplicationAccessorENS3_19ProcessModifierImplINS2_21DefaultProxyFilterTagEEEE17GetCmifBaseObjectEv = 0x000000000002b480 + __sdk_start;
_ZN2nn2sf4cmif6client34CmifDomainProxyClientCoreProcessorINS0_4hipc6client38Hipc2ClientSessionManagedProxyKindBaseINS5_18Hipc2ProxyKindBaseILNS4_6detail11MessageTypeE6EEEEENS1_6detail14CoreMethodInfoINSt3__15tupleIJNSC_18OutRawArgumentInfoILm8ELm8ELl0EEENSC_18BufferArgumentInfoILi0ELi6ELm0EEENSC_17InRawArgumentInfoILm8ELm8ELl0EEEEEELm8ELm8ELb0EEESM_E7ProcessEPNS2_23CmifDomainClientMessageISB_E15ProxyBaseObjectENS2_24OutRawClientArgumentTypeILm8ELm8EEENS2_24BufferClientArgumentTypeENS2_23InRawClientArgumentTypeILm8ELm8EvEEj = 0x0000000000084960 + __sdk_start;
_ZTSPw = 0x0000000000ac9a28 + __sdk_start;
_ZTSN2nn2sf6detail39ObjectImplFactoryWithStatelessAllocatorINS0_4cmif6client6detail9CmifProxyINS_7account31IAccountServiceForSystemServiceENS4_19CmifDomainProxyKindINS0_4hipc6client38Hipc2ClientSessionManagedProxyKindBaseINSB_18Hipc2ProxyKindBaseILNSA_6detail11MessageTypeE6EEEEEEENS0_25StatelessAllocationPolicyINS0_22ExpHeapStaticAllocatorILm2048ENS7_6detail12ObjectHolder24ObjectHolderAllocatorTagEEEEENS5_19ProcessModifierImplINS4_21DefaultProxyFilterTagEEEvEESP_E6ObjectE = 0x0000000000a29e39 + __sdk_start;
_ZN2nn4bcat22DeliveryCacheDirectory5CloseEv = 0x00000000000803e0 + __sdk_start;
_ZN2nn2sf4cmif6client34CmifDomainProxyClientCoreProcessorINS0_4hipc6client38Hipc2ClientSessionManagedProxyKindBaseINS5_18Hipc2ProxyKindBaseILNS4_6detail11MessageTypeE6EEEEENS1_6detail14CoreMethodInfoINSt3__15tupleIJNSC_17InRawArgumentInfoILm8ELm8ELl0EEENSG_ILm16ELm8ELl8EEEEEELm24ELm0ELb0EEESJ_E7ProcessEPNS2_23CmifDomainClientMessageISB_E15ProxyBaseObjectENS2_23InRawClientArgumentTypeILm8ELm8EvEENSQ_ILm16ELm8EvEEj = 0x00000000001d5020 + __sdk_start;
_ZN2nn4pctl16GetUnlinkedEventEv = 0x0000000000347380 + __sdk_start;
_ZN2nn8settings6system29IsForceMuteOnHeadphoneRemovedEv = 0x0000000000359450 + __sdk_start;
_ZTSPx = 0x0000000000ac9a82 + __sdk_start;
_ZN2nn5audio3dsp13ConvertFormatEPiPKfii = 0x0000000000071290 + __sdk_start;
_ZTSPy = 0x0000000000ac9a8b + __sdk_start;
__isoc99_sscanf = 0x0000000000551510 + __sdk_start;
_ZN2nn2sf4cmif6client6detail13CmifProxyImplINS_2am7service30IAllSystemAppletProxiesServiceENS2_19CmifDomainProxyKindINS0_4hipc6client38Hipc2ClientSessionManagedProxyKindBaseINSA_18Hipc2ProxyKindBaseILNS9_6detail11MessageTypeE6EEEEEEENS0_30MemoryResourceAllocationPolicyES7_NS3_19ProcessModifierImplINS2_21DefaultProxyFilterTagEEEE34_nn_sf_sync_OpenOverlayAppletProxyENS0_3OutINS0_13SharedPointerINS6_19IOverlayAppletProxyEEEvEEmONS0_12NativeHandleE = 0x00000000000220c0 + __sdk_start;
_ZN2nn4diag14IsSystemSymbolEm = 0x0000000000146110 + __sdk_start;
_ZTTNSt3__114basic_iostreamIcNS_11char_traitsIcEEEE = 0x0000000000c45ca8 + __sdk_start;
_ZTINSt3__17codecvtIDic11__mbstate_tEE = 0x0000000000c46740 + __sdk_start;
_ZN2nn7account23TrySelectUserImplicitlyEPNS0_3UidERKNS0_29ImplicitUserSelectionSettingsE = 0x0000000000000ee0 + __sdk_start;
_ZN2nn2sf4cmif6client34CmifDomainProxyClientCoreProcessorINS0_4hipc6client38Hipc2ClientSessionManagedProxyKindBaseINS5_18Hipc2ProxyKindBaseILNS4_6detail11MessageTypeE6EEEEENS1_6detail14CoreMethodInfoINSt3__15tupleIJNSC_18OutRawArgumentInfoILm4ELm4ELl0EEENSC_18BufferArgumentInfoILi0ELi6ELm0EEENSC_17InRawArgumentInfoILm8ELm8ELl8EEENSK_ILm4ELm4ELl0EEENSK_ILm4ELm4ELl4EEEEEELm16ELm4ELb0EEESO_E7ProcessEPNS2_23CmifDomainClientMessageISB_E15ProxyBaseObjectENS2_24OutRawClientArgumentTypeILm4ELm4EEENS2_24BufferClientArgumentTypeENS2_23InRawClientArgumentTypeILm8ELm8EvEENSY_ILm4ELm4EvEES10_j = 0x00000000001d5470 + __sdk_start;
_ZN2nn2sf4cmif6client6detail13CmifProxyImplINS_3hid10IHidServerENS0_4hipc6client18Hipc2ProxyKindBaseILNS7_6detail11MessageTypeE6EEENS0_30MemoryResourceAllocationPolicyES6_NS3_19ProcessModifierImplINS2_21DefaultProxyFilterTagEEEE40_nn_sf_sync_ResetAccelerometerParametersENS_6applet20AppletResourceUserIdENS5_19SixAxisSensorHandleE = 0x0000000000228cc0 + __sdk_start;
_ZN2nn2fs6detail33TryGetGlobalFileDataCacheAccessorEPNS1_48GlobalFileDataCacheAccessorReadableScopedPointerE = 0x00000000001f9780 + __sdk_start;
_ZTSN2nn3ngc6detail15NullInputStreamE = 0x0000000000aac32e + __sdk_start;
_ZN7android14StreamSplitter16onFrameAvailableERKNS_10BufferItemE = 0x000000000043f310 + __sdk_start;
_ZN2nn3hid6system6detail26EnableUsbFullKeyControllerEb = 0x0000000000222430 + __sdk_start;
_ZN2nn3jit12GenerateCodeEPNS0_9CodeRangeES2_NS0_9JitHandleEmPKvmRKS1_S7_S5_mPvm = 0x00000000002c02e0 + __sdk_start;
NvRmMemGetSize = 0x00000000003e1430 + __sdk_start;
_ZNSt3__113basic_istreamIcNS_11char_traitsIcEEE7getlineEPclc = 0x00000000004a8b10 + __sdk_start;
_ZN2nn7account12AsyncContext6CancelEv = 0x0000000000013750 + __sdk_start;
_ZN2nn2fs8CheckUidERKNS_7account3UidE = 0x0000000000202e10 + __sdk_start;
_ZN2nn2os6detail18FiberImplByHorizon13MapAliasStackEPKvS4_m = 0x0000000000342340 + __sdk_start;
_ZN7android10VectorImpl8insertAtEmm = 0x0000000000451e10 + __sdk_start;
_ZN2nn5audio6server24AudioRendererManagerImpl17AudioRendererImplD2Ev = 0x000000000005c950 + __sdk_start;
_ZN2nn2sf4cmif6client6detail13CmifProxyImplINS_6hidbus19IHidbusSystemServerENS0_4hipc6client18Hipc2ProxyKindBaseILNS7_6detail11MessageTypeE6EEENS0_30MemoryResourceAllocationPolicyES6_NS3_19ProcessModifierImplINS2_21DefaultProxyFilterTagEEEE40_nn_sf_sync_RegisterAppletResourceUserIdENS_6applet20AppletResourceUserIdEi = 0x0000000000234470 + __sdk_start;
nndetailImagePng_png_build_gamma_table = 0x0000000000278400 + __sdk_start;
_ZNSt3__115basic_streambufIcNS_11char_traitsIcEEE10pubseekoffExNS_8ios_base7seekdirEj = 0x00000000004a6048 + __sdk_start;
_ZN2nn2sf4cmif6client34CmifDomainProxyClientCoreProcessorINS0_4hipc6client38Hipc2ClientSessionManagedProxyKindBaseINS5_18Hipc2ProxyKindBaseILNS4_6detail11MessageTypeE6EEEEENS1_6detail14CoreMethodInfoINSt3__15tupleIJNSC_17InRawArgumentInfoILm8ELm8ELl0EEEEEELm8ELm0ELb1EEESI_E7ProcessEPNS2_23CmifDomainClientMessageISB_E15ProxyBaseObjectENS2_23InRawClientArgumentTypeILm8ELm8EvEEj = 0x00000000000085c0 + __sdk_start;
_ZN2nn2sf4cmif6client6detail36GetClientProcessorImplWithObjectBaseINS2_19CmifDomainProxyKindINS0_4hipc6client38Hipc2ClientSessionManagedProxyKindBaseINS7_18Hipc2ProxyKindBaseILNS6_6detail11MessageTypeE6EEEEEEENS3_19ProcessModifierImplINS2_21DefaultProxyFilterTagEEEE14ObjectAssignerINS0_30MemoryResourceAllocationPolicyENS_14MemoryResourceEE14AllocateObjectINS_2am7service15IDebugFunctionsEEEvi = 0x0000000000027fd0 + __sdk_start;
_ZTSN2nn2os6detail27MultiWaitHolderOfTimerEventE = 0x0000000000aafbcb + __sdk_start;
_ZNK2nn5audio6server10PoolMapper3MapEjNS0_7CpuAddrEm = 0x0000000000067120 + __sdk_start;
_ZN2nn3hid6system6detail24InitializeFirmwareUpdateEv = 0x000000000021e3e0 + __sdk_start;
_ZN7android12ConsumerBase7setNameERKNS_7String8E = 0x0000000000435270 + __sdk_start;
_ZNKSt3__120__codecvt_utf8_utf16IDiE5do_inER11__mbstate_tPKcS5_RS5_PDiS7_RS7_ = 0x00000000004d7c18 + __sdk_start;
_ZTSNSt3__17codecvtIDic11__mbstate_tEE = 0x0000000000ac755d + __sdk_start;
nnmem_nlib_dprintf = 0x00000000002cc6f0 + __sdk_start;
nnmem_nlib_threadpool_apply = 0x00000000002e3d10 + __sdk_start;
_ZN2nn2sf6detail38ObjectImplFactoryWithStatefulAllocatorINS0_4cmif6client6detail9CmifProxyINS_12notification6server35INotificationServicesForApplicationENS4_19CmifDomainProxyKindINS0_4hipc6client38Hipc2ClientSessionManagedProxyKindBaseINSC_18Hipc2ProxyKindBaseILNSB_6detail11MessageTypeE6EEEEEEENS0_30MemoryResourceAllocationPolicyENS5_19ProcessModifierImplINS4_21DefaultProxyFilterTagEEEvEESK_E6Object12AddReferenceEv = 0x000000000032dc00 + __sdk_start;
_ZN2nn8settings6system28SetHeadphoneVolumeUpdateFlagEb = 0x00000000003595e0 + __sdk_start;
_ZTVN7android23BnSurfaceComposerClientE = 0x0000000000c41490 + __sdk_start;
_ZN7android16ISurfaceComposerD0Ev = 0x00000000004394e0 + __sdk_start;
__umoddi3 = 0x00000000005149e0 + __sdk_start;
_ZN2nn2fs27RegisterProgramIndexMapInfoEPKNS0_19ProgramIndexMapInfoEi = 0x00000000001e3030 + __sdk_start;
_ZN2nn3ldn13CreateNetworkERKNS0_13NetworkConfigERKNS0_14SecurityConfigERKNS0_10UserConfigE = 0x00000000002c2d20 + __sdk_start;
_ZTSNSt3__18__c_nodeE = 0x0000000000ac6a64 + __sdk_start;
cproj = 0x0000000000533038 + __sdk_start;
_ZN2nn2sf4hipc6client24Hipc2ClientCoreProcessorILNS1_6detail11MessageTypeE6ENS0_4cmif6detail14CoreMethodInfoINSt3__15tupleIJNS7_17InRawArgumentInfoILm6ELm1ELl0EEENSB_ILm12ELm2ELl8EEENSB_ILm1ELm1ELl6EEEEEELm20ELm0ELb0EEESF_E7ProcessEPNS2_26Hipc2ClientProxyBaseObjectENS6_6client23InRawClientArgumentTypeILm6ELm1EvEENSL_ILm12ELm2EvEENSL_ILm1ELm1EvEEj = 0x0000000000088ad0 + __sdk_start;
_ZNK2nn5image11ExifBuilder21GetAnalyzedOutputSizeEv = 0x0000000000272c60 + __sdk_start;
_ZN2nn2oe15RequestToRebootEv = 0x0000000000337650 + __sdk_start;
_ZN2nn2sf4hipc6server2v16detail29HipcAllInOneServerManagerBase8LoopAutoEv = 0x0000000000373950 + __sdk_start;
_ZN2nn5audio6common10NodeStates5StackC1Ev = 0x0000000000048e80 + __sdk_start;
nncodecLibopus_silk_control_SNR = 0x00000000000ba440 + __sdk_start;
_ZTIN2nn2sf4cmif6client6detail9CmifProxyINS_3nim6detail33IShopServiceAccessSystemInterfaceENS0_4hipc6client18Hipc2ProxyKindBaseILNS8_6detail11MessageTypeE6EEENS0_30MemoryResourceAllocationPolicyENS3_19ProcessModifierImplINS2_21DefaultProxyFilterTagEEEvEE = 0x0000000000c1e130 + __sdk_start;
_ZN2nn2fs17RamDiskFileSystem19DoGetTotalSpaceSizeEPlPKc = 0x00000000001e5b50 + __sdk_start;
_ZNSt3__113basic_istreamIcNS_11char_traitsIcEEE4peekEv = 0x00000000004a8f38 + __sdk_start;
_ZNSt3__115basic_streambufIwNS_11char_traitsIwEEE9underflowEv = 0x00000000004a6be8 + __sdk_start;
_ZN2nn2sf4cmif6client6detail13CmifProxyImplINS_7account4http15IOAuthProcedureENS2_19CmifDomainProxyKindINS0_4hipc6client38Hipc2ClientSessionManagedProxyKindBaseINSA_18Hipc2ProxyKindBaseILNS9_6detail11MessageTypeE6EEEEEEENS0_25StatelessAllocationPolicyINS0_22ExpHeapStaticAllocatorILm2048ENS5_6detail12ObjectHolder24ObjectHolderAllocatorTagEEEEENS5_3nas29IOAuthProcedureForExternalNsaENS3_19ProcessModifierImplINS2_21DefaultProxyFilterTagEEEE24_nn_sf_sync_PrepareAsyncENS0_3OutINS0_13SharedPointerINSK_13IAsyncContextEEEvEE = 0x0000000000012f40 + __sdk_start;
_ZN2nn7nlibsdk4heap11CentralHeap7ReallocEPvmPS3_ = 0x00000000002ecd20 + __sdk_start;
_ZNK2nn5audio6server12BehaviorInfo51IsAudioRenererProcessingTimeLimit75PercentSupportedEv = 0x0000000000065e10 + __sdk_start;
_ZN2nn5audio6server6detail26SetAudioDeviceOutputVolumeEPKNS0_15AudioDeviceNameEfRKNS_6applet20AppletResourceUserIdEj = 0x000000000006cc20 + __sdk_start;
_ZN2nn5codec11OpusEncoder14BindCodingModeENS0_14OpusCodingModeE = 0x00000000000df0a0 + __sdk_start;
_ZTSN2nn2sf6detail38ObjectImplFactoryWithStatefulAllocatorINS0_4cmif6client6detail9CmifProxyINS_3ssl2sf11ISslServiceENS4_19CmifDomainProxyKindINS0_4hipc6client38Hipc2ClientSessionManagedProxyKindBaseINSC_18Hipc2ProxyKindBaseILNSB_6detail11MessageTypeE6EEEEEEENS0_24StatefulAllocationPolicyINS0_16ExpHeapAllocatorEEENS5_19ProcessModifierImplINS4_21DefaultProxyFilterTagEEEvEESM_E6ObjectE = 0x0000000000ab59dc + __sdk_start;
j1f = 0x0000000000521a78 + __sdk_start;
FSS_free_char = 0x0000000000163bc0 + __sdk_start;
_ZN2nn6hidbus6detail20ClientResourceHolder6DetachEv = 0x0000000000238f70 + __sdk_start;
_ZN2nn8irsensor20InitializeForLibraryERKNS0_14IrCameraHandleE = 0x00000000002a9d10 + __sdk_start;
_ZN2nn3ngc6detail17MemoryInputStreamD1Ev = 0x000000000031ce70 + __sdk_start;
strncasecmp_l = 0x0000000000555390 + __sdk_start;
_ZN2nn2sf4hipc6client24Hipc2ClientCoreProcessorILNS1_6detail11MessageTypeE6ENS0_4cmif6detail14CoreMethodInfoINSt3__15tupleIJNS7_17InRawArgumentInfoILm8ELm8ELl0EEENS7_18BufferArgumentInfoILi0ELi5ELm0EEEEEELm8ELm0ELb1EEESF_E7ProcessEPNS2_26Hipc2ClientProxyBaseObjectENS6_6client23InRawClientArgumentTypeILm8ELm8EvEENSK_24BufferClientArgumentTypeEj = 0x00000000000369e0 + __sdk_start;
FDK_Copy = 0x00000000000f9a60 + __sdk_start;
_ZN2nn2sf4cmif6client34CmifDomainProxyClientCoreProcessorINS0_4hipc6client38Hipc2ClientSessionManagedProxyKindBaseINS5_18Hipc2ProxyKindBaseILNS4_6detail11MessageTypeE6EEEEENS1_6detail14CoreMethodInfoINSt3__15tupleIJNSC_17InRawArgumentInfoILm8ELm8ELl8EEENSC_18BufferArgumentInfoILi0ELi69ELm0EEENSG_ILm8ELm8ELl16EEENSG_ILm4ELm4ELl0EEEEEELm24ELm0ELb0EEESM_E7ProcessEPNS2_23CmifDomainClientMessageISB_E15ProxyBaseObjectENS2_23InRawClientArgumentTypeILm8ELm8EvEENS2_24BufferClientArgumentTypeESU_NST_ILm4ELm4EvEEj = 0x00000000001cdcc0 + __sdk_start;
_ZN2nn2sf13SharedPointerINS_3hid26IActiveVibrationDeviceListEED2Ev = 0x0000000000211830 + __sdk_start;
_ZN2nn5srepo6detail16IsSameStructTypeEPKhmmS3_mm = 0x00000000003500f0 + __sdk_start;
_ZN2nn8settings6detail18GetAccountSettingsEPNS0_6system15AccountSettingsE = 0x000000000035ed60 + __sdk_start;
_ZN7android14SurfaceControlD2Ev = 0x0000000000441fc0 + __sdk_start;
_ZNK2nn7account41CachedNintendoAccountInfoForSystemService27GetAnalyticsPermissionStateEv = 0x0000000000014b90 + __sdk_start;
_ZN2nn2fs17MountCacheStorageEPKci = 0x00000000001e92f0 + __sdk_start;
_ZN2nn2fs24GetSaveDataAvailableSizeEPlNS0_15SaveDataSpaceIdEm = 0x00000000001ee530 + __sdk_start;
_ZN2nn2fs23CleanUpTemporaryStorageEv = 0x00000000002001e0 + __sdk_start;
_ZN2nn2sf4cmif6client6detail13CmifProxyImplINS_3hid16IHidSystemServerENS0_4hipc6client18Hipc2ProxyKindBaseILNS7_6detail11MessageTypeE6EEENS0_30MemoryResourceAllocationPolicyES6_NS3_19ProcessModifierImplINS2_21DefaultProxyFilterTagEEEE45_nn_sf_sync_ResetAnalogStickManualCalibrationENS5_6system11UniquePadIdEl = 0x0000000000231d30 + __sdk_start;
nnutilZlib_deflateInit_ = 0x00000000002992d0 + __sdk_start;
_ZN2nn5codec20CJointStereo_ApplyMSEPPNS0_22CAacDecoderChannelInfoEPKsPKhiii = 0x00000000000f8dc0 + __sdk_start;
__nnmusl_stderr_lock_init = 0x000000000051a420 + __sdk_start;
_ZN2nn5audio29InitializeAudioRendererConfigEPNS0_19AudioRendererConfigERKNS0_22AudioRendererParameterEPvm = 0x000000000003d2b0 + __sdk_start;
_ZN2nn3hid20GetTouchScreenStatesILm5EEEiPNS0_16TouchScreenStateIXT_EEEi = 0x0000000000217010 + __sdk_start;
_ZN2nn4lmem6detail12InitHeapHeadEPNS1_8HeapHeadEjPvS4_i = 0x00000000002c94e0 + __sdk_start;
_ZN2nn2sf4cmif6client6detail13CmifProxyImplINS_4nifm6detail8IRequestENS2_19CmifDomainProxyKindINS0_4hipc6client38Hipc2ClientSessionManagedProxyKindBaseINSA_18Hipc2ProxyKindBaseILNS9_6detail11MessageTypeE6EEEEEEENS0_30MemoryResourceAllocationPolicyES7_NS3_19ProcessModifierImplINS2_21DefaultProxyFilterTagEEEE31_nn_sf_sync_SetNetworkProfileIdERKNS_4util4UuidE = 0x0000000000326de0 + __sdk_start;
_Z20hosSetupSystemEventsP10EventAsyncPP13NvOsThreadRecPKci = 0x00000000003dd9d0 + __sdk_start;
_ZN7android7RefBase13onLastWeakRefEPKv = 0x000000000044cd00 + __sdk_start;
_ZN2nn4bcat6detail17ShimLibraryGlobal25MountDeliveryCacheStorageENS_13ApplicationIdE = 0x0000000000081ff0 + __sdk_start;
_ZN2nn5image6detail4jpeg17jinit_inverse_dctEPNS2_22jpeg_decompress_structE = 0x000000000025aae0 + __sdk_start;
_ZN2nn2ec6detail12GeneratePathERNS1_15ShowShopPageArgEPKcNS0_8SourceIdES5_S5_S5_z = 0x0000000000157170 + __sdk_start;
_ZN2nn4util10BitFlagSetILi256ENS_3hid11KeyboardKeyEE4FlagILi31EE4MaskE = 0x0000000000a718f8 + __sdk_start;
nnmem_nlib_memrchr_simd = 0x00000000002e1c80 + __sdk_start;
__wcscoll_l = 0x000000000053f750 + __sdk_start;
_ZN2nn7account28DeleteSaveDataThumbnailImageERKNS0_3UidERKNS_13ApplicationIdE = 0x0000000000004080 + __sdk_start;
_ZN2nn8settings5fwdbg19SetWebInspectorFlagEb = 0x000000000035e630 + __sdk_start;
_ZN2nn3web14ShowWebPageArg4DataEv = 0x00000000003c97b0 + __sdk_start;
_ZN2nn2sf4cmif6client34CmifDomainProxyClientCoreProcessorINS0_4hipc6client38Hipc2ClientSessionManagedProxyKindBaseINS5_18Hipc2ProxyKindBaseILNS4_6detail11MessageTypeE6EEEEENS1_6detail14CoreMethodInfoINSt3__15tupleIJNSC_18OutRawArgumentInfoILm8ELm8ELl0EEENSC_17InRawArgumentInfoILm8ELm8ELl0EEENSC_18BufferArgumentInfoILi0ELi6ELm0EEEEEELm8ELm8ELb0EEESM_E7ProcessEPNS2_23CmifDomainClientMessageISB_E15ProxyBaseObjectENS2_24OutRawClientArgumentTypeILm8ELm8EEENS2_23InRawClientArgumentTypeILm8ELm8EvEENS2_24BufferClientArgumentTypeEj = 0x0000000000085190 + __sdk_start;
_ZN2nn3mii6detail18GetMouthGreenColorENS0_11CommonColorENS0_9GammaTypeE = 0x00000000002f3640 + __sdk_start;
_ZN2nn5audio16IsDelayRemovableEPKNS0_9DelayTypeE = 0x0000000000040b00 + __sdk_start;
_ZNK2nn3mii13AppletManager11GetUsedUuidEv = 0x00000000003078a0 + __sdk_start;
_ZN2nn2sf6detail39ObjectImplFactoryWithStatelessAllocatorINS0_4cmif6client6detail9CmifProxyINS_7account4baas24IManagerForSystemServiceENS4_19CmifDomainProxyKindINS0_4hipc6client38Hipc2ClientSessionManagedProxyKindBaseINSC_18Hipc2ProxyKindBaseILNSB_6detail11MessageTypeE6EEEEEEENS0_25StatelessAllocationPolicyINS0_22ExpHeapStaticAllocatorILm2048ENS7_6detail12ObjectHolder24ObjectHolderAllocatorTagEEEEENS5_19ProcessModifierImplINS4_21DefaultProxyFilterTagEEEvEESQ_E6Object12AddReferenceEv = 0x000000000000b440 + __sdk_start;
_ZN2nn2ec28ConsumableServiceItemManagerC2Ev = 0x00000000001476a0 + __sdk_start;
_ZNK2nn2ec23ConsumableServiceItemId7IsValidEv = 0x000000000014e390 + __sdk_start;
nnmem_nlib_utf32cpy_ = 0x00000000002d0030 + __sdk_start;
_ZN2nn2sf4cmif6client6detail13CmifProxyImplINS_3ssl2sf14ISslConnectionENS2_19CmifDomainProxyKindINS0_4hipc6client38Hipc2ClientSessionManagedProxyKindBaseINSA_18Hipc2ProxyKindBaseILNS9_6detail11MessageTypeE6EEEEEEENS0_24StatefulAllocationPolicyINS0_16ExpHeapAllocatorEEES7_NS3_19ProcessModifierImplINS2_21DefaultProxyFilterTagEEEE16_nn_sf_sync_PeekENS0_3OutIjvEERKNS0_9OutBufferE = 0x00000000003987b0 + __sdk_start;
_ZN2nn2sf4cmif6client6detail13CmifProxyImplINS_5visrv2sf22IManagerDisplayServiceENS0_4hipc6client18Hipc2ProxyKindBaseILNS8_6detail11MessageTypeE6EEENS0_30MemoryResourceAllocationPolicyES7_NS3_19ProcessModifierImplINS2_21DefaultProxyFilterTagEEEE48_nn_sf_sync_ExpandStartupLogoOnSharedFrameBufferENS_2vi7fbshare18SharedBufferHandleElRKNSK_19SharedTextureOptionE = 0x00000000003bbd00 + __sdk_start;
_ZN2nn3web14ShowWebPageArg23SetMediaAutoPlayEnabledEb = 0x00000000003c9600 + __sdk_start;
NvRmGpuDeviceReadTimeNs = 0x0000000000404410 + __sdk_start;
_ZNSt3__17collateIcED0Ev = 0x00000000004b1cf0 + __sdk_start;
_ZN2nn8settings6detail42GetConsoleSixAxisSensorAngularAccelerationEPNS0_6system39ConsoleSixAxisSensorAngularAccelerationE = 0x0000000000364fe0 + __sdk_start;
__fbufsize = 0x000000000054f488 + __sdk_start;
_ZN2nn4util17MessagePackWriter19WriteBinary16HeaderEt = 0x00000000003ac310 + __sdk_start;
nncryptoAes256GcmEncryptorBlockSize = 0x0000000000a64788 + __sdk_start;
_ZNSt3__112ctype_bynameIwED1Ev = 0x00000000004dcf98 + __sdk_start;
_ZNSt3__115__libcpp_tl_setEN2nn2os7TlsSlotEPv = 0x00000000004efe40 + __sdk_start;
_ZN2nn5audio19SetVoiceDestinationEPNS0_19AudioRendererConfigEPNS0_9VoiceTypeEPNS0_12FinalMixTypeE = 0x00000000000476c0 + __sdk_start;
_ZN2nn3hid6system14IsUsbConnectedENS1_11UniquePadIdE = 0x00000000002258d0 + __sdk_start;
_ZN2nn5swkbd14InlineKeyboard6LaunchEv = 0x000000000039c240 + __sdk_start;
nvcecInitAsyncEvents = 0x00000000003cb9b0 + __sdk_start;
_ZN2nn3hid6system15GetButtonConfigEPNS1_20ButtonConfigEmbeddedERKNS1_11UniquePadIdE = 0x00000000002229a0 + __sdk_start;
_ZN2nn2sf4cmif6client6detail13CmifProxyImplINS_3hid16IHidSystemServerENS0_4hipc6client18Hipc2ProxyKindBaseILNS7_6detail11MessageTypeE6EEENS0_30MemoryResourceAllocationPolicyES6_NS3_19ProcessModifierImplINS2_21DefaultProxyFilterTagEEEE46_nn_sf_sync_IsButtonConfigStorageEmbeddedEmptyENS0_3OutIbvEEi = 0x00000000002326f0 + __sdk_start;
_ZN2nn2sf6detail38ObjectImplFactoryWithStatefulAllocatorINS0_4cmif6client6detail9CmifProxyINS_3ngc1t6detail9INotifierENS0_4hipc6client18Hipc2ProxyKindBaseILNSB_6detail11MessageTypeE6EEENS0_30MemoryResourceAllocationPolicyENS5_19ProcessModifierImplINS4_21DefaultProxyFilterTagEEEvEESH_E6Object12AddReferenceEv = 0x0000000000323bb0 + __sdk_start;
_ZN2nn2sf4cmif6client6detail13CmifProxyImplINS_3nsd6detail8IManagerENS0_4hipc6client18Hipc2ProxyKindBaseILNS8_6detail11MessageTypeE6EEENS0_30MemoryResourceAllocationPolicyES7_NS3_19ProcessModifierImplINS2_21DefaultProxyFilterTagEEEE17GetCmifBaseObjectEv = 0x00000000003345a0 + __sdk_start;
_ZN2nn2sf4cmif6client6detail13CmifProxyImplINS_4pctl6detail3ipc23IParentalControlServiceENS2_19CmifDomainProxyKindINS0_4hipc6client38Hipc2ClientSessionManagedProxyKindBaseINSB_18Hipc2ProxyKindBaseILNSA_6detail11MessageTypeE6EEEEEEENS0_30MemoryResourceAllocationPolicyES8_NS3_19ProcessModifierImplINS2_21DefaultProxyFilterTagEEEE17GetCmifBaseObjectEv = 0x0000000000349cf0 + __sdk_start;
__udivmoddi4 = 0x00000000005144a8 + __sdk_start;
lrand48 = 0x000000000054d230 + __sdk_start;
_ZN2nn8irsensor30GetImageTransferProcessorStateEPNS0_27ImageTransferProcessorStateEPvmRKNS0_14IrCameraHandleE = 0x00000000002aa280 + __sdk_start;
_ZNK2nn2la21CommonArgumentsWriter13GetExportSizeEv = 0x00000000002c1fd0 + __sdk_start;
_ZN2nn2vi24SetRecordingLayerEnabledEb = 0x00000000003c20f0 + __sdk_start;
_ZNKSt3__17codecvtIwc11__mbstate_tE10do_unshiftERS1_PcS4_RS4_ = 0x00000000004d44d0 + __sdk_start;
_ZNSt3__129__libcpp_recursive_mutex_initEPN2nn2os9MutexTypeE = 0x00000000004efcd8 + __sdk_start;
_ZN2nn2fs6detail22CreateTemporaryStorageENS_3ncm13ApplicationIdEmlj = 0x00000000001ebf50 + __sdk_start;
_ZN2nn2fs40SaveDataTransferManagerForSaveDataRepair26OpenDeviceSaveDataImporterEPNSt3__110unique_ptrINS0_25ISaveDataDivisionImporterENS2_14default_deleteIS4_EEEERKNS0_19InitialDataVersion2ENS0_15SaveDataSpaceIdE = 0x00000000001f6740 + __sdk_start;
_ZN2nn2fs6detail24SaveDataImporterVersion223GetImportInitialDataAadEPNS1_14InitialDataAadE = 0x00000000001f7f80 + __sdk_start;
silk_Resampler_2_3_COEFS = 0x0000000000a539fe + __sdk_start;
_ZNK2nn2ec6detail15ShowShopPageArg15PushToInChannelENS_6applet19LibraryAppletHandleE = 0x0000000000156f50 + __sdk_start;
_ZN2nn3hid6system6detail19IsJoyConRailEnabledEPb = 0x000000000021fe00 + __sdk_start;
_ZN2nn3nsd13GetNasApiFqdnEPNS0_4FqdnE = 0x0000000000332740 + __sdk_start;
_ZTVNSt3__17num_getIcNS_19istreambuf_iteratorIcNS_11char_traitsIcEEEEEE = 0x0000000000c470f0 + __sdk_start;
nndetailImagePng_png_reciprocal = 0x0000000000278070 + __sdk_start;
_ZN2nn2sf4hipc6server6detail29HipcAllInOneServerManagerBase20ProcessInvokeRequestEPNS_2os19MultiWaitHolderTypeE = 0x0000000000377020 + __sdk_start;
_ZTSNSt3__120__shared_ptr_pointerIPNS_21__horizon_thread_dataEPFvS2_ENS_9allocatorIS1_EEEE = 0x0000000000ac6c68 + __sdk_start;
_ZN2nn3hid32SetSixAxisSensorFusionParametersERKNS0_19SixAxisSensorHandleEff = 0x0000000000216600 + __sdk_start;
_ZN2nn4nifm17NetworkConnection15IsRequestOnHoldEv = 0x000000000032c640 + __sdk_start;
_ZN2nn4nifm24GetCurrentNetworkProfileEPNS0_18NetworkProfileDataE = 0x000000000032b020 + __sdk_start;
_ZN2nn5srepo6detail15ReportGenerator19CheckKeyDuplicationEPKhmPKc = 0x000000000034e990 + __sdk_start;
_ZN2nn5swkbd14SetInitialTextEPNS0_15ShowKeyboardArgEPKDs = 0x000000000039be30 + __sdk_start;
_ZN2nn5audio23SplitterDestinationData18GetInParameterSizeEi = 0x0000000000046f60 + __sdk_start;
_ZN2nn2fs6detail12FileAccessorC1EONSt3__110unique_ptrINS0_3fsa5IFileENS3_14default_deleteIS6_EEEEPNS1_18FileSystemAccessorEi = 0x00000000001b5f20 + __sdk_start;
_ZN2nn2os6detail38InternalConditionVariableImplByHorizonC1Ev = 0x0000000000343df0 + __sdk_start;
_ZN2nn2sf4hipc6client24Hipc2ClientCoreProcessorILNS1_6detail11MessageTypeE6ENS0_4cmif6detail14CoreMethodInfoINSt3__15tupleIJNS7_17InRawArgumentInfoILm1ELm1ELl0EEEEEELm1ELm0ELb0EEESD_E7ProcessEPNS2_26Hipc2ClientProxyBaseObjectENS6_6client23InRawClientArgumentTypeILm1ELm1EvEEj = 0x0000000000038090 + __sdk_start;
_ZN2nn5audio17SetAudioOutVolumeEPNS0_8AudioOutEf = 0x0000000000056a10 + __sdk_start;
_ZN2nn2sf4hipc6client24Hipc2ClientCoreProcessorILNS1_6detail11MessageTypeE6ENS0_4cmif6detail14CoreMethodInfoINSt3__15tupleIJNS7_17InRawArgumentInfoILm1ELm1ELl0EEENSB_ILm20ELm4ELl4EEEEEELm24ELm0ELb0EEESE_E7ProcessEPNS2_26Hipc2ClientProxyBaseObjectENS6_6client23InRawClientArgumentTypeILm1ELm1EvEENSK_ILm20ELm4EvEEj = 0x0000000000089920 + __sdk_start;
_ZTIN2nn2sf4cmif6client6detail13CmifProxyImplINS_4npns11INpnsSystemENS0_4hipc6client18Hipc2ProxyKindBaseILNS7_6detail11MessageTypeE6EEENS0_30MemoryResourceAllocationPolicyES6_NS3_19ProcessModifierImplINS2_21DefaultProxyFilterTagEEEEE = 0x0000000000c2d2c0 + __sdk_start;
_ZN7android6Region13translateSelfEii = 0x000000000044a5e0 + __sdk_start;
_ZN2nn3hid15KeyCodeComposer15EnqueueKeyCodesEPKti = 0x0000000000213120 + __sdk_start;
_ZTSN2nn7account4http15IOAuthProcedureE = 0x0000000000a2cf6f + __sdk_start;
_ZN2nn3hid6detail19GetTouchScreenStateILm14EEENS_6ResultEPNS0_16TouchScreenStateIXT_EEE = 0x000000000020e020 + __sdk_start;
_ZN2nn4util10BitFlagSetILi256ENS_3hid11KeyboardKeyEE4FlagILi75EE4MaskE = 0x0000000000a71e78 + __sdk_start;
_ZN2nn8irsensor6detail13StatusManager9ClearLifoERKNS0_14IrCameraHandleE = 0x00000000002a6810 + __sdk_start;
_ZNK2nn3mii6detail11CoreDataRaw15GetFacelineMakeEv = 0x00000000002f6ac0 + __sdk_start;
_ZN2nn3mii6detail12StoreDataRaw9SetHeightEi = 0x00000000002fa360 + __sdk_start;
_ZN2nn8settings6system28SetButtonConfigSettingsRightEPKNS1_20ButtonConfigSettingsEi = 0x000000000035a1d0 + __sdk_start;
_ZTVN2nn2sf6detail38ObjectImplFactoryWithStatefulAllocatorINS0_4cmif6client6detail9CmifProxyINS_2am7service18ISystemAppletProxyENS4_19CmifDomainProxyKindINS0_4hipc6client38Hipc2ClientSessionManagedProxyKindBaseINSC_18Hipc2ProxyKindBaseILNSB_6detail11MessageTypeE6EEEEEEENS0_30MemoryResourceAllocationPolicyENS5_19ProcessModifierImplINS4_21DefaultProxyFilterTagEEEvEESK_E6ObjectE = 0x0000000000c137b8 + __sdk_start;
_ZTVN2nn2sf6detail38ObjectImplFactoryWithStatefulAllocatorINS0_4cmif6client6detail9CmifProxyINS_2am7service22IAppletCommonFunctionsENS4_19CmifDomainProxyKindINS0_4hipc6client38Hipc2ClientSessionManagedProxyKindBaseINSC_18Hipc2ProxyKindBaseILNSB_6detail11MessageTypeE6EEEEEEENS0_30MemoryResourceAllocationPolicyENS5_19ProcessModifierImplINS4_21DefaultProxyFilterTagEEEvEESK_E6ObjectE = 0x0000000000c15588 + __sdk_start;
_ZN2nn2os17FreeAddressRegionEm = 0x000000000033d460 + __sdk_start;
_ZN2nn3grc22FinalizeForApplicationEv = 0x00000000002032c0 + __sdk_start;
_ZN2nn2sf4cmif6client6detail13CmifProxyImplINS_2am7service15IDebugFunctionsENS2_19CmifDomainProxyKindINS0_4hipc6client38Hipc2ClientSessionManagedProxyKindBaseINSA_18Hipc2ProxyKindBaseILNS9_6detail11MessageTypeE6EEEEEEENS0_30MemoryResourceAllocationPolicyES7_NS3_19ProcessModifierImplINS2_21DefaultProxyFilterTagEEEE57_nn_sf_sync_AlarmSettingNotificationEnableAppEventReserveENS0_13SharedPointerINS6_8IStorageEEENS_3ncm13ApplicationIdE = 0x0000000000028320 + __sdk_start;
_ZN2nn2ec19ShopServiceAccessor6AttachEPNS1_13AsyncResponseE = 0x0000000000150400 + __sdk_start;
_ZN2nn2fs16GetSaveDataFlagsEPjNS0_15SaveDataSpaceIdEm = 0x00000000001ed3b0 + __sdk_start;
_ZN2nn2sf4hipc6client24Hipc2ClientCoreProcessorILNS1_6detail11MessageTypeE6ENS0_4cmif6detail14CoreMethodInfoINSt3__15tupleIJNS7_21OutObjectArgumentInfoILi0ELi0EEENS7_20InHandleArgumentInfoILi0ELi1EEENSD_ILi1ELi1EEENS7_17InRawArgumentInfoILm8ELm8ELl0EEENSD_ILi2ELi1EEENSG_ILm8ELm8ELl8EEEEEELm16ELm0ELb0EEESK_E21ProcessWithOutObjectsEPNS2_26Hipc2ClientProxyBaseObjectENS6_6client27OutObjectClientArgumentTypeENSP_26InHandleClientArgumentTypeESR_NSP_23InRawClientArgumentTypeILm8ELm8EvEESR_ST_jPNS0_13SharedPointerINS0_14IServiceObjectEEE = 0x00000000002bf340 + __sdk_start;
_ZNK2nn2la21CommonArgumentsWriter6ExportEPvm = 0x00000000002c1fe0 + __sdk_start;
_ZN2nn3ngc6detail14ContentsReader16CheckMountPrefixEPKc = 0x00000000003164e0 + __sdk_start;
_ZN2nn3ngc1t26RequestResourceUpdateCheckEv = 0x0000000000322d00 + __sdk_start;
_ZN2nn2sf4cmif6client6detail13CmifProxyImplINS_7account31IAccountServiceForAdministratorENS2_19CmifDomainProxyKindINS0_4hipc6client38Hipc2ClientSessionManagedProxyKindBaseINS9_18Hipc2ProxyKindBaseILNS8_6detail11MessageTypeE6EEEEEEENS0_25StatelessAllocationPolicyINS0_22ExpHeapStaticAllocatorILm2048ENS5_6detail12ObjectHolder24ObjectHolderAllocatorTagEEEEES6_NS3_19ProcessModifierImplINS2_21DefaultProxyFilterTagEEEE58_nn_sf_sync_ProxyProcedureForGuestLoginWithNintendoAccountENS0_3OutINS0_13SharedPointerINS5_3nas29IOAuthProcedureForExternalNsaEEEvEERKNSJ_4UuidE = 0x000000000000eaa0 + __sdk_start;
_ZN2nn5audio6server38CommandProcessingTimeEstimatorVersion18EstimateERKNS0_22DownMix6chTo2chCommandE = 0x0000000000061d20 + __sdk_start;
_ZN2nn3hid6detail27EnablePairedPalmaConnectionEv = 0x000000000020ba90 + __sdk_start;
_ZN2nn4nifm7RequestC1ERKNS0_17RequestParametersE = 0x000000000032c4c0 + __sdk_start;
_ZN2nn8settings7factory39GetConsoleSixAxisSensorHorizontalOffsetEPNS1_36ConsoleSixAxisSensorHorizontalOffsetE = 0x000000000035c6d0 + __sdk_start;
_ZNK2nn2sf4hipc6detail25HipcMessageBufferAccessor22GetPointerReceiveIndexEi = 0x0000000000372980 + __sdk_start;
_ZN2nn4util9UriParser5ParseEPKcNS1_6OptionE = 0x00000000003afd50 + __sdk_start;
_ZNK7android6Region16isTriviallyEqualERKS0_ = 0x000000000044a040 + __sdk_start;
_ZTINSt3__15ctypeIcEE = 0x0000000000c46fa8 + __sdk_start;
_ZN2nn5audio6server24AudioRendererManagerImpl15AudioDeviceImpl26QueryAudioDeviceInputEventENS_2sf3OutINS4_12NativeHandleEvEE = 0x000000000006cad0 + __sdk_start;
nncryptoHmacSha1GeneratorBlockSize = 0x0000000000a647c8 + __sdk_start;
_ZN2nn2sf4cmif6client6detail13CmifProxyImplINS_3ssl2sf14ISslConnectionENS2_19CmifDomainProxyKindINS0_4hipc6client38Hipc2ClientSessionManagedProxyKindBaseINSA_18Hipc2ProxyKindBaseILNS9_6detail11MessageTypeE6EEEEEEENS0_24StatefulAllocationPolicyINS0_16ExpHeapAllocatorEEES7_NS3_19ProcessModifierImplINS2_21DefaultProxyFilterTagEEEE32_nn_sf_sync_GetRenegotiationModeENS0_3OutINS6_17RenegotiationModeEvEE = 0x00000000003988f0 + __sdk_start;
_ZN7android8Composer8setFlagsERKNS_2spINS_21SurfaceComposerClientEEERKNS1_INS_7IBinderEEEjj = 0x0000000000443380 + __sdk_start;
_ZN2nn5audio22GetI3dl2ReverbRoomGainEPKNS0_15I3dl2ReverbTypeE = 0x0000000000041ad0 + __sdk_start;
_ZN2nn4util9VSNPrintfEPcmPKcSt9__va_list = 0x00000000003b2040 + __sdk_start;
_ZN7android6Parcel22writeDupFileDescriptorEi = 0x0000000000422ab0 + __sdk_start;
_ZN2nn5codec13SineWindow512E = 0x0000000000a5fca0 + __sdk_start;
_ZN2nn3grc3dev22RegisterOffscreenLayerEmiii = 0x00000000002033e0 + __sdk_start;
_ZN2nn8settings6detail30SetAnalogStickUserCalibrationRERKNS0_6system26AnalogStickUserCalibrationE = 0x0000000000362830 + __sdk_start;
_ZN2nn2sf4cmif6client6detail13CmifProxyImplINS_8settings21ISystemSettingsServerENS0_4hipc6client18Hipc2ProxyKindBaseILNS7_6detail11MessageTypeE6EEENS0_30MemoryResourceAllocationPolicyES6_NS3_19ProcessModifierImplINS2_21DefaultProxyFilterTagEEEE43_nn_sf_sync_SetAccountOnlineStorageSettingsERKNS0_7InArrayINS5_6system28AccountOnlineStorageSettingsEEE = 0x000000000036d290 + __sdk_start;
_ZN2nn4util8Vector3f13ConstantUnitXE = 0x0000000000ababa0 + __sdk_start;
_ZN7android16ISurfaceComposer11asInterfaceERKNS_2spINS_7IBinderEEE = 0x00000000004392f0 + __sdk_start;
_ZN2nn3hid23VibrationNodeConnectionC1EPNS0_13VibrationNodeES3_ = 0x0000000000218e00 + __sdk_start;
_ZN2nn8settings6system38SetPushNotificationActivityModeOnSleepEi = 0x000000000035d0e0 + __sdk_start;
_ZN2nn4util17BinaryBlockHeader12SetBlockSizeEm = 0x00000000003aa9a0 + __sdk_start;
__extendhfsf2 = 0x0000000000511a60 + __sdk_start;
_ZNK2nn5audio6server12VoiceContext18GetChannelResourceEi = 0x000000000006b6a0 + __sdk_start;
_ZN2nn3hid23GetActualVibrationValueEPNS0_14VibrationValueERKNS0_21VibrationDeviceHandleE = 0x0000000000217ca0 + __sdk_start;
_ZN2nn2sf4hipc6client24Hipc2ClientCoreProcessorILNS1_6detail11MessageTypeE6ENS0_4cmif6detail14CoreMethodInfoINSt3__15tupleIJNS7_18OutRawArgumentInfoILm4ELm4ELl0EEENS7_18BufferArgumentInfoILi0ELi9ELm0EEENS7_17InRawArgumentInfoILm8ELm8ELl0EEEEEELm8ELm4ELb1EEESH_E7ProcessEPNS2_26Hipc2ClientProxyBaseObjectENS6_6client24OutRawClientArgumentTypeILm4ELm4EEENSM_24BufferClientArgumentTypeENSM_23InRawClientArgumentTypeILm8ELm8EvEEj = 0x000000000022c160 + __sdk_start;
NvRmSurfaceComputeOffset = 0x00000000003e4f90 + __sdk_start;
_ZN2nn5album22SaveAndShareScreenshotEPKvmNS0_9ImageSizeENS0_17AlbumReportOptionERKNS_7account3UidE = 0x000000000001cb30 + __sdk_start;
_ZN2nn4util6detail20FileOutputStreamImpl5CloseEv = 0x00000000003b6310 + __sdk_start;
_ZTIN2nn7account29IAccountServiceForApplicationE = 0x0000000000c0d278 + __sdk_start;
_ZTIN2nn5audio6detail15IAudioInManagerE = 0x0000000000c17e70 + __sdk_start;
_ZN2nn6hidbus6detail20ClientResourceHolder20IsSharedMemoryMappedEv = 0x0000000000239000 + __sdk_start;
_ZN2nn3err6detail11ReadVersionEPNS0_27ErrorMessageDatabaseVersionE = 0x000000000015d380 + __sdk_start;
_ZNK2nn12notification26WeeklyScheduleAlarmSetting10GetSettingENS_4time9DayOfWeekE = 0x000000000032d060 + __sdk_start;
_ZTISt12domain_error = 0x0000000000c4b700 + __sdk_start;
_ZNK2nn5audio6common10NodeStates8GetStateEi = 0x00000000000492c0 + __sdk_start;
nncodecLibopus_renormalise_vector = 0x00000000000af780 + __sdk_start;
_ZN2nn3hid14VibrationMixer13SetCompressorERKNS1_19CompressorParameterE = 0x00000000002181f0 + __sdk_start;
_ZN2nn3hid6system21GetNpadSystemExtStyleEPNS1_18AppletFooterUiTypeEPNS1_21NpadSystemExtSubStyleERKj = 0x00000000002241b0 + __sdk_start;
nnmem_nlib_strto_int32_fallback = 0x00000000002db030 + __sdk_start;
_ZN2nn2vi14GetDisplayModeEPNS0_15DisplayModeInfoEPKNS0_7DisplayE = 0x00000000003bf730 + __sdk_start;
_ZN2nn9bluetooth11GattServiceC1ERKNS0_17GattAttributeUuidEtjttb = 0x00000000000907e0 + __sdk_start;
_ZN2nn8settings6system19IsUsbFullKeyEnabledEv = 0x000000000035b330 + __sdk_start;
_ZN2nn4util14AsyncExecutionD2Ev = 0x00000000003b68f0 + __sdk_start;
_ZNSt3__124__libcpp_debug_exceptionC1Ev = 0x00000000004a1ea8 + __sdk_start;
_ZN22nerd_gillette_internal5otete7jaimev220DecodeHasNextHandROKERbPKhmPm = 0x00000000002af380 + __sdk_start;
_ZN2nn3mii6detail13GetDefaultMiiEi = 0x00000000002f7c70 + __sdk_start;
_ZN2nn3ngc15ProfanityFilterC1EPvm = 0x0000000000311d60 + __sdk_start;
_ZN2nn2sf4cmif6client6detail13CmifProxyImplINS_7timesrv6detail7service16ITimeZoneServiceENS2_19CmifDomainProxyKindINS0_4hipc6client38Hipc2ClientSessionManagedProxyKindBaseINSB_18Hipc2ProxyKindBaseILNSA_6detail11MessageTypeE6EEEEEEENS0_30MemoryResourceAllocationPolicyES8_NS3_19ProcessModifierImplINS2_21DefaultProxyFilterTagEEEE28_nn_sf_sync_LoadTimeZoneRuleENS0_3OutINS_4time12TimeZoneRuleEvEERKNSP_12LocationNameE = 0x00000000003a5520 + __sdk_start;
_ZTSNSt3__17num_getIcNS_19istreambuf_iteratorIcNS_11char_traitsIcEEEEEE = 0x0000000000ac78d4 + __sdk_start;
pthread_key_delete = 0x000000000051b960 + __sdk_start;
_ZN2nn5codec9CHcr_ReadEPNS0_13FDK_BITSTREAMEPNS0_22CAacDecoderChannelInfoE = 0x00000000000e5f20 + __sdk_start;
_ZN2nn2sf4cmif6client6detail13CmifProxyImplINS_3hid10IHidServerENS0_4hipc6client18Hipc2ProxyKindBaseILNS7_6detail11MessageTypeE6EEENS0_30MemoryResourceAllocationPolicyES6_NS3_19ProcessModifierImplINS2_21DefaultProxyFilterTagEEEE26_nn_sf_sync_DeactivateNpadENS_6applet20AppletResourceUserIdE = 0x0000000000228f40 + __sdk_start;
_ZN7android12ProcessState4selfEv = 0x0000000000424910 + __sdk_start;
__fixsfdi = 0x0000000000511c88 + __sdk_start;
_ZN2nn5audio19RegisterBufferEventEPNS0_19FinalOutputRecorderEPNS_2os11SystemEventE = 0x0000000000058840 + __sdk_start;
_ZN2nn2fs26FileStorageBasedFileSystemC1Ev = 0x00000000001ad260 + __sdk_start;
_ZN2nn4pctl18DisableAllFeaturesEv = 0x0000000000345b00 + __sdk_start;
_ZN2nn3hid6server18SharedMemoryHolderC1EOS2_ = 0x000000000021d9a0 + __sdk_start;
_ZN2nn4htcs6detail14virtual_socket9SetSocketENS_2sf13SharedPointerINS_3tma7ISocketEEERi = 0x0000000000247440 + __sdk_start;
_ZN2nn4util6detail7msgpack9WriteBoolEPNS0_17MessagePackWriter11StreamParamEb = 0x00000000003aedd0 + __sdk_start;
_ZN2nn5codec28CConcealment_InitChannelDataEPNS0_16CConcealmentInfoEPNS0_14CConcealParamsEi = 0x00000000000f2650 + __sdk_start;
_ZnamRKSt9nothrow_t = 0x00000000004e4330 + __sdk_start;
_ZN2nn8settings6detail31GetApplicationOwnKeyboardLayoutEPbPNS0_14KeyboardLayoutE = 0x0000000000362dc0 + __sdk_start;
_ZN2nn2sf4hipc6server2v16detail29HipcAllInOneServerManagerBaseD2Ev = 0x0000000000372c90 + __sdk_start;
_ZN2nn5swkbd30InlineKeyboardForLibraryAppletD1Ev = 0x000000000039eaf0 + __sdk_start;
_ZN2nn5audio3dsp6SignalEv = 0x0000000000070ca0 + __sdk_start;
_ZTSN2nn5fssrv2sf25ISaveDataDivisionImporterE = 0x0000000000a6dea6 + __sdk_start;
_ZN2nn2sf4cmif6client34CmifDomainProxyClientCoreProcessorINS0_4hipc6client38Hipc2ClientSessionManagedProxyKindBaseINS5_18Hipc2ProxyKindBaseILNS4_6detail11MessageTypeE6EEEEENS1_6detail14CoreMethodInfoINSt3__15tupleIJNSC_18OutRawArgumentInfoILm1ELm1ELl0EEENSC_18BufferArgumentInfoILi0ELi25ELm4EEEEEELm0ELm1ELb0EEESK_E7ProcessEPNS2_23CmifDomainClientMessageISB_E15ProxyBaseObjectENS2_24OutRawClientArgumentTypeILm1ELm1EEENS2_24BufferClientArgumentTypeEj = 0x0000000000328fd0 + __sdk_start;
_ZN2nn4pctl21PostEnableAllFeaturesEv = 0x0000000000345b60 + __sdk_start;
_ZN2nn2sf4cmif6client6detail13CmifProxyImplINS_5prepo6detail3ipc13IPrepoServiceENS2_19CmifDomainProxyKindINS0_4hipc6client38Hipc2ClientSessionManagedProxyKindBaseINSB_18Hipc2ProxyKindBaseILNSA_6detail11MessageTypeE6EEEEEEENS0_30MemoryResourceAllocationPolicyES8_NS3_19ProcessModifierImplINS2_21DefaultProxyFilterTagEEEE40_nn_sf_sync_SetUserAgreementCheckEnabledEb = 0x00000000003545f0 + __sdk_start;
NvRmMemGetIVCId = 0x00000000003e0db0 + __sdk_start;
nndetailImagePng_png_do_packswap = 0x000000000028ecc0 + __sdk_start;
_ZN2nn8settings6system20SetBacklightSettingsERKNS1_19BacklightSettingsExE = 0x0000000000359780 + __sdk_start;
_ZNKSt3__18time_getIcNS_19istreambuf_iteratorIcNS_11char_traitsIcEEEEE11__get_year4ERiRS4_S4_RjRKNS_5ctypeIcEE = 0x00000000004c0a88 + __sdk_start;
_ZNSt3__19__num_getIcE19__stage2_float_loopEcRbRcPcRS4_ccRKNS_12basic_stringIcNS_11char_traitsIcEENS_9allocatorIcEEEEPjRSE_RjS4_ = 0x00000000004b9c00 + __sdk_start;
_ZNSt3__19__num_putIcE23__widen_and_group_floatEPcS2_S2_S2_RS2_S3_RKNS_6localeE = 0x00000000004bc370 + __sdk_start;
_ZN2nn2la4auth25GetResultFromContextStackEPNS1_9ReturnArgENS_6applet13StorageHandleE = 0x00000000002c1e00 + __sdk_start;
_ZTIN2nn3btm8IBtmUserE = 0x0000000000c1bae8 + __sdk_start;
ptrs_to_offsets = 0x0000000000197ef0 + __sdk_start;
_ZN2nn2os6detail26ThreadManagerImplByHorizon14ChangePriorityEPNS0_10ThreadTypeEi = 0x00000000003430c0 + __sdk_start;
_ZN2nn4nifm22GetCurrentProxySettingEPNS0_12ProxySettingE = 0x000000000032b7e0 + __sdk_start;
_ZN2nn2sf4cmif6client6detail13CmifProxyImplINS_2am7service15IStorageChannelENS2_19CmifDomainProxyKindINS0_4hipc6client38Hipc2ClientSessionManagedProxyKindBaseINSA_18Hipc2ProxyKindBaseILNS9_6detail11MessageTypeE6EEEEEEENS0_30MemoryResourceAllocationPolicyES7_NS3_19ProcessModifierImplINS2_21DefaultProxyFilterTagEEEE12GetProxyInfoEv = 0x0000000000025930 + __sdk_start;
_ZN2nn4diag14OnResultHandleENS_6ResultERKNS0_10SourceInfoE = 0x0000000000145a00 + __sdk_start;
_ZN2nn2sf4cmif6client6detail13CmifProxyImplINS_7friends6detail3ipc20INotificationServiceENS2_19CmifDomainProxyKindINS0_4hipc6client38Hipc2ClientSessionManagedProxyKindBaseINSB_18Hipc2ProxyKindBaseILNSA_6detail11MessageTypeE6EEEEEEENS0_30MemoryResourceAllocationPolicyES8_NS3_19ProcessModifierImplINS2_21DefaultProxyFilterTagEEEE17_nn_sf_sync_ClearEv = 0x00000000001a71b0 + __sdk_start;
_ZN2nn2fs11FileStorage5WriteElPKvm = 0x00000000001acf40 + __sdk_start;
_ZN2nn2sf4cmif6client34CmifDomainProxyClientCoreProcessorINS0_4hipc6client38Hipc2ClientSessionManagedProxyKindBaseINS5_18Hipc2ProxyKindBaseILNS4_6detail11MessageTypeE6EEEEENS1_6detail14CoreMethodInfoINSt3__15tupleIJNSC_18OutRawArgumentInfoILm13ELm1ELl0EEENSG_ILm9ELm1ELl13EEEEEELm0ELm22ELb0EEESJ_E7ProcessEPNS2_23CmifDomainClientMessageISB_E15ProxyBaseObjectENS2_24OutRawClientArgumentTypeILm13ELm1EEENSQ_ILm9ELm1EEEj = 0x0000000000328d00 + __sdk_start;
NvRmChannelSetModuleHighPriority = 0x00000000003e9a00 + __sdk_start;
_ZN2nn2sf4cmif6client6detail13CmifProxyImplINS_2am7service22IAppletCommonFunctionsENS2_19CmifDomainProxyKindINS0_4hipc6client38Hipc2ClientSessionManagedProxyKindBaseINSA_18Hipc2ProxyKindBaseILNS9_6detail11MessageTypeE6EEEEEEENS0_30MemoryResourceAllocationPolicyES7_NS3_19ProcessModifierImplINS2_21DefaultProxyFilterTagEEEE29_nn_sf_sync_WriteThemeStorageEmRKNS0_8InBufferE = 0x000000000002bde0 + __sdk_start;
_ZTIN2nn2sf6detail38ObjectImplFactoryWithStatefulAllocatorINS0_4cmif6client6detail9CmifProxyINS_2am7service16IAudioControllerENS4_19CmifDomainProxyKindINS0_4hipc6client38Hipc2ClientSessionManagedProxyKindBaseINSC_18Hipc2ProxyKindBaseILNSB_6detail11MessageTypeE6EEEEEEENS0_30MemoryResourceAllocationPolicyENS5_19ProcessModifierImplINS4_21DefaultProxyFilterTagEEEvEESK_E6ObjectE = 0x0000000000c146d8 + __sdk_start;
_ZTSN2nn2sf6detail16ObjectHolderImplINS0_13InterfaceInfoINS_5audio6detail14IAudioRendererEE5_tO2NINS4_6server24AudioRendererManagerImpl17AudioRendererImplEE4typeEvEE = 0x0000000000a438aa + __sdk_start;
_ZN2nn3hid6system6detail22SetButtonConfigStorageERKNS_9hidconfig17ButtonConfigRightEi = 0x000000000021f2e0 + __sdk_start;
_ZN2nn4pctl20GetPlayTimerSettingsEPNS0_17PlayTimerSettingsE = 0x0000000000347610 + __sdk_start;
_ZTSN2nn2sf6detail39ObjectImplFactoryWithStatelessAllocatorINS0_4cmif6client6detail9CmifProxyINS_7account6detail13IAsyncContextENS4_19CmifDomainProxyKindINS0_4hipc6client38Hipc2ClientSessionManagedProxyKindBaseINSC_18Hipc2ProxyKindBaseILNSB_6detail11MessageTypeE6EEEEEEENS0_25StatelessAllocationPolicyINS0_22ExpHeapStaticAllocatorILm2048ENS8_12ObjectHolder24ObjectHolderAllocatorTagEEEEENS5_19ProcessModifierImplINS4_21DefaultProxyFilterTagEEEvEESP_E6ObjectE = 0x0000000000a2879c + __sdk_start;
_ZN2nn3hid23VibrationNodeConnectionC1Ev = 0x0000000000218dd0 + __sdk_start;
_ZN2nn2sf4cmif6client6detail36GetClientProcessorImplWithObjectBaseINS2_19CmifDomainProxyKindINS0_4hipc6client38Hipc2ClientSessionManagedProxyKindBaseINS7_18Hipc2ProxyKindBaseILNS6_6detail11MessageTypeE6EEEEEEENS3_19ProcessModifierImplINS2_21DefaultProxyFilterTagEEEE14ObjectAssignerINS0_30MemoryResourceAllocationPolicyENS_14MemoryResourceEE14AllocateObjectINS_4nifm6detail15IGeneralServiceEEEvi = 0x0000000000325db0 + __sdk_start;
_ZN2nn8settings6detail33GetButtonConfigRegisteredSettingsEPiPNS0_6system30ButtonConfigRegisteredSettingsEi = 0x0000000000360dc0 + __sdk_start;
__duplocale = 0x000000000053d148 + __sdk_start;
_ZN2nn3hid6system11ActivateNfcEjNS_6applet20AppletResourceUserIdE = 0x0000000000227fb0 + __sdk_start;
_ZN2nn4htcs6detail25virtual_socket_collection13RealizeSocketEi = 0x00000000002472c0 + __sdk_start;
_ZNSt16invalid_argumentD1Ev = 0x0000000000506318 + __sdk_start;
c16rtomb = 0x000000000054c280 + __sdk_start;
_ZN2nn5audio6server18PerformanceManager12GetNextEntryEPNS1_25PerformanceEntryAddressesENS0_21PerformanceDetailTypeENS0_20PerformanceEntryTypeEj = 0x0000000000064fa0 + __sdk_start;
_ZN2nn3hid16ReadPalmaPlayLogERKNS0_21PalmaConnectionHandleERKt = 0x0000000000215f90 + __sdk_start;
nndetailImagePng_png_get_eXIf_1 = 0x000000000027b3b0 + __sdk_start;
_ZN2nn2sf4cmif6client6detail13CmifProxyImplINS_8settings21ISystemSettingsServerENS0_4hipc6client18Hipc2ProxyKindBaseILNS7_6detail11MessageTypeE6EEENS0_30MemoryResourceAllocationPolicyES6_NS3_19ProcessModifierImplINS2_21DefaultProxyFilterTagEEEE34_nn_sf_sync_GetBluetoothEnableFlagENS0_3OutIbvEE = 0x000000000036c8b0 + __sdk_start;
_ZN2nn2sf13InterfaceInfoINS0_4hipc6detail12IHipcManagerEE4_tABINS5_5_tO2NINS2_6server2v134HipcServerSessionManagerWithDomain15HipcManagerImplEE4typeES4_E4type34_nn_sf_sync_QueryPointerBufferSizeENS0_3OutItvEE = 0x0000000000375490 + __sdk_start;
_ZTINSt3__124__libcpp_debug_exceptionE = 0x0000000000c45798 + __sdk_start;
_ZTVN2nn5audio6server16BiquadFilterInfoE = 0x0000000000c19d18 + __sdk_start;
_ZTIN2nn2sf6detail38ObjectImplFactoryWithStatefulAllocatorINS0_4cmif6client6detail9CmifProxyINS_4bcat6detail3ipc16INotifierServiceENS4_19CmifDomainProxyKindINS0_4hipc6client38Hipc2ClientSessionManagedProxyKindBaseINSD_18Hipc2ProxyKindBaseILNSC_6detail11MessageTypeE6EEEEEEENS0_30MemoryResourceAllocationPolicyENS5_19ProcessModifierImplINS4_21DefaultProxyFilterTagEEEvEESL_E6ObjectE = 0x0000000000c1a490 + __sdk_start;
_ZN2nn4edid16IsAudioSupportedEPKNS0_4EdidE = 0x0000000000158dc0 + __sdk_start;
_ZN2nn3ngc6detail11BitVector32D2Ev = 0x000000000031cf80 + __sdk_start;
_ZN2nn3hid6system40BindPlayReportControllerUsageUpdateEventEPNS_2os15SystemEventTypeENS2_14EventClearModeE = 0x00000000002281a0 + __sdk_start;
_ZN2nn5image6detail4jpeg13jpeg_idct_9x9EPNS2_22jpeg_decompress_structEPNS2_19jpeg_component_infoEPsPPhi = 0x0000000000267400 + __sdk_start;
_ZN2nn2sf4cmif6client6detail13CmifProxyImplINS_8irsensor21IIrSensorSystemServerENS0_4hipc6client18Hipc2ProxyKindBaseILNS7_6detail11MessageTypeE6EEENS0_25StatelessAllocationPolicyINS0_22ExpHeapStaticAllocatorILm16384ENS5_6detail20IrSensorSystemServerEEEEES6_NS3_19ProcessModifierImplINS2_21DefaultProxyFilterTagEEEE12GetProxyInfoEv = 0x00000000002aca60 + __sdk_start;
_ZN7android10BufferItemD2Ev = 0x000000000042c600 + __sdk_start;
_ZNSt3__17num_getIwNS_19istreambuf_iteratorIwNS_11char_traitsIwEEEEE2idE = 0x0000000000d0e948 + __sdk_start;
_ZN2nn2sf4cmif6client6detail13CmifProxyImplINS_7account31IAccountServiceForSystemServiceENS2_19CmifDomainProxyKindINS0_4hipc6client38Hipc2ClientSessionManagedProxyKindBaseINS9_18Hipc2ProxyKindBaseILNS8_6detail11MessageTypeE6EEEEEEENS0_25StatelessAllocationPolicyINS0_22ExpHeapStaticAllocatorILm2048ENS5_6detail12ObjectHolder24ObjectHolderAllocatorTagEEEEES6_NS3_19ProcessModifierImplINS2_21DefaultProxyFilterTagEEEE49_nn_sf_sync_GetBaasUserAvailabilityChangeNotifierENS0_3OutINS0_13SharedPointerINSJ_9INotifierEEEvEE = 0x000000000000acb0 + __sdk_start;
_ZNK2nn3mii6detail24NfpStoreDataExtentionRaw13GetMouthColorEv = 0x00000000002f7f50 + __sdk_start;
_ZZN2nn2sf31SimpleAllInOneHipcClientManagerILm1EE27InitializeShimLibraryHolderINS_4npns9INpnsUserENS0_4cmif6client6detail19ProcessModifierImplINS7_21DefaultProxyFilterTagEEEEENS_6ResultEPNS0_23ShimLibraryObjectHolderIT_EEPKcPNS_14MemoryResourceEENUlPvE_8__invokeESL_ = 0x0000000000330be0 + __sdk_start;
_ZNSt13exception_ptrC2ERKS_ = 0x00000000004a3b98 + __sdk_start;
_ZN2nn2sf4cmif6client6detail13CmifProxyImplINS_3hid15IHidDebugServerENS0_4hipc6client18Hipc2ProxyKindBaseILNS7_6detail11MessageTypeE6EEENS0_30MemoryResourceAllocationPolicyES6_NS3_19ProcessModifierImplINS2_21DefaultProxyFilterTagEEEE34_nn_sf_sync_EnableAnalogStickPowerEbNS5_6system11UniquePadIdE = 0x000000000022e200 + __sdk_start;
_ZNK2nn12notification26WeeklyScheduleAlarmSetting9IsEnabledENS_4time9DayOfWeekE = 0x000000000032d030 + __sdk_start;
_ZN2nn2oe23GetPreviousProgramIndexEv = 0x00000000003382e0 + __sdk_start;
_ZNKSt3__18time_getIcNS_19istreambuf_iteratorIcNS_11char_traitsIcEEEEE10__get_hourERiRS4_S4_RjRKNS_5ctypeIcEE = 0x00000000004c0518 + __sdk_start;
_ZN2nn2fs40SaveDataTransferManagerForSaveDataRepairC1Ev = 0x00000000001f5f40 + __sdk_start;
_ZN2nn2sf4hipc6client24Hipc2ClientCoreProcessorILNS1_6detail11MessageTypeE6ENS0_4cmif6detail14CoreMethodInfoINSt3__15tupleIJNS7_18BufferArgumentInfoILi0ELi5ELm0EEENS7_17InRawArgumentInfoILm4ELm4ELl0EEEEEELm4ELm0ELb0EEESF_E7ProcessEPNS2_26Hipc2ClientProxyBaseObjectENS6_6client24BufferClientArgumentTypeENSK_23InRawClientArgumentTypeILm4ELm4EvEEj = 0x0000000000052db0 + __sdk_start;
_ZN2nn3err19ApplicationErrorArgC1EjPKcS3_RKNS_8settings12LanguageCodeE = 0x000000000015c2d0 + __sdk_start;
_ZN2nn2sf4cmif6client6detail13CmifProxyImplINS_8settings15ISettingsServerENS0_4hipc6client18Hipc2ProxyKindBaseILNS7_6detail11MessageTypeE6EEENS0_30MemoryResourceAllocationPolicyES6_NS3_19ProcessModifierImplINS2_21DefaultProxyFilterTagEEEE25_nn_sf_sync_GetKeyCodeMapENS0_3OutINS_3kpr10KeyCodeMapEvEE = 0x000000000036b090 + __sdk_start;
_ZN2nn2sf4hipc23InitializeInProcessPortEPNS_14MemoryResourceE = 0x0000000000378d60 + __sdk_start;
_ZN2nn3ssl10ConnectionD2Ev = 0x00000000003948a0 + __sdk_start;
_ZN2nn4util8Vector3f13ConstantUnitYE = 0x0000000000ababb0 + __sdk_start;
NvRmSyncGetSemaphores = 0x00000000003dfa00 + __sdk_start;
_ZNSt3__119__shared_mutex_baseC2Ev = 0x00000000004e48d8 + __sdk_start;
_ZN2nn5audio6server11InfoUpdaterC1EmmmmjRNS1_12BehaviorInfoE = 0x0000000000063970 + __sdk_start;
_ZN2nn9bluetooth13GattAttributeC2Ev = 0x00000000000906a0 + __sdk_start;
_ZN2nn8irsensor43GetAdaptiveClusteringProcessorDefaultConfigEPNS0_33AdaptiveClusteringProcessorConfigE = 0x00000000002a9b00 + __sdk_start;
_ZN2nn2sf6detail38ObjectImplFactoryWithStatefulAllocatorINS0_4cmif6client6detail9CmifProxyINS_2lm7ILoggerENS4_19CmifDomainProxyKindINS0_4hipc6client38Hipc2ClientSessionManagedProxyKindBaseINSB_18Hipc2ProxyKindBaseILNSA_6detail11MessageTypeE6EEEEEEENS0_30MemoryResourceAllocationPolicyENS5_19ProcessModifierImplINS4_21DefaultProxyFilterTagEEEvEESJ_E6Object7ReleaseEv = 0x00000000002c8340 + __sdk_start;
_ZTSNSt3__124__libcpp_debug_exceptionE = 0x0000000000ac6a41 + __sdk_start;
_ZN2nn4nifm6detail29TemporaryNetworkProfileClientD2Ev = 0x00000000003242b0 + __sdk_start;
_ZNKSt3__18messagesIwE8do_closeEl = 0x00000000004c9c40 + __sdk_start;
_ZN2nn4bcat21DeliveryCacheProgressC1Ev = 0x0000000000081680 + __sdk_start;
_ZN2nn9bluetooth23RegisterGattHidDataPathERKNS0_17GattAttributeUuidE = 0x000000000008bd10 + __sdk_start;
_ZNK2nn3err14SystemErrorArg15GetErrorContextEv = 0x000000000015cb70 + __sdk_start;
_ZN2nn4util10Quaternion16ConstantIdentityE = 0x0000000000aba830 + __sdk_start;
_ZN2nn2sf4cmif6client6detail13CmifProxyImplINS_7account4http15IOAuthProcedureENS2_19CmifDomainProxyKindINS0_4hipc6client38Hipc2ClientSessionManagedProxyKindBaseINSA_18Hipc2ProxyKindBaseILNS9_6detail11MessageTypeE6EEEEEEENS0_25StatelessAllocationPolicyINS0_22ExpHeapStaticAllocatorILm2048ENS5_6detail12ObjectHolder24ObjectHolderAllocatorTagEEEEENS5_3nas29IOAuthProcedureForExternalNsaENS3_19ProcessModifierImplINS2_21DefaultProxyFilterTagEEEE19_nn_sf_sync_SuspendENS0_3OutINSK_4UuidEvEE = 0x00000000000130d0 + __sdk_start;
_ZN2nn2sf4cmif6client6detail13CmifProxyImplINS_2am7service15ISelfControllerENS2_19CmifDomainProxyKindINS0_4hipc6client38Hipc2ClientSessionManagedProxyKindBaseINSA_18Hipc2ProxyKindBaseILNS9_6detail11MessageTypeE6EEEEEEENS0_30MemoryResourceAllocationPolicyES7_NS3_19ProcessModifierImplINS2_21DefaultProxyFilterTagEEEE40_nn_sf_sync_IsSystemBufferSharingEnabledEv = 0x0000000000024a00 + __sdk_start;
_ZTSN2nn2sf13InterfaceInfoINS_5audio6detail12IAudioDeviceEE4_tABINS5_5_tO2NINS2_6server24AudioRendererManagerImpl15AudioDeviceImplEE4typeES4_E4typeE = 0x0000000000a43a52 + __sdk_start;
_ZTIN2nn5audio6server12DetailAspectE = 0x0000000000c195f0 + __sdk_start;
_ZN2nn3hid6system6detail22SetButtonConfigEnabledEbRKNS1_11UniquePadIdE = 0x000000000021de60 + __sdk_start;
pthread_self = 0x000000000051b9d8 + __sdk_start;
_ZN2nn2os6detail27TransferMemoryImplByHorizon5UnmapEjPvm = 0x00000000003428d0 + __sdk_start;
_ZN2nn2sf4hipc6client24Hipc2ClientCoreProcessorILNS1_6detail11MessageTypeE6ENS0_4cmif6detail14CoreMethodInfoINSt3__15tupleIJNS7_18OutRawArgumentInfoILm4ELm4ELl0EEENSB_ILm4ELm4ELl4EEENS7_18BufferArgumentInfoILi0ELi6ELm0EEENSE_ILi1ELi6ELm0EEENSE_ILi2ELi6ELm0EEENS7_17InRawArgumentInfoILm4ELm4ELl0EEEEEELm4ELm8ELb0EEESK_E7ProcessEPNS2_26Hipc2ClientProxyBaseObjectENS6_6client24OutRawClientArgumentTypeILm4ELm4EEESR_NSP_24BufferClientArgumentTypeESS_SS_NSP_23InRawClientArgumentTypeILm4ELm4EvEEj = 0x00000000002401a0 + __sdk_start;
_ZN2nn4npns7SuspendEv = 0x000000000032f180 + __sdk_start;
_ZTIN2nn8settings24ISettingsItemKeyIteratorE = 0x0000000000c2f9d0 + __sdk_start;
_ZN2nn5audio6server22PerformanceManagerImplINS1_33PerformanceManagerImplVersion1TagENS0_6common30PerformanceFrameHeaderVersion1ENS4_24PerformanceEntryVersion1ENS4_25PerformanceDetailVersion1ENS0_20PerformanceSysDetailEE12GetNextEntryEPNS1_25PerformanceEntryAddressesENS0_21PerformanceDetailTypeENS0_20PerformanceEntryTypeEj = 0x0000000000065550 + __sdk_start;
_ZNK2nn5codec30HardwareOpusMultiStreamDecoder13GetSampleRateEv = 0x00000000000debc0 + __sdk_start;
_ZNKSt3__112basic_stringIwNS_11char_traitsIwEENS_9allocatorIwEEE4findEwm = 0x00000000004e9278 + __sdk_start;
_ZN2nn5audio20GetSplitterMixVolumeEPKNS0_12SplitterTypeEiPKNS0_12FinalMixTypeEii = 0x00000000000462d0 + __sdk_start;
_ZN2nn5audio19InitializeResamplerEPNS0_13ResamplerTypeEPvmiii = 0x000000000004c320 + __sdk_start;
acos = 0x000000000051f608 + __sdk_start;
_ZN2nn2fs13MountHostRootEv = 0x00000000001dfae0 + __sdk_start;
_ZN2nn2sf4cmif6client6detail13CmifProxyImplINS_4pctl6detail3ipc23IParentalControlServiceENS2_19CmifDomainProxyKindINS0_4hipc6client38Hipc2ClientSessionManagedProxyKindBaseINSB_18Hipc2ProxyKindBaseILNSA_6detail11MessageTypeE6EEEEEEENS0_30MemoryResourceAllocationPolicyES8_NS3_19ProcessModifierImplINS2_21DefaultProxyFilterTagEEEE30_nn_sf_sync_GetAccountNicknameENS0_3OutIjvEERKNS0_8OutArrayIcEERKNS6_22PairingAccountInfoBaseE = 0x0000000000349630 + __sdk_start;
_ZN7android7Surface20getQueuedFrameNumberERm = 0x00000000004401b0 + __sdk_start;
_ZNK7android10BufferItem16getFlattenedSizeEv = 0x000000000042c770 + __sdk_start;
_ZN2nn3hid7utility29GetConsoleSixAxisSensorHandleEPNS0_26ConsoleSixAxisSensorHandleE = 0x000000000021cdb0 + __sdk_start;
_ZNK2nn5audio6server12SinkInfoBase9GetNodeIdEv = 0x0000000000068b60 + __sdk_start;
_ZNK2nn5audio6server14MemoryPoolInfo11GetLocationEv = 0x0000000000066b70 + __sdk_start;
_ZN2nn4util17MessagePackWriter22WriteUnsignedInteger64Em = 0x00000000003ac450 + __sdk_start;
__nnmusl_FileAccess = 0x0000000000559bb8 + __sdk_start;
_ZN2nn4bcat6detail17ShimLibraryGlobalC2Ev = 0x0000000000081de0 + __sdk_start;
_ZZN2nn2sf40SimpleAllInOneHipcSubDomainClientManagerILm14EE27InitializeShimLibraryHolderINS_7friends6detail3ipc15IServiceCreatorENS0_4cmif6client6detail19ProcessModifierImplINS9_21DefaultProxyFilterTagEEEEENS_6ResultEPNS0_23ShimLibraryObjectHolderIT_EEPKcPNS_14MemoryResourceEENUlPNS0_13SharedPointerIS7_EEE_clESP_ = 0x00000000001a0680 + __sdk_start;
_ZNK2nn7account10UiSettings35GetNintendoAccountStartupDialogTypeEv = 0x0000000000000410 + __sdk_start;
_ZN2nn5audio6server38CommandProcessingTimeEstimatorVersion18EstimateERKNS0_12DelayCommandE = 0x0000000000061be0 + __sdk_start;
_ZN2nn3web6detail14WebSessionImpl10tryReceiveEPNS1_23WebSessionMessageHeaderEPvmNS1_28WebSessionReceiveMessageKindE = 0x00000000003cab60 + __sdk_start;
_ZNSt3__113basic_istreamIcNS_11char_traitsIcEEE5seekgENS_4fposI11__mbstate_tEE = 0x00000000004a9720 + __sdk_start;
_ZTVN2nn2sf6detail39ObjectImplFactoryWithStatelessAllocatorINS0_4cmif6client6detail9CmifProxyINS_7account3nas29IOAuthProcedureForExternalNsaENS4_19CmifDomainProxyKindINS0_4hipc6client38Hipc2ClientSessionManagedProxyKindBaseINSC_18Hipc2ProxyKindBaseILNSB_6detail11MessageTypeE6EEEEEEENS0_25StatelessAllocationPolicyINS0_22ExpHeapStaticAllocatorILm2048ENS7_6detail12ObjectHolder24ObjectHolderAllocatorTagEEEEENS5_19ProcessModifierImplINS4_21DefaultProxyFilterTagEEEvEESQ_E6ObjectE = 0x0000000000c0ec60 + __sdk_start;
_ZN2nn5codec33FDK_sbrDecoder_sbr_frame_info1_15E = 0x0000000000a63590 + __sdk_start;
_ZN2nn3ldn11ScanPrivateEPNS0_11NetworkInfoEPiiRKNS0_10ScanFilterEi = 0x00000000002c33e0 + __sdk_start;
_ZNK2nn3mii6detail12StoreDataRaw16GetMustacheScaleEv = 0x00000000002f9db0 + __sdk_start;
_ZN2nn8settings6detail19GetSpeakerParameterEPNS0_7factory16SpeakerParameterE = 0x00000000003651e0 + __sdk_start;
_ZN2nn2sf4hipc6client24Hipc2ClientCoreProcessorILNS1_6detail11MessageTypeE6ENS0_4cmif6detail14CoreMethodInfoINSt3__15tupleIJNS7_17InRawArgumentInfoILm4ELm4ELl0EEENSB_ILm4ELm4ELl4EEENS7_18BufferArgumentInfoILi0ELi5ELm0EEENSE_ILi1ELi6ELm0EEENSB_ILm4ELm4ELl8EEEEEELm12ELm0ELb0EEESI_E7ProcessEPNS2_26Hipc2ClientProxyBaseObjectENS6_6client23InRawClientArgumentTypeILm4ELm4EvEESP_NSN_24BufferClientArgumentTypeESQ_SP_j = 0x00000000003b9520 + __sdk_start;
_ZN2nn7account34NetworkServiceAccountAdministratorD0Ev = 0x0000000000017760 + __sdk_start;
_ZN2nn3btm4user13BleDisconnectEj = 0x0000000000091f70 + __sdk_start;
_ZN2nn5codec16ResetOpusDecoderEPNS0_15OpusDecoderTypeE = 0x00000000000def80 + __sdk_start;
_ZN2nn2fs24HierarchicalRomFileTable20CheckSameEntryExistsERKNS1_8EntryKeyENS_6ResultE = 0x00000000001a9e60 + __sdk_start;
_ZN2nn2sf4cmif6client6detail13CmifProxyImplINS_3nsd6detail8IManagerENS0_4hipc6client18Hipc2ProxyKindBaseILNS8_6detail11MessageTypeE6EEENS0_30MemoryResourceAllocationPolicyES7_NS3_19ProcessModifierImplINS2_21DefaultProxyFilterTagEEEE36_nn_sf_sync_GetEnvironmentIdentifierENS0_3OutINS5_21EnvironmentIdentifierEvEE = 0x0000000000334160 + __sdk_start;
_ZTIN2nn2os6detail31MultiWaitHolderOfInterruptEventE = 0x0000000000c2da18 + __sdk_start;
nvdcGetModeDB = 0x00000000003cd910 + __sdk_start;
_ZTINSt3__17num_getIcNS_19istreambuf_iteratorIcNS_11char_traitsIcEEEEEE = 0x0000000000c471a8 + __sdk_start;
fgetwc_unlocked = 0x000000000054fb78 + __sdk_start;
_ZN2nn2fs27ConvertAccountUidToFsUserIdERKNS_7account3UidE = 0x0000000000202e00 + __sdk_start;
_ZN2nn8settings6system24GetInitialLaunchSettingsEPNS1_21InitialLaunchSettingsE = 0x000000000035db00 + __sdk_start;
_ZN2nn2sf4cmif6client6detail13CmifProxyImplINS_8settings22IFactorySettingsServerENS0_4hipc6client18Hipc2ProxyKindBaseILNS7_6detail11MessageTypeE6EEENS0_30MemoryResourceAllocationPolicyES6_NS3_19ProcessModifierImplINS2_21DefaultProxyFilterTagEEEE31_nn_sf_sync_GetAmiiboEcqvBlsKeyENS0_3OutINS5_7factory16AmiiboEcqvBlsKeyEvEE = 0x00000000003681d0 + __sdk_start;
_ZN2nn2sf4hipc6client24Hipc2ClientCoreProcessorILNS1_6detail11MessageTypeE6ENS0_4cmif6detail14CoreMethodInfoINSt3__15tupleIJNS7_18OutRawArgumentInfoILm64ELm1ELl0EEEEEELm0ELm64ELb0EEESD_E7ProcessEPNS2_26Hipc2ClientProxyBaseObjectENS6_6client24OutRawClientArgumentTypeILm64ELm1EEEj = 0x000000000036dd00 + __sdk_start;
__nnmusl_libc_lock_init = 0x000000000055c2c8 + __sdk_start;
_ZN2nn2fs17FileHandleStorageD0Ev = 0x00000000001ad430 + __sdk_start;
_ZN2nn2sf6detail38ObjectImplFactoryWithStatefulAllocatorINS0_4cmif6client6detail9CmifProxyINS_3hid15IAppletResourceENS0_4hipc6client18Hipc2ProxyKindBaseILNS9_6detail11MessageTypeE6EEENS0_30MemoryResourceAllocationPolicyENS5_19ProcessModifierImplINS4_21DefaultProxyFilterTagEEEvEESF_E6Object12AddReferenceEv = 0x0000000000229ec0 + __sdk_start;
_ZN2nn5image10PngEncoder6EncodeEPmPvm = 0x0000000000298110 + __sdk_start;
_ZTSN2nn2sf4cmif6client6detail13CmifProxyImplINS_5visrv2sf26IApplicationDisplayServiceENS0_4hipc6client18Hipc2ProxyKindBaseILNS8_6detail11MessageTypeE6EEENS0_30MemoryResourceAllocationPolicyES7_NS3_19ProcessModifierImplINS2_21DefaultProxyFilterTagEEEEE = 0x0000000000abb438 + __sdk_start;
_ZNK7android4Rect6reduceERKS0_ = 0x00000000004497e0 + __sdk_start;
lgammal_r = 0x0000000000547e40 + __sdk_start;
_ZN2nn3hid7utility30MakeConsoleSixAxisSensorHandleEhi = 0x000000000021cd90 + __sdk_start;
_ZN2nn5srepo5Array3AddERKNS0_6StructE = 0x00000000003553c0 + __sdk_start;
_ZN2nn5audio6server24AudioRendererManagerImpl16AcquireSessionIdEv = 0x000000000005c1a0 + __sdk_start;
_ZN2nn2sf4hipc6client24Hipc2ClientCoreProcessorILNS1_6detail11MessageTypeE6ENS0_4cmif6detail14CoreMethodInfoINSt3__15tupleIJNS7_18BufferArgumentInfoILi0ELi26ELm1152EEENSB_ILi1ELi10ELm0EEEEEELm0ELm0ELb0EEESE_E7ProcessEPNS2_26Hipc2ClientProxyBaseObjectENS6_6client24BufferClientArgumentTypeESK_j = 0x00000000002c4780 + __sdk_start;
_ZN2nn5prepo6detail3ipc10InitializeEv = 0x0000000000353820 + __sdk_start;
__nnmusl_AllocateTlsSlot = 0x000000000055b9a0 + __sdk_start;
_ZN2nn2sf4cmif6client6detail13CmifProxyImplINS_3apm8IManagerENS0_4hipc6client18Hipc2ProxyKindBaseILNS7_6detail11MessageTypeE6EEENS0_30MemoryResourceAllocationPolicyES6_NS3_19ProcessModifierImplINS2_21DefaultProxyFilterTagEEEE33_nn_sf_sync_IsCpuOverclockEnabledENS0_3OutIbvEE = 0x0000000000037c10 + __sdk_start;
strtoul = 0x0000000000553bc8 + __sdk_start;
_ZZN2nn2sf31SimpleAllInOneHipcClientManagerILm1EE27InitializeShimLibraryHolderINS_3nsd6detail8IManagerENS0_4cmif6client6detail19ProcessModifierImplINS8_21DefaultProxyFilterTagEEEEENS_6ResultEPNS0_23ShimLibraryObjectHolderIT_EEPKcPNS_14MemoryResourceEENUlPvE_8__invokeESM_ = 0x0000000000335640 + __sdk_start;
_ZN2nn5image11JpegDecoderC1Ev = 0x0000000000271550 + __sdk_start;
nndetailImagePng_png_write_chunk_data = 0x0000000000292ae0 + __sdk_start;
_ZTIN2nn3nfp6detail7ISystemE = 0x0000000000c2b1f8 + __sdk_start;
_ZTSN2nn2sf4cmif6client6detail9CmifProxyINS_3ngc1t6detail9INotifierENS0_4hipc6client18Hipc2ProxyKindBaseILNS9_6detail11MessageTypeE6EEENS0_30MemoryResourceAllocationPolicyENS3_19ProcessModifierImplINS2_21DefaultProxyFilterTagEEEvEE = 0x0000000000aacad8 + __sdk_start;
_ZN7android11BufferQueue21ProxyConsumerListener16onFrameAvailableERKNS_10BufferItemE = 0x000000000042d840 + __sdk_start;
_ZTv0_n24_N7android19IGraphicBufferAllocD0Ev = 0x0000000000436240 + __sdk_start;
_ZNK2nn2lm6detail15LogPacketHeader11GetSeverityEv = 0x00000000002c64a0 + __sdk_start;
_ZNK2nn4time6detail20MonotonicSystemClock21GetSystemClockContextEv = 0x00000000003a3210 + __sdk_start;
__nnmusl_socket_fcntl = 0x0000000000561230 + __sdk_start;
catan = 0x00000000005320a0 + __sdk_start;
_ZN2nn5audio34SetAudioRendererRenderingTimeLimitENS0_19AudioRendererHandleEi = 0x000000000004dcd0 + __sdk_start;
_ZN2nn7friends12UserPresence14SetDescriptionEPKc = 0x000000000019e9c0 + __sdk_start;
_ZN2nn8settings6system28NeedsToUpdateHeadphoneVolumeEPbPab = 0x0000000000359630 + __sdk_start;
_ZN2nn3ngc71AcquireProfanityWordDatabaseReloadRequestNotifierForPlatformRegionChinaEv = 0x00000000003225a0 + __sdk_start;
_ZN2nn2os6detail36GetReadableHandleOfInterProcessEventEPKNS1_21InterProcessEventTypeE = 0x000000000033e170 + __sdk_start;
_ZN2nn3web14ShowWebPageArg18SetCallbackableUrlEPKc = 0x00000000003c8b20 + __sdk_start;
_ZTVN2nn2sf6detail38ObjectImplFactoryWithStatefulAllocatorINS0_4cmif6client6detail9CmifProxyINS_2am7service17IOverlayFunctionsENS4_19CmifDomainProxyKindINS0_4hipc6client38Hipc2ClientSessionManagedProxyKindBaseINSC_18Hipc2ProxyKindBaseILNSB_6detail11MessageTypeE6EEEEEEENS0_30MemoryResourceAllocationPolicyENS5_19ProcessModifierImplINS4_21DefaultProxyFilterTagEEEvEESK_E6ObjectE = 0x0000000000c15d10 + __sdk_start;
_ZN2nn3hid6detail32GetSixAxisSensorFusionParametersEPfS2_RKNS0_19SixAxisSensorHandleE = 0x000000000020ca20 + __sdk_start;
_ZN2nn3mii15GetEyeBlueColorENS0_11CommonColorENS0_9GammaTypeE = 0x00000000002f2170 + __sdk_start;
_ZN2nn3ngc6detail3Set5BuildEv = 0x000000000031ea70 + __sdk_start;
_ZTSN2nn2os6detail31MultiWaitHolderOfInterruptEventE = 0x0000000000aafbf8 + __sdk_start;
_ZN2nn2sf44InitializeForHipcServerSessionManagerHandlerEv = 0x0000000000373a40 + __sdk_start;
_ZN7android21SurfaceComposerClientC2Ev = 0x0000000000443800 + __sdk_start;
_ZN2nn5audio9AddReverbEPNS0_19AudioRendererConfigEPNS0_10ReverbTypeEPvmPNS0_10SubMixTypeEi = 0x0000000000042840 + __sdk_start;
_ZN2nn9bluetooth33RegisterGattOperationNotificationERKNS0_17GattAttributeUuidE = 0x000000000008fdf0 + __sdk_start;
gmtime = 0x00000000005571e0 + __sdk_start;
_ZN2nn2sf4cmif6client6detail13CmifProxyImplINS_3ssl2sf11ISslServiceENS2_19CmifDomainProxyKindINS0_4hipc6client38Hipc2ClientSessionManagedProxyKindBaseINSA_18Hipc2ProxyKindBaseILNS9_6detail11MessageTypeE6EEEEEEENS0_24StatefulAllocationPolicyINS0_16ExpHeapAllocatorEEES7_NS3_19ProcessModifierImplINS2_21DefaultProxyFilterTagEEEE12GetProxyInfoEv = 0x0000000000397c00 + __sdk_start;
NvRmGpuAddressSpaceFlushDeferredMappings = 0x0000000000404660 + __sdk_start;
_ZN2nn2sf6detail39ObjectImplFactoryWithStatelessAllocatorINS0_4cmif6client6detail9CmifProxyINS_7account4http15IOAuthProcedureENS4_19CmifDomainProxyKindINS0_4hipc6client38Hipc2ClientSessionManagedProxyKindBaseINSC_18Hipc2ProxyKindBaseILNSB_6detail11MessageTypeE6EEEEEEENS0_25StatelessAllocationPolicyINS0_22ExpHeapStaticAllocatorILm2048ENS7_6detail12ObjectHolder24ObjectHolderAllocatorTagEEEEENS5_19ProcessModifierImplINS4_21DefaultProxyFilterTagEEEvEESQ_E6Object12AddReferenceEv = 0x0000000000012230 + __sdk_start;
_ZN2nn2pl31GetPlatformServiceManagerServerEv = 0x000000000034d020 + __sdk_start;
_ZTVN2nn2os6detail31MultiWaitHolderOfInterruptEventE = 0x0000000000c2d9c8 + __sdk_start;
nnosInitializeMultiWaitHolderForMessageQueue = 0x000000000033dda0 + __sdk_start;
NvOsMkdir = 0x00000000003d1010 + __sdk_start;
NvRmChannelModuleMutexUnlock = 0x00000000003e9830 + __sdk_start;
fnmatch = 0x000000000054d398 + __sdk_start;
_ZN2nn5audio6common13NodeIdManager7BaseMaxE = 0x0000000000a3bdbc + __sdk_start;
_ZNK2nn2ec30ConsumableServiceItemRightData7IsValidEv = 0x000000000014e3a0 + __sdk_start;
nndetailImagePng_png_set_check_for_invalid_index = 0x000000000028e740 + __sdk_start;
nvgr_import_nvrmsurface = 0x0000000000403ac0 + __sdk_start;
NvOsEventPoolLink = 0x00000000003d7820 + __sdk_start;
_ZNSt3__110moneypunctIwLb1EE4intlE = 0x0000000000ac728b + __sdk_start;
_ZNSt3__111regex_errorD1Ev = 0x00000000004e4698 + __sdk_start;
_ZTSN2nn2sf4cmif6client6detail13CmifProxyImplINS_12notification6server35INotificationServicesForApplicationENS2_19CmifDomainProxyKindINS0_4hipc6client38Hipc2ClientSessionManagedProxyKindBaseINSA_18Hipc2ProxyKindBaseILNS9_6detail11MessageTypeE6EEEEEEENS0_30MemoryResourceAllocationPolicyES7_NS3_19ProcessModifierImplINS2_21DefaultProxyFilterTagEEEEE = 0x0000000000aae9d0 + __sdk_start;
_ZN2nn5swkbd6detail18InlineKeyboardImpl19SetMovedTabCallbackEPFvPNS0_11MovedTabArgEE = 0x000000000039e8c0 + __sdk_start;
_ZNK2nn4time13ClockSnapshot38GetStandardUserSystemClockCalendarTimeEv = 0x00000000003a0ef0 + __sdk_start;
_ZN2nn2vi17SetDisplayCmuLumaEPNS0_7DisplayEf = 0x00000000003b70e0 + __sdk_start;
_ZNKSt3__112ctype_bynameIcE10do_toupperEc = 0x00000000004d2e90 + __sdk_start;
scalb = 0x0000000000549f48 + __sdk_start;
FsLtt_read = 0x0000000000189f00 + __sdk_start;
_ZN2nn7friends13GetFriendListEPiPNS0_6FriendERKNS_7account3UidEiiRKNS0_12FriendFilterE = 0x000000000019ca80 + __sdk_start;
_ZTSN2nn2sf4cmif6client6detail13CmifProxyImplINS_8irsensor21IIrSensorSystemServerENS0_4hipc6client18Hipc2ProxyKindBaseILNS7_6detail11MessageTypeE6EEENS0_25StatelessAllocationPolicyINS0_22ExpHeapStaticAllocatorILm16384ENS5_6detail20IrSensorSystemServerEEEEES6_NS3_19ProcessModifierImplINS2_21DefaultProxyFilterTagEEEEE = 0x0000000000a8c27b + __sdk_start;
_ZN2nn3web10WebSession5StartEPPNS_2os15SystemEventTypeERKNS0_14ShowWebPageArgE = 0x00000000003c9fd0 + __sdk_start;
_ZN7android18BnConsumerListener10onTransactEjRKNS_6ParcelEPS1_j = 0x000000000042bc80 + __sdk_start;
_ZN2nn5audio10MixManagerC2EPNS0_7MixInfoEiiii = 0x0000000000044290 + __sdk_start;
_ZN2nn5audio6server22PerformanceManagerImplINS1_33PerformanceManagerImplVersion1TagENS0_6common30PerformanceFrameHeaderVersion1ENS4_24PerformanceEntryVersion1ENS4_25PerformanceDetailVersion1ENS0_20PerformanceSysDetailEE15SetDetailTargetEj = 0x00000000000655e0 + __sdk_start;
nndetailImagePng_png_set_gAMA_fixed = 0x000000000028cd80 + __sdk_start;
nndetailImagePng_png_set_write_status_fn = 0x00000000002907d0 + __sdk_start;
_ZN2nn5swkbd6detail18InlineKeyboardImpl18CalcFromReplyType_ENS0_9ReplyTypeENS_6applet13StorageHandleEm = 0x000000000039d9f0 + __sdk_start;
_ZN2nn4util10BitFlagSetILi256ENS_3hid11KeyboardKeyEE4FlagILi90EE4MaskE = 0x0000000000a72058 + __sdk_start;
_ZN2nn8settings6detail24GetAmiiboEcqvCertificateEPNS0_7factory21AmiiboEcqvCertificateE = 0x000000000035eee0 + __sdk_start;
_ZTIN2nn2sf6detail38ObjectImplFactoryWithStatefulAllocatorINS0_4cmif6client6detail9CmifProxyINS_2am7service15IStorageChannelENS4_19CmifDomainProxyKindINS0_4hipc6client38Hipc2ClientSessionManagedProxyKindBaseINSC_18Hipc2ProxyKindBaseILNSB_6detail11MessageTypeE6EEEEEEENS0_30MemoryResourceAllocationPolicyENS5_19ProcessModifierImplINS4_21DefaultProxyFilterTagEEEvEESK_E6ObjectE = 0x0000000000c14030 + __sdk_start;
nncodecLibopus_silk_inner_prod16_aligned_64_c = 0x00000000000cd8e0 + __sdk_start;
_ZN2nn2sf4hipc6client24Hipc2ClientCoreProcessorILNS1_6detail11MessageTypeE6ENS0_4cmif6detail14CoreMethodInfoINSt3__15tupleIJNS7_17InRawArgumentInfoILm8ELm8ELl0EEEEEELm8ELm0ELb1EEESD_E7ProcessEPNS2_26Hipc2ClientProxyBaseObjectENS6_6client23InRawClientArgumentTypeILm8ELm8EvEEj = 0x0000000000156510 + __sdk_start;
_ZN2nn2sf4hipc6client24Hipc2ClientCoreProcessorILNS1_6detail11MessageTypeE6ENS0_4cmif6detail14CoreMethodInfoINSt3__15tupleIJNS7_18BufferArgumentInfoILi0ELi21ELm84EEENS7_17InRawArgumentInfoILm4ELm4ELl0EEEEEELm4ELm0ELb0EEESF_E7ProcessEPNS2_26Hipc2ClientProxyBaseObjectENS6_6client24BufferClientArgumentTypeENSK_23InRawClientArgumentTypeILm4ELm4EvEEj = 0x0000000000236010 + __sdk_start;
_ZN2nn3ssl5Debug5IoctlEPNS1_6OutputEPNS1_5InputENS1_12IoctlCommandE = 0x000000000039a600 + __sdk_start;
_ZN2nn4util8Vector3f13ConstantUnitZE = 0x0000000000ababc0 + __sdk_start;
_ZN2nn2sf4hipc6client24Hipc2ClientCoreProcessorILNS1_6detail11MessageTypeE6ENS0_4cmif6detail14CoreMethodInfoINSt3__15tupleIJNS7_18BufferArgumentInfoILi0ELi22ELm48EEENS7_17InRawArgumentInfoILm8ELm8ELl0EEEEEELm8ELm0ELb0EEESF_E7ProcessEPNS2_26Hipc2ClientProxyBaseObjectENS6_6client24BufferClientArgumentTypeENSK_23InRawClientArgumentTypeILm8ELm8EvEEj = 0x0000000000236d90 + __sdk_start;
_ZN2nn7nlibsdk4heap11CentralHeap17WalkAllocatedPtrsEPFiPvmS3_ES3_ = 0x00000000002ed9f0 + __sdk_start;
_ZN2nn2sf4hipc6client24Hipc2ClientCoreProcessorILNS1_6detail11MessageTypeE6ENS0_4cmif6detail14CoreMethodInfoINSt3__15tupleIJNS7_18OutRawArgumentInfoILm1ELm1ELl0EEENSB_ILm1ELm1ELl1EEENSB_ILm1ELm1ELl2EEENS7_17InRawArgumentInfoILm1ELm1ELl0EEEEEELm1ELm3ELb0EEESH_E7ProcessEPNS2_26Hipc2ClientProxyBaseObjectENS6_6client24OutRawClientArgumentTypeILm1ELm1EEESO_SO_NSM_23InRawClientArgumentTypeILm1ELm1EvEEj = 0x000000000036f640 + __sdk_start;
_ZN2nn4bcat6detail17ShimLibraryGlobal29IsDeliveryCacheStorageMountedEv = 0x0000000000082100 + __sdk_start;
_ZN2nn8settings7factory23GetEciDeviceCertificateEPNS1_24Rsa2048DeviceCertificateE = 0x000000000035abc0 + __sdk_start;
lgammaf_r = 0x0000000000547728 + __sdk_start;
_ZTSN2nn2sf6detail39ObjectImplFactoryWithStatelessAllocatorINS0_4cmif6client6detail9CmifProxyINS_7account4baas34IAsyncContextForLoginForOnlinePlayENS4_19CmifDomainProxyKindINS0_4hipc6client38Hipc2ClientSessionManagedProxyKindBaseINSC_18Hipc2ProxyKindBaseILNSB_6detail11MessageTypeE6EEEEEEENS0_25StatelessAllocationPolicyINS0_22ExpHeapStaticAllocatorILm2048ENS7_6detail12ObjectHolder24ObjectHolderAllocatorTagEEEEENS5_19ProcessModifierImplINS4_21DefaultProxyFilterTagEEEvEESQ_E6ObjectE = 0x0000000000a291fc + __sdk_start;
silk_Transition_LP_A_Q28 = 0x0000000000a5469c + __sdk_start;
pthread_cond_init = 0x000000000051b820 + __sdk_start;
_ZN2nn4util6detail20FileOutputStreamImpl5WriteEPKvm = 0x00000000003b61c0 + __sdk_start;
_ZN2nn3web11ShowWebPageEPNS0_18WebPageReturnValueERKNS0_14ShowWebPageArgE = 0x00000000003c5900 + __sdk_start;
_ZN7android7IBinderD2Ev = 0x0000000000419460 + __sdk_start;
_ZTSN2nn2sf6detail39ObjectImplFactoryWithStatelessAllocatorINS0_4cmif6client6detail9CmifProxyINS_7account6detail9INotifierENS4_19CmifDomainProxyKindINS0_4hipc6client38Hipc2ClientSessionManagedProxyKindBaseINSC_18Hipc2ProxyKindBaseILNSB_6detail11MessageTypeE6EEEEEEENS0_25StatelessAllocationPolicyINS0_22ExpHeapStaticAllocatorILm2048ENS8_12ObjectHolder24ObjectHolderAllocatorTagEEEEENS5_19ProcessModifierImplINS4_21DefaultProxyFilterTagEEEvEESP_E6ObjectE = 0x0000000000a2a52e + __sdk_start;
_ZN7android6Region7xorSelfERKS0_ii = 0x000000000044ae90 + __sdk_start;
_ZNK2nn7account25CachedNintendoAccountInfo11GetBirthdayEPm = 0x0000000000014860 + __sdk_start;
_ZN2nn2sf4cmif6client6detail36GetClientProcessorImplWithObjectBaseINS2_19CmifDomainProxyKindINS0_4hipc6client38Hipc2ClientSessionManagedProxyKindBaseINS7_18Hipc2ProxyKindBaseILNS6_6detail11MessageTypeE6EEEEEEENS3_19ProcessModifierImplINS2_21DefaultProxyFilterTagEEEE14ObjectAssignerINS0_30MemoryResourceAllocationPolicyENS_14MemoryResourceEE14AllocateObjectINS_2am7service17IOverlayFunctionsEEEvi = 0x000000000002ef50 + __sdk_start;
_ZTIN2nn2sf4cmif6client6detail9CmifProxyINS_2am7service22ILibraryAppletAccessorENS2_19CmifDomainProxyKindINS0_4hipc6client38Hipc2ClientSessionManagedProxyKindBaseINSA_18Hipc2ProxyKindBaseILNS9_6detail11MessageTypeE6EEEEEEENS0_30MemoryResourceAllocationPolicyENS3_19ProcessModifierImplINS2_21DefaultProxyFilterTagEEEvEE = 0x0000000000c14d28 + __sdk_start;
_ZN2nn5codec24FreeRam_TransportDecoderEPPNS0_12TRANSPORTDECE = 0x000000000010d280 + __sdk_start;
_ZN2nn2os21GetSharedMemoryHandleEPKNS0_16SharedMemoryTypeE = 0x000000000033cc80 + __sdk_start;
_ZN2nn3hid6system6detail30DeleteButtonConfigStorageRightEi = 0x000000000021f470 + __sdk_start;
nndetailImagePng_png_set_tRNS = 0x000000000028dd80 + __sdk_start;
_ZNK2nn3mii6detail12StoreDataRaw9IsSpecialEv = 0x00000000002fa6a0 + __sdk_start;
_ZN2nn4time40SetStandardNetworkSystemClockCurrentTimeERKNS0_9PosixTimeE = 0x00000000003a1ee0 + __sdk_start;
_ZN2nn2sf4cmif6client6detail13CmifProxyImplINS_5visrv2sf22IManagerDisplayServiceENS0_4hipc6client18Hipc2ProxyKindBaseILNS8_6detail11MessageTypeE6EEENS0_30MemoryResourceAllocationPolicyES7_NS3_19ProcessModifierImplINS2_21DefaultProxyFilterTagEEEE49_nn_sf_sync_DisableLayerAutoClearTransitionBufferEm = 0x00000000003bb7a0 + __sdk_start;
_ZN2nn2sf4cmif6client34CmifDomainProxyClientCoreProcessorINS0_4hipc6client38Hipc2ClientSessionManagedProxyKindBaseINS5_18Hipc2ProxyKindBaseILNS4_6detail11MessageTypeE6EEEEENS1_6detail14CoreMethodInfoINSt3__15tupleIJNSC_18OutRawArgumentInfoILm4ELm4ELl0EEENSC_17InRawArgumentInfoILm16ELm8ELl0EEEEEELm16ELm4ELb0EEESK_E7ProcessEPNS2_23CmifDomainClientMessageISB_E15ProxyBaseObjectENS2_24OutRawClientArgumentTypeILm4ELm4EEENS2_23InRawClientArgumentTypeILm16ELm8EvEEj = 0x00000000001a3b20 + __sdk_start;
_ZN2nn2sf4cmif6client6detail13CmifProxyImplINS_4pctl6detail3ipc23IParentalControlServiceENS2_19CmifDomainProxyKindINS0_4hipc6client38Hipc2ClientSessionManagedProxyKindBaseINSB_18Hipc2ProxyKindBaseILNSA_6detail11MessageTypeE6EEEEEEENS0_30MemoryResourceAllocationPolicyES8_NS3_19ProcessModifierImplINS2_21DefaultProxyFilterTagEEEE33_nn_sf_sync_PostEnableAllFeaturesENS0_3OutIbvEE = 0x0000000000349870 + __sdk_start;
_ZN2nn8settings6system20SetUsbFullKeyEnabledEb = 0x000000000035b380 + __sdk_start;
_ZN2nn2sf4cmif6client6detail13CmifProxyImplINS_8settings21ISystemSettingsServerENS0_4hipc6client18Hipc2ProxyKindBaseILNS7_6detail11MessageTypeE6EEENS0_30MemoryResourceAllocationPolicyES6_NS3_19ProcessModifierImplINS2_21DefaultProxyFilterTagEEEE45_nn_sf_sync_SetButtonConfigRegisteredSettingsERKNS0_7InArrayINS5_6system30ButtonConfigRegisteredSettingsEEE = 0x000000000036d9b0 + __sdk_start;
_ZN2nn2fs3dbm23DirectoryObjectTemplateINS1_13DirectoryNameENS1_8FileNameEE8FindOpenEv = 0x00000000001c2130 + __sdk_start;
_ZN2nn4htcs6detail8shutdownENS_2sf13SharedPointerINS_3tma7ISocketEEEiRi = 0x0000000000246630 + __sdk_start;
_ZN2nn3mem19NumberLineAllocator8AllocateEPiiiPvPFvS3_E = 0x00000000002f0570 + __sdk_start;
fmaf = 0x0000000000541a80 + __sdk_start;
_ZTIN2nn2sf4cmif6client6detail13CmifProxyImplINS_7friends6detail3ipc28IDaemonSuspendSessionServiceENS2_19CmifDomainProxyKindINS0_4hipc6client38Hipc2ClientSessionManagedProxyKindBaseINSB_18Hipc2ProxyKindBaseILNSA_6detail11MessageTypeE6EEEEEEENS0_30MemoryResourceAllocationPolicyES8_NS3_19ProcessModifierImplINS2_21DefaultProxyFilterTagEEEEE = 0x0000000000c1f130 + __sdk_start;
_ZN2nn3hid6system11ActivateNfcEj = 0x0000000000227f10 + __sdk_start;
_ZN2nn3mii14UpdateMiiImageEPiRKNS_4util4UuidEPS4_i = 0x00000000003079c0 + __sdk_start;
sincos = 0x000000000054a458 + __sdk_start;
FDKfwrite = 0x0000000000131f20 + __sdk_start;
_ZN2nn3hid15KeyCodeComposer14DequeueOutputsEPti = 0x0000000000213090 + __sdk_start;
_ZN2nn3hid6system6detail20GetNpadInterfaceTypeEPhS3_RKj = 0x0000000000220b40 + __sdk_start;
_ZTIN2nn2sf4cmif6client6detail13CmifProxyImplINS_7account19IAccountServiceBaseENS2_19CmifDomainProxyKindINS0_4hipc6client38Hipc2ClientSessionManagedProxyKindBaseINS9_18Hipc2ProxyKindBaseILNS8_6detail11MessageTypeE6EEEEEEENS0_25StatelessAllocationPolicyINS0_22ExpHeapStaticAllocatorILm2048ENS5_6detail12ObjectHolder24ObjectHolderAllocatorTagEEEEENS5_29IAccountServiceForApplicationENS3_19ProcessModifierImplINS2_21DefaultProxyFilterTagEEEEE = 0x0000000000c0d2c8 + __sdk_start;
_ZN2nn5codec31FreeAacDecoderStaticChannelInfoEPPNS0_28CAacDecoderStaticChannelInfoE = 0x00000000000e2140 + __sdk_start;
FDKstrchr = 0x0000000000131cc0 + __sdk_start;
_ZNK2nn3mii8CoreDataneERKS1_ = 0x00000000002f21e0 + __sdk_start;
_ZNK2nn7account6detail18OAuthProcedureBase6GetPtrEv = 0x00000000000010d0 + __sdk_start;
_ZN2nn2sf4cmif6client6detail13CmifProxyImplINS_2am7service19ILibraryAppletProxyENS2_19CmifDomainProxyKindINS0_4hipc6client38Hipc2ClientSessionManagedProxyKindBaseINSA_18Hipc2ProxyKindBaseILNS9_6detail11MessageTypeE6EEEEEEENS0_30MemoryResourceAllocationPolicyES7_NS3_19ProcessModifierImplINS2_21DefaultProxyFilterTagEEEE41_nn_sf_sync_OpenLibraryAppletSelfAccessorENS0_3OutINS0_13SharedPointerINS6_26ILibraryAppletSelfAccessorEEEvEE = 0x000000000002c810 + __sdk_start;
_ZN2nn5codec33FDK_sbrDecoder_sbr_frame_info1_16E = 0x0000000000a635c6 + __sdk_start;
_ZN2nn3mii6detail11CoreDataRaw9SetMouthYEi = 0x00000000002f6420 + __sdk_start;
_ZTVNSt3__117moneypunct_bynameIwLb0EEE = 0x0000000000c47e10 + __sdk_start;
_ZNK2nn7account13ProfileEditor19GetProfileImageSizeEPm = 0x0000000000018e90 + __sdk_start;
_ZN2nn5audio33GetAudioRendererElapsedFrameCountEPKNS0_19AudioRendererConfigE = 0x000000000003d770 + __sdk_start;
_ZN2nn5audio6server6detail19FinalizeAudioDeviceERKNS_6applet20AppletResourceUserIdE = 0x000000000006cc00 + __sdk_start;
_ZN2nn2sf4cmif6client6detail13CmifProxyImplINS_3nsd6detail8IManagerENS0_4hipc6client18Hipc2ProxyKindBaseILNS8_6detail11MessageTypeE6EEENS0_30MemoryResourceAllocationPolicyES7_NS3_19ProcessModifierImplINS2_21DefaultProxyFilterTagEEEE29_nn_sf_sync_GetCurrentSettingENS0_3OutINS5_8SaveDataEvEE = 0x00000000003343d0 + __sdk_start;
nnResultGetModule = 0x00000000003556e0 + __sdk_start;
_ZN7android6Thread11_threadLoopEPv = 0x00000000004507a0 + __sdk_start;
_ZN2nn2sf4cmif6client6detail13CmifProxyImplINS_4npns9INpnsUserENS0_4hipc6client18Hipc2ProxyKindBaseILNS7_6detail11MessageTypeE6EEENS0_30MemoryResourceAllocationPolicyENS5_11INpnsSystemENS3_19ProcessModifierImplINS2_21DefaultProxyFilterTagEEEE25_nn_sf_sync_GetStatisticsERKNS0_9OutBufferE = 0x0000000000331090 + __sdk_start;
fmal = 0x0000000000545cb0 + __sdk_start;
wprintf = 0x0000000000552c18 + __sdk_start;
_ZN2nn5audio12SetDelayTimeEPNS0_9DelayTypeENS_8TimeSpanE = 0x0000000000040df0 + __sdk_start;
_ZNK2nn5audio6server13EffectContext7GetInfoEi = 0x0000000000066b10 + __sdk_start;
_ZN2nn2ec6detail33ShowShopInformationWithParamsImplENS1_10LaunchModeEPKcRKNS_7account3UidENS0_8SourceIdE = 0x00000000001548e0 + __sdk_start;
FDKstrncmp = 0x0000000000131d80 + __sdk_start;
_ZN2nn3mii6detail12StoreDataRaw11SetEyeColorEi = 0x00000000002fa420 + __sdk_start;
_ZN3nne4nlib15NullInputStreamC1Ev = 0x00000000003b5760 + __sdk_start;
_ZN2nn5audio6server11SinkContextC2Ev = 0x0000000000068ee0 + __sdk_start;
_ZTINSt3__113basic_istreamIcNS_11char_traitsIcEEEE = 0x0000000000c45de8 + __sdk_start;
_ZN2nn8irsensor22RunTeraPluginProcessorERKNS0_14IrCameraHandleERKNS0_25TeraPluginProcessorConfigE = 0x00000000002aa300 + __sdk_start;
_ZNSt3__113random_deviceD1Ev = 0x00000000004e4580 + __sdk_start;
_ZTSN2nn2fs6detail26EventNotifierObjectAdapterE = 0x0000000000a69dec + __sdk_start;
_ZTSN2nn2sf4cmif6client6detail13CmifProxyImplINS_6jitsrv11IJitServiceENS0_4hipc6client18Hipc2ProxyKindBaseILNS7_6detail11MessageTypeE6EEENS0_30MemoryResourceAllocationPolicyES6_NS3_19ProcessModifierImplINS2_21DefaultProxyFilterTagEEEEE = 0x0000000000a8de44 + __sdk_start;
nnsslConnectionPending = 0x0000000000396fe0 + __sdk_start;
_ZTSN2nn5visrv2sf21ISystemDisplayServiceE = 0x0000000000abbbe2 + __sdk_start;
_ZN2nn2sf4hipc6client34HipcSimpleClientSessionManagerBaseINS2_29DefaultSessionResourceManagerEE4Impl19SetSessionCountImplEi = 0x0000000000004df0 + __sdk_start;
_ZTIN2nn2sf4cmif6client6detail13CmifProxyImplINS_7account4baas24IManagerForSystemServiceENS2_19CmifDomainProxyKindINS0_4hipc6client38Hipc2ClientSessionManagedProxyKindBaseINSA_18Hipc2ProxyKindBaseILNS9_6detail11MessageTypeE6EEEEEEENS0_25StatelessAllocationPolicyINS0_22ExpHeapStaticAllocatorILm2048ENS5_6detail12ObjectHolder24ObjectHolderAllocatorTagEEEEES7_NS3_19ProcessModifierImplINS2_21DefaultProxyFilterTagEEEEE = 0x0000000000c0e030 + __sdk_start;
_ZN2nn2sf4cmif6client6detail13CmifProxyImplINS_3hid16IHidSystemServerENS0_4hipc6client18Hipc2ProxyKindBaseILNS7_6detail11MessageTypeE6EEENS0_30MemoryResourceAllocationPolicyES6_NS3_19ProcessModifierImplINS2_21DefaultProxyFilterTagEEEE34_nn_sf_sync_SetDefaultButtonConfigENS5_6system11UniquePadIdE = 0x0000000000232a60 + __sdk_start;
_ZN2nn6socket30RegisterResourceStatisticsNameEPKcm = 0x000000000037c270 + __sdk_start;
_ZNSt3__119__thread_local_dataEv = 0x00000000004ef510 + __sdk_start;
_ZNK2nn7friends6Friend11GetNicknameEv = 0x000000000019e3a0 + __sdk_start;
_ZN2nn2ec9MakeNsUidEPKc = 0x0000000000153480 + __sdk_start;
_ZN2nn2os6detail23SetMemoryPermissionImplEmmNS0_16MemoryPermissionE = 0x0000000000343c10 + __sdk_start;
NvRmMemHandleCreate = 0x00000000003e0520 + __sdk_start;
_ZTSNSt3__115__codecvt_utf16IwLb1EEE = 0x0000000000ac76a3 + __sdk_start;
_ZN2nn5audio6common19WorkBufferAllocatorC1EPvm = 0x00000000000496b0 + __sdk_start;
_ZTIN2nn5fssrv2sf8IStorageE = 0x0000000000c20fd8 + __sdk_start;
_ZN22nerd_gillette_internal5otete11ImageCodec213EncodeInPlaceERNS0_17MaxSizedBitStreamILm300EEERKNS_15StaticImageViewIhEE = 0x00000000002b5770 + __sdk_start;
_ZNK2nn3mii16CharInfoAccessor16GetFavoriteColorEv = 0x00000000002f15a0 + __sdk_start;
_ZN2nn8settings6detail19GetConfigurationId1EPNS0_7factory16ConfigurationId1E = 0x00000000003616f0 + __sdk_start;
_ZN2nn8settings6detail12SetQuestFlagEb = 0x0000000000365960 + __sdk_start;
_ZNK7android22IGraphicBufferConsumer10BufferItem16getFlattenedSizeEv = 0x00000000004294c0 + __sdk_start;
_ZN2nn5audio6common11SupportTags14InitialReleaseE = 0x0000000000c17ca8 + __sdk_start;
_ZN2nn2fs17SaveDataAttribute4MakeEPS1_NS_3ncm9ProgramIdENS0_12SaveDataTypeENS0_6UserIdEmt = 0x00000000001b1c00 + __sdk_start;
_ZN2nn2fs3dbm29HierarchicalFileTableTemplateINS1_13DirectoryNameENS1_8FileNameENS1_6detail13DirectoryInfoENS5_8FileInfoEE28UpdateFileInformationFromKeyERKNS8_7FileKeyERKS7_ = 0x00000000001c5040 + __sdk_start;
nnmem_nlib_vsnwprintf_fallback = 0x00000000002d5660 + __sdk_start;
__udivdi3 = 0x00000000005144a0 + __sdk_start;
_ZN2nn2sf4cmif6client34CmifDomainProxyClientCoreProcessorINS0_4hipc6client38Hipc2ClientSessionManagedProxyKindBaseINS5_18Hipc2ProxyKindBaseILNS4_6detail11MessageTypeE6EEEEENS1_6detail14CoreMethodInfoINSt3__15tupleIJNSC_18OutRawArgumentInfoILm4ELm4ELl0EEENSG_ILm8ELm8ELl8EEENSG_ILm4ELm4ELl4EEENSC_18BufferArgumentInfoILi0ELi70ELm0EEENSK_ILi1ELi69ELm0EEENSC_17InRawArgumentInfoILm1ELm1ELl0EEEEEELm1ELm16ELb0EEESP_E7ProcessEPNS2_23CmifDomainClientMessageISB_E15ProxyBaseObjectENS2_24OutRawClientArgumentTypeILm4ELm4EEENSW_ILm8ELm8EEESX_NS2_24BufferClientArgumentTypeESZ_NS2_23InRawClientArgumentTypeILm1ELm1EvEEj = 0x00000000000e17c0 + __sdk_start;
nnmem_nlib_taskgroup_submit = 0x00000000002e4380 + __sdk_start;
_ZN2nn8settings6detail27SetPtmCycleCountReliabilityENS0_6system24PtmCycleCountReliabilityE = 0x0000000000364650 + __sdk_start;
_ZN2nn8settings6detail11GetThemeKeyEPNS_8fssystem13ArchiveMacKeyE = 0x0000000000365c00 + __sdk_start;
nnmem_nlib_int8_from_chars = 0x00000000002dc130 + __sdk_start;
_ZN2nn3mem22NumberLineAllocatorPrvD2Ev = 0x00000000002ee920 + __sdk_start;
_ZN2nn3ngc6detail2BpD2Ev = 0x000000000031a710 + __sdk_start;
_ZN2nn8settings7factory13GetBatteryLotEPNS0_10BatteryLotE = 0x00000000003597d0 + __sdk_start;
_ZN2nn8settings6system23GetNxControllerSettingsEPNS1_20NxControllerSettingsEi = 0x000000000035b470 + __sdk_start;
_ZTIN2nn2sf4hipc6server25HipcServerSessionManagerTINS0_4cmif6server20CmifServerObjectInfoEEE = 0x0000000000c31200 + __sdk_start;
_ZN2nn3web14ShowWebPageArg18SetWebAudioEnabledEb = 0x00000000003c9450 + __sdk_start;
NvOsVsnprintf = 0x00000000003d8650 + __sdk_start;
_ZTSSt15underflow_error = 0x0000000000ac98ac + __sdk_start;
fmax = 0x0000000000541a88 + __sdk_start;
_ZNK2nn5audio6server12SinkInfoBase10ShouldSkipEv = 0x0000000000068b50 + __sdk_start;
_ZN2nn7friends6detail3ipc19CreateFriendServiceEPPNS2_14IFriendServiceE = 0x00000000001a0400 + __sdk_start;
_ZN2nn8settings6detail31CreateSystemSettingsServerProxyEPNS_2sf13SharedPointerINS0_21ISystemSettingsServerEEE = 0x000000000036b870 + __sdk_start;
_ZTSNSt3__110moneypunctIcLb0EEE = 0x0000000000ac7d77 + __sdk_start;
__nx_pthread_detached_thread_register = 0x000000000055cae0 + __sdk_start;
_ZN2nn3grc23CompleteFinishMovieFileEPNS_6capsrv21ApplicationAlbumEntryEPNS0_10MovieLayerERKNS_2sf8InBufferES9_NS_5album9ImageSizeE = 0x0000000000203ab0 + __sdk_start;
_ZN2nn5audio19SetVoiceDestinationEPNS0_19AudioRendererConfigEPNS0_9VoiceTypeEPNS0_12SplitterTypeE = 0x0000000000047760 + __sdk_start;
_ZNK2nn6crypto6detail10Sha512Impl10GetContextEPNS0_13Sha512ContextE = 0x000000000013eb10 + __sdk_start;
_ZN2nn2sf4cmif6client6detail13CmifProxyImplINS_3hid10IHidServerENS0_4hipc6client18Hipc2ProxyKindBaseILNS7_6detail11MessageTypeE6EEENS0_30MemoryResourceAllocationPolicyES6_NS3_19ProcessModifierImplINS2_21DefaultProxyFilterTagEEEE40_nn_sf_sync_GetNpadOfHighestBatteryLevelENS0_3OutIjvEERKNS0_7InArrayIjEENS_6applet20AppletResourceUserIdE = 0x0000000000229870 + __sdk_start;
pthread_mutexattr_settype = 0x000000000051b990 + __sdk_start;
_ZTVN3nne4nlib15NullInputStreamE = 0x0000000000c331f8 + __sdk_start;
_ZNKSt3__110moneypunctIwLb0EE16do_decimal_pointEv = 0x00000000004c3928 + __sdk_start;
_ZN2nn5audio23SplitterDestinationData8FinalizeEv = 0x0000000000046a10 + __sdk_start;
_ZNSt3__16futureIvE3getEv = 0x00000000004a46c8 + __sdk_start;
_ZNSt3__110__time_getC2EPKc = 0x00000000004d9920 + __sdk_start;
_ZN2nn2sf4cmif6client6detail13CmifProxyImplINS_2am7service26ILibraryAppletSelfAccessorENS2_19CmifDomainProxyKindINS0_4hipc6client38Hipc2ClientSessionManagedProxyKindBaseINSA_18Hipc2ProxyKindBaseILNS9_6detail11MessageTypeE6EEEEEEENS0_30MemoryResourceAllocationPolicyES7_NS3_19ProcessModifierImplINS2_21DefaultProxyFilterTagEEEE17GetCmifBaseObjectEv = 0x000000000002d240 + __sdk_start;
nndetailImagePng_png_get_unknown_chunks = 0x000000000027b8d0 + __sdk_start;
_ZN2nn6socket8SendMMsgEiPNS0_7MMsgHdrEmNS0_7MsgFlagE = 0x000000000037bfa0 + __sdk_start;
_ZN2nn4util9UriParser5ParseEPKcmNS1_6OptionE = 0x00000000003afda0 + __sdk_start;
strspn = 0x00000000005555a8 + __sdk_start;
nnResultGetDescription = 0x00000000003556f0 + __sdk_start;
_ZN2nn8settings7factory31SetInitialSystemAppletProgramIdERKNS_3ncm9ProgramIdE = 0x0000000000359ce0 + __sdk_start;
strtold_l = 0x0000000000530518 + __sdk_start;
_ZN2nn5audio22AudioRendererParameter12SinkCountMaxE = 0x0000000000a3b48c + __sdk_start;
_ZN2nn5codec5f2PowEii = 0x0000000000102860 + __sdk_start;
_ZN2nn3hid6detail13ReadPalmaStepERKNS0_21PalmaConnectionHandleE = 0x000000000020b340 + __sdk_start;
_ZN2nn2sf4cmif6client6detail13CmifProxyImplINS_4npns21INotificationReceiverENS0_4hipc6client18Hipc2ProxyKindBaseILNS7_6detail11MessageTypeE6EEENS0_30MemoryResourceAllocationPolicyES6_NS3_19ProcessModifierImplINS2_21DefaultProxyFilterTagEEEE35_nn_sf_sync_ListenToMyApplicationIdEm = 0x0000000000330b50 + __sdk_start;
_ZN2nn2sf4hipc6client24Hipc2ClientCoreProcessorILNS1_6detail11MessageTypeE6ENS0_4cmif6detail14CoreMethodInfoINSt3__15tupleIJNS7_18OutRawArgumentInfoILm4ELm4ELl0EEENS7_17InRawArgumentInfoILm8ELm8ELl32EEENS7_20InHandleArgumentInfoILi0ELi1EEENSD_ILm8ELm8ELl40EEENSD_ILm32ELm4ELl0EEEEEELm48ELm4ELb1EEESJ_E7ProcessEPNS2_26Hipc2ClientProxyBaseObjectENS6_6client24OutRawClientArgumentTypeILm4ELm4EEENSO_23InRawClientArgumentTypeILm8ELm8EvEENSO_26InHandleClientArgumentTypeESS_NSR_ILm32ELm4EvEEj = 0x00000000003880d0 + __sdk_start;
_ZN2nn4time6detail7service27StaticServiceProviderClient8FinalizeEv = 0x00000000003a4000 + __sdk_start;
_ZN2nn5audio19SetReverbColorationEPNS0_10ReverbTypeEf = 0x0000000000042ed0 + __sdk_start;
_ZN2nn6crypto6detail11XtsModeImplD1Ev = 0x000000000013f320 + __sdk_start;
_ZN2nn2ec28AsyncConsumeRightDataRequest5BeginEv = 0x0000000000149070 + __sdk_start;
strncat = 0x0000000000555440 + __sdk_start;
_ZN2nn2vi13ObjectManager27CreateValidateDisplayHolderEmPKc = 0x00000000003c26a0 + __sdk_start;
_ZN2nn4diag34InitializeApplicationAbortObserverEv = 0x0000000000147580 + __sdk_start;
_ZN2nn7friends6detail13AsyncFunctionIJPNS1_3ipc14IFriendServiceENS_7account3UidENS6_23NetworkServiceAccountIdENS0_15InAppScreenNameES9_EED0Ev = 0x000000000019d990 + __sdk_start;
_ZN2nn2sf4cmif6client6detail13CmifProxyImplINS_4npns9INpnsUserENS0_4hipc6client18Hipc2ProxyKindBaseILNS7_6detail11MessageTypeE6EEENS0_30MemoryResourceAllocationPolicyES6_NS3_19ProcessModifierImplINS2_21DefaultProxyFilterTagEEEE31_nn_sf_sync_GetStateChangeEventENS0_3OutINS0_12NativeHandleEvEE = 0x0000000000330000 + __sdk_start;
__nnmusl_is_rooted_path = 0x000000000055a0a8 + __sdk_start;
nncodecLibopus_amp2Log2 = 0x00000000000ae980 + __sdk_start;
_ZN2nn2fs15RomFsFileSystem17GetFileBaseOffsetEPlPKc = 0x00000000001b15e0 + __sdk_start;
_ZNK2nn3mii6detail16Ver3StoreDataRaw11GetMoleTypeEv = 0x00000000002fdd70 + __sdk_start;
_ZZN2nn2sf40SimpleAllInOneHipcSubDomainClientManagerILm5EE27InitializeShimLibraryHolderINS_7timesrv6detail7service14IStaticServiceENS0_4cmif6client6detail19ProcessModifierImplINS9_21DefaultProxyFilterTagEEEEENS_6ResultEPNS0_23ShimLibraryObjectHolderIT_EEPKcPNS_14MemoryResourceEENKUlPvE_clESN_ = 0x00000000003a7140 + __sdk_start;
_ZN3nne4nlib12OutputStreamD0Ev = 0x00000000003b5e20 + __sdk_start;
_ZN2nn2sf4cmif6client6detail13CmifProxyImplINS_2am7service18IDisplayControllerENS2_19CmifDomainProxyKindINS0_4hipc6client38Hipc2ClientSessionManagedProxyKindBaseINSA_18Hipc2ProxyKindBaseILNS9_6detail11MessageTypeE6EEEEEEENS0_30MemoryResourceAllocationPolicyES7_NS3_19ProcessModifierImplINS2_21DefaultProxyFilterTagEEEE48_nn_sf_sync_AcquireLastForegroundCaptureBufferExENS0_3OutIbvEENSN_INS0_12NativeHandleEvEE = 0x0000000000027310 + __sdk_start;
_ZNK2nn5audio6server10PoolMapper17ForceUnmapPointerEPNS1_11AddressInfoE = 0x0000000000067040 + __sdk_start;
_ZN2nn3hid6system29GetAllowedBluetoothLinksCountEv = 0x00000000002250c0 + __sdk_start;
_ZN2nn3mii6detail12StoreDataRaw12SetNoseScaleEi = 0x00000000002fa500 + __sdk_start;
_ZN2nn4diag13OnResultCatchENS_6ResultERKNS0_10SourceInfoE = 0x0000000000145a20 + __sdk_start;
nnmem_nlib_strchr_generic = 0x00000000002ceb70 + __sdk_start;
_ZNKSt3__17codecvtIcc11__mbstate_tE9do_lengthERS1_PKcS5_m = 0x00000000004d3c58 + __sdk_start;
_ZTIN2nn2sf22UnitHeapMemoryResourceE = 0x0000000000c0ee38 + __sdk_start;
_ZN2nn2sf4cmif6client6detail13CmifProxyImplINS_3hid16IHidSystemServerENS0_4hipc6client18Hipc2ProxyKindBaseILNS7_6detail11MessageTypeE6EEENS0_30MemoryResourceAllocationPolicyES6_NS3_19ProcessModifierImplINS2_21DefaultProxyFilterTagEEEE37_nn_sf_sync_IsUsingCustomButtonConfigENS0_3OutIbvEENS5_6system11UniquePadIdE = 0x00000000002329f0 + __sdk_start;
_ZN2nn5swkbd6detail18InlineKeyboardImpl22SetMovedCursorCallbackEPFvPKNS0_14MovedCursorArgEbE = 0x000000000039e7d0 + __sdk_start;
nvnBootstrapLoader = 0x0000000000496580 + __sdk_start;
__nnmusl_DirClose = 0x000000000055a698 + __sdk_start;
_ZN2nn2sf4hipc6client22Hipc2ClientMessageBase19WriteBufferDataImplEPNS1_6detail17HipcMessageWriterERKNS0_4cmif6client21CmifClientMessageInfoERKNS3_22SpecificMethodMetaInfoE = 0x0000000000005bc0 + __sdk_start;
_ZN2nn5codec12KBDWindow120E = 0x0000000000a5fbb0 + __sdk_start;
_ZN2nn8settings5fwdbg19SetHostFsMountPointERKNS0_6system16HostFsMountPointE = 0x000000000035e720 + __sdk_start;
memset = 0x0000000000531208 + __sdk_start;
nvgr_get_surfaces = 0x0000000000403a00 + __sdk_start;
_ZN2nn5audio6server24AudioRendererManagerImpl15AudioDeviceImpl23ListAudioDeviceNameAutoERKNS_2sf9OutBufferENS4_3OutIivEE = 0x000000000006c7b0 + __sdk_start;
_ZTVN2nn5audio6detail21IAudioRendererManagerE = 0x0000000000c19f90 + __sdk_start;
_ZN2nn2fs6detail24SaveDataExporterVersion2D0Ev = 0x00000000001f6b30 + __sdk_start;
_ZN2nn3hid20GetTouchScreenStatesILm12EEEiPNS0_16TouchScreenStateIXT_EEEi = 0x00000000002172b0 + __sdk_start;
_ZTSN2nn6capsrv2sf32IAlbumAccessorApplicationSessionE = 0x0000000000a4faca + __sdk_start;
_ZN2nn4edid6detail31PhysicalAddressDataBlockVisitorEPKhmNS0_6cea8618BlockTagEPv = 0x0000000000159860 + __sdk_start;
_ZN22nerd_gillette_internal5otete7jaimev127DecodeFullSilhouetteImplROKINS_15NumericalVectorIfLm2EEEPFS4_NS3_IsLm2EEEEEEbRNS_30ContiguousStorageContainerBaseIT_Lb1EEERNS0_14InputBitStreamERKNS1_23FullSilhouetteCodecDataET0_ = 0x00000000002bb720 + __sdk_start;
_ZN2nn2ro6detail8RoModule8CallInitEv = 0x0000000000357580 + __sdk_start;
_ZN2nn5audio6server12SplitterInfoC2Ei = 0x0000000000069230 + __sdk_start;
_ZN2nn5audio6common17DumpCommandHeaderEPKNS0_13CommandHeaderE = 0x000000000006ccc0 + __sdk_start;
_ZN2nn2sf4cmif6client6detail13CmifProxyImplINS_6capsrv2sf32IAlbumAccessorApplicationSessionENS0_4hipc6client18Hipc2ProxyKindBaseILNS8_6detail11MessageTypeE6EEENS0_30MemoryResourceAllocationPolicyES7_NS3_19ProcessModifierImplINS2_21DefaultProxyFilterTagEEEE17GetCmifBaseObjectEv = 0x0000000000098b70 + __sdk_start;
_ZN2nn5codec20DecodeAacInterleavedEPNS0_14AacDecoderTypeEPmPiPsmPKvm = 0x00000000001325e0 + __sdk_start;
nnmem_nlib_mlock = 0x00000000002dfec0 + __sdk_start;
_ZN2nn2sf4cmif6client6detail13CmifProxyImplINS_5visrv2sf22IManagerDisplayServiceENS0_4hipc6client18Hipc2ProxyKindBaseILNS8_6detail11MessageTypeE6EEENS0_30MemoryResourceAllocationPolicyES7_NS3_19ProcessModifierImplINS2_21DefaultProxyFilterTagEEEE50_nn_sf_sync_BindSharedLowLevelLayerToIndirectLayerEmNS_6applet20AppletResourceUserIdE = 0x00000000003bb910 + __sdk_start;
NvOsSharedMemMap = 0x00000000003d90d0 + __sdk_start;
_ZN2nn3btm4user21StartBleScanForPairedERKNS_9bluetooth27BleAdvertisePacketParameterE = 0x0000000000091c00 + __sdk_start;
_ZN2nn3ngc6detail14ContentsReader14GetVersionDataEPvj = 0x0000000000316700 + __sdk_start;
_ZN2nn2sf4cmif6client6detail13CmifProxyImplINS_2am7service17IOverlayFunctionsENS2_19CmifDomainProxyKindINS0_4hipc6client38Hipc2ClientSessionManagedProxyKindBaseINSA_18Hipc2ProxyKindBaseILNS9_6detail11MessageTypeE6EEEEEEENS0_30MemoryResourceAllocationPolicyES7_NS3_19ProcessModifierImplINS2_21DefaultProxyFilterTagEEEE44_nn_sf_sync_TerminateApplicationAndSetReasonEj = 0x000000000002f130 + __sdk_start;
_ZTSN2nn5audio6server13CommandBufferE = 0x0000000000a435bb + __sdk_start;
_ZN2nn5audio6common11DumpCommandEPKNS0_33PcmInt16DataSourceCommandVersion1E = 0x000000000006ccd0 + __sdk_start;
_ZN2nn3hid6detail20SharedMemoryAccessor33SetResultActivationUpperLimitOverENS_6ResultE = 0x000000000020c500 + __sdk_start;
_ZNKSt3__18numpunctIcE16do_thousands_sepEv = 0x00000000004d7ee8 + __sdk_start;
_ZTSN2nn2am7service24ITransferStorageAccessorE = 0x0000000000a31d7e + __sdk_start;
FDKfflush = 0x0000000000131f10 + __sdk_start;
_ZN2nn4util12GenerateUuidEv = 0x00000000003b6d90 + __sdk_start;
_ZN2nn3hid6system6detail15GetButtonConfigEPNS_9hidconfig16ButtonConfigFullERKNS1_11UniquePadIdE = 0x000000000021f9b0 + __sdk_start;
NvOsEventWait = 0x00000000003d7b00 + __sdk_start;
_ZN7android8String16C1ERKS0_mm = 0x000000000044d260 + __sdk_start;
_ZN2nn14MemoryResourceD2Ev = 0x0000000000013f60 + __sdk_start;
_ZN2nn3ngc46EnableManagementFunctionForPlatformRegionChinaEv = 0x0000000000322540 + __sdk_start;
_ZN2nn2sf4cmif6client34CmifDomainProxyClientCoreProcessorINS0_4hipc6client38Hipc2ClientSessionManagedProxyKindBaseINS5_18Hipc2ProxyKindBaseILNS4_6detail11MessageTypeE6EEEEENS1_6detail14CoreMethodInfoINSt3__15tupleIJNSC_18BufferArgumentInfoILi0ELi26ELm208EEENSC_17InRawArgumentInfoILm1ELm1ELl0EEEEEELm1ELm0ELb0EEESK_E7ProcessEPNS2_23CmifDomainClientMessageISB_E15ProxyBaseObjectENS2_24BufferClientArgumentTypeENS2_23InRawClientArgumentTypeILm1ELm1EvEEj = 0x00000000003a6ac0 + __sdk_start;
_ZN22nerd_gillette_internal5otete7jaimev123EncodeFullSilhouetteROKERNS0_17MaxSizedBitStreamILm300EEENS_20ContiguousMemoryViewIKNS_15NumericalVectorIsLm2EEELb0EEERKNS1_23FullSilhouetteCodecDataE = 0x00000000002b9dd0 + __sdk_start;
_ZN2nn5audio19ResampleOutputFrameEPNS0_16DownSamplerStateEiiPKiPsii = 0x0000000000070270 + __sdk_start;
_ZTVN2nn3hid13VibrationNodeE = 0x0000000000c235c8 + __sdk_start;
_ZN2nn3hid6system33ResetAnalogStickManualCalibrationENS1_11UniquePadIdENS1_19AnalogStickPositionE = 0x0000000000222700 + __sdk_start;
_ZN2nn2sf4cmif6client6detail13CmifProxyImplINS_3nsd6detail8IManagerENS0_4hipc6client18Hipc2ProxyKindBaseILNS8_6detail11MessageTypeE6EEENS0_30MemoryResourceAllocationPolicyES7_NS3_19ProcessModifierImplINS2_21DefaultProxyFilterTagEEEE26_nn_sf_sync_GetSettingNameENS0_3OutINS5_11SettingNameEvEE = 0x0000000000334130 + __sdk_start;
nncodecLibopus_downmix_int = 0x00000000000d0e00 + __sdk_start;
_ZN2nn2sf4cmif6client6detail13CmifProxyImplINS_3hid16IHidSystemServerENS0_4hipc6client18Hipc2ProxyKindBaseILNS7_6detail11MessageTypeE6EEENS0_30MemoryResourceAllocationPolicyES6_NS3_19ProcessModifierImplINS2_21DefaultProxyFilterTagEEEE35_nn_sf_sync_GetRegisteredDevicesOldENS0_3OutIlvEERKNS0_8OutArrayINS5_6system19RegisteredDeviceOldEEE = 0x0000000000231920 + __sdk_start;
NvRmChipGetCapabilityU32 = 0x00000000003e2020 + __sdk_start;
_ZN2nn2fs6detail14InitialDataAad4SizeE = 0x0000000000a71288 + __sdk_start;
_ZN2nn2sf4cmif6client6detail13CmifProxyImplINS_3hid15IHidDebugServerENS0_4hipc6client18Hipc2ProxyKindBaseILNS7_6detail11MessageTypeE6EEENS0_30MemoryResourceAllocationPolicyES6_NS3_19ProcessModifierImplINS2_21DefaultProxyFilterTagEEEE39_nn_sf_sync_GetTouchScreenConfigurationENS0_3OutINS5_29TouchScreenConfigurationForNxEvEENS_6applet20AppletResourceUserIdE = 0x000000000022d880 + __sdk_start;
_ZN2nn2sf4hipc6client24Hipc2ClientCoreProcessorILNS1_6detail11MessageTypeE6ENS0_4cmif6detail14CoreMethodInfoINSt3__15tupleIJNS7_18OutRawArgumentInfoILm9ELm1ELl0EEEEEELm0ELm9ELb0EEESD_E7ProcessEPNS2_26Hipc2ClientProxyBaseObjectENS6_6client24OutRawClientArgumentTypeILm9ELm1EEEj = 0x0000000000369b20 + __sdk_start;
_ZN2nn6crypto6detail6BigNum7ModMultEPjPKjS5_S5_iPNS2_14DigitAllocatorE = 0x0000000000139400 + __sdk_start;
_ZN2nn4diag6detail19InvokeAbortObserverERKNS0_9AbortInfoE = 0x0000000000146180 + __sdk_start;
_ZN2nn2sf4cmif6client6detail36GetClientProcessorImplWithObjectBaseINS0_4hipc6client18Hipc2ProxyKindBaseILNS5_6detail11MessageTypeE6EEENS3_19ProcessModifierImplINS2_21DefaultProxyFilterTagEEEE14ObjectAssignerINS0_30MemoryResourceAllocationPolicyENS_14MemoryResourceEE14AllocateObjectINS_3ngc1t6detail7IObjectEEEvi = 0x0000000000323cc0 + __sdk_start;
_ZN2nn4nifm6detail29TemporaryNetworkProfileClientC1ERKNS0_18NetworkProfileDataE = 0x0000000000324210 + __sdk_start;
_ZN2nn4npns19DestroyServiceProxyENS0_9PortIndexE = 0x000000000032fa80 + __sdk_start;
_ZN2nn2sf4cmif6client6detail13CmifProxyImplINS_8settings15ISettingsServerENS0_4hipc6client18Hipc2ProxyKindBaseILNS7_6detail11MessageTypeE6EEENS0_30MemoryResourceAllocationPolicyES6_NS3_19ProcessModifierImplINS2_21DefaultProxyFilterTagEEEE26_nn_sf_sync_GetKeyCodeMap2ENS0_3OutINS_3kpr10KeyCodeMapEvEE = 0x000000000036b0e0 + __sdk_start;
_ZN2nn4util10Executable6UnlockEv = 0x00000000003b6690 + __sdk_start;
_ZN2nn2fs11RomPathTool10PathParser20GetNextDirectoryNameEPNS1_12RomEntryNameE = 0x00000000001acaf0 + __sdk_start;
_ZN2nn3hid12GetNpadStateEPNS0_16NpadFullKeyStateERKj = 0x0000000000214610 + __sdk_start;
_ZN2nn8irsensor6detail15IrSensorSession18IsProcessorStoppedERKNS0_14IrCameraHandleE = 0x00000000002a7550 + __sdk_start;
fflush_unlocked = 0x000000000054f660 + __sdk_start;
memmem = 0x00000000005544c0 + __sdk_start;
_ZN2nn5audio16ProcessAuxReverbEPNS0_13AuxReverbTypeEPiPKij = 0x000000000003e390 + __sdk_start;
_ZN2nn5codec8fDivNormEiiPi = 0x0000000000102070 + __sdk_start;
_ZN2nn2fs15RsaEncryptedKey4SizeE = 0x0000000000a71298 + __sdk_start;
_ZN2nn3hid6system21SendConnectionTriggerENS_9bluetooth7AddressE = 0x0000000000224f90 + __sdk_start;
_ZN2nn2sf4cmif6client6detail13CmifProxyImplINS_4nifm6detail8IRequestENS2_19CmifDomainProxyKindINS0_4hipc6client38Hipc2ClientSessionManagedProxyKindBaseINSA_18Hipc2ProxyKindBaseILNS9_6detail11MessageTypeE6EEEEEEENS0_30MemoryResourceAllocationPolicyES7_NS3_19ProcessModifierImplINS2_21DefaultProxyFilterTagEEEE41_nn_sf_sync_GetSystemEventReadableHandlesENS0_3OutINS0_12NativeHandleEvEESP_ = 0x0000000000326d00 + __sdk_start;
_ZN2nn7account12AsyncContextC2EPNS0_6detail13IAsyncContextERKNS0_3UidE = 0x0000000000013500 + __sdk_start;
_ZZN2nn4bcat6detail17ShimLibraryGlobal11GetInstanceEvE10s_Instance = 0x0000000000c9ac08 + __sdk_start;
_ZN2nn4diag6detail17MemoryBlockParserC2Ev = 0x0000000000146aa0 + __sdk_start;
_ZN2nn4util6detail7msgpack20WriteIntegerAutoSizeEPNS0_17MessagePackWriter11StreamParamEl = 0x00000000003af430 + __sdk_start;
__adddf3 = 0x000000000050f0c0 + __sdk_start;
_ZTIN2nn5audio6server9DelayInfoE = 0x0000000000c19c40 + __sdk_start;
_ZN2nn3hid15VibrationPlayer12SetLoopRangeEii = 0x0000000000219440 + __sdk_start;
_ZN2nn5image6detail17PngStreamAccessor9GetOffsetEv = 0x0000000000298530 + __sdk_start;
_Z21__nnmusl_duplicate_fds = 0x0000000000558620 + __sdk_start;
_ZTIN2nn2sf4cmif6client6detail9CmifProxyINS_7account24IBaasAccessTokenAccessorENS2_19CmifDomainProxyKindINS0_4hipc6client38Hipc2ClientSessionManagedProxyKindBaseINS9_18Hipc2ProxyKindBaseILNS8_6detail11MessageTypeE6EEEEEEENS0_30MemoryResourceAllocationPolicyENS3_19ProcessModifierImplINS2_21DefaultProxyFilterTagEEEvEE = 0x0000000000c0ef18 + __sdk_start;
_ZTIN2nn2sf6detail38ObjectImplFactoryWithStatefulAllocatorINS0_4cmif6client6detail9CmifProxyINS_4bcat6detail3ipc30IDeliveryCacheDirectoryServiceENS4_19CmifDomainProxyKindINS0_4hipc6client38Hipc2ClientSessionManagedProxyKindBaseINSD_18Hipc2ProxyKindBaseILNSC_6detail11MessageTypeE6EEEEEEENS0_30MemoryResourceAllocationPolicyENS5_19ProcessModifierImplINS4_21DefaultProxyFilterTagEEEvEESL_E6ObjectE = 0x0000000000c1a8e8 + __sdk_start;
_ZN2nn2ec4json7adaptor37ConsumableServiceItemRightDataAdaptor10UpdateImplERKNS_4http4json8JsonPathILi8ELi128ELb0EEEPKci = 0x0000000000157df0 + __sdk_start;
nndetailImagePng_png_get_cHRM_XYZ_fixed = 0x000000000027b120 + __sdk_start;
_ZTSN2nn2am7service21IStackableAppletProxyE = 0x0000000000a300b9 + __sdk_start;
_ZN2nn2sf4cmif6client6detail13CmifProxyImplINS_7friends6detail3ipc14IFriendServiceENS2_19CmifDomainProxyKindINS0_4hipc6client38Hipc2ClientSessionManagedProxyKindBaseINSB_18Hipc2ProxyKindBaseILNSA_6detail11MessageTypeE6EEEEEEENS0_30MemoryResourceAllocationPolicyES8_NS3_19ProcessModifierImplINS2_21DefaultProxyFilterTagEEEE31_nn_sf_sync_GetUserPresenceViewENS0_3OutINS6_20UserPresenceViewImplEvEERKNS_7account3UidE = 0x00000000001a15d0 + __sdk_start;
_ZTIN2nn2sf4cmif6client6detail9CmifProxyINS_2am7service22IGlobalStateControllerENS2_19CmifDomainProxyKindINS0_4hipc6client38Hipc2ClientSessionManagedProxyKindBaseINSA_18Hipc2ProxyKindBaseILNS9_6detail11MessageTypeE6EEEEEEENS0_30MemoryResourceAllocationPolicyENS3_19ProcessModifierImplINS2_21DefaultProxyFilterTagEEEvEE = 0x0000000000c15108 + __sdk_start;
_ZN2nn5codec4fPowEiiiiPi = 0x0000000000102970 + __sdk_start;
_ZN2nn2ec27ShowShopSubscriptionDetailsERKNS0_8CourseIdENS0_5NsUidE = 0x000000000014f6a0 + __sdk_start;
_ZN2nn3hid6system6detail30PrepareHidsForNotificationWakeEPNS1_11UniquePadIdEm = 0x0000000000226ed0 + __sdk_start;
_ZN2nn5swkbd15SetUserWordListEPNS0_15ShowKeyboardArgEPKNS0_8UserWordEi = 0x000000000039bf80 + __sdk_start;
nncodecLibopus_quant_energy_finalise = 0x00000000000ae370 + __sdk_start;
_ZNK2nn3hid15VibrationTarget22GetVibrationDeviceInfoEPNS0_19VibrationDeviceInfoE = 0x0000000000219ab0 + __sdk_start;
_ZN2nn2sf4cmif6client6detail13CmifProxyImplINS_3hid15IHidDebugServerENS0_4hipc6client18Hipc2ProxyKindBaseILNS7_6detail11MessageTypeE6EEENS0_30MemoryResourceAllocationPolicyES6_NS3_19ProcessModifierImplINS2_21DefaultProxyFilterTagEEEE46_nn_sf_sync_SetAnalogStickModelDataTemporarilyERKNS5_5debug20AnalogStickModelDataENS5_6system11UniquePadIdEi = 0x000000000022e620 + __sdk_start;
_ZN2nn5image10PngDecoder7AnalyzeEv = 0x0000000000297b20 + __sdk_start;
_ZN2nn12notification18UpdateAlarmSettingERKNS0_12AlarmSettingEPKvm = 0x000000000032e610 + __sdk_start;
_ZTSN2nn2sf4hipc6server17IHipcObjectDomainE = 0x0000000000ab33f5 + __sdk_start;
_ZN2nn2sf4cmif6client6detail13CmifProxyImplINS_5visrv2sf26IApplicationDisplayServiceENS0_4hipc6client18Hipc2ProxyKindBaseILNS8_6detail11MessageTypeE6EEENS0_30MemoryResourceAllocationPolicyES7_NS3_19ProcessModifierImplINS2_21DefaultProxyFilterTagEEEE24_nn_sf_sync_ListDisplaysENS0_3OutIlvEERKNS0_8OutArrayINS_2vi11DisplayInfoEEE = 0x00000000003b8f50 + __sdk_start;
_ZN7android9SingletonINS_22GraphicBufferAllocatorEE5sLockE = 0x0000000000d0b340 + __sdk_start;
_ZN7android8String166appendERKS0_ = 0x000000000044d8c0 + __sdk_start;
__nnmusl_GetCurrentThread = 0x000000000055ff00 + __sdk_start;
_ZN2nn2sf4hipc6client24Hipc2ClientCoreProcessorILNS1_6detail11MessageTypeE6ENS0_4cmif6detail14CoreMethodInfoINSt3__15tupleIJNS7_18OutRawArgumentInfoILm4ELm4ELl0EEENS7_17InRawArgumentInfoILm8ELm8ELl0EEEEEELm8ELm4ELb0EEESF_E7ProcessEPNS2_26Hipc2ClientProxyBaseObjectENS6_6client24OutRawClientArgumentTypeILm4ELm4EEENSK_23InRawClientArgumentTypeILm8ELm8EvEEj = 0x0000000000050410 + __sdk_start;
_ZN2nn2fs6detail22LruFileDataCacheSystemC1Ev = 0x00000000001f9f40 + __sdk_start;
_ZN7android7BBinder11linkToDeathERKNS_2spINS_7IBinder14DeathRecipientEEEPvj = 0x00000000004196d0 + __sdk_start;
sem_trywait = 0x000000000051bae0 + __sdk_start;
_ZTSN2nn2sf4cmif6client6detail13CmifProxyImplINS_2lm10ILogGetterENS2_19CmifDomainProxyKindINS0_4hipc6client38Hipc2ClientSessionManagedProxyKindBaseINS9_18Hipc2ProxyKindBaseILNS8_6detail11MessageTypeE6EEEEEEENS0_30MemoryResourceAllocationPolicyES6_NS3_19ProcessModifierImplINS2_21DefaultProxyFilterTagEEEEE = 0x0000000000a91ed3 + __sdk_start;
_ZN2nn3mii6detail17PantsPresentColorE = 0x0000000000a9e1cc + __sdk_start;
_ZN2nn2sf4cmif6client6detail13CmifProxyImplINS_3ntc6detail7service38IEnsureNetworkClockAvailabilityServiceENS0_4hipc6client18Hipc2ProxyKindBaseILNS9_6detail11MessageTypeE6EEENS0_30MemoryResourceAllocationPolicyES8_NS3_19ProcessModifierImplINS2_21DefaultProxyFilterTagEEEE17GetCmifBaseObjectEv = 0x00000000003a8760 + __sdk_start;
android_atomic_and = 0x0000000000429220 + __sdk_start;
_ZN2nn9bluetooth20DisconnectGattClientEh = 0x000000000008c7e0 + __sdk_start;
_ZTIN2nn3btm12IBtmUserCoreE = 0x0000000000c1bce8 + __sdk_start;
_ZTIN2nn2sf4cmif6client6detail13CmifProxyImplINS_3nim6detail33IShopServiceAccessSystemInterfaceENS0_4hipc6client18Hipc2ProxyKindBaseILNS8_6detail11MessageTypeE6EEENS0_30MemoryResourceAllocationPolicyES7_NS3_19ProcessModifierImplINS2_21DefaultProxyFilterTagEEEEE = 0x0000000000c1e0e8 + __sdk_start;
_ZN2nn3hid6detail19SuspendPalmaFeatureERKNS0_21PalmaConnectionHandleERKNS_4util10BitFlagSetILi32ENS0_12PalmaFeatureEEE = 0x000000000020b940 + __sdk_start;
_ZTSN2nn2sf6detail38ObjectImplFactoryWithStatefulAllocatorINS0_4cmif6client6detail9CmifProxyINS_3ngc1t6detail7IObjectENS0_4hipc6client18Hipc2ProxyKindBaseILNSB_6detail11MessageTypeE6EEENS0_30MemoryResourceAllocationPolicyENS5_19ProcessModifierImplINS4_21DefaultProxyFilterTagEEEvEESH_E6ObjectE = 0x0000000000aaccc4 + __sdk_start;
_ZN7android21SurfaceComposerClient11getRGBRangeERKNS_2spINS_7IBinderEEERi = 0x0000000000445490 + __sdk_start;
_ZN2nn5audio34GetFinalOutputRecorderSampleFormatEPKNS0_19FinalOutputRecorderE = 0x0000000000058500 + __sdk_start;
_ZN2nn5codec11resetSbrDecEPNS0_7SBR_DECEPNS0_15SBR_HEADER_DATAEPNS0_19SBR_PREV_FRAME_DATAEii = 0x000000000012be60 + __sdk_start;
_ZN2nn3mii6detail11CoreDataRaw16SetFavoriteColorEi = 0x00000000002f5980 + __sdk_start;
_ZNKSt3__120__time_get_c_storageIwE7__weeksEv = 0x00000000004d8b28 + __sdk_start;
nnmem_nlib_swapendian_32_simd = 0x00000000002e3070 + __sdk_start;
_ZN2nn8settings6detail24SetPtmFuelGaugeParameterERKNS0_6system21PtmFuelGaugeParameterE = 0x0000000000364520 + __sdk_start;
NvColorFormatToString = 0x00000000003f8f60 + __sdk_start;
_ZN2nn2fs22SetGlobalAccessLogModeEj = 0x00000000001a7d50 + __sdk_start;
_ZN2nn2os6detail20UserExceptionHandlerEv = 0x0000000000345060 + __sdk_start;
_ZTSN2nn2sf4hipc6server2v125HipcServerSessionManagerTINS0_4cmif6server20CmifServerObjectInfoEEE = 0x0000000000ab32fc + __sdk_start;
_ZNSt3__113basic_istreamIcNS_11char_traitsIcEEE3getEPclc = 0x00000000004a85d0 + __sdk_start;
_ZTVN2nn2sf6detail38ObjectImplFactoryWithStatefulAllocatorINS0_4cmif6client6detail9CmifProxyINS_2am7service19ILibraryAppletProxyENS4_19CmifDomainProxyKindINS0_4hipc6client38Hipc2ClientSessionManagedProxyKindBaseINSC_18Hipc2ProxyKindBaseILNSB_6detail11MessageTypeE6EEEEEEENS0_30MemoryResourceAllocationPolicyENS5_19ProcessModifierImplINS4_21DefaultProxyFilterTagEEEvEESK_E6ObjectE = 0x0000000000c156d8 + __sdk_start;
_ZN2nn8settings6detail23GetEciDeviceCertificateEPNS0_7factory24Rsa2048DeviceCertificateE = 0x00000000003618f0 + __sdk_start;
_ZN2nn4util6detail20FileOutputStreamImpl9SetBufferEPvm = 0x00000000003b6150 + __sdk_start;
_ZNSt3__115numpunct_bynameIwED1Ev = 0x00000000004d7e50 + __sdk_start;
_ZNSt3__110adopt_lockE = 0x0000000000ac81b5 + __sdk_start;
_ZN22nerd_gillette_internal5otete7jaimev230GetSymmetricEquivalentSegmentsERKNS_15NumericalVectorIsLm2EEES5_RS3_S6_ = 0x00000000002bc4d0 + __sdk_start;
_ZN2nn3mii6detail11UtilityImplC1Ev = 0x00000000002fa6c0 + __sdk_start;
_ZN2nn6socket10InitializeEPvmmi = 0x000000000037c000 + __sdk_start;
_ZN2nn3web14ShowWebPageArgC2Ev = 0x00000000003c88c0 + __sdk_start;
_ZNSt3__16__sortIRNS_6__lessIeeEEPeEEvT0_S5_T_ = 0x00000000004a00f0 + __sdk_start;
_ZN2nn5audio6server16CommandGenerator22GenerateSubMixCommandsEv = 0x0000000000060160 + __sdk_start;
_ZN2nn9bluetooth4user23LeClientWriteDescriptorEjRKNS0_6GattIdEbS4_S4_PKvmh = 0x000000000008cd80 + __sdk_start;
_ZN2nn2fs17RamDiskFileSystemC2EONSt3__110unique_ptrINS0_8IStorageENS2_14default_deleteIS4_EEEE = 0x00000000001e3b30 + __sdk_start;
NvRmMemReserve = 0x00000000003e17e0 + __sdk_start;
_ZN7android6Parcel15writeWeakBinderERKNS_2wpINS_7IBinderEEE = 0x0000000000422830 + __sdk_start;
_ZN2nn5codec6dst_IVEPiiS1_ = 0x00000000000fd8c0 + __sdk_start;
nvgr_set_video_timestamp = 0x0000000000403bf0 + __sdk_start;
_ZTSN2nn2sf4cmif6client6detail9CmifProxyINS_2am7service18IHomeMenuFunctionsENS2_19CmifDomainProxyKindINS0_4hipc6client38Hipc2ClientSessionManagedProxyKindBaseINSA_18Hipc2ProxyKindBaseILNS9_6detail11MessageTypeE6EEEEEEENS0_30MemoryResourceAllocationPolicyENS3_19ProcessModifierImplINS2_21DefaultProxyFilterTagEEEvEE = 0x0000000000a3410f + __sdk_start;
_ZTSN2nn5audio6detail26IAudioInManagerForDebuggerE = 0x0000000000a3ffe7 + __sdk_start;
_ZN2nn5codec12FDKcrcGetCRCEPNS0_11FDK_CRCINFOE = 0x00000000000fa880 + __sdk_start;
_ZTSN2nn5fssrv2sf22ISaveDataChunkIteratorE = 0x0000000000a6d555 + __sdk_start;
_ZN2nn3hid15VibrationTargetC1ERKNS0_21VibrationDeviceHandleE = 0x0000000000219850 + __sdk_start;
_ZZN2nn2sf31SimpleAllInOneHipcClientManagerILm1EE27InitializeShimLibraryHolderINS_4npns11INpnsSystemENS0_4cmif6client6detail19ProcessModifierImplINS7_21DefaultProxyFilterTagEEEEENS_6ResultEPNS0_23ShimLibraryObjectHolderIT_EEPKcPNS_14MemoryResourceEENUlPvE_8__invokeESL_ = 0x0000000000331eb0 + __sdk_start;
_ZTIN10__cxxabiv116__shim_type_infoE = 0x0000000000c4b980 + __sdk_start;
_ZN2nn3hid7utility25GetVibrationDeviceHandlesEPNS0_21VibrationDeviceHandleEPiijNS_4util10BitFlagSetILi32ENS0_12NpadStyleTagEEE = 0x000000000021d080 + __sdk_start;
nndetailImagePng_png_colorspace_set_endpoints = 0x0000000000275c20 + __sdk_start;
_ZN2nn3nfp18DeleteRegisterInfoERKNS0_12DeviceHandleE = 0x0000000000310460 + __sdk_start;
_ZN2nn5audio6server12VoiceContext8SortInfoEv = 0x000000000006b740 + __sdk_start;
nnmem_nlib_memchr_mb_simd = 0x00000000002e2250 + __sdk_start;
NvOsDrvOpen = 0x00000000003dd140 + __sdk_start;
NvRmMemReserve64 = 0x00000000003e17f0 + __sdk_start;
_ZNSt3__112basic_stringIcNS_11char_traitsIcEENS_9allocatorIcEEE6assignEPKc = 0x00000000004e60f0 + __sdk_start;
_ZTIN2nn2sf13InterfaceInfoINS_5audio6detail21IAudioRendererManagerEE4_tABINS5_5_tO2NINS2_6server24AudioRendererManagerImplEE4typeES4_E4typeE = 0x0000000000c19f60 + __sdk_start;
_ZNK2nn2sf13SharedPointerINS_3btm8IBtmUserEE19FunctionForBoolTypeEv = 0x0000000000094ec0 + __sdk_start;
_ZN2nn2fs11GetRightsIdEPNS0_8RightsIdENS_3ncm9ProgramIdENS3_9StorageIdE = 0x00000000001e6da0 + __sdk_start;
__lshrti3 = 0x00000000005128d0 + __sdk_start;
_ZN2nn2sf4cmif6client6detail13CmifProxyImplINS_7account19IAccountServiceBaseENS2_19CmifDomainProxyKindINS0_4hipc6client38Hipc2ClientSessionManagedProxyKindBaseINS9_18Hipc2ProxyKindBaseILNS8_6detail11MessageTypeE6EEEEEEENS0_25StatelessAllocationPolicyINS0_22ExpHeapStaticAllocatorILm2048ENS5_6detail12ObjectHolder24ObjectHolderAllocatorTagEEEEENS5_31IAccountServiceForSystemServiceENS3_19ProcessModifierImplINS2_21DefaultProxyFilterTagEEEE45_nn_sf_sync_DebugActivateOpenContextRetentionENS0_3OutINS0_13SharedPointerINSJ_14ISessionObjectEEEvEE = 0x000000000000aa60 + __sdk_start;
property_set = 0x0000000000429310 + __sdk_start;
_ZN2nn3mem19NumberLineAllocator8AddRangeEii = 0x00000000002eeab0 + __sdk_start;
iswgraph_l = 0x000000000053bb40 + __sdk_start;
_ZZN2nn2sf31SimpleAllInOneHipcClientManagerILm1EE27InitializeShimLibraryHolderINS_3apm14ISystemManagerENS0_4cmif6client6detail19ProcessModifierImplINS7_21DefaultProxyFilterTagEEEEENS_6ResultEPNS0_23ShimLibraryObjectHolderIT_EEPKcPNS_14MemoryResourceEENUlPvE_8__invokeESL_ = 0x00000000000393b0 + __sdk_start;
_ZN2nn3hid21StartLrAssignmentModeEv = 0x0000000000214e60 + __sdk_start;
_ZN2nn2sf4cmif6client6detail13CmifProxyImplINS_3hid10IHidServerENS0_4hipc6client18Hipc2ProxyKindBaseILNS7_6detail11MessageTypeE6EEENS0_30MemoryResourceAllocationPolicyES6_NS3_19ProcessModifierImplINS2_21DefaultProxyFilterTagEEEE41_nn_sf_sync_GetNpadHandheldActivationModeENS_6applet20AppletResourceUserIdENS0_3OutIlvEE = 0x0000000000229180 + __sdk_start;
_ZN2nn3mii6detail16Ver3StoreDataRaw13SetFontRegionEi = 0x00000000003008e0 + __sdk_start;
_ZN2nn8settings6system29GetDeviceTimeZoneLocationNameEPNS_4time12LocationNameE = 0x000000000035e150 + __sdk_start;
_ZN2nn2vi13ObjectManager25CreateValidateLayerHolderEmPNS0_13DisplayHolderE = 0x00000000003c2a80 + __sdk_start;
_ZN2nn7account48NintendoAccountApplicationAuthorizationProcedureC1EOS1_ = 0x0000000000018580 + __sdk_start;
_ZNKSt3__17codecvtIDic11__mbstate_tE10do_unshiftERS1_PcS4_RS4_ = 0x00000000004d57b8 + __sdk_start;
_ZN2nn2sf4hipc6client24Hipc2ClientCoreProcessorILNS1_6detail11MessageTypeE6ENS0_4cmif6detail14CoreMethodInfoINSt3__15tupleIJNS7_18BufferArgumentInfoILi0ELi21ELm456EEENS7_17InRawArgumentInfoILm8ELm8ELl0EEEEEELm8ELm0ELb0EEESF_E7ProcessEPNS2_26Hipc2ClientProxyBaseObjectENS6_6client24BufferClientArgumentTypeENSK_23InRawClientArgumentTypeILm8ELm8EvEEj = 0x0000000000234d80 + __sdk_start;
_ZNK2nn3web6detail22ShowLobbyPageArgWriter15PushToInChannelENS_6applet19LibraryAppletHandleE = 0x00000000002cb0a0 + __sdk_start;
_ZN2nn2oe28IsGamePlayRecordingSupportedEv = 0x0000000000337800 + __sdk_start;
NvRmGpuClockCloseAsyncReq = 0x0000000000405180 + __sdk_start;
_ZN7android23BnSurfaceComposerClient17onGetNativeHandleEjRjRb = 0x000000000043d7f0 + __sdk_start;
_ZN7android10VectorImpl13editArrayImplEv = 0x0000000000451760 + __sdk_start;
_ZTIN2nn2sf4cmif6client6detail13CmifProxyImplINS_7account4baas12IManagerBaseENS2_19CmifDomainProxyKindINS0_4hipc6client38Hipc2ClientSessionManagedProxyKindBaseINSA_18Hipc2ProxyKindBaseILNS9_6detail11MessageTypeE6EEEEEEENS0_25StatelessAllocationPolicyINS0_22ExpHeapStaticAllocatorILm2048ENS5_6detail12ObjectHolder24ObjectHolderAllocatorTagEEEEENS6_22IManagerForApplicationENS3_19ProcessModifierImplINS2_21DefaultProxyFilterTagEEEEE = 0x0000000000c0d660 + __sdk_start;
_ZN2nn7account34NetworkServiceAccountAdministrator18UploadProfileAsyncEPNS0_12AsyncContextE = 0x0000000000017560 + __sdk_start;
_ZTSN2nn2am7service11IMovieMakerE = 0x0000000000a3829b + __sdk_start;
_ZN2nn3nfc13SetNfcEnabledEb = 0x000000000030b0d0 + __sdk_start;
NvRmGpuChannelSetPriority = 0x0000000000404ba0 + __sdk_start;
androidSetThreadName = 0x00000000004504d0 + __sdk_start;
_ZTSN2nn2sf4cmif6client6detail13CmifProxyImplINS_6capsrv2sf29IScreenShotApplicationServiceENS0_4hipc6client18Hipc2ProxyKindBaseILNS8_6detail11MessageTypeE6EEENS0_30MemoryResourceAllocationPolicyES7_NS3_19ProcessModifierImplINS2_21DefaultProxyFilterTagEEEEE = 0x0000000000a4f1d0 + __sdk_start;
_ZN2nn6crypto6detail10Sha512ImplD2Ev = 0x000000000013e020 + __sdk_start;
_ZN2nn3ngc6detail12SwapEndian16EPtm = 0x00000000003222b0 + __sdk_start;
_ZN2nn3web14ShowWebPageArg29SetPageScrollIndicatorEnabledEb = 0x00000000003c94e0 + __sdk_start;
__nnmusl_socket_poll = 0x00000000005610c8 + __sdk_start;
nncodecLibopus_silk_shell_decoder = 0x00000000000c1e10 + __sdk_start;
_ZN2nn2fs6detail28IsGlobalFileDataCacheEnabledEv = 0x00000000001f96e0 + __sdk_start;
_ZN2nn3hid18StartSixAxisSensorERKNS0_26ConsoleSixAxisSensorHandleE = 0x0000000000212200 + __sdk_start;
_ZN2nn3ssl7Context9SetOptionENS1_13ContextOptionEi = 0x0000000000394150 + __sdk_start;
_ZNSt3__15mutexD1Ev = 0x00000000004e3bc8 + __sdk_start;
_ZN2nn2sf6detail38ObjectImplFactoryWithStatefulAllocatorINS0_4cmif6client6detail9CmifProxyINS_2am7service7IWindowENS4_19CmifDomainProxyKindINS0_4hipc6client38Hipc2ClientSessionManagedProxyKindBaseINSC_18Hipc2ProxyKindBaseILNSB_6detail11MessageTypeE6EEEEEEENS0_30MemoryResourceAllocationPolicyENS5_19ProcessModifierImplINS4_21DefaultProxyFilterTagEEEvEESK_E6Object12AddReferenceEv = 0x00000000000269e0 + __sdk_start;
_ZN2nn2sf4hipc6client24Hipc2ClientCoreProcessorILNS1_6detail11MessageTypeE6ENS0_4cmif6detail14CoreMethodInfoINSt3__15tupleIJNS7_18BufferArgumentInfoILi0ELi33ELm0EEENS7_17InRawArgumentInfoILm8ELm8ELl0EEEEEELm8ELm0ELb0EEESF_E7ProcessEPNS2_26Hipc2ClientProxyBaseObjectENS6_6client24BufferClientArgumentTypeENSK_23InRawClientArgumentTypeILm8ELm8EvEEj = 0x000000000004f580 + __sdk_start;
_ZN2nn2sf6detail38ObjectImplFactoryWithStatefulAllocatorINS0_4cmif6client6detail9CmifProxyINS_3nim6detail17IShopServiceAsyncENS0_4hipc6client18Hipc2ProxyKindBaseILNSA_6detail11MessageTypeE6EEENS0_30MemoryResourceAllocationPolicyENS5_19ProcessModifierImplINS4_21DefaultProxyFilterTagEEEvEESG_E6Object7ReleaseEv = 0x0000000000152b30 + __sdk_start;
_ZN2nn3ngc1t27CalculateContentFingerprintEPvm = 0x0000000000322ed0 + __sdk_start;
_ZN2nn6socket6detail10InetNtohllEm = 0x0000000000386f10 + __sdk_start;
_ZN2nn2sf4cmif6client6detail13CmifProxyImplINS_4bcat6detail3ipc12IBcatServiceENS2_19CmifDomainProxyKindINS0_4hipc6client38Hipc2ClientSessionManagedProxyKindBaseINSB_18Hipc2ProxyKindBaseILNSA_6detail11MessageTypeE6EEEEEEENS0_30MemoryResourceAllocationPolicyES8_NS3_19ProcessModifierImplINS2_21DefaultProxyFilterTagEEEE29_nn_sf_sync_BlockDeliveryTaskENS_13ApplicationIdE = 0x0000000000083830 + __sdk_start;
_ZN2nn2fs20DefaultResultHandlerENS_6ResultE = 0x00000000001a9570 + __sdk_start;
_ZN2nn2sf4cmif6client6detail13CmifProxyImplINS_3hid10IHidServerENS0_4hipc6client18Hipc2ProxyKindBaseILNS7_6detail11MessageTypeE6EEENS0_30MemoryResourceAllocationPolicyES6_NS3_19ProcessModifierImplINS2_21DefaultProxyFilterTagEEEE32_nn_sf_sync_StopLrAssignmentModeENS_6applet20AppletResourceUserIdE = 0x0000000000229140 + __sdk_start;
_ZN2nn2sf4cmif6client6detail13CmifProxyImplINS_4bcat6detail3ipc12IBcatServiceENS2_19CmifDomainProxyKindINS0_4hipc6client38Hipc2ClientSessionManagedProxyKindBaseINSB_18Hipc2ProxyKindBaseILNSA_6detail11MessageTypeE6EEEEEEENS0_30MemoryResourceAllocationPolicyES8_NS3_19ProcessModifierImplINS2_21DefaultProxyFilterTagEEEE32_nn_sf_sync_SetDeliveryTaskTimerENS_13ApplicationIdEii = 0x0000000000083870 + __sdk_start;
_ZN2nn4nifm11GetScanDataEPNS0_15AccessPointDataEPii = 0x000000000032bcf0 + __sdk_start;
_ZTVN2nn5audio6server12SinkInfoBaseE = 0x0000000000c19d58 + __sdk_start;
_ZN2nn4lmem14CreateUnitHeapEPvmmi = 0x00000000002c9140 + __sdk_start;
_ZN2nn3mii8DatabaseC1Ev = 0x0000000000302be0 + __sdk_start;
_ZN2nn2sf4hipc6server2v128HipcServerSessionManagerBase16CloseSessionBaseEPNS3_21HipcServerSessionBaseE = 0x0000000000373de0 + __sdk_start;
_ZNSt3__18messagesIcE2idE = 0x0000000000d0ea38 + __sdk_start;
_ZNSt3__127__insertion_sort_incompleteIRNS_6__lessIddEEPdEEbT0_S5_T_ = 0x000000000049fdc0 + __sdk_start;
_ZN2nn2am20GetCommonStateGetterEv = 0x000000000001e180 + __sdk_start;
_ZN2nn9bluetooth14CircularBuffer17BufferNameSizeMaxE = 0x0000000000a4e620 + __sdk_start;
_ZN2nn3web14ShowWebPageArg18SetPageFadeEnabledEb = 0x00000000003c93c0 + __sdk_start;
_ZN2nn4diag6detail7LogImplERKNS0_11LogMetaDataEPKcz = 0x0000000000145050 + __sdk_start;
_ZN2nn3mii6detail16Ver3StoreDataRaw12SetReserved1Ei = 0x0000000000300c50 + __sdk_start;
_ZNK2nn3mii6detail16Ver3StoreDataRaw12GetReserved1Ev = 0x00000000003024e0 + __sdk_start;
_ZN2nn3nsd37IsChangeEnvironmentIdentifierDisabledEv = 0x0000000000332500 + __sdk_start;
_ZN2nn4pctl10GetPinCodeEPci = 0x0000000000345790 + __sdk_start;
_ZTIN2nn2sf4cmif6client6detail13CmifProxyImplINS_5visrv2sf26IApplicationDisplayServiceENS0_4hipc6client18Hipc2ProxyKindBaseILNS8_6detail11MessageTypeE6EEENS0_30MemoryResourceAllocationPolicyES7_NS3_19ProcessModifierImplINS2_21DefaultProxyFilterTagEEEEE = 0x0000000000c336a8 + __sdk_start;
strptime = 0x00000000005573f8 + __sdk_start;
_ZN2nn5audio17GetMemoryPoolSizeEPKNS0_14MemoryPoolTypeE = 0x00000000000438f0 + __sdk_start;
_ZNK2nn5audio6common10NodeStates5Stack5CountEv = 0x0000000000048ea0 + __sdk_start;
_ZN2nn5codec15RotVectorImag60E = 0x0000000000a5ce08 + __sdk_start;
_ZN2nn2fs6detail12FileAccessor16UpdateLastResultENS_6ResultE = 0x00000000001b6bc0 + __sdk_start;
_ZN2nn5image10PngEncoderD1Ev = 0x0000000000297ff0 + __sdk_start;
_ZN2nn5audio27UpdateReverbEffectParameterEPKNS0_15ReverbParameterEPNS0_11ReverbStateE = 0x0000000000072ce0 + __sdk_start;
_ZN2nn7friends7ProfileC1Ev = 0x000000000019ecd0 + __sdk_start;
_ZN2nn2sf4cmif6client6detail13CmifProxyImplINS_7friends6detail3ipc14IFriendServiceENS2_19CmifDomainProxyKindINS0_4hipc6client38Hipc2ClientSessionManagedProxyKindBaseINSB_18Hipc2ProxyKindBaseILNSA_6detail11MessageTypeE6EEEEEEENS0_30MemoryResourceAllocationPolicyES8_NS3_19ProcessModifierImplINS2_21DefaultProxyFilterTagEEEE31_nn_sf_sync_CancelFriendRequestERKNS_7account3UidENS5_9RequestIdE = 0x00000000001a18c0 + __sdk_start;
_ZTVN2nn5image11JpegDecoderE = 0x0000000000c27a50 + __sdk_start;
nndetailImagePng_png_read_filter_row_paeth4_neon = 0x0000000000273c30 + __sdk_start;
nndetailImagePng_png_sig_cmp = 0x00000000002740c0 + __sdk_start;
NvOsAllocLeak = 0x00000000003d0a80 + __sdk_start;
fabs = 0x0000000000541a58 + __sdk_start;
_ZTIN2nn2ec21IPurchaseEventManagerE = 0x0000000000c16ed0 + __sdk_start;
_ZNK2nn3mii16CharInfoAccessor8GetBuildEv = 0x00000000002f15d0 + __sdk_start;
_ZN2nn2sf4cmif6client6detail13CmifProxyImplINS_2am7service18IDisplayControllerENS2_19CmifDomainProxyKindINS0_4hipc6client38Hipc2ClientSessionManagedProxyKindBaseINSA_18Hipc2ProxyKindBaseILNS9_6detail11MessageTypeE6EEEEEEENS0_30MemoryResourceAllocationPolicyES7_NS3_19ProcessModifierImplINS2_21DefaultProxyFilterTagEEEE38_nn_sf_sync_TakeScreenShotOfOwnLayerExEibb = 0x0000000000027470 + __sdk_start;
_ZN2nn8settings6detail31GetButtonConfigSettingsEmbeddedEPiPNS0_6system20ButtonConfigSettingsEi = 0x0000000000360930 + __sdk_start;
_ZN2nn2vi17GetDisplayCmuLumaEPfPKNS0_7DisplayE = 0x00000000003b7150 + __sdk_start;
_ZNKSt3__17codecvtIDic11__mbstate_tE9do_lengthERS1_PKcS5_m = 0x00000000004d57d8 + __sdk_start;
fsetpos64 = 0x00000000005505e0 + __sdk_start;
_ZTSN2nn2sf4cmif6client6detail13CmifProxyImplINS_7account3nas21IAuthorizationRequestENS2_19CmifDomainProxyKindINS0_4hipc6client38Hipc2ClientSessionManagedProxyKindBaseINSA_18Hipc2ProxyKindBaseILNS9_6detail11MessageTypeE6EEEEEEENS0_25StatelessAllocationPolicyINS0_22ExpHeapStaticAllocatorILm2048ENS5_6detail12ObjectHolder24ObjectHolderAllocatorTagEEEEES7_NS3_19ProcessModifierImplINS2_21DefaultProxyFilterTagEEEEE = 0x0000000000a28fff + __sdk_start;
_ZThn32_N2nn2sf4cmif6client6detail13CmifProxyImplINS_7account4baas18IGuestLoginRequestENS2_19CmifDomainProxyKindINS0_4hipc6client38Hipc2ClientSessionManagedProxyKindBaseINSA_18Hipc2ProxyKindBaseILNS9_6detail11MessageTypeE6EEEEEEENS0_25StatelessAllocationPolicyINS0_22ExpHeapStaticAllocatorILm2048ENS5_6detail12ObjectHolder24ObjectHolderAllocatorTagEEEEES7_NS3_19ProcessModifierImplINS2_21DefaultProxyFilterTagEEEE17GetCmifBaseObjectEv = 0x000000000000a5d0 + __sdk_start;
_ZN2nn5audio22SetSplitterDestinationEPNS0_19AudioRendererConfigEPNS0_12SplitterTypeEii = 0x0000000000045ed0 + __sdk_start;
nnmem_nlib_thread_create = 0x00000000002e04d0 + __sdk_start;
_ZTSN2nn2sf4cmif6client6detail9CmifProxyIN3nns9hosbinder16IHOSBinderDriverENS2_19CmifDomainProxyKindINS0_4hipc6client38Hipc2ClientSessionManagedProxyKindBaseINSA_18Hipc2ProxyKindBaseILNS9_6detail11MessageTypeE6EEEEEEENS0_30MemoryResourceAllocationPolicyENS3_19ProcessModifierImplINS2_21DefaultProxyFilterTagEEEvEE = 0x0000000000a38814 + __sdk_start;
_ZN2nn2sf4hipc6client24Hipc2ClientCoreProcessorILNS1_6detail11MessageTypeE6ENS0_4cmif6detail14CoreMethodInfoINSt3__15tupleIJNS7_21OutObjectArgumentInfoILi0ELi0EEENS7_17InRawArgumentInfoILm8ELm8ELl8EEENSD_ILm4ELm4ELl0EEEEEELm16ELm0ELb0EEESG_E21ProcessWithOutObjectsEPNS2_26Hipc2ClientProxyBaseObjectENS6_6client27OutObjectClientArgumentTypeENSL_23InRawClientArgumentTypeILm8ELm8EvEENSN_ILm4ELm4EvEEjPNS0_13SharedPointerINS0_14IServiceObjectEEE = 0x0000000000053c90 + __sdk_start;
_ZN2nn4util10BitFlagSetILi256ENS_3hid11KeyboardKeyEE4FlagILi26EE4MaskE = 0x0000000000a71858 + __sdk_start;
pthread_barrier_wait = 0x000000000051b808 + __sdk_start;
nnosCreateThread = 0x000000000033d790 + __sdk_start;
_ZN2nn2sf13SharedPointerINS_2sm6detail17IManagerInterfaceEED2Ev = 0x000000000037b6a0 + __sdk_start;
_ZN7android8String16C1EPKDs = 0x000000000044d410 + __sdk_start;
get_EBLC_partial = 0x00000000001955a0 + __sdk_start;
nndetailImagePng_png_handle_IEND = 0x0000000000287d00 + __sdk_start;
_ZN2nn2os16ReleaseSemaphoreEPNS0_13SemaphoreTypeE = 0x000000000033b970 + __sdk_start;
nnmem_nlib_threadpool_submit = 0x00000000002e3a20 + __sdk_start;
_ZTINSt3__112future_errorE = 0x0000000000c458a0 + __sdk_start;
__nnmusl_FreeTlsSlot = 0x000000000055ba80 + __sdk_start;
_ZTSN2nn2sf4cmif6client6detail13CmifProxyImplINS_7account6detail14ISessionObjectENS2_19CmifDomainProxyKindINS0_4hipc6client38Hipc2ClientSessionManagedProxyKindBaseINSA_18Hipc2ProxyKindBaseILNS9_6detail11MessageTypeE6EEEEEEENS0_25StatelessAllocationPolicyINS0_22ExpHeapStaticAllocatorILm2048ENS6_12ObjectHolder24ObjectHolderAllocatorTagEEEEES7_NS3_19ProcessModifierImplINS2_21DefaultProxyFilterTagEEEEE = 0x0000000000a27eee + __sdk_start;
_ZTSN2nn3nfc6detail12IUserManagerE = 0x0000000000aa9572 + __sdk_start;
_ZN2nn6socket6detail7SendMsgEiPK6msghdri = 0x0000000000382680 + __sdk_start;
nncodecLibopus_silk_resampler_private_down_FIR = 0x00000000000c1290 + __sdk_start;
nndetailImagePng_png_set_sRGB_gAMA_and_cHRM = 0x000000000028d7a0 + __sdk_start;
_ZNK2nn3mii6detail16Ver3StoreDataRaw16BuildToStoreDataEPNS1_12StoreDataRawEPNS1_11UtilityImplE = 0x0000000000300e20 + __sdk_start;
_ZNK2nn3ngc6detail2Bp5ToPosEj = 0x000000000031ad90 + __sdk_start;
__cxa_free_exception = 0x00000000005084b8 + __sdk_start;
_ZTSN2nn5fssrv2sf15IDeviceOperatorE = 0x0000000000a6f608 + __sdk_start;
_ZN2nn4lmem11DumpExpHeapEPNS0_6detail8HeapHeadE = 0x00000000002c8cc0 + __sdk_start;
_ZN2nn3mii6detail16GetFavoriteColorENS0_13FavoriteColorENS0_9GammaTypeE = 0x00000000002f35b0 + __sdk_start;
_ZN2nn2sf4cmif6client6detail13CmifProxyImplINS_8settings21ISystemSettingsServerENS0_4hipc6client18Hipc2ProxyKindBaseILNS7_6detail11MessageTypeE6EEENS0_30MemoryResourceAllocationPolicyES6_NS3_19ProcessModifierImplINS2_21DefaultProxyFilterTagEEEE42_nn_sf_sync_GetExternalSteadyClockSourceIdENS0_3OutINS_4util4UuidEvEE = 0x000000000036bda0 + __sdk_start;
NvRmGpuDeviceListTemperatureSensors = 0x00000000004053c0 + __sdk_start;
_ZNSt3__110moneypunctIcLb1EE4intlE = 0x0000000000ac7289 + __sdk_start;
_ZN2nn2sf6detail39ObjectImplFactoryWithStatelessAllocatorINS0_4cmif6client6detail9CmifProxyINS_7account4baas34IAsyncContextForLoginForOnlinePlayENS4_19CmifDomainProxyKindINS0_4hipc6client38Hipc2ClientSessionManagedProxyKindBaseINSC_18Hipc2ProxyKindBaseILNSB_6detail11MessageTypeE6EEEEEEENS0_25StatelessAllocationPolicyINS0_22ExpHeapStaticAllocatorILm2048ENS7_6detail12ObjectHolder24ObjectHolderAllocatorTagEEEEENS5_19ProcessModifierImplINS4_21DefaultProxyFilterTagEEEvEESQ_E6Object12AddReferenceEv = 0x0000000000009cc0 + __sdk_start;
nndetailImagePng_png_sRGB_delta = 0x0000000000a87b30 + __sdk_start;
__strtoimax_internal = 0x0000000000553cd0 + __sdk_start;
_ZN2nn2os22InitializeMessageQueueEPNS0_16MessageQueueTypeEPmm = 0x000000000033a280 + __sdk_start;
_ZN2nn2sf4hipc6client24Hipc2ClientCoreProcessorILNS1_6detail11MessageTypeE6ENS0_4cmif6detail14CoreMethodInfoINSt3__15tupleIJNS7_17InRawArgumentInfoILm2ELm2ELl0EEENSB_ILm2ELm2ELl2EEEEEELm4ELm0ELb0EEESE_E7ProcessEPNS2_26Hipc2ClientProxyBaseObjectENS6_6client23InRawClientArgumentTypeILm2ELm2EvEESL_j = 0x000000000008ac20 + __sdk_start;
__nnmusl_get_number_uncalled_tls_dtors = 0x000000000055de18 + __sdk_start;
_ZN2nn2sf4cmif6client6detail13CmifProxyImplINS_7account31IAccountServiceForSystemServiceENS2_19CmifDomainProxyKindINS0_4hipc6client38Hipc2ClientSessionManagedProxyKindBaseINS9_18Hipc2ProxyKindBaseILNS8_6detail11MessageTypeE6EEEEEEENS0_25StatelessAllocationPolicyINS0_22ExpHeapStaticAllocatorILm2048ENS5_6detail12ObjectHolder24ObjectHolderAllocatorTagEEEEENS5_31IAccountServiceForAdministratorENS3_19ProcessModifierImplINS2_21DefaultProxyFilterTagEEEE48_nn_sf_sync_CheckNetworkServiceAvailabilityAsyncENS0_3OutINS0_13SharedPointerINSJ_13IAsyncContextEEEvEERKNS5_27SystemProgramIdentificationEm = 0x000000000000e1e0 + __sdk_start;
_ZN2nn2vi13ObjectManager12GetLayerLockEv = 0x00000000003c2b40 + __sdk_start;
_ZN2nn2sf4cmif6client6detail13CmifProxyImplINS_2am7service18IHomeMenuFunctionsENS2_19CmifDomainProxyKindINS0_4hipc6client38Hipc2ClientSessionManagedProxyKindBaseINSA_18Hipc2ProxyKindBaseILNS9_6detail11MessageTypeE6EEEEEEENS0_30MemoryResourceAllocationPolicyES7_NS3_19ProcessModifierImplINS2_21DefaultProxyFilterTagEEEE43_nn_sf_sync_GetHomeButtonWriterLockAccessorENS0_3OutINS0_13SharedPointerINS6_13ILockAccessorEEEvEE = 0x000000000002a3f0 + __sdk_start;
nnmem_nlib_strcat = 0x00000000002cee00 + __sdk_start;
NvRmGpuAddressSpaceAllocationCreate = 0x0000000000404670 + __sdk_start;
FS_set_bold_pct = 0x0000000000164520 + __sdk_start;
Libz_SigloMiddlewareInfo = 0x00000000002a15a0 + __sdk_start;
_ZN2nn2sf4cmif6client6detail13CmifProxyImplINS_4nifm6detail8IRequestENS2_19CmifDomainProxyKindINS0_4hipc6client38Hipc2ClientSessionManagedProxyKindBaseINSA_18Hipc2ProxyKindBaseILNS9_6detail11MessageTypeE6EEEEEEENS0_30MemoryResourceAllocationPolicyES7_NS3_19ProcessModifierImplINS2_21DefaultProxyFilterTagEEEE12GetProxyInfoEv = 0x0000000000326cb0 + __sdk_start;
_ZN2nn5swkbd6detail18InlineKeyboardImpl17UnsetCustomizeDicEv = 0x000000000039d390 + __sdk_start;
_ZN2nn4util14AsyncExecutionC2EOS1_ = 0x00000000003b68d0 + __sdk_start;
_ZTCN7android20BnGraphicBufferAllocE0_NS_11BnInterfaceINS_19IGraphicBufferAllocEEE = 0x0000000000c3e890 + __sdk_start;
_ZN2nn2sf4cmif6client6detail13CmifProxyImplINS_2am7service15ISelfControllerENS2_19CmifDomainProxyKindINS0_4hipc6client38Hipc2ClientSessionManagedProxyKindBaseINSA_18Hipc2ProxyKindBaseILNS9_6detail11MessageTypeE6EEEEEEENS0_30MemoryResourceAllocationPolicyES7_NS3_19ProcessModifierImplINS2_21DefaultProxyFilterTagEEEE47_nn_sf_sync_SetOperationModeChangedNotificationEb = 0x0000000000024810 + __sdk_start;
_ZN2nn2sf4cmif6client6detail13CmifProxyImplINS_2am7service19IOverlayAppletProxyENS2_19CmifDomainProxyKindINS0_4hipc6client38Hipc2ClientSessionManagedProxyKindBaseINSA_18Hipc2ProxyKindBaseILNS9_6detail11MessageTypeE6EEEEEEENS0_30MemoryResourceAllocationPolicyES7_NS3_19ProcessModifierImplINS2_21DefaultProxyFilterTagEEEE36_nn_sf_sync_GetAppletCommonFunctionsENS0_3OutINS0_13SharedPointerINS6_22IAppletCommonFunctionsEEEvEE = 0x000000000002ee90 + __sdk_start;
_ZN2nn3hid6system6detail22InitializeAudioControlEv = 0x0000000000225d60 + __sdk_start;
nnosFinalizeConditionVariable = 0x000000000033da80 + __sdk_start;
_ZN2nn3ngc6detail3Sbv5ResetEv = 0x000000000031f670 + __sdk_start;
_ZNSt3__113basic_istreamIcNS_11char_traitsIcEEE3getEPcl = 0x00000000004a8530 + __sdk_start;
__isoc99_vfscanf = 0x000000000051a720 + __sdk_start;
_ZN2nn5audio17SetFinalMixVolumeEPNS0_12FinalMixTypeEf = 0x0000000000043660 + __sdk_start;
_ZN2nn5audio6server11InfoUpdater11UpdateSinksERNS1_11SinkContextEPNS1_14MemoryPoolInfoEi = 0x0000000000064730 + __sdk_start;
_ZN2nn2sf4cmif6client34CmifDomainProxyClientCoreProcessorINS0_4hipc6client38Hipc2ClientSessionManagedProxyKindBaseINS5_18Hipc2ProxyKindBaseILNS4_6detail11MessageTypeE6EEEEENS1_6detail14CoreMethodInfoINSt3__15tupleIJNSC_17InRawArgumentInfoILm36ELm4ELl0EEEEEELm36ELm0ELb0EEESI_E7ProcessEPNS2_23CmifDomainClientMessageISB_E15ProxyBaseObjectENS2_23InRawClientArgumentTypeILm36ELm4EvEEj = 0x0000000000327290 + __sdk_start;
_ZN2nn2sf4cmif6client6detail13CmifProxyImplINS_4pctl6detail3ipc23IParentalControlServiceENS2_19CmifDomainProxyKindINS0_4hipc6client38Hipc2ClientSessionManagedProxyKindBaseINSB_18Hipc2ProxyKindBaseILNSA_6detail11MessageTypeE6EEEEEEENS0_30MemoryResourceAllocationPolicyES8_NS3_19ProcessModifierImplINS2_21DefaultProxyFilterTagEEEE46_nn_sf_sync_GetAccountMiiImageContentTypeAsyncENS0_3OutINS6_9AsyncDataEvEENSO_INS0_12NativeHandleEvEENSO_IjvEERKNS0_8OutArrayIcEERKNS6_22PairingAccountInfoBaseE = 0x0000000000349c00 + __sdk_start;
_ZN2nn5swkbd6detail18InlineKeyboardImpl15SetUserWordInfoERKNS0_12UserWordInfoE = 0x000000000039ce50 + __sdk_start;
__register_frame = 0x000000000050d6e8 + __sdk_start;
_ZN2nn5codec25CProgramConfig_GetDefaultEPNS0_14CProgramConfigEj = 0x00000000001082b0 + __sdk_start;
_ZN2nn4edid9CloseEdidEPNS0_4EdidE = 0x00000000001594f0 + __sdk_start;
_ZTVN2nn2fs26FileStorageBasedFileSystemE = 0x0000000000c1fab0 + __sdk_start;
_ZNSt3__129__libcpp_recursive_mutex_initEPNSt13__libcxx_shim19__libcxx_shim_ver_119__libcxx_shim_mutexE = 0x00000000004ef950 + __sdk_start;
__floatundidf = 0x0000000000512488 + __sdk_start;
_ZN2nn2sf4cmif6client6detail13CmifProxyImplINS_7account29IAccountServiceForApplicationENS2_19CmifDomainProxyKindINS0_4hipc6client38Hipc2ClientSessionManagedProxyKindBaseINS9_18Hipc2ProxyKindBaseILNS8_6detail11MessageTypeE6EEEEEEENS0_25StatelessAllocationPolicyINS0_22ExpHeapStaticAllocatorILm2048ENS5_6detail12ObjectHolder24ObjectHolderAllocatorTagEEEEES6_NS3_19ProcessModifierImplINS2_21DefaultProxyFilterTagEEEE39_nn_sf_sync_InitializeApplicationInfoV0Em = 0x00000000000054f0 + __sdk_start;
_ZN2nn7account38ExternalNetworkServiceAccountRegistrar34RegisterNetworkServiceAccountAsyncEPNS0_12AsyncContextERKNS0_3UidE = 0x0000000000015050 + __sdk_start;
_ZNK2nn5audio15PerformanceInfo28IsRenderingTimeLimitExceededEv = 0x0000000000044d80 + __sdk_start;
_ZN2nn5audio6server14DeviceSinkInfoC2Ev = 0x0000000000068ba0 + __sdk_start;
_ZN2nn2fs4save20IExclusiveFileSystem7HasFileEPbRKNS1_4PathE = 0x00000000001be4f0 + __sdk_start;
_ZN2nn2sf4cmif6client6detail13CmifProxyImplINS_3hid10IHidServerENS0_4hipc6client18Hipc2ProxyKindBaseILNS7_6detail11MessageTypeE6EEENS0_30MemoryResourceAllocationPolicyES6_NS3_19ProcessModifierImplINS2_21DefaultProxyFilterTagEEEE39_nn_sf_sync_ReadPalmaApplicationSectionENS5_21PalmaConnectionHandleEmm = 0x00000000002299f0 + __sdk_start;
_ZN2nn2sf4hipc6client24Hipc2ClientCoreProcessorILNS1_6detail11MessageTypeE6ENS0_4cmif6detail14CoreMethodInfoINSt3__15tupleIJNS7_17InRawArgumentInfoILm8ELm8ELl0EEENS7_18BufferArgumentInfoILi0ELi5ELm0EEEEEELm8ELm0ELb0EEESF_E7ProcessEPNS2_26Hipc2ClientProxyBaseObjectENS6_6client23InRawClientArgumentTypeILm8ELm8EvEENSK_24BufferClientArgumentTypeEj = 0x0000000000036b80 + __sdk_start;
_ZN2nn5audio6server38CommandProcessingTimeEstimatorVersion38EstimateERKNS0_33PcmFloatDataSourceCommandVersion1E = 0x0000000000062e00 + __sdk_start;
_ZN7android19GraphicBufferMapper10apiVersionEv = 0x0000000000449570 + __sdk_start;
_ZN2nn2sf6detail38ObjectImplFactoryWithStatefulAllocatorINS0_4cmif6client6detail9CmifProxyINS_3nim6detail33IShopServiceAccessServerInterfaceENS0_4hipc6client18Hipc2ProxyKindBaseILNSA_6detail11MessageTypeE6EEENS0_30MemoryResourceAllocationPolicyENS5_19ProcessModifierImplINS4_21DefaultProxyFilterTagEEEvEESG_E6Object7ReleaseEv = 0x0000000000151e40 + __sdk_start;
_ZN2nn2sf6detail38ObjectImplFactoryWithStatefulAllocatorINS0_4cmif6client6detail9CmifProxyINS_7friends6detail3ipc15IServiceCreatorENS4_19CmifDomainProxyKindINS0_4hipc6client38Hipc2ClientSessionManagedProxyKindBaseINSD_18Hipc2ProxyKindBaseILNSC_6detail11MessageTypeE6EEEEEEENS0_30MemoryResourceAllocationPolicyENS5_19ProcessModifierImplINS4_21DefaultProxyFilterTagEEEvEESL_E6Object7ReleaseEv = 0x00000000001a0ad0 + __sdk_start;
nnutilZlib_deflate_copyright = 0x0000000000a8a50e + __sdk_start;
_ZN2nn4pctl37RevertRestrictedSystemSettingsEnteredEv = 0x0000000000346120 + __sdk_start;
_ZTSN2nn2ec4json29MemoryInputStreamForRapidJsonE = 0x0000000000a6523c + __sdk_start;
_ZN2nn3kpr15KeyCodeComposer7DequeueEPti = 0x00000000002c0710 + __sdk_start;
_ZN2nn2sf4cmif6client6detail13CmifProxyImplINS_4pctl6detail3ipc23IParentalControlServiceENS2_19CmifDomainProxyKindINS0_4hipc6client38Hipc2ClientSessionManagedProxyKindBaseINSB_18Hipc2ProxyKindBaseILNSA_6detail11MessageTypeE6EEEEEEENS0_30MemoryResourceAllocationPolicyES8_NS3_19ProcessModifierImplINS2_21DefaultProxyFilterTagEEEE29_nn_sf_sync_RequestPostEventsENS0_3OutIivEERKNS0_8OutArrayINS6_7service7watcher9EventDataEEE = 0x0000000000349680 + __sdk_start;
property_get = 0x0000000000429320 + __sdk_start;
_ZN2nn2sf4cmif6client6detail36GetClientProcessorImplWithObjectBaseINS2_19CmifDomainProxyKindINS0_4hipc6client38Hipc2ClientSessionManagedProxyKindBaseINS7_18Hipc2ProxyKindBaseILNS6_6detail11MessageTypeE6EEEEEEENS3_19ProcessModifierImplINS2_21DefaultProxyFilterTagEEEE14ObjectAssignerINS0_25StatelessAllocationPolicyINS0_22ExpHeapStaticAllocatorILm2048ENS_7account6detail12ObjectHolder24ObjectHolderAllocatorTagEEEEENS0_6detail23StatelessDummyAllocatorEE14AllocateObjectINSN_13IAsyncContextEEEvi = 0x0000000000008c70 + __sdk_start;
_ZN2nn5codec26GetOpusDecoderChannelCountEPKNS0_15OpusDecoderTypeE = 0x00000000000dee10 + __sdk_start;
_ZThn32_N2nn2sf4cmif6client6detail13CmifProxyImplINS_7friends6detail3ipc28IDaemonSuspendSessionServiceENS2_19CmifDomainProxyKindINS0_4hipc6client38Hipc2ClientSessionManagedProxyKindBaseINSB_18Hipc2ProxyKindBaseILNSA_6detail11MessageTypeE6EEEEEEENS0_30MemoryResourceAllocationPolicyES8_NS3_19ProcessModifierImplINS2_21DefaultProxyFilterTagEEEE17GetCmifBaseObjectEv = 0x00000000001a7350 + __sdk_start;
_ZN2nn2fs6detail9RomFsFileD1Ev = 0x00000000001afeb0 + __sdk_start;
_ZN2nn2fs6detail24SaveDataImporterVersion2D2Ev = 0x00000000001f7960 + __sdk_start;
_ZN2nn2oe35BeginBlockingHomeButtonShortPressedEv = 0x0000000000335750 + __sdk_start;
nnsocketSelect = 0x000000000037c3d0 + __sdk_start;
_ZN2nn2sf33GetCurrentEffectiveMemoryResourceEv = 0x00000000003705c0 + __sdk_start;
_ZNK7android10IInterface8asBinderEv = 0x000000000041b240 + __sdk_start;
nncryptoEncryptAes128Ctr = 0x0000000000135dc0 + __sdk_start;
NvOsTlsAllocWithDestructor = 0x00000000003d7f40 + __sdk_start;
_ZN2nn5audio16SharedRingBuffer28GetReleasedBufferForPlaybackEv = 0x0000000000058dd0 + __sdk_start;
_ZN2nn5codec25FreeRam_SbrDecWorkBuffer1EPPi = 0x000000000012c680 + __sdk_start;
_ZTIN2nn5fssrv2sf17ISaveDataImporterE = 0x0000000000c21440 + __sdk_start;
_ZN2nn2fs19GetCacheStorageSizeEPlS1_i = 0x00000000001ef7f0 + __sdk_start;
_ZN2nn2os21TimedAcquireSemaphoreEPNS0_13SemaphoreTypeENS_8TimeSpanE = 0x000000000033b890 + __sdk_start;
_ZTSN2nn2sf4cmif6client6detail13CmifProxyImplINS_8settings24ISettingsItemKeyIteratorENS0_4hipc6client18Hipc2ProxyKindBaseILNS7_6detail11MessageTypeE6EEENS0_30MemoryResourceAllocationPolicyES6_NS3_19ProcessModifierImplINS2_21DefaultProxyFilterTagEEEEE = 0x0000000000ab2308 + __sdk_start;
_ZN2nn3web14ShowWebPageArg16SetLeftStickModeENS0_16WebLeftStickModeE = 0x00000000003c8ca0 + __sdk_start;
pread = 0x000000000051ca18 + __sdk_start;
_ZN2nn2os6detail30InterProcessEventImplByHorizon7TryWaitEjb = 0x00000000003439a0 + __sdk_start;
_ZN2nn2sf4cmif6client6detail13CmifProxyImplINS_8settings28IFirmwareDebugSettingsServerENS0_4hipc6client18Hipc2ProxyKindBaseILNS7_6detail11MessageTypeE6EEENS0_30MemoryResourceAllocationPolicyES6_NS3_19ProcessModifierImplINS2_21DefaultProxyFilterTagEEEE31_nn_sf_sync_SetWebInspectorFlagEb = 0x0000000000369ff0 + __sdk_start;
NvRmGpuLibOpen = 0x00000000004040d0 + __sdk_start;
_ZNKSt3__18time_getIwNS_19istreambuf_iteratorIwNS_11char_traitsIwEEEEE11__get_year4ERiRS4_S4_RjRKNS_5ctypeIwEE = 0x00000000004c28c8 + __sdk_start;
_ZTINSt3__18time_getIcNS_19istreambuf_iteratorIcNS_11char_traitsIcEEEEEE = 0x0000000000c47528 + __sdk_start;
TYPESET_destroy = 0x000000000019ac30 + __sdk_start;
_ZN7android22ISurfaceComposerClientD2Ev = 0x000000000043d010 + __sdk_start;
FDKstrncpy = 0x0000000000131cf0 + __sdk_start;
_ZN2nn2fs6detail7KeySeed4SizeE = 0x0000000000a71270 + __sdk_start;
_ZNK2nn3mii21ParamCharInfoAccessor9IsSpecialEv = 0x00000000002f1ba0 + __sdk_start;
_ZN2nn2sf4hipc6server24HipcServerSessionManager14ProcessMessageEPNS2_21HipcServerSessionBaseEPKNS1_6detail25HipcMessageBufferAccessorEPKNS6_21HipcMessageHeaderInfoEPvm = 0x0000000000377dd0 + __sdk_start;
_ZNK7android6Region14mergeExclusiveERKNS_4RectE = 0x000000000044a800 + __sdk_start;
_ZNKSt3__115__codecvt_utf16IwLb1EE5do_inER11__mbstate_tPKcS5_RS5_PwS7_RS7_ = 0x00000000004d6608 + __sdk_start;
send = 0x0000000000518b18 + __sdk_start;
_ZNK2nn3hid15VibrationPlayer18GetCurrentPositionEv = 0x00000000002193d0 + __sdk_start;
_ZNSt3__115recursive_mutex6unlockEv = 0x00000000004e3ca8 + __sdk_start;
_ZN2nn5audio18GetAuxDelayTimeMaxEPKNS0_12AuxDelayTypeE = 0x000000000003e900 + __sdk_start;
_ZN2nn3hid14KeyboardLayout12KoreanHangulE = 0x0000000000a7264c + __sdk_start;
_ZN2nn7nlibsdk4heap12TlsHeapCache14AllocFuncMode0INSt3__117integral_constantIbLb1EEEEEPvPS2_m = 0x00000000002e5a30 + __sdk_start;
_ZN2nn2sf4cmif6client6detail13CmifProxyImplINS_12notification6server35INotificationServicesForApplicationENS2_19CmifDomainProxyKindINS0_4hipc6client38Hipc2ClientSessionManagedProxyKindBaseINSA_18Hipc2ProxyKindBaseILNS9_6detail11MessageTypeE6EEEEEEENS0_30MemoryResourceAllocationPolicyES7_NS3_19ProcessModifierImplINS2_21DefaultProxyFilterTagEEEE22_nn_sf_sync_InitializeEm = 0x000000000032dd70 + __sdk_start;
_ZN2nn8settings6detail17GetGyroscopeScaleEPNS0_7factory14GyroscopeScaleE = 0x0000000000363570 + __sdk_start;
__uselocale = 0x0000000000518960 + __sdk_start;
_ZN2nn2sf4cmif6client6detail13CmifProxyImplINS_2am7service22ILibraryAppletAccessorENS2_19CmifDomainProxyKindINS0_4hipc6client38Hipc2ClientSessionManagedProxyKindBaseINSA_18Hipc2ProxyKindBaseILNS9_6detail11MessageTypeE6EEEEEEENS0_30MemoryResourceAllocationPolicyES7_NS3_19ProcessModifierImplINS2_21DefaultProxyFilterTagEEEE30_nn_sf_sync_GetPopOutDataEventENS0_3OutINS0_12NativeHandleEvEE = 0x00000000000294f0 + __sdk_start;
_ZTSN2nn2sf6detail38ObjectImplFactoryWithStatefulAllocatorINS0_4cmif6client6detail9CmifProxyINS_3apm8IManagerENS0_4hipc6client18Hipc2ProxyKindBaseILNS9_6detail11MessageTypeE6EEENS0_30MemoryResourceAllocationPolicyENS5_19ProcessModifierImplINS4_21DefaultProxyFilterTagEEEvEESF_E6ObjectE = 0x0000000000a3aaa4 + __sdk_start;
_ZN2nn5audio6common10NodeStates10ResetStateEv = 0x00000000000493f0 + __sdk_start;
FSS_add_font = 0x0000000000165250 + __sdk_start;
unw_regname = 0x0000000000509e70 + __sdk_start;
_ZN2nn2sf4cmif6client6detail13CmifProxyImplINS_7account4baas14IAdministratorENS2_19CmifDomainProxyKindINS0_4hipc6client38Hipc2ClientSessionManagedProxyKindBaseINSA_18Hipc2ProxyKindBaseILNS9_6detail11MessageTypeE6EEEEEEENS0_25StatelessAllocationPolicyINS0_22ExpHeapStaticAllocatorILm2048ENS5_6detail12ObjectHolder24ObjectHolderAllocatorTagEEEEES7_NS3_19ProcessModifierImplINS2_21DefaultProxyFilterTagEEEE29_nn_sf_sync_ImportAsyncForWinENS0_3OutINS0_13SharedPointerINSK_13IAsyncContextEEEvEENS5_23NetworkServiceAccountIdEmRKNS0_8InBufferE = 0x0000000000011870 + __sdk_start;
_ZN2nn5codec29Hcr_State_BODY_SIGN_ESC__SIGNEPNS0_13FDK_BITSTREAMEPv = 0x00000000000e90f0 + __sdk_start;
_ZTIN2nn3hid14VibrationMixerE = 0x0000000000c235b0 + __sdk_start;
nnutilZlib__tr_align = 0x00000000002a1900 + __sdk_start;
_ZN2nn3jit20CreateJitEnvironmentEPNS0_9JitHandleERKNS0_27JitEnvironmentConfigurationERKNS0_13JitPluginInfoEPvm = 0x00000000002bfe50 + __sdk_start;
nnmem_nlib_utf16_to_utf32char = 0x00000000002d0270 + __sdk_start;
_ZTv0_n24_N7android18GraphicBufferAllocD1Ev = 0x0000000000435bc0 + __sdk_start;
_ZN7android12ConsumerBase26setBuffersReleasedListenerERKNS_2wpINS0_23BuffersReleasedListenerEEE = 0x0000000000435350 + __sdk_start;
__cxa_decrement_exception_refcount = 0x00000000005087b8 + __sdk_start;
_ZN2nn2sf4cmif6client6detail13CmifProxyImplINS_7account29IAccountServiceForApplicationENS2_19CmifDomainProxyKindINS0_4hipc6client38Hipc2ClientSessionManagedProxyKindBaseINS9_18Hipc2ProxyKindBaseILNS8_6detail11MessageTypeE6EEEEEEENS0_25StatelessAllocationPolicyINS0_22ExpHeapStaticAllocatorILm2048ENS5_6detail12ObjectHolder24ObjectHolderAllocatorTagEEEEES6_NS3_19ProcessModifierImplINS2_21DefaultProxyFilterTagEEEE34_nn_sf_sync_StoreSaveDataThumbnailERKNS5_3UidERKNS0_8InBufferE = 0x00000000000056d0 + __sdk_start;
_ZN2nn2ec6detail22GetNsUidLengthAsStringENS0_5NsUidE = 0x0000000000157090 + __sdk_start;
_ZN2nn8irsensor6detail23GetImageProcessorStatusEPNS0_20ImageProcessorStatusERKbRKNS0_14IrCameraHandleE = 0x00000000002a3c20 + __sdk_start;
_ZNK2nn4util7UriPart9GetLengthEv = 0x00000000003b0b80 + __sdk_start;
_ZNK7android6Region9translateEii = 0x000000000044ac10 + __sdk_start;
_ZN2nn4npns6detail24AttachServiceProxySystemENS_2sf13SharedPointerINS0_11INpnsSystemEEE = 0x000000000032fc30 + __sdk_start;
NvRmGpuAddressSpaceAllocationClose = 0x00000000004046e0 + __sdk_start;
_ZTINSt3__113basic_ostreamIwNS_11char_traitsIwEEEE = 0x0000000000c45e60 + __sdk_start;
_ZN2nn2sf4cmif6client6detail13CmifProxyImplINS_2am7service18IDisplayControllerENS2_19CmifDomainProxyKindINS0_4hipc6client38Hipc2ClientSessionManagedProxyKindBaseINSA_18Hipc2ProxyKindBaseILNS9_6detail11MessageTypeE6EEEEEEENS0_30MemoryResourceAllocationPolicyES7_NS3_19ProcessModifierImplINS2_21DefaultProxyFilterTagEEEE47_nn_sf_sync_AcquireLastApplicationCaptureBufferENS0_3OutINS0_12NativeHandleEvEE = 0x0000000000027230 + __sdk_start;
_ZN2nn2fs17GetTotalSpaceSizeEPlPKc = 0x00000000001bd350 + __sdk_start;
_ZN2nn8irsensor6detail15IrSensorSession37GetImageTransferProcessorStateDefaultEPNS0_27ImageTransferProcessorStateEPvmRKNS0_14IrCameraHandleE = 0x00000000002a9490 + __sdk_start;
_ZN2nn12notification33WeeklyScheduleAlarmSettingBuilderC1ERKNS0_12AlarmSettingE = 0x000000000032d0d0 + __sdk_start;
nnosWaitInterruptEvent = 0x000000000033dc70 + __sdk_start;
_ZNK2nn5audio6server14EffectInfoBase26ShouldUpdateWorkBufferInfoEPKNS0_10EffectInfo11InParameterE = 0x0000000000066250 + __sdk_start;
_ZN2nn3hid6system6detail15SetButtonConfigERKNS1_17ButtonConfigRightERKNS1_11UniquePadIdE = 0x000000000021e0b0 + __sdk_start;
_ZN2nn2sf4cmif6client6detail13CmifProxyImplINS_3hid16IHidSystemServerENS0_4hipc6client18Hipc2ProxyKindBaseILNS7_6detail11MessageTypeE6EEENS0_30MemoryResourceAllocationPolicyES6_NS3_19ProcessModifierImplINS2_21DefaultProxyFilterTagEEEE45_nn_sf_sync_StartAnalogStickManualCalibrationENS5_6system11UniquePadIdEl = 0x0000000000231cd0 + __sdk_start;
_ZN10__cxxabiv119__setExceptionClassEP17_Unwind_Exceptionm = 0x0000000000508438 + __sdk_start;
_ZN2nn2sf4cmif6client6detail13CmifProxyImplINS_2am7service18IHomeMenuFunctionsENS2_19CmifDomainProxyKindINS0_4hipc6client38Hipc2ClientSessionManagedProxyKindBaseINSA_18Hipc2ProxyKindBaseILNS9_6detail11MessageTypeE6EEEEEEENS0_30MemoryResourceAllocationPolicyES7_NS3_19ProcessModifierImplINS2_21DefaultProxyFilterTagEEEE17GetCmifBaseObjectEv = 0x000000000002a5a0 + __sdk_start;
_ZN2nn2sf4cmif6client6detail13CmifProxyImplINS_7friends6detail3ipc14IFriendServiceENS2_19CmifDomainProxyKindINS0_4hipc6client38Hipc2ClientSessionManagedProxyKindBaseINSB_18Hipc2ProxyKindBaseILNSA_6detail11MessageTypeE6EEEEEEENS0_30MemoryResourceAllocationPolicyES8_NS3_19ProcessModifierImplINS2_21DefaultProxyFilterTagEEEE38_nn_sf_sync_IsFriendListCacheAvailableENS0_3OutIbvEERKNS_7account3UidE = 0x00000000001a0fc0 + __sdk_start;
nndetailImagePng_png_chunk_error = 0x0000000000279f50 + __sdk_start;
_ZN2nn2sf4cmif6client6detail13CmifProxyImplINS_8settings21ISystemSettingsServerENS0_4hipc6client18Hipc2ProxyKindBaseILNS7_6detail11MessageTypeE6EEENS0_30MemoryResourceAllocationPolicyES6_NS3_19ProcessModifierImplINS2_21DefaultProxyFilterTagEEEE36_nn_sf_sync_SetUsb30DeviceEnableFlagEb = 0x000000000036d450 + __sdk_start;
_ZN2nn5audio6server6detail33GetAudioSystemMasterVolumeSettingEPKNS0_15AudioDeviceNameE = 0x000000000006cc90 + __sdk_start;
compose_trans = 0x0000000000182060 + __sdk_start;
_ZN2nn8settings6system17SetLockScreenFlagEb = 0x000000000035da10 + __sdk_start;
_ZN2nn8settings6system14IsUsb30EnabledEv = 0x000000000035e450 + __sdk_start;
_ZNK2nn4time6detail20MonotonicSystemClock14GetCurrentTimeEPNS0_9PosixTimeE = 0x00000000003a3290 + __sdk_start;
_ZTIN2nn2sf4cmif6client6detail13CmifProxyImplINS_2am7service18IHomeMenuFunctionsENS2_19CmifDomainProxyKindINS0_4hipc6client38Hipc2ClientSessionManagedProxyKindBaseINSA_18Hipc2ProxyKindBaseILNS9_6detail11MessageTypeE6EEEEEEENS0_30MemoryResourceAllocationPolicyES7_NS3_19ProcessModifierImplINS2_21DefaultProxyFilterTagEEEEE = 0x0000000000c14f60 + __sdk_start;
_ZN2nn3nfp6client22IsCreatedUserInterfaceEv = 0x000000000030e4a0 + __sdk_start;
_ZN7android13GraphicBufferC2Ejjij = 0x0000000000447a80 + __sdk_start;
_ZN2nn5audio6server38CommandProcessingTimeEstimatorVersion38EstimateERKNS0_17DeviceSinkCommandE = 0x0000000000063480 + __sdk_start;
_ZN2nn7friends12UserPresence5ClearEv = 0x000000000019e980 + __sdk_start;
_ZN2nn2fs15RomFsFileSystemD2Ev = 0x00000000001b02e0 + __sdk_start;
_ZTVN2nn2os6detail36MultiWaitHolderOfMessageQueueNotFullE = 0x0000000000c2da80 + __sdk_start;
_ZN2nn2fs24HierarchicalRomFileTable10InitializeENS0_10SubStorageES2_S2_S2_ = 0x00000000001a9a10 + __sdk_start;
_ZN2nn8irsensor35GetClusteringProcessorDefaultConfigEPNS0_25ClusteringProcessorConfigE = 0x00000000002aa0d0 + __sdk_start;
_ZN2nn2oe17EnableCrashReportEv = 0x0000000000338070 + __sdk_start;
_ZNSt3__112basic_stringIwNS_11char_traitsIwEENS_9allocatorIwEEE6insertEmPKwm = 0x00000000004e88d8 + __sdk_start;
_ZN2nn5codec11OpusEncoder15SetWaveformTypeENS0_16OpusWaveformTypeE = 0x00000000000df0c0 + __sdk_start;
_ZN2nn9hidconfig22GetButtonConfigStorageEPNS0_17ButtonConfigRightEi = 0x0000000000223280 + __sdk_start;
pthread_key_create = 0x000000000051b958 + __sdk_start;
_ZN2nn2sf4cmif6client34CmifDomainProxyClientCoreProcessorINS0_4hipc6client38Hipc2ClientSessionManagedProxyKindBaseINS5_18Hipc2ProxyKindBaseILNS4_6detail11MessageTypeE6EEEEENS1_6detail14CoreMethodInfoINSt3__15tupleIJNSC_18OutRawArgumentInfoILm4ELm4ELl0EEENSC_18BufferArgumentInfoILi0ELi6ELm0EEENSC_17InRawArgumentInfoILm2ELm2ELl0EEEEEELm2ELm4ELb0EEESM_E7ProcessEPNS2_23CmifDomainClientMessageISB_E15ProxyBaseObjectENS2_24OutRawClientArgumentTypeILm4ELm4EEENS2_24BufferClientArgumentTypeENS2_23InRawClientArgumentTypeILm2ELm2EvEEj = 0x000000000032e1f0 + __sdk_start;
NvRmGpuDeviceGetInfo = 0x00000000004042d0 + __sdk_start;
_nnmusl_socket_IsNnmuslFileDescriptor = 0x0000000000560218 + __sdk_start;
_ZN2nn8settings7factory22GetAccelerometerOffsetEPNS1_19AccelerometerOffsetE = 0x000000000035c3d0 + __sdk_start;
_ZN2nn4htcs6detail25virtual_socket_collectionC2Ev = 0x0000000000246a40 + __sdk_start;
__atomic_exchange_1 = 0x00000000005155c8 + __sdk_start;
_ZN2nn5audio13EffectManager21UpdateEffectOutStatusEPNS0_10EffectInfo9OutStatusE = 0x0000000000042640 + __sdk_start;
_ZN2nn3hid15KeyCodeComposer15EnqueueAltCodesEPKii = 0x0000000000213ad0 + __sdk_start;
_ZNK2nn3ngc6detail2Bp11PrevSiblingEj = 0x000000000031b050 + __sdk_start;
__atomic_exchange_2 = 0x0000000000515640 + __sdk_start;
_ZN2nn2sf4hipc6client24Hipc2ClientCoreProcessorILNS1_6detail11MessageTypeE6ENS0_4cmif6detail14CoreMethodInfoINSt3__15tupleIJNS7_21OutHandleArgumentInfoILi0ELi1EEENS7_21OutObjectArgumentInfoILi0ELi0EEENS7_17InRawArgumentInfoILm32ELm8ELl0EEEEEELm32ELm0ELb0EEESH_E21ProcessWithOutObjectsEPNS2_26Hipc2ClientProxyBaseObjectENS6_6client27OutHandleClientArgumentTypeENSM_27OutObjectClientArgumentTypeENSM_23InRawClientArgumentTypeILm32ELm8EvEEjPNS0_13SharedPointerINS0_14IServiceObjectEEE = 0x00000000001528a0 + __sdk_start;
_ZN2nn2sf4cmif6client6detail13CmifProxyImplINS_3hid15IHidDebugServerENS0_4hipc6client18Hipc2ProxyKindBaseILNS7_6detail11MessageTypeE6EEENS0_30MemoryResourceAllocationPolicyES6_NS3_19ProcessModifierImplINS2_21DefaultProxyFilterTagEEEE33_nn_sf_sync_SetKuinaUartClockTrimENS5_6system11UniquePadIdEh = 0x000000000022e270 + __sdk_start;
_ZN2nn5audio28ClearPerformanceDetailTargetEPNS0_19AudioRendererConfigE = 0x00000000000451e0 + __sdk_start;
_ZN2nn5image6detail4jpeg15jpeg_idct_islowEPNS2_22jpeg_decompress_structEPNS2_19jpeg_component_infoEPsPPhi = 0x0000000000265dd0 + __sdk_start;
nndetailImagePng_png_reciprocal2 = 0x00000000002780d0 + __sdk_start;
_ZN2nn2sf4cmif6client6detail13CmifProxyImplINS_4npns11INpnsSystemENS0_4hipc6client18Hipc2ProxyKindBaseILNS7_6detail11MessageTypeE6EEENS0_30MemoryResourceAllocationPolicyES6_NS3_19ProcessModifierImplINS2_21DefaultProxyFilterTagEEEE26_nn_sf_sync_SubscribeTopicERKNS0_7InArrayIcEE = 0x0000000000331210 + __sdk_start;
_ZN2nn2sf6detail38ObjectImplFactoryWithStatefulAllocatorINS0_4cmif6client6detail9CmifProxyINS_4pctl6detail3ipc23IParentalControlServiceENS4_19CmifDomainProxyKindINS0_4hipc6client38Hipc2ClientSessionManagedProxyKindBaseINSD_18Hipc2ProxyKindBaseILNSC_6detail11MessageTypeE6EEEEEEENS0_30MemoryResourceAllocationPolicyENS5_19ProcessModifierImplINS4_21DefaultProxyFilterTagEEEvEESL_E6Object12AddReferenceEv = 0x0000000000348e30 + __sdk_start;
NvRmHostTriggerEventPollFd = 0x00000000003e9ab0 + __sdk_start;
__atomic_exchange_4 = 0x00000000005156b8 + __sdk_start;
_ZN2nn5audio6server16CommandGenerator19GenerateMixCommandsERNS1_7MixInfoE = 0x000000000005fc80 + __sdk_start;
nncodecLibopus_isqrt32 = 0x00000000000ab4b0 + __sdk_start;
_ZN2nn2fs6detail24SaveDataImporterVersion216InitializeImportEPll = 0x00000000001f7b10 + __sdk_start;
nndetailImagePng_png_do_write_interlace = 0x0000000000296830 + __sdk_start;
_ZTSN2nn2sf6detail38ObjectImplFactoryWithStatefulAllocatorINS0_4cmif6client6detail9CmifProxyINS_4nifm6detail14IStaticServiceENS4_19CmifDomainProxyKindINS0_4hipc6client38Hipc2ClientSessionManagedProxyKindBaseINSC_18Hipc2ProxyKindBaseILNSB_6detail11MessageTypeE6EEEEEEENS0_30MemoryResourceAllocationPolicyENS5_19ProcessModifierImplINS4_21DefaultProxyFilterTagEEEvEESK_E6ObjectE = 0x0000000000aad2d1 + __sdk_start;
nnmuslThreadPointerDestroyer = 0x0000000000d14c10 + __sdk_start;
__addvti3 = 0x000000000050fa20 + __sdk_start;
_ZTSN2nn2sf4cmif6client6detail13CmifProxyImplINS_7account4baas14IAdministratorENS2_19CmifDomainProxyKindINS0_4hipc6client38Hipc2ClientSessionManagedProxyKindBaseINSA_18Hipc2ProxyKindBaseILNS9_6detail11MessageTypeE6EEEEEEENS0_25StatelessAllocationPolicyINS0_22ExpHeapStaticAllocatorILm2048ENS5_6detail12ObjectHolder24ObjectHolderAllocatorTagEEEEES7_NS3_19ProcessModifierImplINS2_21DefaultProxyFilterTagEEEEE = 0x0000000000a2d2ec + __sdk_start;
_ZN2nn4edid6detail19GetManufacturerCodeEPNS0_11DisplayInfoEt = 0x0000000000159560 + __sdk_start;
_ZN2nn2fs24HierarchicalRomFileTable24ConvertPathToDirectoryIdEPiPKc = 0x00000000001aa2d0 + __sdk_start;
_ZNK2nn3mii6detail11CoreDataRaw8GetMoleXEv = 0x00000000002f7390 + __sdk_start;
_ZTVN2nn2sf6detail38ObjectImplFactoryWithStatefulAllocatorINS0_4cmif6client6detail9CmifProxyINS_3nsd6detail8IManagerENS0_4hipc6client18Hipc2ProxyKindBaseILNSA_6detail11MessageTypeE6EEENS0_30MemoryResourceAllocationPolicyENS5_19ProcessModifierImplINS4_21DefaultProxyFilterTagEEEvEESG_E6ObjectE = 0x0000000000c2d4e0 + __sdk_start;
_ZN2nn2oe37GetHdcpAuthenticationStateChangeEventEPNS_2os11SystemEventE = 0x0000000000335d80 + __sdk_start;
_ZN7android5Fence9unflattenERPKvRmRPKiS4_ = 0x0000000000447580 + __sdk_start;
_ZNSt3__118shared_timed_mutexC2Ev = 0x00000000004e4b60 + __sdk_start;
__nnmusl_TimerWait = 0x000000000055c1f8 + __sdk_start;
_ZN2nn2fs3dbm15AllocationTable10WriteBlockEPKNS2_12TableElementEj = 0x00000000001b35c0 + __sdk_start;
_ZNK2nn3mii6detail12StoreDataRaw13GetFontRegionEv = 0x00000000002f9b40 + __sdk_start;
_ZN2nn3nsd6detail3ipc19GetNasRequestFqdnExEPNS_6ResultEPNS0_4FqdnE = 0x00000000003330d0 + __sdk_start;
_ZTSNSt3__113basic_istreamIwNS_11char_traitsIwEEEE = 0x0000000000ac6e65 + __sdk_start;
_ZNKSt3__115__codecvt_utf16IwLb1EE13do_max_lengthEv = 0x00000000004d6850 + __sdk_start;
FsLtt_new = 0x0000000000189c70 + __sdk_start;
_ZN2nn2fs21MountSaveDataForDebugEPKc = 0x00000000001e9af0 + __sdk_start;
_ZN2nn4nifm6detail13RequestClient24SetRequirementBySubmitIdEj = 0x0000000000324ab0 + __sdk_start;
__atomic_exchange_8 = 0x0000000000515730 + __sdk_start;
_ZN2nn5audio6server22PerformanceManagerImplINS1_33PerformanceManagerImplVersion1TagENS0_6common30PerformanceFrameHeaderVersion1ENS4_24PerformanceEntryVersion1ENS4_25PerformanceDetailVersion1ENS0_20PerformanceSysDetailEE12GetNextEntryEPNS1_25PerformanceEntryAddressesENS0_20PerformanceEntryTypeEj = 0x00000000000654d0 + __sdk_start;
_ZN2nn2fs6detail21SaveDataChunkExporter18GetRestRawDataSizeEv = 0x00000000001f78e0 + __sdk_start;
_ZTSN2nn6jitsrv11IJitServiceE = 0x0000000000a8df2c + __sdk_start;
_ZN2nn3mii6detail11CoreDataRaw16SetEyebrowRotateEi = 0x00000000002f6100 + __sdk_start;
_ZNKSt3__112basic_stringIwNS_11char_traitsIwEENS_9allocatorIwEEE13find_first_ofEPKwmm = 0x00000000004e9450 + __sdk_start;
_ZTSN2nn9bluetooth14IBluetoothUserE = 0x0000000000a4e51a + __sdk_start;
nncodecLibopus_opus_repacketizer_cat = 0x00000000000d6510 + __sdk_start;
_ZN2nn2fs6detail24SaveDataImporterVersion216GetImportContextEPNS0_25ISaveDataDivisionImporter13ImportContextE = 0x00000000001f7cf0 + __sdk_start;
_ZN2nn4util10BitFlagSetILi256ENS_3hid11KeyboardKeyEE4FlagILi227EE4MaskE = 0x0000000000a72578 + __sdk_start;
_ZN2nn5audio19SplitterInfoManager36GetSplitterDestinationWorkBufferSizeEi = 0x00000000000464c0 + __sdk_start;
_ZN2nn5audio16RemoveDeviceSinkEPNS0_19AudioRendererConfigEPNS0_14DeviceSinkTypeEPNS0_12FinalMixTypeE = 0x0000000000045640 + __sdk_start;
_ZN2nn3hid14KeyboardLayout10PortugueseE = 0x0000000000a72638 + __sdk_start;
_ZN2nn2sf4cmif6client6detail13CmifProxyImplINS_7account19IAccountServiceBaseENS2_19CmifDomainProxyKindINS0_4hipc6client38Hipc2ClientSessionManagedProxyKindBaseINS9_18Hipc2ProxyKindBaseILNS8_6detail11MessageTypeE6EEEEEEENS0_25StatelessAllocationPolicyINS0_22ExpHeapStaticAllocatorILm2048ENS5_6detail12ObjectHolder24ObjectHolderAllocatorTagEEEEENS5_31IAccountServiceForAdministratorENS3_19ProcessModifierImplINS2_21DefaultProxyFilterTagEEEE24_nn_sf_sync_ListAllUsersERKNS0_8OutArrayINS5_3UidEEE = 0x000000000000dce0 + __sdk_start;
_ZNK2nn5audio6server10PoolMapper17IsForceMapEnabledEv = 0x0000000000067030 + __sdk_start;
_ZN2nn2fs19MountContentStorageENS0_16ContentStorageIdE = 0x00000000001c7bd0 + __sdk_start;
_ZN2nn4util10BitFlagSetILi256ENS_3hid11KeyboardKeyEE4FlagILi41EE4MaskE = 0x0000000000a71a38 + __sdk_start;
_ZTIN2nn2sf4cmif6client6detail13CmifProxyImplINS_4nifm6detail14IStaticServiceENS2_19CmifDomainProxyKindINS0_4hipc6client38Hipc2ClientSessionManagedProxyKindBaseINSA_18Hipc2ProxyKindBaseILNS9_6detail11MessageTypeE6EEEEEEENS0_30MemoryResourceAllocationPolicyES7_NS3_19ProcessModifierImplINS2_21DefaultProxyFilterTagEEEEE = 0x0000000000c2bf08 + __sdk_start;
_ZN2nn6socket8InetNtopENS0_6FamilyEPKvPcj = 0x000000000037be40 + __sdk_start;
_ZTSN2nn2sf4cmif6client6detail13CmifProxyImplINS_7account6detail13IAsyncContextENS2_19CmifDomainProxyKindINS0_4hipc6client38Hipc2ClientSessionManagedProxyKindBaseINSA_18Hipc2ProxyKindBaseILNS9_6detail11MessageTypeE6EEEEEEENS0_30MemoryResourceAllocationPolicyES7_NS3_19ProcessModifierImplINS2_21DefaultProxyFilterTagEEEEE = 0x0000000000a2f24b + __sdk_start;
_ZN2nn2sf4hipc6client24Hipc2ClientCoreProcessorILNS1_6detail11MessageTypeE6ENS0_4cmif6detail14CoreMethodInfoINSt3__15tupleIJNS7_18OutRawArgumentInfoILm8ELm8ELl0EEENS7_18BufferArgumentInfoILi0ELi6ELm0EEENS7_17InRawArgumentInfoILm1ELm1ELl0EEENSF_ILm8ELm2ELl2EEENSF_ILm8ELm2ELl10EEENSF_ILm8ELm8ELl24EEEEEELm32ELm8ELb1EEESK_E7ProcessEPNS2_26Hipc2ClientProxyBaseObjectENS6_6client24OutRawClientArgumentTypeILm8ELm8EEENSP_24BufferClientArgumentTypeENSP_23InRawClientArgumentTypeILm1ELm1EvEENST_ILm8ELm2EvEESV_NST_ILm8ELm8EvEEj = 0x00000000000983b0 + __sdk_start;
_ZN2nn5codec21sbrdecUpdateFreqScaleEPhS1_jPNS0_15SBR_HEADER_DATAEj = 0x000000000012d160 + __sdk_start;
_ZN2nn3htc13ServiceHolder17SetCradleAttachedEb = 0x000000000023bd20 + __sdk_start;
_ZThn8_N7android23BnGraphicBufferProducer17onGetNativeHandleEjRjRb = 0x00000000004376e0 + __sdk_start;
_ZTINSt3__114__num_get_baseE = 0x0000000000c47170 + __sdk_start;
_unw_remove_dynamic_fde = 0x000000000050a0c0 + __sdk_start;
_ZN2nn2sf4cmif6client6detail13CmifProxyImplINS_2am7service15IStorageChannelENS2_19CmifDomainProxyKindINS0_4hipc6client38Hipc2ClientSessionManagedProxyKindBaseINSA_18Hipc2ProxyKindBaseILNS9_6detail11MessageTypeE6EEEEEEENS0_30MemoryResourceAllocationPolicyES7_NS3_19ProcessModifierImplINS2_21DefaultProxyFilterTagEEEE17_nn_sf_sync_UnpopENS0_13SharedPointerINS6_8IStorageEEE = 0x0000000000025990 + __sdk_start;
_ZTSN2nn2sf13InterfaceInfoINS_5audio6detail14IAudioRendererEE4_tABINS5_5_tO2NINS2_6server24AudioRendererManagerImpl17AudioRendererImplEE4typeES4_E4typeE = 0x0000000000a4374d + __sdk_start;
_ZNK2nn7friends14FriendPresence17GetLastOnlineTimeEv = 0x000000000019ec20 + __sdk_start;
_ZN2nn8settings6system15GetSerialNumberEPNS1_12SerialNumberE = 0x000000000035d280 + __sdk_start;
_ZTSN2nn2sf4cmif6server22CmifDomainServerObject23CmifDomainServerMessageE = 0x0000000000ab374f + __sdk_start;
NvOsFwrite = 0x00000000003d0e50 + __sdk_start;
_ZN7android7RefBaseD2Ev = 0x000000000044cbc0 + __sdk_start;
_ZN2nn3err6detail29DefaultErrorMessageDataExistsEj = 0x000000000015d060 + __sdk_start;
nndetailImagePng_png_sRGB_base = 0x0000000000a87730 + __sdk_start;
_ZNSt3__16chrono12system_clock3nowEv = 0x00000000004a1940 + __sdk_start;
pthread_rwlock_unlock = 0x000000000051b9c8 + __sdk_start;
_ZN2nn5audio31ProcessPolyphaseResamplerBufferEPNS0_22PolyphaseResamplerTypeEPiPsmPKsi = 0x000000000004b2c0 + __sdk_start;
_ZTVN2nn2sf6detail38ObjectImplFactoryWithStatefulAllocatorINS0_13InterfaceInfoINS_5audio6detail12IAudioDeviceEE4_tABINS7_5_tO2NINS4_6server24AudioRendererManagerImpl15AudioDeviceImplEE4typeES6_E4typeENS0_24StatefulAllocationPolicyINS0_16ExpHeapAllocatorEEEE6ObjectE = 0x0000000000c193a0 + __sdk_start;
nncodecLibopus_silk_process_gains_FIX = 0x00000000000cc050 + __sdk_start;
_ZN2nn2fs25OpenAccessFailureResolverEPNSt3__110unique_ptrINS0_21AccessFailureResolverENS1_14default_deleteIS3_EEEEmb = 0x00000000001c5f30 + __sdk_start;
_ZN2nn3hid14KeyboardLayout8JapaneseE = 0x0000000000a72634 + __sdk_start;
_ZNK2nn4pctl18PairingAccountInfo15IsInstanceValidEv = 0x0000000000347cf0 + __sdk_start;
_ZNSt3__121__libcpp_execute_onceEPNS_9once_flagEPFvvE = 0x00000000004efdc8 + __sdk_start;
setlinebuf = 0x00000000005513d0 + __sdk_start;
_ZN2nn2sf6detail39ObjectImplFactoryWithStatelessAllocatorINS0_4cmif6client6detail9CmifProxyINS_7account6detail9INotifierENS4_19CmifDomainProxyKindINS0_4hipc6client38Hipc2ClientSessionManagedProxyKindBaseINSC_18Hipc2ProxyKindBaseILNSB_6detail11MessageTypeE6EEEEEEENS0_25StatelessAllocationPolicyINS0_22ExpHeapStaticAllocatorILm2048ENS8_12ObjectHolder24ObjectHolderAllocatorTagEEEEENS5_19ProcessModifierImplINS4_21DefaultProxyFilterTagEEEvEESP_E6Object7ReleaseEv = 0x000000000000b2c0 + __sdk_start;
_ZN2nn7account38ExternalNetworkServiceAccountRegistrarC2Ev = 0x0000000000014e40 + __sdk_start;
_ZN2nn2fs6detail12FileAccessor7GetSizeEPl = 0x00000000001b6db0 + __sdk_start;
_ZN2nn2sf4cmif6client6detail13CmifProxyImplINS_8settings21ISystemSettingsServerENS0_4hipc6client18Hipc2ProxyKindBaseILNS7_6detail11MessageTypeE6EEENS0_30MemoryResourceAllocationPolicyES6_NS3_19ProcessModifierImplINS2_21DefaultProxyFilterTagEEEE45_nn_sf_sync_GetButtonConfigRegisteredSettingsENS0_3OutIivEERKNS0_8OutArrayINS5_6system30ButtonConfigRegisteredSettingsEEE = 0x000000000036d980 + __sdk_start;
_ZN2nn8settings6detail28SetHeadphoneVolumeUpdateFlagEb = 0x000000000035f920 + __sdk_start;
_ZNSt3__112basic_stringIwNS_11char_traitsIwEENS_9allocatorIwEEE9push_backEw = 0x00000000004e8538 + __sdk_start;
_ZN2nn3mii6detail12StoreDataRaw8SetBuildEi = 0x00000000002fa370 + __sdk_start;
_ZN2nn8settings6system30SetAnalogStickUserCalibrationLERKNS1_26AnalogStickUserCalibrationE = 0x000000000035b570 + __sdk_start;
_ZN2nn2os6detail26MultiWaitHolderOfSemaphore15AddToObjectListEv = 0x00000000003402e0 + __sdk_start;
_ZN7android6Region13operationSelfERKS0_iii = 0x000000000044adf0 + __sdk_start;
_ZN22nerd_gillette_internal5otete7jaimev221GetTanHalfFieldOfViewEPfS2_ = 0x00000000002af150 + __sdk_start;
_ZN2nn8settings5fwdbg18IsDebugModeEnabledEv = 0x0000000000357f20 + __sdk_start;
_ZNKSt3__17num_getIcNS_19istreambuf_iteratorIcNS_11char_traitsIcEEEEE6do_getES4_S4_RNS_8ios_baseERjRPv = 0x00000000004b51c0 + __sdk_start;
_ZTINSt3__118__time_get_storageIwEE = 0x0000000000c47890 + __sdk_start;
_ZTIN2nn2sf4cmif6client6detail13CmifProxyImplINS_7account3nas21IAuthorizationRequestENS2_19CmifDomainProxyKindINS0_4hipc6client38Hipc2ClientSessionManagedProxyKindBaseINSA_18Hipc2ProxyKindBaseILNS9_6detail11MessageTypeE6EEEEEEENS0_25StatelessAllocationPolicyINS0_22ExpHeapStaticAllocatorILm2048ENS5_6detail12ObjectHolder24ObjectHolderAllocatorTagEEEEES7_NS3_19ProcessModifierImplINS2_21DefaultProxyFilterTagEEEEE = 0x0000000000c0d8c8 + __sdk_start;
nncodecLibopus_silk_biquad_alt = 0x00000000000b9a10 + __sdk_start;
_ZN2nn2fs16SaveDataExporter11GetRestSizeEv = 0x00000000001f5c60 + __sdk_start;
_ZN2nn7friends6detail17ShimLibraryGlobalC1Ev = 0x000000000019fb30 + __sdk_start;
_ZNK2nn3mii8CreateIdeqERKS1_ = 0x00000000002f1f90 + __sdk_start;
_ZN2nn3ngc15ProfanityFilter24MaskProfanityWordsInTextEPiPDsj = 0x0000000000313c60 + __sdk_start;
_ZN2nn4util6detail7msgpack10WriteMap16EPNS0_17MessagePackWriter11StreamParamEt = 0x00000000003adf90 + __sdk_start;
localtime = 0x0000000000557250 + __sdk_start;
_ZN2nn2sf4cmif6client6detail13CmifProxyImplINS_2am7service15IAppletAccessorENS2_19CmifDomainProxyKindINS0_4hipc6client38Hipc2ClientSessionManagedProxyKindBaseINSA_18Hipc2ProxyKindBaseILNS9_6detail11MessageTypeE6EEEEEEENS0_30MemoryResourceAllocationPolicyES7_NS3_19ProcessModifierImplINS2_21DefaultProxyFilterTagEEEE12GetProxyInfoEv = 0x000000000002b5c0 + __sdk_start;
_ZN2nn2sf4cmif6client6detail13CmifProxyImplINS_2am7service18IAppletProxyCommonENS2_19CmifDomainProxyKindINS0_4hipc6client38Hipc2ClientSessionManagedProxyKindBaseINSA_18Hipc2ProxyKindBaseILNS9_6detail11MessageTypeE6EEEEEEENS0_30MemoryResourceAllocationPolicyENS6_19IOverlayAppletProxyENS3_19ProcessModifierImplINS2_21DefaultProxyFilterTagEEEE30_nn_sf_sync_GetAudioControllerENS0_3OutINS0_13SharedPointerINS6_16IAudioControllerEEEvEE = 0x000000000002ead0 + __sdk_start;
_ZTSN2nn2am7service8IStorageE = 0x0000000000a31524 + __sdk_start;
_ZNK2nn3mii6detail16Ver3StoreDataRaw11GetPadding8Ev = 0x00000000003029e0 + __sdk_start;
__nnmusl_WaitThread = 0x000000000055b898 + __sdk_start;
silk_CB_lags_stage2 = 0x0000000000a538d6 + __sdk_start;
strstr = 0x0000000000555660 + __sdk_start;
_ZN2nn2sf4cmif6server6detail34CmifProcessFunctionTableGetterImplINS0_4hipc6detail12IHipcManagerEE29Process_CopyFromCurrentDomainEPPNS1_13CmifOutHeaderEPS7_PNS2_17CmifServerMessageEONS0_6detail14PointerAndSizeE = 0x0000000000376090 + __sdk_start;
_ZN2nn3web38ShowApplicationLegalInformationPageArgC2Ev = 0x00000000003c7090 + __sdk_start;
silk_CB_lags_stage3 = 0x0000000000a53902 + __sdk_start;
_ZN2nn5codec6dct_IVEPiiS1_ = 0x00000000000fd5c0 + __sdk_start;
_ZN2nn5prepo10PlayReport4SaveEv = 0x00000000003528e0 + __sdk_start;
_ZN2nn5audio23GetAudioOutChannelCountEPKNS0_8AudioOutE = 0x0000000000056410 + __sdk_start;
_ZN2nn4pctl18IsPlayTimerEnabledEv = 0x0000000000346b90 + __sdk_start;
_ZN7android6Parcel11finishWriteEm = 0x00000000004219e0 + __sdk_start;
_ZN2nn5audio6server24AudioRendererManagerImpl15AudioDeviceImpl26SetAudioDeviceOutputVolumeERKNS_2sf8InBufferEf = 0x000000000006c850 + __sdk_start;
_ZN2nn8settings6detail30GetHeadphoneVolumeWarningCountEPi = 0x000000000035f7a0 + __sdk_start;
_ZN2nn8settings6system20SetBacklightSettingsERKNS1_17BacklightSettingsE = 0x00000000003596e0 + __sdk_start;
_ZN7android7RefBase15onLastStrongRefEPKv = 0x000000000044cce0 + __sdk_start;
_ZN2nn2sf4cmif6client6detail13CmifProxyImplINS_8settings21ISystemSettingsServerENS0_4hipc6client18Hipc2ProxyKindBaseILNS7_6detail11MessageTypeE6EEENS0_30MemoryResourceAllocationPolicyES6_NS3_19ProcessModifierImplINS2_21DefaultProxyFilterTagEEEE48_nn_sf_sync_GetExternalSteadyClockInternalOffsetENS0_3OutIlvEE = 0x000000000036cb60 + __sdk_start;
_ZN2nn2sf4cmif6client6detail13CmifProxyImplINS_5visrv2sf26IApplicationDisplayServiceENS0_4hipc6client18Hipc2ProxyKindBaseILNS8_6detail11MessageTypeE6EEENS0_30MemoryResourceAllocationPolicyES7_NS3_19ProcessModifierImplINS2_21DefaultProxyFilterTagEEEE32_nn_sf_sync_GetDisplayResolutionENS0_3OutIlvEESK_m = 0x00000000003b9010 + __sdk_start;
NvRmMemHandleExportForAruid = 0x00000000003e1580 + __sdk_start;
_ZN2nn2sf4cmif6client6detail13CmifProxyImplINS_3hid15IHidDebugServerENS0_4hipc6client18Hipc2ProxyKindBaseILNS7_6detail11MessageTypeE6EEENS0_30MemoryResourceAllocationPolicyES6_NS3_19ProcessModifierImplINS2_21DefaultProxyFilterTagEEEE39_nn_sf_sync_SetHomeButtonAutoPilotStateENS5_5debug24HomeButtonAutoPilotStateE = 0x000000000022da40 + __sdk_start;
_ZN2nn5album14ShowAlbumFilesEv = 0x000000000001dc00 + __sdk_start;
_ZN2nn5audio6server24AudioRendererManagerImpl15AudioDeviceImplD2Ev = 0x000000000006c6d0 + __sdk_start;
_ZN2nn4lmem12CheckExpHeapEPNS0_6detail8HeapHeadEi = 0x00000000002c8b80 + __sdk_start;
NvRmChannelSetModuleClockRate = 0x00000000003e9960 + __sdk_start;
_ZNKSt3__111__libcpp_db8__find_cEPv = 0x00000000004a2de0 + __sdk_start;
_ZN2nn5audio3dsp25MailBoxImplByMessageQueue20g_MessageQueueBufferE = 0x0000000000c9ab38 + __sdk_start;
_ZN2nn5codec21deleteSbrEnvelopeCalcEPNS0_22SBR_CALCULATE_ENVELOPEE = 0x000000000011b3e0 + __sdk_start;
_ZNK2nn6crypto6detail7AesImplILm24EE12DecryptBlockEPvmPKvm = 0x0000000000140680 + __sdk_start;
_ZN2nn2sf4cmif6client6detail13CmifProxyImplINS_5visrv2sf21ISystemDisplayServiceENS0_4hipc6client18Hipc2ProxyKindBaseILNS8_6detail11MessageTypeE6EEENS0_30MemoryResourceAllocationPolicyES7_NS3_19ProcessModifierImplINS2_21DefaultProxyFilterTagEEEE33_nn_sf_sync_DisconnectSharedLayerENS_2vi7fbshare17SharedLayerHandleE = 0x00000000003ba270 + __sdk_start;
_ZNKSt3__120__time_get_c_storageIcE7__weeksEv = 0x00000000004d8948 + __sdk_start;
_ZTSN2nn2am7service25IProcessWindingControllerE = 0x0000000000a335b7 + __sdk_start;
FDKstrcmp = 0x0000000000131d70 + __sdk_start;
_ZN2nn6crypto6detail11CtrModeImplINS0_12AesEncryptorILm16EEEE16IncrementCounterEv = 0x0000000000133560 + __sdk_start;
_ZN2nn8irsensor6detail13StatusManager18AllocateMomentLifoERKNS0_14IrCameraHandleE = 0x00000000002a64e0 + __sdk_start;
_ZThn32_N2nn2sf4cmif6client6detail13CmifProxyImplINS_4nifm6detail12IScanRequestENS2_19CmifDomainProxyKindINS0_4hipc6client38Hipc2ClientSessionManagedProxyKindBaseINSA_18Hipc2ProxyKindBaseILNS9_6detail11MessageTypeE6EEEEEEENS0_30MemoryResourceAllocationPolicyES7_NS3_19ProcessModifierImplINS2_21DefaultProxyFilterTagEEEE17GetCmifBaseObjectEv = 0x0000000000326b80 + __sdk_start;
_ZN2nn2sf4cmif6client6detail13CmifProxyImplINS_8settings15ISettingsServerENS0_4hipc6client18Hipc2ProxyKindBaseILNS7_6detail11MessageTypeE6EEENS0_30MemoryResourceAllocationPolicyES6_NS3_19ProcessModifierImplINS2_21DefaultProxyFilterTagEEEE37_nn_sf_sync_GetAvailableLanguageCodesENS0_3OutIivEERKNS0_8OutArrayINS5_12LanguageCodeEEE = 0x000000000036afa0 + __sdk_start;
_ZN2nn5audio6common11DumpCommandEPKNS0_14MixRampCommandE = 0x000000000006cd50 + __sdk_start;
_ZN2nn4util10BitFlagSetILi256ENS_3hid11KeyboardKeyEE4FlagILi85EE4MaskE = 0x0000000000a71fb8 + __sdk_start;
_ZN2nn3hid15KeyCodeComposer21SetRomajiHiraganaModeEb = 0x0000000000212f90 + __sdk_start;
_ZN2nn4util17MessagePackWriter19WriteVerifiedStringEPKcj = 0x00000000003ac2f0 + __sdk_start;
__nnmusl_SignalConditionVariable = 0x000000000055be80 + __sdk_start;
_ZZN3nne9rapidjson13GenericReaderINS0_4UTF8IcEES3_N2nn4http4json23NoAllocatorForRapidJsonEE19ParseStringToStreamILj11ES3_S3_NS4_2ec4json29MemoryInputStreamForRapidJsonESC_EEvRT2_RT3_E6escape = 0x0000000000a652c4 + __sdk_start;
_ZNK2nn3mii6detail24NfpStoreDataExtentionRaw7IsValidEv = 0x00000000002f7e70 + __sdk_start;
_ZN2nn8settings6detail41GetButtonConfigRegisteredSettingsEmbeddedEPNS0_6system30ButtonConfigRegisteredSettingsE = 0x0000000000360cc0 + __sdk_start;
_ZTIN3nne4nlib11InputStreamE = 0x0000000000c332a8 + __sdk_start;
_ZN2nn5album12LibraryState8FinalizeEv = 0x000000000001afd0 + __sdk_start;
_ZN2nn5audio6server24AudioRendererManagerImpl17OpenAudioRendererENS_2sf3OutINS3_13SharedPointerINS0_6detail14IAudioRendererEEEvEERKNS6_30AudioRendererParameterInternalENS3_12NativeHandleESD_mNS_6applet20AppletResourceUserIdE = 0x000000000005c040 + __sdk_start;
_ZN2nn3ldn22SetStationAcceptPolicyENS0_12AcceptPolicyE = 0x00000000002c2ec0 + __sdk_start;
_ZTI10BaseAspectIN2nn5audio6server16CommandGeneratorEE = 0x0000000000c195c8 + __sdk_start;
_ZN2nn4util6TinyMt10InitializeEPKji = 0x00000000003af7b0 + __sdk_start;
_ZN2nn2sf4hipc6server2v110ClientInfo13NewClientInfoEv = 0x0000000000373ab0 + __sdk_start;
_ZN2nn6applet31TryPopFromInteractiveOutChannelEPNS0_13StorageHandleENS0_19LibraryAppletHandleE = 0x000000000003a5e0 + __sdk_start;
_ZN2nn5codec36GetHardwareOpusDecoderProcessingTimeEPKNS0_23HardwareOpusDecoderTypeE = 0x00000000000de530 + __sdk_start;
_ZN2nn6crypto6detail10CbcMacImpl20ProcessRemainingDataEPKvm = 0x000000000013bd20 + __sdk_start;
_ZN2nn4diag6detail21GetProcessNamePointerEPPKcPm = 0x00000000001469e0 + __sdk_start;
_ZTVN2nn2sf6detail38ObjectImplFactoryWithStatefulAllocatorINS0_4cmif6client6detail9CmifProxyINS_3hid26IActiveVibrationDeviceListENS0_4hipc6client18Hipc2ProxyKindBaseILNS9_6detail11MessageTypeE6EEENS0_30MemoryResourceAllocationPolicyENS5_19ProcessModifierImplINS4_21DefaultProxyFilterTagEEEvEESF_E6ObjectE = 0x0000000000c24730 + __sdk_start;
__nnmusl_pthread_rwlock_rdlock = 0x000000000055d468 + __sdk_start;
_ZNK2nn7friends6Friend11GetPresenceEv = 0x000000000019e490 + __sdk_start;
_ZN2nn3hid15VibrationPlayer23SetVibrationFileAddressEPKvm = 0x0000000000219090 + __sdk_start;
_ZN2nn4lmem6detail14DestroyExpHeapEPNS1_8HeapHeadE = 0x00000000002c96c0 + __sdk_start;
ftrylockfile = 0x0000000000519e60 + __sdk_start;
_ZN2nn5audio17SetVoiceMixVolumeEPNS0_9VoiceTypeEPNS0_12FinalMixTypeEfii = 0x00000000000479e0 + __sdk_start;
_ZN2nn2fs6detail34OutputAccessLogUnlessResultSuccessENS_6ResultENS_2os4TickES4_PKcPKvS6_z = 0x00000000001a92a0 + __sdk_start;
_ZN2nn2sf4cmif6client6detail13CmifProxyImplINS_3hid16IHidSystemServerENS0_4hipc6client18Hipc2ProxyKindBaseILNS7_6detail11MessageTypeE6EEENS0_30MemoryResourceAllocationPolicyES6_NS3_19ProcessModifierImplINS2_21DefaultProxyFilterTagEEEE36_nn_sf_sync_InitializeFirmwareUpdateEv = 0x0000000000231ef0 + __sdk_start;
nndetailImagePng_png_init_io = 0x0000000000274b40 + __sdk_start;
_ZN2nn3ldn11OpenStationEv = 0x00000000002c2ff0 + __sdk_start;
_ZN2nn7account29InitializeForMicroApplicationEv = 0x0000000000001aa0 + __sdk_start;
_ZTSN2nn2sf4cmif6client6detail13CmifProxyImplINS_2am7service19IOverlayAppletProxyENS2_19CmifDomainProxyKindINS0_4hipc6client38Hipc2ClientSessionManagedProxyKindBaseINSA_18Hipc2ProxyKindBaseILNS9_6detail11MessageTypeE6EEEEEEENS0_30MemoryResourceAllocationPolicyES7_NS3_19ProcessModifierImplINS2_21DefaultProxyFilterTagEEEEE = 0x0000000000a36b60 + __sdk_start;
_ZN2nn2sf4cmif6client34CmifDomainProxyClientCoreProcessorINS0_4hipc6client38Hipc2ClientSessionManagedProxyKindBaseINS5_18Hipc2ProxyKindBaseILNS4_6detail11MessageTypeE6EEEEENS1_6detail14CoreMethodInfoINSt3__15tupleIJNSC_18BufferArgumentInfoILi0ELi5ELm0EEENSC_17InRawArgumentInfoILm8ELm8ELl0EEEEEELm8ELm0ELb0EEESK_E7ProcessEPNS2_23CmifDomainClientMessageISB_E15ProxyBaseObjectENS2_24BufferClientArgumentTypeENS2_23InRawClientArgumentTypeILm8ELm8EvEEj = 0x00000000001d4b70 + __sdk_start;
_ZN2nn4lmem6detail16GetHeapTotalSizeEPNS1_8HeapHeadE = 0x00000000002c95b0 + __sdk_start;
_ZNK2nn2sf13SharedPointerINS_5visrv2sf21ISystemDisplayServiceEE19FunctionForBoolTypeEv = 0x00000000003c32c0 + __sdk_start;
_ZN2nn5audio26CreateAudioRendererManagerEb = 0x000000000004d100 + __sdk_start;
_ZN2nn2sf4cmif6client6detail13CmifProxyImplINS_4nifm6detail14IStaticServiceENS2_19CmifDomainProxyKindINS0_4hipc6client38Hipc2ClientSessionManagedProxyKindBaseINSA_18Hipc2ProxyKindBaseILNS9_6detail11MessageTypeE6EEEEEEENS0_30MemoryResourceAllocationPolicyES7_NS3_19ProcessModifierImplINS2_21DefaultProxyFilterTagEEEE32_nn_sf_sync_CreateGeneralServiceENS0_3OutINS0_13SharedPointerINS6_15IGeneralServiceEEEvEEm = 0x0000000000325cf0 + __sdk_start;
_ZTVSt18bad_variant_access = 0x0000000000c49798 + __sdk_start;
FDKrewind = 0x0000000000131f70 + __sdk_start;
get_phased_graymap = 0x00000000001891f0 + __sdk_start;
_ZN2nn3hid6system34SetFirmwareHotfixUpdateSkipEnabledEb = 0x0000000000222c80 + __sdk_start;
nndetailImagePng_png_handle_iTXt = 0x000000000028a910 + __sdk_start;
_ZNK2nn3mii6detail11CoreDataRaw11GetNoseTypeEv = 0x00000000002f6ef0 + __sdk_start;
_ZN2nn2sf6detail38ObjectImplFactoryWithStatefulAllocatorINS0_4cmif6client6detail9CmifProxyINS_2am7service17IWindowControllerENS4_19CmifDomainProxyKindINS0_4hipc6client38Hipc2ClientSessionManagedProxyKindBaseINSC_18Hipc2ProxyKindBaseILNSB_6detail11MessageTypeE6EEEEEEENS0_30MemoryResourceAllocationPolicyENS5_19ProcessModifierImplINS4_21DefaultProxyFilterTagEEEvEESK_E6Object7ReleaseEv = 0x0000000000026710 + __sdk_start;
_ZN2nn5audio30ResampleOutputGetNextFrameSizeEPKNS0_14ResamplerStateEi = 0x000000000004c250 + __sdk_start;
_ZNK2nn3mii6detail16Ver3StoreDataRaw11GetPadding2Ev = 0x00000000003026e0 + __sdk_start;
_ZN2nn9bluetooth18GattCharacteristicC2Ev = 0x0000000000090d80 + __sdk_start;
nncodecLibopus_silk_stereo_decode_pred = 0x00000000000c3290 + __sdk_start;
_ZN2nn5codec21qmfSynthesisFilteringEPNS0_15QMF_FILTER_BANKEPPiS4_PKNS0_16QMF_SCALE_FACTOREiPsiS3_ = 0x00000000001049f0 + __sdk_start;
_ZN2nn2fs8OpenFileEPNS0_10FileHandleEPKci = 0x00000000001bb140 + __sdk_start;
_ZN2nn2fs19RegisterExternalKeyERKNS0_8RightsIdERKNS_3spl9AccessKeyE = 0x00000000001e7180 + __sdk_start;
_ZN2nn3hid6system6detail15SetButtonConfigERKNS_9hidconfig20ButtonConfigEmbeddedERKNS1_11UniquePadIdE = 0x000000000021f720 + __sdk_start;
_ZN2nn2vi6buffer11BufferQueueC1Ev = 0x00000000003c4810 + __sdk_start;
_ZN2nn2sf4cmif6client6detail13CmifProxyImplINS_7account31IAccountServiceForSystemServiceENS2_19CmifDomainProxyKindINS0_4hipc6client38Hipc2ClientSessionManagedProxyKindBaseINS9_18Hipc2ProxyKindBaseILNS8_6detail11MessageTypeE6EEEEEEENS0_25StatelessAllocationPolicyINS0_22ExpHeapStaticAllocatorILm2048ENS5_6detail12ObjectHolder24ObjectHolderAllocatorTagEEEEENS5_31IAccountServiceForAdministratorENS3_19ProcessModifierImplINS2_21DefaultProxyFilterTagEEEE30_nn_sf_sync_ListQualifiedUsersERKNS0_8OutArrayINS5_3UidEEENS_13ApplicationIdE = 0x000000000000e490 + __sdk_start;
_ZTSN2nn2sf4cmif6client6detail9CmifProxyINS_5codec6detail27IHardwareOpusDecoderManagerENS2_19CmifDomainProxyKindINS0_4hipc6client38Hipc2ClientSessionManagedProxyKindBaseINSA_18Hipc2ProxyKindBaseILNS9_6detail11MessageTypeE6EEEEEEENS0_30MemoryResourceAllocationPolicyENS3_19ProcessModifierImplINS2_21DefaultProxyFilterTagEEEvEE = 0x0000000000a55e05 + __sdk_start;
nndetailImagePng_png_write_sCAL_s = 0x0000000000295ea0 + __sdk_start;
nnmem_nlib_printf = 0x00000000002cc760 + __sdk_start;
_ZN2nn2os33DetachReadableHandleOfSystemEventEPNS0_15SystemEventTypeE = 0x000000000033a040 + __sdk_start;
_ZN2nn6socket8resolver10serializer13DNSSerializer8ToBufferIcEElPhmPPT_ = 0x000000000037df80 + __sdk_start;
_ZN2nn2sf4cmif6client6detail13CmifProxyImplINS_5visrv2sf21ISystemDisplayServiceENS0_4hipc6client18Hipc2ProxyKindBaseILNS8_6detail11MessageTypeE6EEENS0_30MemoryResourceAllocationPolicyES7_NS3_19ProcessModifierImplINS2_21DefaultProxyFilterTagEEEE35_nn_sf_sync_CancelSharedFrameBufferENS_2vi7fbshare17SharedLayerHandleEl = 0x00000000003ba330 + __sdk_start;
_ZN2nn2sf6detail38ObjectImplFactoryWithStatefulAllocatorINS0_4cmif6client6detail9CmifProxyINS_2am7service11IMovieMakerENS4_19CmifDomainProxyKindINS0_4hipc6client38Hipc2ClientSessionManagedProxyKindBaseINSC_18Hipc2ProxyKindBaseILNSB_6detail11MessageTypeE6EEEEEEENS0_30MemoryResourceAllocationPolicyENS5_19ProcessModifierImplINS4_21DefaultProxyFilterTagEEEvEESK_E6Object12AddReferenceEv = 0x0000000000032070 + __sdk_start;
nnutilZlib_zError = 0x00000000002a3630 + __sdk_start;
_ZTSN2nn2sf6detail38ObjectImplFactoryWithStatefulAllocatorINS0_4cmif6client6detail9CmifProxyINS_3mii6detail16IDatabaseServiceENS4_19CmifDomainProxyKindINS0_4hipc6client38Hipc2ClientSessionManagedProxyKindBaseINSC_18Hipc2ProxyKindBaseILNSB_6detail11MessageTypeE6EEEEEEENS0_30MemoryResourceAllocationPolicyENS5_19ProcessModifierImplINS4_21DefaultProxyFilterTagEEEvEESK_E6ObjectE = 0x0000000000aa7e5d + __sdk_start;
_ZTVN2nn2sf6detail38ObjectImplFactoryWithStatefulAllocatorINS0_4cmif6client6detail9CmifProxyINS_3ssl2sf11ISslContextENS4_19CmifDomainProxyKindINS0_4hipc6client38Hipc2ClientSessionManagedProxyKindBaseINSC_18Hipc2ProxyKindBaseILNSB_6detail11MessageTypeE6EEEEEEENS0_24StatefulAllocationPolicyINS0_16ExpHeapAllocatorEEENS5_19ProcessModifierImplINS4_21DefaultProxyFilterTagEEEvEESM_E6ObjectE = 0x0000000000c32080 + __sdk_start;
NvRmMemCacheListSyncForDevice64 = 0x00000000003e17d0 + __sdk_start;
_ZTVN2nn2sf6detail39ObjectImplFactoryWithStatelessAllocatorINS0_4cmif6client6detail9CmifProxyINS_7account4http15IOAuthProcedureENS4_19CmifDomainProxyKindINS0_4hipc6client38Hipc2ClientSessionManagedProxyKindBaseINSC_18Hipc2ProxyKindBaseILNSB_6detail11MessageTypeE6EEEEEEENS0_25StatelessAllocationPolicyINS0_22ExpHeapStaticAllocatorILm2048ENS7_6detail12ObjectHolder24ObjectHolderAllocatorTagEEEEENS5_19ProcessModifierImplINS4_21DefaultProxyFilterTagEEEvEESQ_E6ObjectE = 0x0000000000c0eb50 + __sdk_start;
_ZN2nn4util6detail19FileInputStreamImpl4OpenEPKc = 0x00000000003b5eb0 + __sdk_start;
__fpurge = 0x000000000054f4b0 + __sdk_start;
_ZN2nn2sf4cmif6client6detail13CmifProxyImplINS_2am7service19IApplicationCreatorENS2_19CmifDomainProxyKindINS0_4hipc6client38Hipc2ClientSessionManagedProxyKindBaseINSA_18Hipc2ProxyKindBaseILNS9_6detail11MessageTypeE6EEEEEEENS0_30MemoryResourceAllocationPolicyES7_NS3_19ProcessModifierImplINS2_21DefaultProxyFilterTagEEEE17GetCmifBaseObjectEv = 0x000000000002ae70 + __sdk_start;
_ZN2nn6crypto6detail11XtsModeImpl20ProcessBlocksGenericEPhPKhi = 0x00000000001433e0 + __sdk_start;
_ZNK2nn3hid15KeyCodeComposer14GetDeadKeyModeEv = 0x0000000000212f60 + __sdk_start;
_ZNSt8bad_castD0Ev = 0x0000000000506788 + __sdk_start;
_ZN2nn5audio14GetVoiceVolumeEPKNS0_9VoiceTypeE = 0x00000000000479d0 + __sdk_start;
silk_LTP_vq_sizes = 0x0000000000a53e38 + __sdk_start;
nndetailImagePng_png_get_sBIT = 0x000000000027b790 + __sdk_start;
_ZN2nn2os21SdkRecursiveMutexType6UnlockEv = 0x000000000033b710 + __sdk_start;
_ZTVN2nn2fs3dbm22AllocationTableStorageE = 0x0000000000c1fe70 + __sdk_start;
NvOsFflush = 0x00000000003d0fc0 + __sdk_start;
_ZN2nn5audio6server13CommandBuffer8GenerateINS1_7command8UpsampleEJRiRPNS0_13UpsamplerInfoERKiRA6_KaSB_SB_SB_EEEPNT_3DefEjDpOT0_ = 0x0000000000060c80 + __sdk_start;
_ZTIN2nn2sf6detail38ObjectImplFactoryWithStatefulAllocatorINS0_4cmif6client6detail9CmifProxyINS_6capsrv2sf29IScreenShotApplicationServiceENS0_4hipc6client18Hipc2ProxyKindBaseILNSA_6detail11MessageTypeE6EEENS0_30MemoryResourceAllocationPolicyENS5_19ProcessModifierImplINS4_21DefaultProxyFilterTagEEEvEESG_E6ObjectE = 0x0000000000c1be90 + __sdk_start;
_ZN2nn2sf4cmif6client34CmifDomainProxyClientCoreProcessorINS0_4hipc6client38Hipc2ClientSessionManagedProxyKindBaseINS5_18Hipc2ProxyKindBaseILNS4_6detail11MessageTypeE6EEEEENS1_6detail14CoreMethodInfoINSt3__15tupleIJNSC_18OutRawArgumentInfoILm4ELm4ELl0EEENSG_ILm4ELm4ELl4EEENSC_18BufferArgumentInfoILi0ELi33ELm0EEENSC_17InRawArgumentInfoILm4ELm4ELl0EEEEEELm4ELm8ELb0EEESN_E7ProcessEPNS2_23CmifDomainClientMessageISB_E15ProxyBaseObjectENS2_24OutRawClientArgumentTypeILm4ELm4EEESV_NS2_24BufferClientArgumentTypeENS2_23InRawClientArgumentTypeILm4ELm4EvEEj = 0x000000000038b910 + __sdk_start;
_ZN2nn2fs6detail8AllocateEm = 0x00000000001e0ac0 + __sdk_start;
_ZNK2nn2fs6detail22LruFileDataCacheSystem14GetPageOfIndexEi = 0x00000000001fcbe0 + __sdk_start;
_ZN2nn5audio19ResetAuxI3dl2ReverbEPNS0_18AuxI3dl2ReverbTypeE = 0x000000000003df80 + __sdk_start;
_ZN2nn4diag6detail20DefaultAbortObserverERKNS0_9AbortInfoE = 0x0000000000145c60 + __sdk_start;
_ZN3nne9rapidjson4UTF8IcE8ValidateIN2nn2ec4json29MemoryInputStreamForRapidJsonES7_EEbRT_RT0_ = 0x000000000014d460 + __sdk_start;
_ZN2nn2sf4cmif6client6detail13CmifProxyImplINS_3hid15IHidDebugServerENS0_4hipc6client18Hipc2ProxyKindBaseILNS7_6detail11MessageTypeE6EEENS0_30MemoryResourceAllocationPolicyES6_NS3_19ProcessModifierImplINS2_21DefaultProxyFilterTagEEEE37_nn_sf_sync_ResetAnalogStickModelDataENS5_6system11UniquePadIdEi = 0x000000000022e680 + __sdk_start;
_ZN7android21SurfaceComposerClient7setCropERKNS_2spINS_7IBinderEEERKNS_4RectE = 0x0000000000444250 + __sdk_start;
_ZN7android19IGraphicBufferAllocD0Ev = 0x0000000000436230 + __sdk_start;
_ZNSt3__18numpunctIcED0Ev = 0x00000000004d7e08 + __sdk_start;
_ZN2nn2sf6detail38ObjectImplFactoryWithStatefulAllocatorINS0_4cmif6client6detail9CmifProxyINS_3mii6detail14IStaticServiceENS4_19CmifDomainProxyKindINS0_4hipc6client38Hipc2ClientSessionManagedProxyKindBaseINSC_18Hipc2ProxyKindBaseILNSB_6detail11MessageTypeE6EEEEEEENS0_30MemoryResourceAllocationPolicyENS5_19ProcessModifierImplINS4_21DefaultProxyFilterTagEEEvEESK_E6Object12AddReferenceEv = 0x0000000000304a10 + __sdk_start;
_ZN2nn8settings6detail26ResetDebugPadGenericPadMapEv = 0x0000000000367190 + __sdk_start;
_ZN2nn5audio18OpenDefaultAudioInEPNS0_7AudioInEPNS_2os11SystemEventERKNS0_16AudioInParameterE = 0x0000000000056f60 + __sdk_start;
_ZN2nn2sf4cmif6client6detail13CmifProxyImplINS_7friends6detail3ipc14IFriendServiceENS2_19CmifDomainProxyKindINS0_4hipc6client38Hipc2ClientSessionManagedProxyKindBaseINSB_18Hipc2ProxyKindBaseILNSA_6detail11MessageTypeE6EEEEEEENS0_30MemoryResourceAllocationPolicyES8_NS3_19ProcessModifierImplINS2_21DefaultProxyFilterTagEEEE51_nn_sf_sync_GetReceivedFriendInvitationDetailedInfoENS0_3OutINS6_25FriendInvitationGroupImplEvEERKNS_7account3UidENS5_23FriendInvitationGroupIdE = 0x00000000001a1740 + __sdk_start;
_ZTIN2nn2sf4cmif6client6detail9CmifProxyINS_4nifm6detail15INetworkProfileENS2_19CmifDomainProxyKindINS0_4hipc6client38Hipc2ClientSessionManagedProxyKindBaseINSA_18Hipc2ProxyKindBaseILNS9_6detail11MessageTypeE6EEEEEEENS0_30MemoryResourceAllocationPolicyENS3_19ProcessModifierImplINS2_21DefaultProxyFilterTagEEEvEE = 0x0000000000c2c5a8 + __sdk_start;
nncryptoAes256CtrDecryptorUpdate = 0x0000000000136870 + __sdk_start;
_ZN2nn6crypto6detail19RsaKeyPairGenerator10InitializeEmPvm = 0x000000000013ec60 + __sdk_start;
BAZOutlineSmooth = 0x000000000017c120 + __sdk_start;
_ZN2nn2sf4cmif6client6detail13CmifProxyImplINS_3hid16IHidSystemServerENS0_4hipc6client18Hipc2ProxyKindBaseILNS7_6detail11MessageTypeE6EEENS0_30MemoryResourceAllocationPolicyES6_NS3_19ProcessModifierImplINS2_21DefaultProxyFilterTagEEEE31_nn_sf_sync_StartFirmwareUpdateENS0_3OutINS5_6system26FirmwareUpdateDeviceHandleEvEENSJ_11UniquePadIdE = 0x0000000000231f90 + __sdk_start;
_ZN2nn8settings6detail38CreateFirmwareDebugSettingsServerProxyEPNS_2sf13SharedPointerINS0_28IFirmwareDebugSettingsServerEEE = 0x0000000000369c30 + __sdk_start;
_ZNKSt3__16locale4nameEv = 0x00000000004d0f10 + __sdk_start;
_ZNK2nn5audio6server10PoolMapper16GetProcessHandleEPKNS1_14MemoryPoolInfoE = 0x00000000000670f0 + __sdk_start;
_ZN2nn5codec11OpusDecoderD2Ev = 0x00000000000decd0 + __sdk_start;
_ZN2nn2sf4cmif6client6detail13CmifProxyImplINS_7friends6detail3ipc14IFriendServiceENS2_19CmifDomainProxyKindINS0_4hipc6client38Hipc2ClientSessionManagedProxyKindBaseINSB_18Hipc2ProxyKindBaseILNSA_6detail11MessageTypeE6EEEEEEENS0_30MemoryResourceAllocationPolicyES8_NS3_19ProcessModifierImplINS2_21DefaultProxyFilterTagEEEE33_nn_sf_sync_AddFacedFriendRequestERKNS_7account3UidERKNS5_33FacedFriendRequestRegistrationKeyERKNSO_8NicknameERKNS0_8InBufferE = 0x00000000001a1960 + __sdk_start;
_ZN2nn2sf4cmif6client34CmifDomainProxyClientCoreProcessorINS0_4hipc6client38Hipc2ClientSessionManagedProxyKindBaseINS5_18Hipc2ProxyKindBaseILNS4_6detail11MessageTypeE6EEEEENS1_6detail14CoreMethodInfoINSt3__15tupleIJNSC_21OutObjectArgumentInfoILi0ELi0EEENSC_18BufferArgumentInfoILi0ELi25ELm769EEEEEELm0ELm0ELb0EEESK_E21ProcessWithOutObjectsEPNS2_23CmifDomainClientMessageISB_E15ProxyBaseObjectENS2_27OutObjectClientArgumentTypeENS2_24BufferClientArgumentTypeEjPNS0_13SharedPointerINS0_14IServiceObjectEEE = 0x00000000001cf430 + __sdk_start;
_ZN2nn3ssl10Connection15GetConnectionIdEPm = 0x0000000000396320 + __sdk_start;
_ZN2nn4util6TinyMt9SaveStateEPNS1_5StateE = 0x00000000003afaf0 + __sdk_start;
_ZN2nn2vi13ObjectManager13m_DisplayLockE = 0x0000000000ceac88 + __sdk_start;
_ZN2nn2sf13InterfaceInfoINS_5audio6detail14IAudioRendererEE4_tABINS5_5_tO2NINS2_6server24AudioRendererManagerImpl17AudioRendererImplEE4typeES4_E4type33_nn_sf_sync_SetRenderingTimeLimitEi = 0x000000000005c7e0 + __sdk_start;
_ZNK2nn6crypto6detail7AesImplILm16EE11GetRoundKeyEv = 0x00000000001403b0 + __sdk_start;
_ZN2nn2sf4hipc6client24Hipc2ClientCoreProcessorILNS1_6detail11MessageTypeE6ENS0_4cmif6detail14CoreMethodInfoINSt3__15tupleIJNS7_17InRawArgumentInfoILm1ELm1ELl0EEENS7_18BufferArgumentInfoILi0ELi5ELm0EEENSD_ILi1ELi5ELm0EEENSB_ILm4ELm4ELl4EEENSB_ILm4ELm4ELl8EEEEEELm12ELm0ELb0EEESI_E7ProcessEPNS2_26Hipc2ClientProxyBaseObjectENS6_6client23InRawClientArgumentTypeILm1ELm1EvEENSN_24BufferClientArgumentTypeESQ_NSO_ILm4ELm4EvEESR_j = 0x0000000000153180 + __sdk_start;
_ZN2nn2sf4cmif6client6detail13CmifProxyImplINS_7timesrv6detail7service16ITimeZoneServiceENS2_19CmifDomainProxyKindINS0_4hipc6client38Hipc2ClientSessionManagedProxyKindBaseINSB_18Hipc2ProxyKindBaseILNSA_6detail11MessageTypeE6EEEEEEENS0_30MemoryResourceAllocationPolicyES8_NS3_19ProcessModifierImplINS2_21DefaultProxyFilterTagEEEE26_nn_sf_sync_ToCalendarTimeENS0_3OutINS_4time12CalendarTimeEvEENSO_INSP_2sf22CalendarAdditionalInfoEvEENSP_9PosixTimeERKNSP_12TimeZoneRuleE = 0x00000000003a5610 + __sdk_start;
_ZN2nn2sf4cmif6client6detail13CmifProxyImplINS_5visrv2sf22IManagerDisplayServiceENS0_4hipc6client18Hipc2ProxyKindBaseILNS8_6detail11MessageTypeE6EEENS0_30MemoryResourceAllocationPolicyES7_NS3_19ProcessModifierImplINS2_21DefaultProxyFilterTagEEEE44_nn_sf_sync_AttachSharedLayerToLowLevelLayerENS_2vi7fbshare17SharedLayerHandleEmRKNSK_27SharedLayerTextureIndexListE = 0x00000000003bb9d0 + __sdk_start;
_ZN2nn2sf4cmif6client6detail13CmifProxyImplINS_3mii6detail16IDatabaseServiceENS2_19CmifDomainProxyKindINS0_4hipc6client38Hipc2ClientSessionManagedProxyKindBaseINSA_18Hipc2ProxyKindBaseILNS9_6detail11MessageTypeE6EEEEEEENS0_30MemoryResourceAllocationPolicyES7_NS3_19ProcessModifierImplINS2_21DefaultProxyFilterTagEEEE18_nn_sf_sync_ImportERKNS0_8InBufferE = 0x0000000000304fc0 + __sdk_start;
_ZN2nn4nifm23TemporaryNetworkProfileD1Ev = 0x000000000032c800 + __sdk_start;
_ZTINSt3__111__money_getIwEE = 0x0000000000c47fd8 + __sdk_start;
_ZTVNSt3__15ctypeIwEE = 0x0000000000c464d0 + __sdk_start;
vfwprintf = 0x000000000052f1d8 + __sdk_start;
_ZN2nn7account16GetUserExistenceEPbRKNS0_3UidE = 0x0000000000001f30 + __sdk_start;
_ZN2nn5audio3dsp13ApplyMixRamp4EPfPKfffi = 0x000000000007a950 + __sdk_start;
_ZN2nn2sf4cmif6client34CmifDomainProxyClientCoreProcessorINS0_4hipc6client38Hipc2ClientSessionManagedProxyKindBaseINS5_18Hipc2ProxyKindBaseILNS4_6detail11MessageTypeE6EEEEENS1_6detail14CoreMethodInfoINSt3__15tupleIJNSC_17InRawArgumentInfoILm64ELm8ELl8EEENSG_ILm1ELm1ELl0EEENSC_18BufferArgumentInfoILi0ELi5ELm0EEENSJ_ILi1ELi5ELm0EEEEEELm72ELm0ELb0EEESM_E7ProcessEPNS2_23CmifDomainClientMessageISB_E15ProxyBaseObjectENS2_23InRawClientArgumentTypeILm64ELm8EvEENST_ILm1ELm1EvEENS2_24BufferClientArgumentTypeESW_j = 0x00000000001d1980 + __sdk_start;
_ZN2nn2sf4cmif6client6detail13CmifProxyImplINS_3hid16IHidSystemServerENS0_4hipc6client18Hipc2ProxyKindBaseILNS7_6detail11MessageTypeE6EEENS0_30MemoryResourceAllocationPolicyES6_NS3_19ProcessModifierImplINS2_21DefaultProxyFilterTagEEEE29_nn_sf_sync_GetPlatformConfigENS0_3OutINS5_6server14PlatformConfigEvEE = 0x00000000002310a0 + __sdk_start;
_ZNKSt3__115__codecvt_utf16IDsLb1EE11do_encodingEv = 0x00000000004d6bf8 + __sdk_start;
fnt_SuperRound = 0x000000000017bbf0 + __sdk_start;
_ZN2nn2fs3fsa11IFileSystem12DoQueryEntryEPcmPKcmNS1_7QueryIdES5_ = 0x00000000001b16a0 + __sdk_start;
_Z34__nnmusl_get_descriptor_table_infot = 0x0000000000557f58 + __sdk_start;
_ZN2nn2sf4cmif6client6detail13CmifProxyImplINS_3hid15IHidDebugServerENS0_4hipc6client18Hipc2ProxyKindBaseILNS7_6detail11MessageTypeE6EEENS0_30MemoryResourceAllocationPolicyES6_NS3_19ProcessModifierImplINS2_21DefaultProxyFilterTagEEEE36_nn_sf_sync_RequestKuinaUartClockCalENS5_6system11UniquePadIdE = 0x000000000022e230 + __sdk_start;
_ZNKSt3__117moneypunct_bynameIcLb0EE13do_pos_formatEv = 0x00000000004c3ae0 + __sdk_start;
_ZNSt3__115numpunct_bynameIwEC2ERKNS_12basic_stringIcNS_11char_traitsIcEENS_9allocatorIcEEEEm = 0x00000000004d8838 + __sdk_start;
_ZN2nn2ec6detail31ShowShopSubscriptionDetailsImplENS1_10LaunchModeENS_4util8optionalINS_13ApplicationIdEEERKNS0_8CourseIdENS0_5NsUidERKNS_7account3UidENS0_8SourceIdE = 0x0000000000153e80 + __sdk_start;
_ZN2nn2fs15RenameDirectoryEPKcS2_ = 0x00000000001ba9e0 + __sdk_start;
_ZN2nn4util10BitFlagSetILi256ENS_3hid11KeyboardKeyEE4FlagILi138EE4MaskE = 0x0000000000a72418 + __sdk_start;
nndetailImagePng_png_app_error = 0x0000000000279fb0 + __sdk_start;
_ZN2nn3ngc6detail14ContentsReader13MakeMountPathEPcmNS2_6AcTypeEi = 0x00000000003163d0 + __sdk_start;
_ZN2nn6socket8resolver10serializer13DNSSerializer10FromBufferINS0_14ResolverOptionEEElPT_mPKhmm = 0x000000000037fc60 + __sdk_start;
_ZN2nn4util6Base6414ToBase64StringEPcmPKvmNS1_4ModeE = 0x00000000003a9ea0 + __sdk_start;
_ZNK2nn4util13StringBuilder3GetEv = 0x00000000003ad5a0 + __sdk_start;
_ZN2nn2fs18IsSaveDataExistingEPbRKNS_7account3UidE = 0x0000000000201900 + __sdk_start;
_ZN2nn3hid6system6detail15GetButtonConfigEPNS_9hidconfig20ButtonConfigEmbeddedERKNS1_11UniquePadIdE = 0x000000000021f8e0 + __sdk_start;
nndetailImagePng_png_check_fp_number = 0x0000000000277540 + __sdk_start;
_ZN2nn3ngc6detail3Sbv16ReleaseAllocatorEv = 0x000000000031f310 + __sdk_start;
_ZTSN2nn2os6detail19MultiWaitHolderBaseE = 0x0000000000aafb52 + __sdk_start;
_ZN7android23BnGraphicBufferConsumer17onGetNativeHandleEjRjRb = 0x000000000042a250 + __sdk_start;
_ZN2nn2sf13InterfaceInfoINS_5audio6detail14IAudioRendererEE4_tABINS5_5_tO2NINS2_6server24AudioRendererManagerImpl17AudioRendererImplEE4typeES4_E4type28_nn_sf_sync_QuerySystemEventENS0_3OutINS0_12NativeHandleEvEE = 0x000000000005c780 + __sdk_start;
_ZN2nn5codec12SineWindow32E = 0x0000000000a61738 + __sdk_start;
_ZN2nn6crypto6detail7Md5Impl10InitializeEv = 0x000000000013d360 + __sdk_start;
_ZN2nn2sf4cmif6client6detail13CmifProxyImplINS_3nim6detail17IShopServiceAsyncENS0_4hipc6client18Hipc2ProxyKindBaseILNS8_6detail11MessageTypeE6EEENS0_30MemoryResourceAllocationPolicyES7_NS3_19ProcessModifierImplINS2_21DefaultProxyFilterTagEEEE12GetProxyInfoEv = 0x0000000000152be0 + __sdk_start;
nnmem_nlib_log_vprint = 0x00000000002d1400 + __sdk_start;
_ZNKSt3__18time_getIwNS_19istreambuf_iteratorIwNS_11char_traitsIwEEEEE17__get_weekdaynameERiRS4_S4_RjRKNS_5ctypeIwEE = 0x00000000004c17c0 + __sdk_start;
__nnmusl_chdirIsSet = 0x0000000000d139e0 + __sdk_start;
_ZTVN2nn2sf6detail38ObjectImplFactoryWithStatefulAllocatorINS0_4cmif6client6detail9CmifProxyINS_4bcat6detail3ipc30IDeliveryCacheDirectoryServiceENS4_19CmifDomainProxyKindINS0_4hipc6client38Hipc2ClientSessionManagedProxyKindBaseINSD_18Hipc2ProxyKindBaseILNSC_6detail11MessageTypeE6EEEEEEENS0_30MemoryResourceAllocationPolicyENS5_19ProcessModifierImplINS4_21DefaultProxyFilterTagEEEvEESL_E6ObjectE = 0x0000000000c1a808 + __sdk_start;
nndetailImagePng_png_set_filter = 0x0000000000290410 + __sdk_start;
NvRmGpuDeviceGetVoltage = 0x0000000000405250 + __sdk_start;
_ZTISt9exception = 0x0000000000c4b5f0 + __sdk_start;
timegm = 0x0000000000557b20 + __sdk_start;
NvRmSyncMerge = 0x00000000003de910 + __sdk_start;
nnutilZlib_deflateResetKeep = 0x0000000000299f70 + __sdk_start;
_ZN2nn4pctl26RequestUpdateExemptionListENS_3ncm13ApplicationIdE = 0x00000000003470c0 + __sdk_start;
_ZN2nn2sf13InterfaceInfoINS0_4hipc6detail12IHipcManagerEE4_tABINS5_5_tO2NINS2_6server2v134HipcServerSessionManagerWithDomain15HipcManagerImplEE4typeES4_E4type32_nn_sf_sync_CloneCurrentObjectExENS0_3OutINS0_12NativeHandleEvEEj = 0x00000000003754b0 + __sdk_start;
_ZN2nn2ec34AsyncGetConsumableRightDataRequest9BeginImplEii = 0x0000000000148b40 + __sdk_start;
_ZN2nn2sf4cmif6client6detail13CmifProxyImplINS_2am7service26ILibraryAppletSelfAccessorENS2_19CmifDomainProxyKindINS0_4hipc6client38Hipc2ClientSessionManagedProxyKindBaseINSA_18Hipc2ProxyKindBaseILNS9_6detail11MessageTypeE6EEEEEEENS0_30MemoryResourceAllocationPolicyES7_NS3_19ProcessModifierImplINS2_21DefaultProxyFilterTagEEEE35_nn_sf_sync_GetPopExtraStorageEventENS0_3OutINS0_12NativeHandleEvEE = 0x000000000002cec0 + __sdk_start;
_ZTSN2nn2am7service18IHomeMenuFunctionsE = 0x0000000000a34384 + __sdk_start;
_ZN2nn4htcs4BindEiPKNS0_12SockAddrHtcsE = 0x00000000002440b0 + __sdk_start;
nncodecLibopus_spreading_decision = 0x0000000000099b30 + __sdk_start;
nnmem_nlib_sleep = 0x00000000002df540 + __sdk_start;
_ZN2nn2pl8IsVrModeEv = 0x000000000034cfc0 + __sdk_start;
__cxa_call_unexpected = 0x0000000000509400 + __sdk_start;
_ZN2nn2am24SetLibraryAppletResolverEPFvvE = 0x000000000001f740 + __sdk_start;
_ZN2nn2sf4cmif6client6detail13CmifProxyImplINS_7friends6detail3ipc14IFriendServiceENS2_19CmifDomainProxyKindINS0_4hipc6client38Hipc2ClientSessionManagedProxyKindBaseINSB_18Hipc2ProxyKindBaseILNSA_6detail11MessageTypeE6EEEEEEENS0_30MemoryResourceAllocationPolicyES8_NS3_19ProcessModifierImplINS2_21DefaultProxyFilterTagEEEE32_nn_sf_sync_SendFriendInvitationERKNS_7account3UidERKNS0_7InArrayINSO_23NetworkServiceAccountIdEEERKNS5_35FriendInvitationGameModeDescriptionERKNS5_15ApplicationInfoERKNS0_8InBufferEb = 0x00000000001a1ca0 + __sdk_start;
_ZN2nn2vi20RemoveFromLayerStackEPNS0_5LayerENS0_10LayerStackE = 0x00000000003c24e0 + __sdk_start;
_ZN2nn5audio3dsp20DspExceptionNotifier11AddObserverEPFvPvES3_ = 0x000000000007c4c0 + __sdk_start;
_ZTSN2nn2sf4cmif6client6detail13CmifProxyImplINS_4bcat6detail3ipc12IBcatServiceENS2_19CmifDomainProxyKindINS0_4hipc6client38Hipc2ClientSessionManagedProxyKindBaseINSB_18Hipc2ProxyKindBaseILNSA_6detail11MessageTypeE6EEEEEEENS0_30MemoryResourceAllocationPolicyES8_NS3_19ProcessModifierImplINS2_21DefaultProxyFilterTagEEEEE = 0x0000000000a4c1f9 + __sdk_start;
_ZN2nn2sf4cmif6client6detail13CmifProxyImplINS_6capsrv2sf32IAlbumAccessorApplicationSessionENS0_4hipc6client18Hipc2ProxyKindBaseILNS8_6detail11MessageTypeE6EEENS0_30MemoryResourceAllocationPolicyES7_NS3_19ProcessModifierImplINS2_21DefaultProxyFilterTagEEEE47_nn_sf_sync_GetAlbumMovieReadStreamBrokenReasonEm = 0x0000000000098b50 + __sdk_start;
_ZN2nn3hid6detail24SetSupportedNpadStyleSetENS_4util10BitFlagSetILi32ENS0_12NpadStyleTagEEE = 0x0000000000206dc0 + __sdk_start;
_ZN2nn8settings6system28GetHeadphoneVolumeUpdateFlagEv = 0x0000000000359590 + __sdk_start;
_ZN2nn2sf4cmif6client34CmifDomainProxyClientCoreProcessorINS0_4hipc6client38Hipc2ClientSessionManagedProxyKindBaseINS5_18Hipc2ProxyKindBaseILNS4_6detail11MessageTypeE6EEEEENS1_6detail14CoreMethodInfoINSt3__15tupleIJNSC_18BufferArgumentInfoILi0ELi25ELm16EEENSC_17InRawArgumentInfoILm8ELm8ELl0EEEEEELm8ELm0ELb1EEESK_E7ProcessEPNS2_23CmifDomainClientMessageISB_E15ProxyBaseObjectENS2_24BufferClientArgumentTypeENS2_23InRawClientArgumentTypeILm8ELm8EvEEj = 0x000000000000bc60 + __sdk_start;
_ZN2nn3mii18GetMouthGreenColorENS0_11CommonColorENS0_9GammaTypeE = 0x00000000002f2130 + __sdk_start;
_ZN2nn2sf4cmif6client6detail13CmifProxyImplINS_4pctl6detail3ipc23IParentalControlServiceENS2_19CmifDomainProxyKindINS0_4hipc6client38Hipc2ClientSessionManagedProxyKindBaseINSB_18Hipc2ProxyKindBaseILNSA_6detail11MessageTypeE6EEEEEEENS0_30MemoryResourceAllocationPolicyES8_NS3_19ProcessModifierImplINS2_21DefaultProxyFilterTagEEEE32_nn_sf_sync_CancelNetworkRequestEv = 0x00000000003497f0 + __sdk_start;
_ZN2nn2sf4cmif6client6detail13CmifProxyImplINS_7account4baas24IManagerForSystemServiceENS2_19CmifDomainProxyKindINS0_4hipc6client38Hipc2ClientSessionManagedProxyKindBaseINSA_18Hipc2ProxyKindBaseILNS9_6detail11MessageTypeE6EEEEEEENS0_25StatelessAllocationPolicyINS0_22ExpHeapStaticAllocatorILm2048ENS5_6detail12ObjectHolder24ObjectHolderAllocatorTagEEEEENS6_14IAdministratorENS3_19ProcessModifierImplINS2_21DefaultProxyFilterTagEEEE56_nn_sf_sync_GetServiceEntryRequirementCacheForOnlinePlayENS0_3OutIjvEENS_13ApplicationIdE = 0x00000000000109d0 + __sdk_start;
_ZN2nn2ec39ShowShopApplicationInformationForAppletENS_3ncm13ApplicationIdE = 0x00000000001500d0 + __sdk_start;
_ZN2nn2fs40SaveDataTransferManagerForSaveDataRepair20OpenSaveDataImporterEPNSt3__110unique_ptrINS0_25ISaveDataDivisionImporterENS2_14default_deleteIS4_EEEERKNS0_19InitialDataVersion2ERKNS_7account3UidENS0_15SaveDataSpaceIdE = 0x0000000000202ba0 + __sdk_start;
_ZN2nn4nifm6detail13RequestClient6CancelEv = 0x00000000003248b0 + __sdk_start;
iswxdigit_l = 0x000000000053be38 + __sdk_start;
_ZN2nn2sf6detail38ObjectImplFactoryWithStatefulAllocatorINS0_13InterfaceInfoINS_5audio6detail14IAudioRendererEE4_tABINS7_5_tO2NINS4_6server24AudioRendererManagerImpl17AudioRendererImplEE4typeES6_E4typeENS0_24StatefulAllocationPolicyINS0_16ExpHeapAllocatorEEEE6Object12AddReferenceEv = 0x000000000005c5c0 + __sdk_start;
do_hints = 0x0000000000183560 + __sdk_start;
_ZN2nn3hid6system6detail13DeactivateNfcERjNS_6applet20AppletResourceUserIdE = 0x0000000000220210 + __sdk_start;
_ZN2nn2sf4cmif6client6detail13CmifProxyImplINS_3hid16IHidSystemServerENS0_4hipc6client18Hipc2ProxyKindBaseILNS7_6detail11MessageTypeE6EEENS0_30MemoryResourceAllocationPolicyES6_NS3_19ProcessModifierImplINS2_21DefaultProxyFilterTagEEEE28_nn_sf_sync_GetUniquePadTypeENS0_3OutIlvEENS5_6system11UniquePadIdE = 0x0000000000231c00 + __sdk_start;
NvOsFremove = 0x00000000003d0fe0 + __sdk_start;
_ZN2nn5album12LibraryState20EnsureAlbumAvailableEv = 0x000000000001b060 + __sdk_start;
_ZN2nn5codec13quantizedIIDsE = 0x0000000000a643b1 + __sdk_start;
_ZN2nn3mii6detail16Ver3StoreDataRaw11SetBirthDayEi = 0x0000000000300940 + __sdk_start;
_ZN2nn2sf4cmif6client6detail13CmifProxyImplINS_3mii6detail14IStaticServiceENS2_19CmifDomainProxyKindINS0_4hipc6client38Hipc2ClientSessionManagedProxyKindBaseINSA_18Hipc2ProxyKindBaseILNS9_6detail11MessageTypeE6EEEEEEENS0_30MemoryResourceAllocationPolicyES7_NS3_19ProcessModifierImplINS2_21DefaultProxyFilterTagEEEE17GetCmifBaseObjectEv = 0x0000000000304b30 + __sdk_start;
_ZN2nn5audio6server22PerformanceManagerImplINS1_33PerformanceManagerImplVersion2TagENS0_6common30PerformanceFrameHeaderVersion2ENS4_24PerformanceEntryVersion2ENS4_25PerformanceDetailVersion2ENS0_20PerformanceSysDetailEE15SetDetailTargetEj = 0x0000000000065ad0 + __sdk_start;
_ZN2nn3hid6detail43IsUsbFullKeyControllerEnabledForApplicationEPb = 0x00000000002112d0 + __sdk_start;
_ZN22nerd_gillette_internal5otete7jaimev219DecodeSilhouetteROKEPNS0_11OteteFloat2ERmmPKhmPm = 0x00000000002aff10 + __sdk_start;
nndetailDiagAbortFormatImpl = 0x0000000000144d40 + __sdk_start;
_ZTSNSt3__114codecvt_bynameIwc11__mbstate_tEE = 0x0000000000ac80aa + __sdk_start;
_ZN2nn7account49ExternalNetworkServiceAccountIntroducingProcedureC2EOS1_ = 0x00000000000186b0 + __sdk_start;
_ZN2nn2sf4cmif6client6detail13CmifProxyImplINS_2am7service15IDebugFunctionsENS2_19CmifDomainProxyKindINS0_4hipc6client38Hipc2ClientSessionManagedProxyKindBaseINSA_18Hipc2ProxyKindBaseILNS9_6detail11MessageTypeE6EEEEEEENS0_30MemoryResourceAllocationPolicyES7_NS3_19ProcessModifierImplINS2_21DefaultProxyFilterTagEEEE63_nn_sf_sync_RequestLaunchApplicationWithUserAndArgumentForDebugENS_3ncm13ApplicationIdERKNS0_7InArrayINS_7account3UidEEEbRKNS0_8InBufferE = 0x0000000000028180 + __sdk_start;
_ZN2nn2fs16SaveDataIteratorC1EONS_2sf13SharedPointerINS_5fssrv2sf19ISaveDataInfoReaderEEE = 0x00000000001eaee0 + __sdk_start;
_ZN2nn2oe33PerformCaptureButtonShortPressingEv = 0x0000000000338460 + __sdk_start;
__ldexp_cexp = 0x0000000000531b78 + __sdk_start;
_ZTSN2nn2sf6detail38ObjectImplFactoryWithStatefulAllocatorINS0_4cmif6client6detail9CmifProxyINS_2am7service8IStorageENS4_19CmifDomainProxyKindINS0_4hipc6client38Hipc2ClientSessionManagedProxyKindBaseINSC_18Hipc2ProxyKindBaseILNSB_6detail11MessageTypeE6EEEEEEENS0_30MemoryResourceAllocationPolicyENS5_19ProcessModifierImplINS4_21DefaultProxyFilterTagEEEvEESK_E6ObjectE = 0x0000000000a31159 + __sdk_start;
swscanf = 0x0000000000551578 + __sdk_start;
_ZN2nn5album23LoadAlbumThumbnailImageEPiS1_PNS0_18AlbumFileAttributeEPmPvmS5_mS5_mRKNS0_14AlbumFileEntryE = 0x000000000001a710 + __sdk_start;
interpolatingFilter = 0x0000000000049710 + __sdk_start;
_ZN2nn2sf4cmif6client6detail13CmifProxyImplINS_3hid10IHidServerENS0_4hipc6client18Hipc2ProxyKindBaseILNS7_6detail11MessageTypeE6EEENS0_30MemoryResourceAllocationPolicyES6_NS3_19ProcessModifierImplINS2_21DefaultProxyFilterTagEEEE36_nn_sf_sync_GetSupportedNpadStyleSetENS_6applet20AppletResourceUserIdENS0_3OutINS_4util10BitFlagSetILi32ENS5_12NpadStyleTagEEEvEE = 0x0000000000228ed0 + __sdk_start;
_ZNK2nn4nifm6detail13RequestClient14GetRequirementEPNS0_11RequirementE = 0x0000000000324a20 + __sdk_start;
_ZN2nn3web6detail14WebSessionImpl30SendSystemMessageGroupCountMaxE = 0x0000000000abc7c8 + __sdk_start;
_ZN2nn2os17SignalSystemEventEPNS0_15SystemEventTypeE = 0x000000000033a160 + __sdk_start;
_ZN22nerd_gillette_internal5otete11ImageCodec213DecodeInPlaceItEEbRKNS_15StaticImageViewIT_EERNS0_14InputBitStreamEf = 0x00000000002b6730 + __sdk_start;
_ZN2nn2sf4cmif6client6detail13CmifProxyImplINS_4npns9INpnsUserENS0_4hipc6client18Hipc2ProxyKindBaseILNS7_6detail11MessageTypeE6EEENS0_30MemoryResourceAllocationPolicyENS5_11INpnsSystemENS3_19ProcessModifierImplINS2_21DefaultProxyFilterTagEEEE23_nn_sf_sync_CreateTokenENS0_3OutINS5_17NotificationTokenEvEERKNS_7account3UidEm = 0x0000000000330fb0 + __sdk_start;
_ZN2nn2sf4cmif6client6detail13CmifProxyImplINS_7account4http15IOAuthProcedureENS2_19CmifDomainProxyKindINS0_4hipc6client38Hipc2ClientSessionManagedProxyKindBaseINSA_18Hipc2ProxyKindBaseILNS9_6detail11MessageTypeE6EEEEEEENS0_25StatelessAllocationPolicyINS0_22ExpHeapStaticAllocatorILm2048ENS5_6detail12ObjectHolder24ObjectHolderAllocatorTagEEEEES7_NS3_19ProcessModifierImplINS2_21DefaultProxyFilterTagEEEE25_nn_sf_sync_ApplyResponseERKNS0_7InArrayIcEE = 0x0000000000012380 + __sdk_start;
_ZN2nn5codec21HcrMuteErroneousLinesEPNS0_10CErHcrInfoE = 0x00000000000e7e50 + __sdk_start;
_ZN2nn8settings6system41SetButtonConfigRegisteredSettingsEmbeddedERKNS1_30ButtonConfigRegisteredSettingsE = 0x000000000035a270 + __sdk_start;
_ZTIN2nn2sf4cmif6server17CmifServerMessageE = 0x0000000000c30e40 + __sdk_start;
_ZN7android13GraphicBuffer14lockAsyncYCbCrEjRKNS_4RectEP13android_ycbcri = 0x0000000000448490 + __sdk_start;
wctype_l = 0x000000000053bad0 + __sdk_start;
sqrt = 0x0000000000541b38 + __sdk_start;
_ZN2nn2sf4cmif6client6detail13CmifProxyImplINS_3hid15IHidDebugServerENS0_4hipc6client18Hipc2ProxyKindBaseILNS7_6detail11MessageTypeE6EEENS0_30MemoryResourceAllocationPolicyES6_NS3_19ProcessModifierImplINS2_21DefaultProxyFilterTagEEEE21_nn_sf_sync_GetWhoAmIENS0_3OutINS5_5debug11WhoAmIValueEvEENS_6applet20AppletResourceUserIdE = 0x000000000022dde0 + __sdk_start;
_ZN2nn5audio17MemoryPoolManagerC2EPNS0_14MemoryPoolInfoEiPvm = 0x0000000000043ec0 + __sdk_start;
_ZTSN2nn2sf6detail38ObjectImplFactoryWithStatefulAllocatorINS0_4cmif6client6detail9CmifProxyINS_7friends6detail3ipc20INotificationServiceENS4_19CmifDomainProxyKindINS0_4hipc6client38Hipc2ClientSessionManagedProxyKindBaseINSD_18Hipc2ProxyKindBaseILNSC_6detail11MessageTypeE6EEEEEEENS0_30MemoryResourceAllocationPolicyENS5_19ProcessModifierImplINS4_21DefaultProxyFilterTagEEEvEESL_E6ObjectE = 0x0000000000a68e4c + __sdk_start;
_ZN2nn3hid6detail22GetNpadControllerColorEPNS0_19NpadControllerColorERKj = 0x00000000002087b0 + __sdk_start;
_ZTCN7android17BnSurfaceComposerE0_NS_11BnInterfaceINS_16ISurfaceComposerEEE = 0x0000000000c40498 + __sdk_start;
_ZNK7android7String811getBasePathEv = 0x0000000000450200 + __sdk_start;
_ZNKSt3__115basic_streambufIcNS_11char_traitsIcEEE6getlocEv = 0x00000000004a6028 + __sdk_start;
_ZN2nn7account13ProfileEditorC1EOS1_ = 0x0000000000018f30 + __sdk_start;
_ZN2nn2sf4cmif6client6detail13CmifProxyImplINS_4bcat6detail3ipc16INotifierServiceENS2_19CmifDomainProxyKindINS0_4hipc6client38Hipc2ClientSessionManagedProxyKindBaseINSB_18Hipc2ProxyKindBaseILNSA_6detail11MessageTypeE6EEEEEEENS0_30MemoryResourceAllocationPolicyES8_NS3_19ProcessModifierImplINS2_21DefaultProxyFilterTagEEEE17GetCmifBaseObjectEv = 0x0000000000084470 + __sdk_start;
_ZN2nn9bluetooth16GetBleScanResultEPNS0_13BleScanResultEi = 0x000000000008f540 + __sdk_start;
_ZTSN2nn2fs10SubStorageE = 0x0000000000a696f0 + __sdk_start;
_ZTSN2nn2sf4cmif6client6detail9CmifProxyINS_4nifm6detail15INetworkProfileENS2_19CmifDomainProxyKindINS0_4hipc6client38Hipc2ClientSessionManagedProxyKindBaseINSA_18Hipc2ProxyKindBaseILNS9_6detail11MessageTypeE6EEEEEEENS0_30MemoryResourceAllocationPolicyENS3_19ProcessModifierImplINS2_21DefaultProxyFilterTagEEEvEE = 0x0000000000aae43a + __sdk_start;
_ZNK2nn5audio3dsp20CommandListProcessor24GetProcessedCommandCountEv = 0x000000000006ed80 + __sdk_start;
nndetailImagePng_png_set_strip_16 = 0x0000000000281a60 + __sdk_start;
_ZN2nn2sf4cmif6client6detail13CmifProxyImplINS_3ngc1t6detail8IServiceENS0_4hipc6client18Hipc2ProxyKindBaseILNS9_6detail11MessageTypeE6EEENS0_30MemoryResourceAllocationPolicyES8_NS3_19ProcessModifierImplINS2_21DefaultProxyFilterTagEEEE17_nn_sf_sync_MatchENS0_3OutIbvEERKNS0_7InArrayIcEE = 0x0000000000324130 + __sdk_start;
nnsslConnectionSetIoMode = 0x0000000000396da0 + __sdk_start;
_ZN2nn4time23StandardUserSystemClock9to_time_tERKNSt3__16chrono10time_pointINS0_17SystemClockTraitsENS3_8durationIlNS2_5ratioILl1ELl1EEEEEEE = 0x00000000003a2590 + __sdk_start;
_ZN2nn7account28NetworkServiceAccountManager29RefreshNotificationTokenAsyncEPNS0_12AsyncContextE = 0x0000000000016450 + __sdk_start;
_ZThn8_N2nn2fs4save17SaveDataDirectory12NotifyDeleteElb = 0x00000000001c2640 + __sdk_start;
_ZN2nn2lm6detail24LogPacketTransmitterBaseC2EPvmPFbPKhmEhhmbb = 0x00000000002c6670 + __sdk_start;
_ZN2nn2sf4cmif6client34CmifDomainProxyClientCoreProcessorINS0_4hipc6client38Hipc2ClientSessionManagedProxyKindBaseINS5_18Hipc2ProxyKindBaseILNS4_6detail11MessageTypeE6EEEEENS1_6detail14CoreMethodInfoINSt3__15tupleIJNSC_18BufferArgumentInfoILi0ELi21ELm64EEENSG_ILi1ELi5ELm0EEEEEELm0ELm0ELb0EEESJ_E7ProcessEPNS2_23CmifDomainClientMessageISB_E15ProxyBaseObjectENS2_24BufferClientArgumentTypeESQ_j = 0x000000000032dfe0 + __sdk_start;
_ZN2nn2sf4hipc6client24Hipc2ClientCoreProcessorILNS1_6detail11MessageTypeE6ENS0_4cmif6detail14CoreMethodInfoINSt3__15tupleIJNS7_18OutRawArgumentInfoILm12ELm4ELl0EEENS7_17InRawArgumentInfoILm8ELm8ELl0EEEEEELm8ELm12ELb0EEESF_E7ProcessEPNS2_26Hipc2ClientProxyBaseObjectENS6_6client24OutRawClientArgumentTypeILm12ELm4EEENSK_23InRawClientArgumentTypeILm8ELm8EvEEj = 0x000000000022ffb0 + __sdk_start;
nnmem_nlib_semaphore_post = 0x00000000002e01d0 + __sdk_start;
_ZTv0_n24_N7android7BBinderD0Ev = 0x0000000000419a60 + __sdk_start;
_ZN2nn3hid22StopSevenSixAxisSensorEv = 0x0000000000212360 + __sdk_start;
_ZN2nn6hidbus6detail20ClientResourceHolderC2Ev = 0x0000000000238e40 + __sdk_start;
_ZN7android6Parcel12writeCStringEPKc = 0x0000000000422360 + __sdk_start;
_ZN7android5Fence4waitEj = 0x0000000000447260 + __sdk_start;
_ZTSSt12length_error = 0x0000000000ac9855 + __sdk_start;
_ZN2nn2sf4hipc6client24Hipc2ClientCoreProcessorILNS1_6detail11MessageTypeE6ENS0_4cmif6detail14CoreMethodInfoINSt3__15tupleIJNS7_17InRawArgumentInfoILm4ELm4ELl0EEENSB_ILm4ELm4ELl4EEEEEELm8ELm0ELb0EEESE_E7ProcessEPNS2_26Hipc2ClientProxyBaseObjectENS6_6client23InRawClientArgumentTypeILm4ELm4EvEESL_j = 0x0000000000037e80 + __sdk_start;
_ZN2nn5codec9CTns_ReadEPNS0_13FDK_BITSTREAMEPNS0_8CTnsDataEPKNS0_8CIcsInfoEj = 0x00000000000ea1c0 + __sdk_start;
_ZN2nn2fs6detail18FileSystemAccessorC2EPKcPNS0_3fsa18IMultiCommitTargetEONSt3__110unique_ptrINS5_11IFileSystemENS8_14default_deleteISA_EEEEONS9_INS5_25ICommonMountNameGeneratorENSB_ISF_EEEEONS9_INS5_24ISaveDataAttributeGetterENSB_ISJ_EEEE = 0x00000000001b6e80 + __sdk_start;
_ZN2nn5image11JpegDecoder11GetExifDataEPPKvPmS3_m = 0x0000000000271c70 + __sdk_start;
nndetailImagePng_png_icc_check_header = 0x0000000000276840 + __sdk_start;
_ZN2nn8irsensor6detail15IrSensorSession17DeactivateServiceEv = 0x00000000002a9620 + __sdk_start;
_ZN2nn2sf4hipc6client24Hipc2ClientCoreProcessorILNS1_6detail11MessageTypeE6ENS0_4cmif6detail14CoreMethodInfoINSt3__15tupleIJNS7_18OutRawArgumentInfoILm4ELm4ELl0EEENS7_17InRawArgumentInfoILm1ELm1ELl0EEENSD_ILm1ELm1ELl1EEENSD_ILm1ELm1ELl2EEENSD_ILm22ELm2ELl36EEENSD_ILm16ELm1ELl3EEENSD_ILm16ELm1ELl19EEENS7_18BufferArgumentInfoILi0ELi5ELm0EEENSK_ILi1ELi5ELm0EEEEEELm58ELm4ELb0EEESN_E7ProcessEPNS2_26Hipc2ClientProxyBaseObjectENS6_6client24OutRawClientArgumentTypeILm4ELm4EEENSS_23InRawClientArgumentTypeILm1ELm1EvEESW_SW_NSV_ILm22ELm2EvEENSV_ILm16ELm1EvEESY_NSS_24BufferClientArgumentTypeESZ_j = 0x0000000000306f80 + __sdk_start;
_ZN2nn5codec32transportDec_RegisterSbrCallbackEPNS0_12TRANSPORTDECEPFiPvPNS0_13FDK_BITSTREAMEiii17AUDIO_OBJECT_TYPE14MP4_ELEMENT_IDiES3_ = 0x000000000010d600 + __sdk_start;
_ZN2nn6crypto6detail7Md5Impl7GetHashEPvm = 0x000000000013deb0 + __sdk_start;
NvRmSyncCreateFromSemaphores = 0x00000000003df9e0 + __sdk_start;
_ZNSt3__114__shared_count16__release_sharedEv = 0x00000000004e3840 + __sdk_start;
_ZNSt3__111regex_errorC1ENS_15regex_constants10error_typeE = 0x00000000004e4638 + __sdk_start;
_ZN2nn4bcat6detail17ShimLibraryGlobal36DecrementDeliveryCacheDirectoryCountEv = 0x0000000000082310 + __sdk_start;
FDK_pushBack = 0x00000000000f9790 + __sdk_start;
_ZN2nn3ngc1t5MatchEPKcm = 0x0000000000322f40 + __sdk_start;
_ZN2nn2sf4hipc6server6detail29HipcAllInOneServerManagerBase29ProcessInvokeRequestWithDeferEPNS_2os19MultiWaitHolderTypeE = 0x0000000000377130 + __sdk_start;
_ZTSN2nn2sf4cmif6client6detail13CmifProxyImplINS_3ssl2sf11ISslServiceENS2_19CmifDomainProxyKindINS0_4hipc6client38Hipc2ClientSessionManagedProxyKindBaseINSA_18Hipc2ProxyKindBaseILNS9_6detail11MessageTypeE6EEEEEEENS0_24StatefulAllocationPolicyINS0_16ExpHeapAllocatorEEES7_NS3_19ProcessModifierImplINS2_21DefaultProxyFilterTagEEEEE = 0x0000000000ab5c9a + __sdk_start;
_ZN2nn2sf4cmif6client6detail13CmifProxyImplINS_7friends6detail3ipc14IFriendServiceENS2_19CmifDomainProxyKindINS0_4hipc6client38Hipc2ClientSessionManagedProxyKindBaseINSB_18Hipc2ProxyKindBaseILNSA_6detail11MessageTypeE6EEEEEEENS0_30MemoryResourceAllocationPolicyES8_NS3_19ProcessModifierImplINS2_21DefaultProxyFilterTagEEEE41_nn_sf_sync_GetExternalApplicationCatalogENS0_3OutINS5_26ExternalApplicationCatalogEvEERKNS5_28ExternalApplicationCatalogIdENS_8settings12LanguageCodeE = 0x00000000001a16d0 + __sdk_start;
_ZN2nn2fs15RomFsFileSystem18DoGetFreeSpaceSizeEPlPKc = 0x00000000001b15c0 + __sdk_start;
_ZN2nn3hid13VibrationNode14DisconnectFromEPS1_ = 0x0000000000218750 + __sdk_start;
_ZN2nn3hid6system21GetUniquePadButtonSetERKNS1_11UniquePadIdE = 0x0000000000225730 + __sdk_start;
_ZN2nn2fs6detail9RomFsFile26ConvertToApplicationResultENS_6ResultE = 0x00000000001afed0 + __sdk_start;
_ZN2nn2sf4cmif6client6detail13CmifProxyImplINS_5prepo6detail3ipc13IPrepoServiceENS2_19CmifDomainProxyKindINS0_4hipc6client38Hipc2ClientSessionManagedProxyKindBaseINSB_18Hipc2ProxyKindBaseILNSA_6detail11MessageTypeE6EEEEEEENS0_30MemoryResourceAllocationPolicyES8_NS3_19ProcessModifierImplINS2_21DefaultProxyFilterTagEEEE24_nn_sf_sync_ClearStorageEv = 0x00000000003544d0 + __sdk_start;
_ZN2nn4util16IntrusiveDicNode11InsertChildEPPS1_PiRKNS0_17basic_string_viewIcNSt3__111char_traitsIcEEEE = 0x00000000003abc20 + __sdk_start;
_ZNSt3__115future_categoryEv = 0x00000000004a3f48 + __sdk_start;
_ZN2nn8settings6system17SetDeviceNickNameERKNS1_14DeviceNickNameE = 0x000000000035dbf0 + __sdk_start;
_ZN2nn4util16BinaryFileHeader16SetByteOrderMarkENS0_13ByteOrderMarkE = 0x00000000003aa630 + __sdk_start;
NvRmGpuRegOpsSessionLazyAllocReservedPa = 0x00000000003e1e60 + __sdk_start;
_ZN2nn3aoc17CountAddOnContentEv = 0x00000000000354d0 + __sdk_start;
_ZNK2nn5audio6common10NodeStates12GetNodeCountEv = 0x0000000000049480 + __sdk_start;
_ZN2nn2sf4cmif6client6detail13CmifProxyImplINS_7account4baas18IGuestLoginRequestENS2_19CmifDomainProxyKindINS0_4hipc6client38Hipc2ClientSessionManagedProxyKindBaseINSA_18Hipc2ProxyKindBaseILNS9_6detail11MessageTypeE6EEEEEEENS0_25StatelessAllocationPolicyINS0_22ExpHeapStaticAllocatorILm2048ENS5_6detail12ObjectHolder24ObjectHolderAllocatorTagEEEEENS6_28IFloatingRegistrationRequestENS3_19ProcessModifierImplINS2_21DefaultProxyFilterTagEEEE38_nn_sf_sync_GetLinkedNintendoAccountIdENS0_3OutINS5_17NintendoAccountIdEvEE = 0x000000000000f650 + __sdk_start;
_ZN2nn2sf4cmif6client6detail13CmifProxyImplINS_7account7profile8IProfileENS2_19CmifDomainProxyKindINS0_4hipc6client38Hipc2ClientSessionManagedProxyKindBaseINSA_18Hipc2ProxyKindBaseILNS9_6detail11MessageTypeE6EEEEEEENS0_25StatelessAllocationPolicyINS0_22ExpHeapStaticAllocatorILm2048ENS5_6detail12ObjectHolder24ObjectHolderAllocatorTagEEEEES7_NS3_19ProcessModifierImplINS2_21DefaultProxyFilterTagEEEE19_nn_sf_sync_GetBaseENS0_3OutINS6_11ProfileBaseEvEE = 0x00000000000076c0 + __sdk_start;
nncodecLibopus_clt_mdct_backward_c = 0x00000000000abdd0 + __sdk_start;
_ZN2nn5codec23CBlock_ReadSpectralDataEPNS0_13FDK_BITSTREAMEPNS0_22CAacDecoderChannelInfoEPKNS0_16SamplingRateInfoEj = 0x00000000000f0a70 + __sdk_start;
_ZN2nn2sf4cmif6client34CmifDomainProxyClientCoreProcessorINS0_4hipc6client38Hipc2ClientSessionManagedProxyKindBaseINS5_18Hipc2ProxyKindBaseILNS4_6detail11MessageTypeE6EEEEENS1_6detail14CoreMethodInfoINSt3__15tupleIJNSC_18BufferArgumentInfoILi0ELi6ELm0EEENSC_17InRawArgumentInfoILm8ELm8ELl0EEEEEELm8ELm0ELb0EEESK_E7ProcessEPNS2_23CmifDomainClientMessageISB_E15ProxyBaseObjectENS2_24BufferClientArgumentTypeENS2_23InRawClientArgumentTypeILm8ELm8EvEEj = 0x00000000001d06f0 + __sdk_start;
nnosInitializeMutex = 0x000000000033da20 + __sdk_start;
_ZN2nn3web22ShowOfflineHtmlPageArgC2ERKNS_13ApplicationIdEPKc = 0x00000000003c6280 + __sdk_start;
_ZN7android10VectorImplD1Ev = 0x00000000004515e0 + __sdk_start;
_ZNKSt3__110moneypunctIwLb0EE14do_curr_symbolEv = 0x00000000004c3948 + __sdk_start;
_ZN2nn2ec19ShopServiceAccessor10InitializeERKNS0_11ShopServiceE = 0x0000000000150330 + __sdk_start;
_ZN2nn6fontll6detail10ReadClass1EPiPNS0_15OtfKerningTableEPKvtttttt = 0x000000000015dc20 + __sdk_start;
_ZN2nn2sf4cmif6client6detail13CmifProxyImplINS_3mii6detail16IDatabaseServiceENS2_19CmifDomainProxyKindINS0_4hipc6client38Hipc2ClientSessionManagedProxyKindBaseINSA_18Hipc2ProxyKindBaseILNS9_6detail11MessageTypeE6EEEEEEENS0_30MemoryResourceAllocationPolicyES7_NS3_19ProcessModifierImplINS2_21DefaultProxyFilterTagEEEE23_nn_sf_sync_BuildRandomENS0_3OutINS5_8CharInfoEvEEiii = 0x0000000000304db0 + __sdk_start;
_ZN2nn3nfp6client27RequiredMcuVersionDataCountE = 0x0000000000aab914 + __sdk_start;
_ZN2nn4npns10InitializeEv = 0x000000000032eae0 + __sdk_start;
_ZNSt3__117__assoc_sub_state12__make_readyEv = 0x00000000004a43b8 + __sdk_start;
_ZN2nn2sf4cmif6client6detail13CmifProxyImplINS_7account4baas14IAdministratorENS2_19CmifDomainProxyKindINS0_4hipc6client38Hipc2ClientSessionManagedProxyKindBaseINSA_18Hipc2ProxyKindBaseILNS9_6detail11MessageTypeE6EEEEEEENS0_25StatelessAllocationPolicyINS0_22ExpHeapStaticAllocatorILm2048ENS5_6detail12ObjectHolder24ObjectHolderAllocatorTagEEEEES7_NS3_19ProcessModifierImplINS2_21DefaultProxyFilterTagEEEE52_nn_sf_sync_CreateProcedureToLinkWithNintendoAccountENS0_3OutINS0_13SharedPointerINS5_3nas40IOAuthProcedureForNintendoAccountLinkageEEEvEE = 0x0000000000011290 + __sdk_start;
FDK_InitBitBuffer = 0x00000000000f9260 + __sdk_start;
_ZN2nn7friends6detail15CheckUserStatusERKNS_7account3UidE = 0x000000000019ee70 + __sdk_start;
_ZNK2nn3hid6server8RingLifoINS0_16TouchScreenStateILm16EEELi16ENS1_29TouchScreenStateAtomicStorageEE8ReadImplINS3_ILm7EEEEEiPT_i = 0x000000000020fb80 + __sdk_start;
_ZN2nn5album12LibraryStateC2Ev = 0x000000000001af50 + __sdk_start;
_ZTIN2nn9bluetooth14GattDescriptorE = 0x0000000000c1ba78 + __sdk_start;
_ZN2nn2sf4cmif6client34CmifDomainProxyClientCoreProcessorINS0_4hipc6client38Hipc2ClientSessionManagedProxyKindBaseINS5_18Hipc2ProxyKindBaseILNS4_6detail11MessageTypeE6EEEEENS1_6detail14CoreMethodInfoINSt3__15tupleIJNSC_17InRawArgumentInfoILm16ELm8ELl104EEENSG_ILm64ELm1ELl0EEENSG_ILm33ELm1ELl64EEENSC_18BufferArgumentInfoILi0ELi5ELm0EEEEEELm120ELm0ELb0EEESM_E7ProcessEPNS2_23CmifDomainClientMessageISB_E15ProxyBaseObjectENS2_23InRawClientArgumentTypeILm16ELm8EvEENST_ILm64ELm1EvEENST_ILm33ELm1EvEENS2_24BufferClientArgumentTypeEj = 0x00000000001a5dd0 + __sdk_start;
_ZN2nn5image6detail4jpeg22jinit_c_master_controlEPNS2_20jpeg_compress_structEb = 0x0000000000253d10 + __sdk_start;
_ZN2nn8irsensor48GetHandAnalysisSilhouetteStateWithFullFrameShapeEPNS0_45HandAnalysisSilhouetteStateWithFullFrameShapeEPiilRKNS0_14IrCameraHandleE = 0x00000000002aa7a0 + __sdk_start;
_ZN2nn3mii6detail26ImageServiceProviderClient36GetImageDatabaseServiceSharedPointerEPNS_2sf13SharedPointerINS1_21IImageDatabaseServiceEEE = 0x0000000000306540 + __sdk_start;
_ZN2nn2sf4cmif6client6detail13CmifProxyImplINS_3hid10IHidServerENS0_4hipc6client18Hipc2ProxyKindBaseILNS7_6detail11MessageTypeE6EEENS0_30MemoryResourceAllocationPolicyES6_NS3_19ProcessModifierImplINS2_21DefaultProxyFilterTagEEEE33_nn_sf_sync_ActivateSixAxisSensorENS5_11BasicXpadIdE = 0x00000000002289f0 + __sdk_start;
_ZN2nn3mii6detail16Ver3StoreDataRaw14SetCreatorNameERKNS0_8NicknameE = 0x0000000000300d50 + __sdk_start;
_ZN2nn2sf4cmif6client6detail13CmifProxyImplINS_12notification6server27INotificationServicesCommonENS2_19CmifDomainProxyKindINS0_4hipc6client38Hipc2ClientSessionManagedProxyKindBaseINSA_18Hipc2ProxyKindBaseILNS9_6detail11MessageTypeE6EEEEEEENS0_30MemoryResourceAllocationPolicyENS6_35INotificationServicesForApplicationENS3_19ProcessModifierImplINS2_21DefaultProxyFilterTagEEEE30_nn_sf_sync_UpdateAlarmSettingERKNS5_12AlarmSettingERKNS0_8InBufferE = 0x000000000032dcb0 + __sdk_start;
_ZNSt3__113basic_ostreamIcNS_11char_traitsIcEEE5seekpExNS_8ios_base7seekdirE = 0x00000000004ae500 + __sdk_start;
strlcat = 0x00000000005550d8 + __sdk_start;
_ZN2nn5audio12SplitterInfo18GetInParameterSizeEi = 0x00000000000464a0 + __sdk_start;
_ZN2nn6crypto6detail6BigNum6ModInvEPKS2_S4_PNS2_14DigitAllocatorE = 0x0000000000138040 + __sdk_start;
_ZN2nn2sf6detail38ObjectImplFactoryWithStatefulAllocatorINS0_13InterfaceInfoINS_5audio6detail14IAudioRendererEE4_tABINS7_5_tO2NINS4_6server24AudioRendererManagerImpl17AudioRendererImplEE4typeES6_E4typeENS0_24StatefulAllocationPolicyINS0_16ExpHeapAllocatorEEEE6Object7ReleaseEv = 0x000000000005c5d0 + __sdk_start;
_ZN2nn2sf4cmif6client6detail13CmifProxyImplINS_8irsensor15IIrSensorServerENS0_4hipc6client18Hipc2ProxyKindBaseILNS7_6detail11MessageTypeE6EEENS0_25StatelessAllocationPolicyINS0_22ExpHeapStaticAllocatorILm16384ENS5_6detail14IrSensorServerEEEEES6_NS3_19ProcessModifierImplINS2_21DefaultProxyFilterTagEEEE34_nn_sf_sync_RunTeraPluginProcessorENS_6applet20AppletResourceUserIdENS5_14IrCameraHandleENS5_31PackedTeraPluginProcessorConfigE = 0x00000000002ab860 + __sdk_start;
_ZN2nn2sf4cmif6client6detail13CmifProxyImplINS_3nsd6detail8IManagerENS0_4hipc6client18Hipc2ProxyKindBaseILNS8_6detail11MessageTypeE6EEENS0_30MemoryResourceAllocationPolicyES7_NS3_19ProcessModifierImplINS2_21DefaultProxyFilterTagEEEE47_nn_sf_sync_GetApplicationServerEnvironmentTypeENS0_3OutIhvEE = 0x0000000000334530 + __sdk_start;
_ZN2nn3hid6system6detail36IsHandheldButtonPressedOnConsoleModeEPb = 0x0000000000220780 + __sdk_start;
_ZN2nn2sf4hipc6client24Hipc2ClientCoreProcessorILNS1_6detail11MessageTypeE6ENS0_4cmif6detail14CoreMethodInfoINSt3__15tupleIJNS7_17InRawArgumentInfoILm128ELm8ELl8EEENSB_ILm4ELm4ELl0EEEEEELm136ELm0ELb0EEESE_E7ProcessEPNS2_26Hipc2ClientProxyBaseObjectENS6_6client23InRawClientArgumentTypeILm128ELm8EvEENSK_ILm4ELm4EvEEj = 0x000000000036fe10 + __sdk_start;
_ZN2nn2sm17UnregisterServiceEPKcm = 0x000000000037afb0 + __sdk_start;
sinhf = 0x000000000054ac20 + __sdk_start;
_ZN2nn5album24MovieMakerMovieParameter15GetDefaultValueEv = 0x000000000001c050 + __sdk_start;
_ZTIN2nn2sf4cmif6client6detail9CmifProxyINS_6capsrv2sf29IScreenShotApplicationServiceENS0_4hipc6client18Hipc2ProxyKindBaseILNS8_6detail11MessageTypeE6EEENS0_30MemoryResourceAllocationPolicyENS3_19ProcessModifierImplINS2_21DefaultProxyFilterTagEEEvEE = 0x0000000000c1be78 + __sdk_start;
_ZN2nn3hid6detail17GetDigitizerStateEPNS0_14DigitizerStateE = 0x0000000000205600 + __sdk_start;
_ZN2nn3ngc6detail11CalcSelect1EjjPKjS3_PKh = 0x0000000000321b40 + __sdk_start;
_ZN7android8Composer19getLayerStateLockedERKNS_2spINS_21SurfaceComposerClientEEERKNS1_INS_7IBinderEEE = 0x00000000004430a0 + __sdk_start;
_ZN2nn2sf4cmif6client6detail13CmifProxyImplINS_6grcsrv11IMovieMakerENS2_19CmifDomainProxyKindINS0_4hipc6client38Hipc2ClientSessionManagedProxyKindBaseINS9_18Hipc2ProxyKindBaseILNS8_6detail11MessageTypeE6EEEEEEENS0_30MemoryResourceAllocationPolicyES6_NS3_19ProcessModifierImplINS2_21DefaultProxyFilterTagEEEE34_nn_sf_sync_GetOffscreenLayerErrorEm = 0x0000000000032550 + __sdk_start;
_ZN2nn5audio6server38CommandProcessingTimeEstimatorVersion18EstimateERKNS0_30AdpcmDataSourceCommandVersion1E = 0x00000000000619c0 + __sdk_start;
_ZN2nn5audio3dsp7MailBox8FinalizeEv = 0x00000000000713a0 + __sdk_start;
_ZN2nn3hid6system25DisableNpadSystemExtStateEv = 0x0000000000224680 + __sdk_start;
_ZdaPv = 0x00000000004e4378 + __sdk_start;
__nnmusl_call_tls_dtors_for_module = 0x000000000055dd20 + __sdk_start;
_ZNKSt3__18time_getIwNS_19istreambuf_iteratorIwNS_11char_traitsIwEEEEE12__get_minuteERiRS4_S4_RjRKNS_5ctypeIwEE = 0x00000000004c24a8 + __sdk_start;
_ZN2nn2sf4cmif6client6detail13CmifProxyImplINS_4bcat6detail3ipc12IBcatServiceENS2_19CmifDomainProxyKindINS0_4hipc6client38Hipc2ClientSessionManagedProxyKindBaseINSB_18Hipc2ProxyKindBaseILNSA_6detail11MessageTypeE6EEEEEEENS0_30MemoryResourceAllocationPolicyES8_NS3_19ProcessModifierImplINS2_21DefaultProxyFilterTagEEEE25_nn_sf_sync_SetPassphraseENS_13ApplicationIdERKNS0_7InArrayIcEE = 0x00000000000837b0 + __sdk_start;
_ZN2nn2sf4cmif6client6detail13CmifProxyImplINS_3hid16IHidSystemServerENS0_4hipc6client18Hipc2ProxyKindBaseILNS7_6detail11MessageTypeE6EEENS0_30MemoryResourceAllocationPolicyES6_NS3_19ProcessModifierImplINS2_21DefaultProxyFilterTagEEEE43_nn_sf_sync_GetXcdHandleForNpadWithIrSensorEjNS0_3OutINS_3xcd12DeviceHandleEvEENS_6applet20AppletResourceUserIdE = 0x0000000000231260 + __sdk_start;
_ZN2nn2sf6detail38ObjectImplFactoryWithStatefulAllocatorINS0_4cmif6client6detail9CmifProxyINS_4bcat6detail3ipc28IDeliveryCacheStorageServiceENS4_19CmifDomainProxyKindINS0_4hipc6client38Hipc2ClientSessionManagedProxyKindBaseINSD_18Hipc2ProxyKindBaseILNSC_6detail11MessageTypeE6EEEEEEENS0_30MemoryResourceAllocationPolicyENS5_19ProcessModifierImplINS4_21DefaultProxyFilterTagEEEvEESL_E6Object12AddReferenceEv = 0x0000000000084c30 + __sdk_start;
_ZN2nn2sf13SharedPointerINS_5fssrv2sf16IProgramRegistryEED2Ev = 0x00000000001c9d20 + __sdk_start;
_ZN2nn2sf4cmif6client6detail13CmifProxyImplINS_2am7service22ILibraryAppletAccessorENS2_19CmifDomainProxyKindINS0_4hipc6client38Hipc2ClientSessionManagedProxyKindBaseINSA_18Hipc2ProxyKindBaseILNS9_6detail11MessageTypeE6EEEEEEENS0_30MemoryResourceAllocationPolicyES7_NS3_19ProcessModifierImplINS2_21DefaultProxyFilterTagEEEE41_nn_sf_sync_GetPopInteractiveOutDataEventENS0_3OutINS0_12NativeHandleEvEE = 0x0000000000029510 + __sdk_start;
_ZN2nn3btm4user24AcquireBleMtuConfigEventEPNS_2os15SystemEventTypeE = 0x0000000000092860 + __sdk_start;
_ZN2nn2ec6detail19ShopPageReturnValueC2Ev = 0x0000000000156fe0 + __sdk_start;
_ZN2nn4edid6detail22PhysicalAddressVisitorEPKhmPv = 0x0000000000159820 + __sdk_start;
_ZN2nn2sf4cmif6client6detail13CmifProxyImplINS_3hid10IHidServerENS0_4hipc6client18Hipc2ProxyKindBaseILNS7_6detail11MessageTypeE6EEENS0_30MemoryResourceAllocationPolicyES6_NS3_19ProcessModifierImplINS2_21DefaultProxyFilterTagEEEE36_nn_sf_sync_SendVibrationValueInBoolENS_6applet20AppletResourceUserIdENS5_21VibrationDeviceHandleEb = 0x0000000000229570 + __sdk_start;
sinhl = 0x000000000054acd0 + __sdk_start;
_ZN2nn2sf4cmif6client6detail36GetClientProcessorImplWithObjectBaseINS2_19CmifDomainProxyKindINS0_4hipc6client38Hipc2ClientSessionManagedProxyKindBaseINS7_18Hipc2ProxyKindBaseILNS6_6detail11MessageTypeE6EEEEEEENS3_19ProcessModifierImplINS2_21DefaultProxyFilterTagEEEE14ObjectAssignerINS0_30MemoryResourceAllocationPolicyENS_14MemoryResourceEE14AllocateObjectINS_2am7service21IApplicationFunctionsEEEvi = 0x000000000002f9b0 + __sdk_start;
nndetailImagePng_png_warning_parameter_signed = 0x0000000000279a40 + __sdk_start;
asinf = 0x0000000000541f50 + __sdk_start;
_ZN2nn5audio24StartFinalOutputRecorderEPNS0_19FinalOutputRecorderE = 0x00000000000583d0 + __sdk_start;
_ZN2nn5audio34GetFinalOutputRecorderChannelCountEPKNS0_19FinalOutputRecorderE = 0x00000000000584f0 + __sdk_start;
_ZN2nn3mii6detail14GetCommonColorENS0_11CommonColorENS0_9GammaTypeE = 0x00000000002f35d0 + __sdk_start;
_ZNKSt3__18time_getIcNS_19istreambuf_iteratorIcNS_11char_traitsIcEEEEE16do_get_monthnameES4_S4_RNS_8ios_baseERjP2tm = 0x00000000004bfa90 + __sdk_start;
_ZN2nn7account28NetworkServiceAccountManager4SwapERS1_ = 0x0000000000015940 + __sdk_start;
_ZN2nn6capsrv46ReadDataFromAlbumMovieReadStreamForApplicationEPmPvmNS0_26AlbumMovieReadStreamHandleEl = 0x00000000000972a0 + __sdk_start;
_ZN2nn3aoc19PrepareAddOnContentEi = 0x0000000000035620 + __sdk_start;
pcmDmx_GetParam = 0x00000000001104c0 + __sdk_start;
_ZNSt3__113basic_ostreamIwNS_11char_traitsIwEEE5seekpExNS_8ios_base7seekdirE = 0x00000000004b05f0 + __sdk_start;
asinh = 0x00000000005420f0 + __sdk_start;
_ZTIN2nn3htc4tenv8IServiceE = 0x0000000000c26db0 + __sdk_start;
_ZN2nn8settings6detail22SetUsb30HostEnableFlagEb = 0x00000000003665f0 + __sdk_start;
__lgammal_r = 0x0000000000547e40 + __sdk_start;
_ZN2nn9bluetooth12StartInquiryEv = 0x000000000008b050 + __sdk_start;
_ZN2nn5prepo5Array3AddEPKc = 0x00000000003521f0 + __sdk_start;
_ZN2nn2sf4hipc6client24Hipc2ClientCoreProcessorILNS1_6detail11MessageTypeE6ENS0_4cmif6detail14CoreMethodInfoINSt3__15tupleIJNS7_17InRawArgumentInfoILm8ELm8ELl64EEENSB_ILm64ELm1ELl0EEENSB_ILm8ELm8ELl72EEEEEELm80ELm0ELb1EEESF_E7ProcessEPNS2_26Hipc2ClientProxyBaseObjectENS6_6client23InRawClientArgumentTypeILm8ELm8EvEENSL_ILm64ELm1EvEESM_j = 0x00000000003bc950 + __sdk_start;
_ZN2nn3mii13ImageDatabase10ImportFileEPKvm = 0x0000000000303eb0 + __sdk_start;
_ZN2nn5srepo6detail15ReportGenerator11AddKeyValueEPmPKcbPhmmm = 0x000000000034f1c0 + __sdk_start;
_ZNK2nn5prepo10PlayReport7GetSizeEv = 0x0000000000352c70 + __sdk_start;
asinl = 0x0000000000542318 + __sdk_start;
_ZN2nn7account13PushOpenUsersEv = 0x0000000000003340 + __sdk_start;
_ZN2nn9bluetooth14GattDescriptorC1ERKNS0_17GattAttributeUuidEtj = 0x0000000000091270 + __sdk_start;
trim_bitmap = 0x000000000016aef0 + __sdk_start;
_ZN2nn3web6detail14WebSessionImpl18StorageHandleQueue2atEi = 0x00000000003cb440 + __sdk_start;
__nnmusl_pthread_setaffinity_np = 0x000000000055d5a8 + __sdk_start;
_ZN2nn3ngc6detail12OutputStream5CloseEv = 0x000000000031cc30 + __sdk_start;
_ZN2nn5audio15StopCpuProfilerEv = 0x00000000000559a0 + __sdk_start;
_ZN2nn2fs29GetCustomStorageDirectoryNameENS0_15CustomStorageIdE = 0x00000000001c7d00 + __sdk_start;
_ZTSN2nn2fs6detail24FileServiceObjectAdapterE = 0x0000000000a70e1a + __sdk_start;
_ZN7android21SurfaceComposerClient12setUnderscanERKNS_2spINS_7IBinderEEEi = 0x00000000004456d0 + __sdk_start;
nncodecLibopus_get_left_channel = 0x00000000000d94d0 + __sdk_start;
_ZN7android12ConsumerBase13abandonLockedEv = 0x00000000004351f0 + __sdk_start;
gai_strerror = 0x0000000000518a68 + __sdk_start;
_ZN2nn4htcs8FdSetClrEiPNS0_5FdSetE = 0x00000000002446c0 + __sdk_start;
_ZNK2nn8irsensor6detail19StatusManagerHolder16GetStatusManagerEv = 0x00000000002a6a50 + __sdk_start;
_ZN2nn2sf4cmif6client34CmifDomainProxyClientCoreProcessorINS0_4hipc6client38Hipc2ClientSessionManagedProxyKindBaseINS5_18Hipc2ProxyKindBaseILNS4_6detail11MessageTypeE6EEEEENS1_6detail14CoreMethodInfoINSt3__15tupleIJNSC_18OutRawArgumentInfoILm8ELm8ELl0EEENSC_17InRawArgumentInfoILm8ELm8ELl0EEEEEELm8ELm8ELb1EEESK_E7ProcessEPNS2_23CmifDomainClientMessageISB_E15ProxyBaseObjectENS2_24OutRawClientArgumentTypeILm8ELm8EEENS2_23InRawClientArgumentTypeILm8ELm8EvEEj = 0x00000000000295d0 + __sdk_start;
_ZN2nn2sf4cmif6client6detail36GetClientProcessorImplWithObjectBaseINS2_19CmifDomainProxyKindINS0_4hipc6client38Hipc2ClientSessionManagedProxyKindBaseINS7_18Hipc2ProxyKindBaseILNS6_6detail11MessageTypeE6EEEEEEENS3_19ProcessModifierImplINS2_21DefaultProxyFilterTagEEEE14ObjectAssignerINS0_30MemoryResourceAllocationPolicyENS_14MemoryResourceEE14AllocateObjectINS_2am7service21ILibraryAppletCreatorEEEvi = 0x0000000000029730 + __sdk_start;
_ZN2nn5audio6server24AudioRenderSystemManager14ThreadFunctionEPv = 0x000000000005cef0 + __sdk_start;
_ZN2nn2sf4cmif6client34CmifDomainProxyClientCoreProcessorINS0_4hipc6client38Hipc2ClientSessionManagedProxyKindBaseINS5_18Hipc2ProxyKindBaseILNS4_6detail11MessageTypeE6EEEEENS1_6detail14CoreMethodInfoINSt3__15tupleIJNSC_17InRawArgumentInfoILm4ELm4ELl4EEENSG_ILm4ELm4ELl8EEENSG_ILm1ELm1ELl0EEEEEELm12ELm0ELb0EEESK_E7ProcessEPNS2_23CmifDomainClientMessageISB_E15ProxyBaseObjectENS2_23InRawClientArgumentTypeILm4ELm4EvEESS_NSR_ILm1ELm1EvEEj = 0x00000000001d8d90 + __sdk_start;
_ZN2nn2sf4hipc6client24Hipc2ClientCoreProcessorILNS1_6detail11MessageTypeE6ENS0_4cmif6detail14CoreMethodInfoINSt3__15tupleIJNS7_18OutRawArgumentInfoILm40ELm1ELl0EEENS7_17InRawArgumentInfoILm16ELm8ELl0EEENSD_ILm8ELm8ELl16EEEEEELm24ELm40ELb0EEESG_E7ProcessEPNS2_26Hipc2ClientProxyBaseObjectENS6_6client24OutRawClientArgumentTypeILm40ELm1EEENSL_23InRawClientArgumentTypeILm16ELm8EvEENSO_ILm8ELm8EvEEj = 0x0000000000331500 + __sdk_start;
_ZNSt3__115basic_streambufIcNS_11char_traitsIcEEED1Ev = 0x00000000004a5f88 + __sdk_start;
_ZN2nn2sf4cmif6client6detail13CmifProxyImplINS_2am7service22IGlobalStateControllerENS2_19CmifDomainProxyKindINS0_4hipc6client38Hipc2ClientSessionManagedProxyKindBaseINSA_18Hipc2ProxyKindBaseILNS9_6detail11MessageTypeE6EEEEEEENS0_30MemoryResourceAllocationPolicyES7_NS3_19ProcessModifierImplINS2_21DefaultProxyFilterTagEEEE30_nn_sf_sync_StartSleepSequenceEb = 0x000000000002a950 + __sdk_start;
nncodecLibopus_silk_schur64 = 0x00000000000cc970 + __sdk_start;
_ZN2nn2fs24HierarchicalRomFileTable22QueryRomFileSystemSizeEPlS2_ = 0x00000000001ab250 + __sdk_start;
nnmem_nlib_semaphore_wait = 0x00000000002e0110 + __sdk_start;
nnosGetTlsValue = 0x000000000033deb0 + __sdk_start;
nnsslConnectionDoHandshake = 0x0000000000396ec0 + __sdk_start;
_ZN2nn9bluetooth17AddGattDescriptorEhRKNS0_17GattAttributeUuidES3_t = 0x000000000008c750 + __sdk_start;
_ZN2nn2sf4hipc6client24Hipc2ClientCoreProcessorILNS1_6detail11MessageTypeE6ENS0_4cmif6detail14CoreMethodInfoINSt3__15tupleIJNS7_18BufferArgumentInfoILi0ELi9ELm0EEEEEELm0ELm0ELb0EEESD_E7ProcessEPNS2_26Hipc2ClientProxyBaseObjectENS6_6client24BufferClientArgumentTypeEj = 0x0000000000233e90 + __sdk_start;
_ZN2nn5prepo10PlayReportC2EPKc = 0x0000000000352350 + __sdk_start;
iswpunct = 0x000000000053bce0 + __sdk_start;
nncryptoAes128CtrDecryptorIvSize = 0x0000000000a646d8 + __sdk_start;
FSS_get_kerning = 0x0000000000189820 + __sdk_start;
_ZN2nn2sf4cmif6client6detail13CmifProxyImplINS_3hid10IHidServerENS0_4hipc6client18Hipc2ProxyKindBaseILNS7_6detail11MessageTypeE6EEENS0_30MemoryResourceAllocationPolicyES6_NS3_19ProcessModifierImplINS2_21DefaultProxyFilterTagEEEE38_nn_sf_sync_DeactivateJoySixAxisSensorENS5_9JoyXpadIdE = 0x0000000000228ab0 + __sdk_start;
_ZN2nn3mem17StandardAllocator6ShrinkEPvm = 0x00000000002ee290 + __sdk_start;
_ZN2nn2sf6detail38ObjectImplFactoryWithStatefulAllocatorINS0_4cmif6client6detail9CmifProxyINS_4npns9INpnsUserENS0_4hipc6client18Hipc2ProxyKindBaseILNS9_6detail11MessageTypeE6EEENS0_30MemoryResourceAllocationPolicyENS5_19ProcessModifierImplINS4_21DefaultProxyFilterTagEEEvEESF_E6Object12AddReferenceEv = 0x000000000032fe70 + __sdk_start;
_ZN2nn6socket6detail15DuplicateSocketEim = 0x00000000003865b0 + __sdk_start;
_ZNSt3__114codecvt_bynameIcc11__mbstate_tED0Ev = 0x00000000004c9c50 + __sdk_start;
_ZN2nn2sf4cmif6client34CmifDomainProxyClientCoreProcessorINS0_4hipc6client38Hipc2ClientSessionManagedProxyKindBaseINS5_18Hipc2ProxyKindBaseILNS4_6detail11MessageTypeE6EEEEENS1_6detail14CoreMethodInfoINSt3__15tupleIJNSC_18BufferArgumentInfoILi0ELi33ELm0EEEEEELm0ELm0ELb0EEESI_E7ProcessEPNS2_23CmifDomainClientMessageISB_E15ProxyBaseObjectENS2_24BufferClientArgumentTypeEj = 0x0000000000025630 + __sdk_start;
_ZNK2nn5audio6server10PoolMapper5UnmapEjNS0_7CpuAddrEm = 0x00000000000671b0 + __sdk_start;
_ZN2nn6crypto6detail6BigNumD1Ev = 0x0000000000137b20 + __sdk_start;
_ZN2nn3ngc6detail11AhoCorasick5ResetEv = 0x0000000000316ed0 + __sdk_start;
_ZN2nn5prepo10PlayReport13BufferSizeMaxE = 0x0000000000ab0ff0 + __sdk_start;
_ZN7android13GraphicBuffer11free_handleEv = 0x0000000000447f60 + __sdk_start;
_ZNK7android6Region9intersectERKNS_4RectE = 0x000000000044a880 + __sdk_start;
_ZN2nn5image13ExifExtractor17GetWorkBufferSizeEv = 0x0000000000272d60 + __sdk_start;
_ZN2nn2sf4hipc6client24Hipc2ClientCoreProcessorILNS1_6detail11MessageTypeE6ENS0_4cmif6detail14CoreMethodInfoINSt3__15tupleIJNS7_18OutRawArgumentInfoILm4ELm4ELl0EEENS7_18BufferArgumentInfoILi0ELi6ELm0EEENS7_17InRawArgumentInfoILm4ELm4ELl0EEEEEELm4ELm4ELb0EEESH_E7ProcessEPNS2_26Hipc2ClientProxyBaseObjectENS6_6client24OutRawClientArgumentTypeILm4ELm4EEENSM_24BufferClientArgumentTypeENSM_23InRawClientArgumentTypeILm4ELm4EvEEj = 0x000000000034dd40 + __sdk_start;
_ZN2nn2sf4hipc24CloseServerSessionHandleENS_3svc6HandleE = 0x00000000003789d0 + __sdk_start;
fmin = 0x0000000000541a98 + __sdk_start;
_ZN2nn2sf13InterfaceInfoINS_5audio6detail12IAudioDeviceEE4_tABINS5_5_tO2NINS2_6server24AudioRendererManagerImpl15AudioDeviceImplEE4typeES4_E4type42_nn_sf_sync_SetAudioDeviceOutputVolumeAutoERKNS0_8InBufferEf = 0x000000000005cbb0 + __sdk_start;
_ZN2nn5codec14initHeaderDataEPNS0_15SBR_HEADER_DATAEiiij = 0x000000000011c810 + __sdk_start;
nnmem_nlib_utf32char_to_utf16 = 0x00000000002d02e0 + __sdk_start;
_ZN2nn3mii6detail33CommonColorOrderIndexToColorIndexE = 0x0000000000a9d4d4 + __sdk_start;
_ZN2nn4nifm38SetWirelessCommunicationEnabledForTestEb = 0x000000000032a310 + __sdk_start;
NvRmGpuChannelSetInterleave = 0x0000000000404bd0 + __sdk_start;
_ZN7android6Parcel8growDataEm = 0x0000000000421450 + __sdk_start;
_ZN2nn5audio6server38CommandProcessingTimeEstimatorVersion38EstimateERKNS0_26TDataSourceCommandVersion2ILNS0_9CommandIdE6EEE = 0x0000000000062cf0 + __sdk_start;
FDKstrcpy = 0x0000000000131ce0 + __sdk_start;
_ZN2nn2sf4cmif6client6detail13CmifProxyImplINS_3hid15IHidDebugServerENS0_4hipc6client18Hipc2ProxyKindBaseILNS7_6detail11MessageTypeE6EEENS0_30MemoryResourceAllocationPolicyES6_NS3_19ProcessModifierImplINS2_21DefaultProxyFilterTagEEEE42_nn_sf_sync_SetCaptureButtonAutoPilotStateENS5_5debug27CaptureButtonAutoPilotStateE = 0x000000000022db00 + __sdk_start;
_ZN2nn2sf4cmif6client6detail13CmifProxyImplINS_8settings22IFactorySettingsServerENS0_4hipc6client18Hipc2ProxyKindBaseILNS7_6detail11MessageTypeE6EEENS0_30MemoryResourceAllocationPolicyES6_NS3_19ProcessModifierImplINS2_21DefaultProxyFilterTagEEEE29_nn_sf_sync_GetSslCertificateENS0_3OutINS5_7factory14SslCertificateEvEE = 0x0000000000367ff0 + __sdk_start;
_ZdlPvm = 0x00000000004e4370 + __sdk_start;
_ZN2nn5album34SaveAndShareScreenshotWithUserDataEPKvmNS0_9ImageSizeENS0_16ImageOrientationENS0_17AlbumReportOptionERKNS_7account3UidEPKcS2_m = 0x000000000001d8b0 + __sdk_start;
_ZN2nn2os6detail26g_CommandLineParameterArgvE = 0x0000000000c2d820 + __sdk_start;
_ZN2nn5audio14AddI3dl2ReverbEPNS0_19AudioRendererConfigEPNS0_15I3dl2ReverbTypeEPvmPNS0_12FinalMixTypeEi = 0x00000000000413a0 + __sdk_start;
_ZTIN2nn2sf6detail38ObjectImplFactoryWithStatefulAllocatorINS0_4cmif6client6detail9CmifProxyINS_3mii6detail21IImageDatabaseServiceENS0_4hipc6client18Hipc2ProxyKindBaseILNSA_6detail11MessageTypeE6EEENS0_30MemoryResourceAllocationPolicyENS5_19ProcessModifierImplINS4_21DefaultProxyFilterTagEEEvEESG_E6ObjectE = 0x0000000000c2a558 + __sdk_start;
_ZN2nn2os13LockBusyMutexEPNS0_13BusyMutexTypeE = 0x0000000000338780 + __sdk_start;
_ZN2nn8settings6detail23GetNxControllerSettingsEPiPNS0_6system20NxControllerSettingsEi = 0x0000000000362580 + __sdk_start;
_ZN2nn5audio6server22PerformanceManagerImplINS1_33PerformanceManagerImplVersion2TagENS0_6common30PerformanceFrameHeaderVersion2ENS4_24PerformanceEntryVersion2ENS4_25PerformanceDetailVersion2ENS0_20PerformanceSysDetailEE12UpdateHeaderEPS5_PKS5_imii = 0x0000000000065020 + __sdk_start;
_ZN2nn2sf4cmif6client6detail13CmifProxyImplINS_3hid15IHidDebugServerENS0_4hipc6client18Hipc2ProxyKindBaseILNS7_6detail11MessageTypeE6EEENS0_30MemoryResourceAllocationPolicyES6_NS3_19ProcessModifierImplINS2_21DefaultProxyFilterTagEEEE32_nn_sf_sync_AttachHdlsWorkBufferEONS0_12NativeHandleEm = 0x000000000022e3c0 + __sdk_start;
nnmem_nlib_utf16cplen_ex_simd = 0x00000000002e2bd0 + __sdk_start;
_ZN2nn8settings6system22GetHomeMenuSchemeModelEPj = 0x000000000035b930 + __sdk_start;
__lgammaf_r = 0x0000000000547728 + __sdk_start;
_ZTIN2nn5audio6server10EffectInfoILNS0_10EffectTypeE4ENS0_15ReverbParameterEEE = 0x0000000000c199b8 + __sdk_start;
_ZTIN7android7IBinderE = 0x0000000000c36db8 + __sdk_start;
_ZN2nn2sf6detail38ObjectImplFactoryWithStatefulAllocatorINS0_4cmif6client6detail9CmifProxyINS_2am7service15IAppletAccessorENS4_19CmifDomainProxyKindINS0_4hipc6client38Hipc2ClientSessionManagedProxyKindBaseINSC_18Hipc2ProxyKindBaseILNSB_6detail11MessageTypeE6EEEEEEENS0_30MemoryResourceAllocationPolicyENS5_19ProcessModifierImplINS4_21DefaultProxyFilterTagEEEvEESK_E6Object7ReleaseEv = 0x000000000002b560 + __sdk_start;
_ZN2nn5audio3dsp25MailBoxImplByMessageQueue16InvalidMailBoxIdE = 0x0000000000a45ef8 + __sdk_start;
_ZN2nn5codec22CAacDecoder_AncDataGetEPNS0_8CAncDataEiPPhPi = 0x00000000000eb990 + __sdk_start;
_ZTIN2nn3hid15IAppletResourceE = 0x0000000000c24680 + __sdk_start;
_ZN2nn2fs6detail31IsSessionForRealtimeOnlyEnabledEv = 0x00000000001c9d40 + __sdk_start;
_ZN2nn3ldn20AddAcceptFilterEntryENS0_10MacAddressE = 0x00000000002c2f80 + __sdk_start;
_ZN2nn3ngc19ProfanityFilterBase16IsIncludesAtSignEPKDsi = 0x0000000000315e80 + __sdk_start;
_ZTSN2nn2sf6detail38ObjectImplFactoryWithStatefulAllocatorINS0_4cmif6client6detail9CmifProxyINS_3ngc1t6detail9INotifierENS0_4hipc6client18Hipc2ProxyKindBaseILNSB_6detail11MessageTypeE6EEENS0_30MemoryResourceAllocationPolicyENS5_19ProcessModifierImplINS4_21DefaultProxyFilterTagEEEvEESH_E6ObjectE = 0x0000000000aac9b4 + __sdk_start;
_ZN2nn9bluetooth5debug16EnableAfhSettingEb = 0x000000000008c900 + __sdk_start;
_ZN2nn2sf4cmif6client6detail13CmifProxyImplINS_2am7service22IGlobalStateControllerENS2_19CmifDomainProxyKindINS0_4hipc6client38Hipc2ClientSessionManagedProxyKindBaseINSA_18Hipc2ProxyKindBaseILNS9_6detail11MessageTypeE6EEEEEEENS0_30MemoryResourceAllocationPolicyES7_NS3_19ProcessModifierImplINS2_21DefaultProxyFilterTagEEEE42_nn_sf_sync_UpdateDefaultDisplayResolutionEv = 0x000000000002aa40 + __sdk_start;
_ZN2nn5audio6server38CommandProcessingTimeEstimatorVersion28EstimateERKNS0_30AdpcmDataSourceCommandVersion1E = 0x0000000000061e70 + __sdk_start;
_ZN2nn5image6detail4jpeg17jpeg_set_defaultsEPNS2_20jpeg_compress_structE = 0x0000000000255270 + __sdk_start;
_ZN2nn2os14AllocateMemoryEPmm = 0x000000000033d3e0 + __sdk_start;
_ZN2nn8settings6detail25CreateSettingsServerProxyEPNS_2sf13SharedPointerINS0_15ISettingsServerEEE = 0x000000000036ad40 + __sdk_start;
_ZN3nne4nlib11InputStream12GoBackToMarkEv = 0x00000000003b56f0 + __sdk_start;
_ZN2nn5audio3dsp17ApplyBiquadFilterEPfPKfPKsS6_PNS0_17BiquadFilterStateEi = 0x000000000006d620 + __sdk_start;
_ZThn16_N2nn2sf4cmif6client6detail13CmifProxyImplINS_3nim6detail24IShopServiceAccessServerENS0_4hipc6client18Hipc2ProxyKindBaseILNS8_6detail11MessageTypeE6EEENS0_30MemoryResourceAllocationPolicyES7_NS3_19ProcessModifierImplINS2_21DefaultProxyFilterTagEEEE17GetCmifBaseObjectEv = 0x00000000001524a0 + __sdk_start;
_ZN2nn3hid6detail21InitializeTouchScreenEv = 0x000000000020d2a0 + __sdk_start;
_ZN2nn3mii6detail13NoselineColorE = 0x0000000000a9e13c + __sdk_start;
_ZN2nn4util17MessagePackWriter18WriteBinary8HeaderEh = 0x00000000003ac300 + __sdk_start;
_ZNSt20bad_array_new_lengthC2Ev = 0x00000000005062e8 + __sdk_start;
iscntrl = 0x000000000053b568 + __sdk_start;
_ZN2nn5audio6common10EdgeMatrixC2Ev = 0x0000000000048d20 + __sdk_start;
_ZN7android18BufferItemConsumerC2ERKNS_2spINS_22IGraphicBufferConsumerEEEjib = 0x000000000042cc20 + __sdk_start;
_ZN2nn2sf4cmif6client6detail13CmifProxyImplINS_4bcat6detail3ipc28IDeliveryCacheStorageServiceENS2_19CmifDomainProxyKindINS0_4hipc6client38Hipc2ClientSessionManagedProxyKindBaseINSB_18Hipc2ProxyKindBaseILNSA_6detail11MessageTypeE6EEEEEEENS0_30MemoryResourceAllocationPolicyES8_NS3_19ProcessModifierImplINS2_21DefaultProxyFilterTagEEEE17GetCmifBaseObjectEv = 0x0000000000084e20 + __sdk_start;
_ZN2nn3hid6detail24NpadSharedMemoryAccessor27EnableControlPadRestrictionERKNS_4util10BitFlagSetILi32ENS0_12NpadStyleTagEEEb = 0x0000000000207f80 + __sdk_start;
_ZN2nn3mii13ImageDatabaseC1Ev = 0x00000000003036c0 + __sdk_start;
_ZN2nn2sf4cmif6client6detail13CmifProxyImplINS_8settings28IFirmwareDebugSettingsServerENS0_4hipc6client18Hipc2ProxyKindBaseILNS7_6detail11MessageTypeE6EEENS0_30MemoryResourceAllocationPolicyES6_NS3_19ProcessModifierImplINS2_21DefaultProxyFilterTagEEEE17GetCmifBaseObjectEv = 0x000000000036a0b0 + __sdk_start;
_ZN2nn9bluetooth24SetBleAdvertiseParameterERKNS0_7AddressEtt = 0x000000000008c0d0 + __sdk_start;
_ZN2nn3mii6detail19GetMouthColorToVer3ENS0_11CommonColorE = 0x00000000002f3870 + __sdk_start;
NvRmMemWrite = 0x00000000003e10b0 + __sdk_start;
_ZTSN2nn2sf4cmif6client6detail13CmifProxyImplINS_2ec21IPurchaseEventManagerENS0_4hipc6client18Hipc2ProxyKindBaseILNS7_6detail11MessageTypeE6EEENS0_30MemoryResourceAllocationPolicyES6_NS3_19ProcessModifierImplINS2_21DefaultProxyFilterTagEEEEE = 0x0000000000a3a95a + __sdk_start;
_ZTSN2nn2ec4json7adaptor11AdaptorBaseILi8ELi128EEE = 0x0000000000a672f9 + __sdk_start;
_ZN2nn3mii13ImageDatabase10ExportFileEPvm = 0x0000000000303f40 + __sdk_start;
_ZN2nn2sf6detail39ObjectImplFactoryWithStatelessAllocatorINS0_4cmif6client6detail9CmifProxyINS_7account3nas34IOAuthProcedureForUserRegistrationENS4_19CmifDomainProxyKindINS0_4hipc6client38Hipc2ClientSessionManagedProxyKindBaseINSC_18Hipc2ProxyKindBaseILNSB_6detail11MessageTypeE6EEEEEEENS0_25StatelessAllocationPolicyINS0_22ExpHeapStaticAllocatorILm2048ENS7_6detail12ObjectHolder24ObjectHolderAllocatorTagEEEEENS5_19ProcessModifierImplINS4_21DefaultProxyFilterTagEEEvEESQ_E6Object12AddReferenceEv = 0x000000000000fa10 + __sdk_start;
__cxa_pure_virtual = 0x0000000000506250 + __sdk_start;
NvOsLibraryLoad = 0x00000000003d9100 + __sdk_start;
_ZNSt3__17promiseIvEC1Ev = 0x00000000004a4720 + __sdk_start;
_ZN2nn6applet36CreateLibraryAppletHandleOnUnwindingENS_2sf13SharedPointerINS_2am7service22ILibraryAppletAccessorEEE = 0x00000000000397e0 + __sdk_start;
_ZN2nn4edid6detail23GetEstablishedTimingIIIEPFbPKNS0_15DisplayModeInfoEPKNS0_17DisplayTimingInfoEPKNS0_13ImageSizeInfoEPvESB_h = 0x0000000000159d90 + __sdk_start;
_ZN2nn4util27ConvertCharacterUtf8ToUtf32EPjPKc = 0x00000000003b4af0 + __sdk_start;
_ZN2nn2vi17GetZOrderCountMaxEPKNS0_7DisplayE = 0x00000000003bec50 + __sdk_start;
_ZTVNSt3__115__codecvt_utf16IDsLb1EEE = 0x0000000000c46c60 + __sdk_start;
_ZN2nn3ngc6detail15NullInputStreamC2Ev = 0x000000000031c6f0 + __sdk_start;
_ZN2nn8settings6detail22SetDebugPadKeyboardMapERKNS0_19DebugPadKeyboardMapE = 0x00000000003672b0 + __sdk_start;
nvcecGetPAddr = 0x00000000003cb640 + __sdk_start;
_ZNK2nn5codec22OpusMultiStreamDecoder19GetTotalStreamCountEv = 0x00000000000df710 + __sdk_start;
_ZN2nn2sf4cmif6client6detail13CmifProxyImplINS_4pctl6detail3ipc23IParentalControlServiceENS2_19CmifDomainProxyKindINS0_4hipc6client38Hipc2ClientSessionManagedProxyKindBaseINSB_18Hipc2ProxyKindBaseILNSA_6detail11MessageTypeE6EEEEEEENS0_30MemoryResourceAllocationPolicyES8_NS3_19ProcessModifierImplINS2_21DefaultProxyFilterTagEEEE33_nn_sf_sync_AuthorizePairingAsyncENS0_3OutINS6_9AsyncDataEvEENSO_INS0_12NativeHandleEvEERKNS6_15PairingInfoBaseE = 0x0000000000349ac0 + __sdk_start;
_ZN7android12ProcessState15startThreadPoolEv = 0x0000000000424e90 + __sdk_start;
isblank_l = 0x000000000053b550 + __sdk_start;
_ZN2nn4lmem20AllocateFromUnitHeapEPNS0_6detail8HeapHeadE = 0x00000000002c9310 + __sdk_start;
_ZN2nn5codec12KBDWindow128E = 0x0000000000a5eac0 + __sdk_start;
_ZTVN2nn2fs6detail27StorageServiceObjectAdapterINS_5fssrv2sf8IStorageEEE = 0x0000000000c204d0 + __sdk_start;
_ZZN2nn2sf40SimpleAllInOneHipcSubDomainClientManagerILm1EE27InitializeShimLibraryHolderINS_5prepo6detail3ipc13IPrepoServiceENS0_4cmif6client6detail19ProcessModifierImplINS9_21DefaultProxyFilterTagEEEEENS_6ResultEPNS0_23ShimLibraryObjectHolderIT_EEPKcPNS_14MemoryResourceEENUlPvE_8__invokeESN_ = 0x00000000003550f0 + __sdk_start;
_ZN2nn3hid6detail21GenerateVibrationFileEPmPhmRKNS0_23VibrationValueArrayInfoEPKNS0_14VibrationValueE = 0x0000000000211e30 + __sdk_start;
_ZN2nn6socket8resolver11GetAddrInfoEPKcS3_PK8addrinfoPPS4_PKNS0_14ResolverOptionEm = 0x0000000000390d20 + __sdk_start;
_ZTSN2nn2sf4cmif6client6detail13CmifProxyImplINS_2am7service18IDisplayControllerENS2_19CmifDomainProxyKindINS0_4hipc6client38Hipc2ClientSessionManagedProxyKindBaseINSA_18Hipc2ProxyKindBaseILNS9_6detail11MessageTypeE6EEEEEEENS0_30MemoryResourceAllocationPolicyES7_NS3_19ProcessModifierImplINS2_21DefaultProxyFilterTagEEEEE = 0x0000000000a32c4e + __sdk_start;
_ZN2nn3err6detail15ReadMessageFileEPDsPimNS0_9ErrorCodeENS_8settings12LanguageCodeENS1_11MessageKindE = 0x000000000015d100 + __sdk_start;
_ZN2nn3hid6system6detail22GetButtonConfigStorageEPNS_9hidconfig16ButtonConfigLeftEi = 0x000000000021f0b0 + __sdk_start;
_ZNK2nn3kpr15KeyCodeComposer7GetModeEv = 0x00000000002c05f0 + __sdk_start;
_ZN2nn3nfp29StartNicknameAndOwnerSettingsEPNS0_7TagInfoEPNS0_12DeviceHandleEPbPNS0_12RegisterInfoERKNS0_24AmiiboSettingsStartParamE = 0x0000000000310610 + __sdk_start;
_ZN2nn2sf4cmif6client6detail13CmifProxyImplINS_8settings21ISystemSettingsServerENS0_4hipc6client18Hipc2ProxyKindBaseILNS7_6detail11MessageTypeE6EEENS0_30MemoryResourceAllocationPolicyES6_NS3_19ProcessModifierImplINS2_21DefaultProxyFilterTagEEEE28_nn_sf_sync_SetSleepSettingsERKNS5_6system13SleepSettingsE = 0x000000000036c670 + __sdk_start;
_ZN2nn5audio20IsMemoryPoolAttachedEPKNS0_14MemoryPoolTypeE = 0x0000000000043890 + __sdk_start;
_ZN2nn5audio6server38CommandProcessingTimeEstimatorVersion38EstimateERKNS0_30AdpcmDataSourceCommandVersion1E = 0x0000000000062c60 + __sdk_start;
_ZNK2nn2sf13SharedPointerINS_6capsrv2sf32IAlbumAccessorApplicationSessionEE19FunctionForBoolTypeEv = 0x00000000000974b0 + __sdk_start;
_ZN2nn5codec24rvlcReadBitFromBitstreamEPNS0_13FDK_BITSTREAMEPth = 0x00000000000f7bd0 + __sdk_start;
_ZN2nn6fontll18ScalableFontEngine8FinalizeEv = 0x000000000015fd90 + __sdk_start;
_ZN2nn8irsensor6detail13StatusManager22SetIrSensorAruidStatusERKNS_6applet20AppletResourceUserIdENS_4util10BitFlagSetILi32ENS1_16AppletStatusFlagEEE = 0x00000000002a6330 + __sdk_start;
_ZN2nn2sf4cmif6client6detail13CmifProxyImplINS_4pctl6detail3ipc23IParentalControlServiceENS2_19CmifDomainProxyKindINS0_4hipc6client38Hipc2ClientSessionManagedProxyKindBaseINSB_18Hipc2ProxyKindBaseILNSA_6detail11MessageTypeE6EEEEEEENS0_30MemoryResourceAllocationPolicyES8_NS3_19ProcessModifierImplINS2_21DefaultProxyFilterTagEEEE34_nn_sf_sync_GetSettingsLastUpdatedENS0_3OutINS_4time9PosixTimeEvEE = 0x00000000003495f0 + __sdk_start;
_ZN2nn8settings6detail23GetUsbFullKeyEnableFlagEPb = 0x0000000000362370 + __sdk_start;
_ZTVNSt3__110istrstreamE = 0x0000000000c49268 + __sdk_start;
_ZN2nn2fs15GetMmcSpeedModeEPNS0_12MmcSpeedModeE = 0x00000000001e0e00 + __sdk_start;
_ZN2nn2sf4cmif6client6detail13CmifProxyImplINS_6jitsrv19IJitEnvironmentBaseENS0_4hipc6client18Hipc2ProxyKindBaseILNS7_6detail11MessageTypeE6EEENS0_30MemoryResourceAllocationPolicyENS5_15IJitEnvironmentENS3_19ProcessModifierImplINS2_21DefaultProxyFilterTagEEEE22_nn_sf_sync_LoadPluginERKNS0_8InBufferESL_ONS0_12NativeHandleEm = 0x00000000002bf700 + __sdk_start;
_ZTSN2nn3nfc6detail7ISystemE = 0x0000000000aa8fbf + __sdk_start;
_ZN2nn6socket6detail16CopyFromPlatformEPNS0_10SockAddrInEPK11sockaddr_in = 0x000000000038ebf0 + __sdk_start;
_ZN2nn3ssl10Connection13GetCipherInfoEPNS1_10CipherInfoE = 0x0000000000396510 + __sdk_start;
_ZN2nn4util6detail7msgpack12WriteFloat64EPNS0_17MessagePackWriter11StreamParamEd = 0x00000000003af4a0 + __sdk_start;
_ZNKSt3__120__codecvt_utf8_utf16IDsE13do_max_lengthEv = 0x00000000004d7b98 + __sdk_start;
_ZNSt3__16__sortIRPFbRKN2nn6fontll15OtfKerningTable11KerningPairES6_EPS4_EEvT0_SB_T_ = 0x000000000015efb0 + __sdk_start;
_ZN2nn4util18MatrixRowMajor4x4f12ConstantZeroE = 0x0000000000aba7b0 + __sdk_start;
_ZN2nn2sf4cmif6client34CmifDomainProxyClientCoreProcessorINS0_4hipc6client38Hipc2ClientSessionManagedProxyKindBaseINS5_18Hipc2ProxyKindBaseILNS4_6detail11MessageTypeE6EEEEENS1_6detail14CoreMethodInfoINSt3__15tupleIJNSC_18BufferArgumentInfoILi0ELi26ELm4EEEEEELm0ELm0ELb0EEESI_E7ProcessEPNS2_23CmifDomainClientMessageISB_E15ProxyBaseObjectENS2_24BufferClientArgumentTypeEj = 0x00000000003267a0 + __sdk_start;
_ZN2nn2os6detail13ThreadManagerC2Ev = 0x000000000033eb60 + __sdk_start;
_ZN2nn2sf4cmif6client6detail13CmifProxyImplINS_3ssl2sf11ISslServiceENS2_19CmifDomainProxyKindINS0_4hipc6client38Hipc2ClientSessionManagedProxyKindBaseINSA_18Hipc2ProxyKindBaseILNS9_6detail11MessageTypeE6EEEEEEENS0_24StatefulAllocationPolicyINS0_16ExpHeapAllocatorEEES7_NS3_19ProcessModifierImplINS2_21DefaultProxyFilterTagEEEE31_nn_sf_sync_SetInterfaceVersionEj = 0x0000000000397d90 + __sdk_start;
_ZN2nn2sf4cmif6client6detail13CmifProxyImplINS_3apm8ISessionENS0_4hipc6client18Hipc2ProxyKindBaseILNS7_6detail11MessageTypeE6EEENS0_30MemoryResourceAllocationPolicyES6_NS3_19ProcessModifierImplINS2_21DefaultProxyFilterTagEEEE39_nn_sf_sync_GetPerformanceConfigurationENS0_3OutINS5_24PerformanceConfigurationEvEENS5_15PerformanceModeE = 0x0000000000037e00 + __sdk_start;
_ZNK2nn5codec10AacDecoder13GetSampleRateEv = 0x0000000000132750 + __sdk_start;
_ZNK2nn2sf13SharedPointerINS_3nim6detail33IShopServiceAccessSystemInterfaceEE19FunctionForBoolTypeEv = 0x00000000001562a0 + __sdk_start;
_ZTSN2nn2fs3fsa18IMultiCommitTargetE = 0x0000000000a70ea3 + __sdk_start;
_ZN2nn2sf6detail38ObjectImplFactoryWithStatefulAllocatorINS0_4cmif6client6detail9CmifProxyINS_3hid15IHidDebugServerENS0_4hipc6client18Hipc2ProxyKindBaseILNS9_6detail11MessageTypeE6EEENS0_30MemoryResourceAllocationPolicyENS5_19ProcessModifierImplINS4_21DefaultProxyFilterTagEEEvEESF_E6Object7ReleaseEv = 0x000000000022d6f0 + __sdk_start;
_ZN2nn5image11JpegEncoder16SetSamplingRatioENS0_17JpegSamplingRatioE = 0x0000000000271d40 + __sdk_start;
_ZN2nn2os6detail36InternalCriticalSectionImplByHorizon10InitializeEv = 0x0000000000344400 + __sdk_start;
_ZN2nn2sf4cmif6client6detail13CmifProxyImplINS_8settings21ISystemSettingsServerENS0_4hipc6client18Hipc2ProxyKindBaseILNS7_6detail11MessageTypeE6EEENS0_30MemoryResourceAllocationPolicyES6_NS3_19ProcessModifierImplINS2_21DefaultProxyFilterTagEEEE53_nn_sf_sync_SetButtonConfigRegisteredSettingsEmbeddedERKNS5_6system30ButtonConfigRegisteredSettingsE = 0x000000000036d950 + __sdk_start;
_ZN2nn5swkbd6detail18InlineKeyboardImplC1Ev = 0x000000000039c630 + __sdk_start;
tsearch = 0x000000000054eb80 + __sdk_start;
_ZN2nn2sf4cmif6client6detail13CmifProxyImplINS_2am7service18IDisplayControllerENS2_19CmifDomainProxyKindINS0_4hipc6client38Hipc2ClientSessionManagedProxyKindBaseINSA_18Hipc2ProxyKindBaseILNS9_6detail11MessageTypeE6EEEEEEENS0_30MemoryResourceAllocationPolicyES7_NS3_19ProcessModifierImplINS2_21DefaultProxyFilterTagEEEE41_nn_sf_sync_GetCallerAppletCaptureImageExENS0_3OutIbvEERKNS0_9OutBufferE = 0x00000000000271a0 + __sdk_start;
_ZN2nn2sf4cmif6client6detail13CmifProxyImplINS_3hid16IHidSystemServerENS0_4hipc6client18Hipc2ProxyKindBaseILNS7_6detail11MessageTypeE6EEENS0_30MemoryResourceAllocationPolicyES6_NS3_19ProcessModifierImplINS2_21DefaultProxyFilterTagEEEE37_nn_sf_sync_EndPermitVibrationSessionEv = 0x00000000002317e0 + __sdk_start;
_ZN2nn2os6detail24DestroyInterProcessEventEPNS1_21InterProcessEventTypeE = 0x000000000033e030 + __sdk_start;
_ZN2nn2os18GetThreadStackInfoEPmS1_PKNS0_10ThreadTypeE = 0x000000000033d260 + __sdk_start;
_ZN2nn4util26StreamingDecompressDeflateEPmS1_PvmPKvmPNS0_30StreamingDecompressZlibContextE = 0x00000000003ad210 + __sdk_start;
_ZN2nn5audio6server6detail26GetAudioDeviceOutputVolumeEPKNS0_15AudioDeviceNameERKNS_6applet20AppletResourceUserIdEj = 0x000000000006cc30 + __sdk_start;
FDK_pushForward = 0x00000000000f97d0 + __sdk_start;
_ZN2nn8irsensor6detail14SessionManagerD1Ev = 0x00000000002a96c0 + __sdk_start;
_ZN2nn7nlibsdk4heap14TlsHeapCentral7IsCleanEv = 0x00000000002ec2f0 + __sdk_start;
_ZN2nn5srepo6detail14ArrayGenerator8AddValueEPmlPhmm = 0x000000000034e080 + __sdk_start;
swprintf = 0x000000000051a480 + __sdk_start;
__strtold_l = 0x0000000000530518 + __sdk_start;
fputws_unlocked = 0x0000000000550120 + __sdk_start;
_ZN2nn5album20ReadAlbumMovieStreamEPmPvmNS0_17MovieStreamHandleEl = 0x000000000001abb0 + __sdk_start;
_ZN2nn2ec24ShowShopSubscriptionListERKNS0_8CourseIdERKNS_7account10UserHandleE = 0x000000000014f590 + __sdk_start;
_ZN2nn2sf4cmif6client6detail36GetClientProcessorImplWithObjectBaseINS0_4hipc6client18Hipc2ProxyKindBaseILNS5_6detail11MessageTypeE6EEENS3_19ProcessModifierImplINS2_21DefaultProxyFilterTagEEEE14ObjectAssignerINS0_30MemoryResourceAllocationPolicyENS_14MemoryResourceEE14AllocateObjectIN3nns9hosbinder16IHOSBinderDriverEEEvi = 0x00000000003b9280 + __sdk_start;
_ZN2nn8settings6detail21GetFullKeyKeyboardMapEPNS0_18FullKeyKeyboardMapENS0_12FullKeyIndexE = 0x00000000003675e0 + __sdk_start;
nvgr_is_protected = 0x0000000000403970 + __sdk_start;
_ZNSt3__112basic_stringIwNS_11char_traitsIwEENS_9allocatorIwEEE9__grow_byEmmmmmm = 0x00000000004e83d0 + __sdk_start;
_ZN2nn2sf4cmif6client34CmifDomainProxyClientCoreProcessorINS0_4hipc6client38Hipc2ClientSessionManagedProxyKindBaseINS5_18Hipc2ProxyKindBaseILNS4_6detail11MessageTypeE6EEEEENS1_6detail14CoreMethodInfoINSt3__15tupleIJNSC_18BufferArgumentInfoILi0ELi26ELm128EEEEEELm0ELm0ELb0EEESI_E7ProcessEPNS2_23CmifDomainClientMessageISB_E15ProxyBaseObjectENS2_24BufferClientArgumentTypeEj = 0x0000000000009a10 + __sdk_start;
_ZN2nn6applet24ActivateMigrationServiceEv = 0x000000000003cbc0 + __sdk_start;
_ZN2nn3mii12GetMoleColorENS0_9GammaTypeE = 0x00000000002f21a0 + __sdk_start;
_ZN2nn8settings6detail24SetVibrationMasterVolumeEf = 0x00000000003624f0 + __sdk_start;
_ZN2nn7account25CachedNintendoAccountInfoC1Ev = 0x0000000000014850 + __sdk_start;
_ZN2nn2sf4cmif6client6detail13CmifProxyImplINS_3hid16IHidSystemServerENS0_4hipc6client18Hipc2ProxyKindBaseILNS7_6detail11MessageTypeE6EEENS0_30MemoryResourceAllocationPolicyES6_NS3_19ProcessModifierImplINS2_21DefaultProxyFilterTagEEEE43_nn_sf_sync_GetConnectableRegisteredDevicesENS0_3OutIlvEERKNS0_8OutArrayINS5_6system16RegisteredDeviceEEE = 0x0000000000231a10 + __sdk_start;
_ZN2nn2vi6detail22ServiceReferenceHolder16SetSystemServiceERKNS_2sf13SharedPointerINS_5visrv2sf21ISystemDisplayServiceEEE = 0x00000000003c3200 + __sdk_start;
_ZN2nn5audio6server17AudioRenderSystem15GenerateCommandEPvm = 0x000000000005b590 + __sdk_start;
_ZN2nn4lmem15CreateFrameHeapEPvmi = 0x00000000002c8d10 + __sdk_start;
nndetailImagePng_png_read_rows = 0x000000000027c7f0 + __sdk_start;
_ZTSN2nn3nfp6detail13IDebugManagerE = 0x0000000000aa9fb7 + __sdk_start;
_ZN2nn4time26StandardNetworkSystemClock21GetSystemClockContextEPNS0_18SystemClockContextE = 0x00000000003a1d80 + __sdk_start;
_ZN2nn3err15ShowErrorViewerENS_6ResultE = 0x000000000015bee0 + __sdk_start;
_ZN2nn4npns28RequestChangeStateForceAsyncENS0_5StateE = 0x000000000032f720 + __sdk_start;
_ZN2nn2os27DefaultUserExceptionHandlerEPNS0_17UserExceptionInfoE = 0x000000000033d090 + __sdk_start;
_ZN2nn2sf4cmif6client6detail13CmifProxyImplINS_6hidbus13IHidbusServerENS0_4hipc6client18Hipc2ProxyKindBaseILNS7_6detail11MessageTypeE6EEENS0_25StatelessAllocationPolicyINS0_22ExpHeapStaticAllocatorILm16384ENS5_6server12HidbusServerEEEEES6_NS3_19ProcessModifierImplINS2_21DefaultProxyFilterTagEEEE12GetProxyInfoEv = 0x0000000000239430 + __sdk_start;
_ZN2nn7nlibsdk4heap12TlsHeapCache14AllocFuncMode0INSt3__117integral_constantIbLb0EEEEEPvPS2_m = 0x00000000002e5180 + __sdk_start;
_ZTIN2nn2sf4cmif6server23CmifServerDomainManagerE = 0x0000000000c30ac8 + __sdk_start;
_ZN2nn6applet17JoinLibraryAppletENS0_19LibraryAppletHandleE = 0x000000000003a2b0 + __sdk_start;
_ZN2nn4htcs4RecvEiPvmi = 0x00000000002441d0 + __sdk_start;
_ZN2nn2sf4hipc6client24Hipc2ClientCoreProcessorILNS1_6detail11MessageTypeE6ENS0_4cmif6detail14CoreMethodInfoINSt3__15tupleIJNS7_18BufferArgumentInfoILi0ELi26ELm256EEEEEELm0ELm0ELb0EEESD_E7ProcessEPNS2_26Hipc2ClientProxyBaseObjectENS6_6client24BufferClientArgumentTypeEj = 0x000000000036db00 + __sdk_start;
_ZN2nn5audio6server38CommandProcessingTimeEstimatorVersion28EstimateERKNS0_19DepopPrepareCommandE = 0x0000000000062340 + __sdk_start;
_ZN2nn2sf4cmif6client6detail13CmifProxyImplINS_4nifm6detail15IGeneralServiceENS2_19CmifDomainProxyKindINS0_4hipc6client38Hipc2ClientSessionManagedProxyKindBaseINSA_18Hipc2ProxyKindBaseILNS9_6detail11MessageTypeE6EEEEEEENS0_30MemoryResourceAllocationPolicyES7_NS3_19ProcessModifierImplINS2_21DefaultProxyFilterTagEEEE29_nn_sf_sync_SetNetworkProfileENS0_3OutINS_4util4UuidEvEERKNS6_2sf18NetworkProfileDataE = 0x0000000000326130 + __sdk_start;
_ZNK2nn5prepo10PlayReport8GetCountEv = 0x0000000000352c60 + __sdk_start;
_ZTISt20bad_array_new_length = 0x0000000000c4b658 + __sdk_start;
_ZN2nn2fs17RamDiskFileSystem21DoCommitProvisionallyEl = 0x00000000001e5b80 + __sdk_start;
_ZN2nn2fs31SaveDataTransferManagerVersion224OpenSaveDataDiffExporterEPNSt3__110unique_ptrINS0_25ISaveDataDivisionExporterENS2_14default_deleteIS4_EEEERKNS0_19InitialDataVersion2ENS0_15SaveDataSpaceIdEm = 0x00000000001f8690 + __sdk_start;
_ZN2nn3hid17ResetPalmaPlayLogERKNS0_21PalmaConnectionHandleERKt = 0x0000000000215fd0 + __sdk_start;
_ZN2nn8irsensor6detail15IrSensorSession24IsOwnerExclusionViolatedERKNS0_14IrCameraHandleEb = 0x00000000002a73c0 + __sdk_start;
_ZN2nn3ngc59IsProfanityWordDatabaseReloadRequiredForPlatformRegionChinaEv = 0x0000000000322590 + __sdk_start;
_ZN2nn2sf4cmif6client6detail13CmifProxyImplINS_8settings21ISystemSettingsServerENS0_4hipc6client18Hipc2ProxyKindBaseILNS7_6detail11MessageTypeE6EEENS0_30MemoryResourceAllocationPolicyES6_NS3_19ProcessModifierImplINS2_21DefaultProxyFilterTagEEEE41_nn_sf_sync_GetErrorReportSharePermissionENS0_3OutIivEE = 0x000000000036ce20 + __sdk_start;
_ZN2nn2sf6detail38ObjectImplFactoryWithStatefulAllocatorINS0_4cmif6client6detail9CmifProxyINS_7timesrv6detail7service16ITimeZoneServiceENS4_19CmifDomainProxyKindINS0_4hipc6client38Hipc2ClientSessionManagedProxyKindBaseINSD_18Hipc2ProxyKindBaseILNSC_6detail11MessageTypeE6EEEEEEENS0_30MemoryResourceAllocationPolicyENS5_19ProcessModifierImplINS4_21DefaultProxyFilterTagEEEvEESL_E6Object7ReleaseEv = 0x00000000003a5410 + __sdk_start;
creat64 = 0x000000000053cd70 + __sdk_start;
_ZN2nn3web6detail24ShowOfflinePageArgDetail16SetLeftStickModeEPhRKNS0_20OfflineLeftStickModeE = 0x00000000003ca7d0 + __sdk_start;
_ZNSt3__111__money_putIcE13__gather_infoEbbRKNS_6localeERNS_10money_base7patternERcS8_RNS_12basic_stringIcNS_11char_traitsIcEENS_9allocatorIcEEEESF_SF_Ri = 0x00000000004c7fd0 + __sdk_start;
load_kerning = 0x0000000000189670 + __sdk_start;
_ZN2nn2fs6detail24SaveDataExporterVersion212CancelExportEv = 0x00000000001f7110 + __sdk_start;
_ZN2nn3hid6detail19WritePalmaWaveEntryERKNS0_21PalmaConnectionHandleERKNS0_12PalmaWaveSetERKtPKvmm = 0x000000000020b750 + __sdk_start;
_ZN2nn3hid6system17DisableJoyConRailEv = 0x0000000000223de0 + __sdk_start;
_ZN2nn2sf4hipc6client24Hipc2ClientCoreProcessorILNS1_6detail11MessageTypeE6ENS0_4cmif6detail14CoreMethodInfoINSt3__15tupleIJNS7_18OutRawArgumentInfoILm1ELm1ELl0EEENS7_18BufferArgumentInfoILi0ELi21ELm48EEEEEELm0ELm1ELb0EEESF_E7ProcessEPNS2_26Hipc2ClientProxyBaseObjectENS6_6client24OutRawClientArgumentTypeILm1ELm1EEENSK_24BufferClientArgumentTypeEj = 0x0000000000235950 + __sdk_start;
_ZN2nn4time10DateToDaysEiii = 0x000000000039fa20 + __sdk_start;
_ZNK2nn5audio6server17AudioRenderSystem13GetSampleRateEv = 0x000000000005b9f0 + __sdk_start;
_ZN2nn2sf4cmif6client6detail13CmifProxyImplINS_6hidbus13IHidbusServerENS0_4hipc6client18Hipc2ProxyKindBaseILNS7_6detail11MessageTypeE6EEENS0_25StatelessAllocationPolicyINS0_22ExpHeapStaticAllocatorILm16384ENS5_6server12HidbusServerEEEEES6_NS3_19ProcessModifierImplINS2_21DefaultProxyFilterTagEEEE28_nn_sf_sync_SendCommandAsyncERKNS0_8InBufferENS5_9BusHandleE = 0x0000000000239520 + __sdk_start;
_ZNK7android11DisplayEDID7getDataEv = 0x00000000004471c0 + __sdk_start;
_ZNSt3__117iostream_categoryEv = 0x00000000004b09f8 + __sdk_start;
_ZN2nn3hid6system15GetButtonConfigEPNS1_16ButtonConfigLeftERKNS1_11UniquePadIdE = 0x0000000000222a80 + __sdk_start;
_ZN2nn2sf4cmif6client6detail13CmifProxyImplIN3nns9hosbinder16IHOSBinderDriverENS2_19CmifDomainProxyKindINS0_4hipc6client38Hipc2ClientSessionManagedProxyKindBaseINSA_18Hipc2ProxyKindBaseILNS9_6detail11MessageTypeE6EEEEEEENS0_30MemoryResourceAllocationPolicyES7_NS3_19ProcessModifierImplINS2_21DefaultProxyFilterTagEEEE26_nn_sf_sync_AdjustRefcountEiii = 0x0000000000032780 + __sdk_start;
_ZN2nn6applet15SetCpuBoostModeEi = 0x000000000003cb10 + __sdk_start;
nncryptoDecryptAes128Gcm = 0x0000000000136010 + __sdk_start;
_ZN2nn4edid6detail17VideoBlockVisitorEPKhmNS0_6cea8618BlockTagEPv = 0x000000000015a3b0 + __sdk_start;
_ZN2nn7friends6Friend6UpdateEv = 0x000000000019e4c0 + __sdk_start;
_ZN22nerd_gillette_internal5otete7jaimev217SerializePositionINS0_15BitStreamReaderINS0_14InputBitStreamEEEEEbRNS0_11OteteFloat2ERT_ = 0x00000000002b34a0 + __sdk_start;
_ZN2nn5audio6server24AudioRendererManagerImpl17AudioRendererImpl10InitializeERKNS0_6detail30AudioRendererParameterInternalERNS_2sf12NativeHandleESA_mRKNS_6applet20AppletResourceUserIdEi = 0x000000000005be30 + __sdk_start;
nndetailImagePng_png_write_sBIT = 0x0000000000294700 + __sdk_start;
_ZN2nn4npns9AttachJidEPKcS2_ = 0x000000000032f2a0 + __sdk_start;
_ZN2nn4pctl21IsAllFeaturesDisabledEPb = 0x0000000000345bc0 + __sdk_start;
FixSqrt = 0x0000000000176dd0 + __sdk_start;
_ZN7android6Parcel16writeNoExceptionEv = 0x0000000000423420 + __sdk_start;
_ZN7android18GraphicBufferAllocD1Ev = 0x0000000000435b30 + __sdk_start;
_ZTSN2nn5codec22OpusMultiStreamDecoderE = 0x0000000000a55c26 + __sdk_start;
_ZN2nn8settings6system20GetPtmBatteryVersionEPh = 0x000000000035ceb0 + __sdk_start;
_ZNKSt3__120__time_get_c_storageIwE8__monthsEv = 0x00000000004d8fb0 + __sdk_start;
_ZN2nn2sf4cmif6client6detail13CmifProxyImplINS_4bcat6detail3ipc15IServiceCreatorENS2_19CmifDomainProxyKindINS0_4hipc6client38Hipc2ClientSessionManagedProxyKindBaseINSB_18Hipc2ProxyKindBaseILNSA_6detail11MessageTypeE6EEEEEEENS0_30MemoryResourceAllocationPolicyES8_NS3_19ProcessModifierImplINS2_21DefaultProxyFilterTagEEEE12GetProxyInfoEv = 0x0000000000082ff0 + __sdk_start;
_ZN2nn2sf4hipc6client24Hipc2ClientCoreProcessorILNS1_6detail11MessageTypeE6ENS0_4cmif6detail14CoreMethodInfoINSt3__15tupleIJNS7_18OutRawArgumentInfoILm4ELm4ELl68EEENS7_21OutObjectArgumentInfoILi0ELi0EEENSB_ILm66ELm2ELl0EEEEEELm0ELm72ELb0EEESG_E21ProcessWithOutObjectsEPNS2_26Hipc2ClientProxyBaseObjectENS6_6client24OutRawClientArgumentTypeILm4ELm4EEENSL_27OutObjectClientArgumentTypeENSM_ILm66ELm2EEEjPNS0_13SharedPointerINS0_14IServiceObjectEEE = 0x000000000023e680 + __sdk_start;
_ZN3nne4nlib15NullInputStream11FillBuffer_EPvm = 0x00000000003b57e0 + __sdk_start;
_ZN2nn2sf4cmif6client6detail13CmifProxyImplINS_2am7service18IDisplayControllerENS2_19CmifDomainProxyKindINS0_4hipc6client38Hipc2ClientSessionManagedProxyKindBaseINSA_18Hipc2ProxyKindBaseILNS9_6detail11MessageTypeE6EEEEEEENS0_30MemoryResourceAllocationPolicyES7_NS3_19ProcessModifierImplINS2_21DefaultProxyFilterTagEEEE46_nn_sf_sync_AcquireCallerAppletCaptureBufferExENS0_3OutIbvEENSN_INS0_12NativeHandleEvEE = 0x0000000000027330 + __sdk_start;
_ZN2nn5codec35GetRequiredMemRam_SbrDecWorkBuffer2Ev = 0x000000000012c700 + __sdk_start;
nnmem_nlib_strchr = 0x00000000002e1640 + __sdk_start;
_ZNK2nn3ngc6detail2Bp10FirstChildEj = 0x000000000031ae60 + __sdk_start;
_ZNK2nn7account12AsyncContext16GetPointerUnsafeEv = 0x00000000000133d0 + __sdk_start;
nncodecLibopus_opus_multistream_encode = 0x00000000000dc3d0 + __sdk_start;
_ZN2nn5codec8p2_13_20E = 0x0000000000a642f4 + __sdk_start;
_ZN2nn2fs6detail18FileSystemAccessorD2Ev = 0x00000000001b6fd0 + __sdk_start;
nnutilZlib_inflate = 0x000000000029e580 + __sdk_start;
_ZTIN2nn2sf4cmif6client6detail9CmifProxyINS_4nifm6detail14IStaticServiceENS2_19CmifDomainProxyKindINS0_4hipc6client38Hipc2ClientSessionManagedProxyKindBaseINSA_18Hipc2ProxyKindBaseILNS9_6detail11MessageTypeE6EEEEEEENS0_30MemoryResourceAllocationPolicyENS3_19ProcessModifierImplINS2_21DefaultProxyFilterTagEEEvEE = 0x0000000000c2bf50 + __sdk_start;
NvRmSyncExtractSemaphore = 0x00000000003dfa40 + __sdk_start;
_ZN2nn2sf4cmif6client6detail13CmifProxyImplINS_2am7service16IStorageAccessorENS2_19CmifDomainProxyKindINS0_4hipc6client38Hipc2ClientSessionManagedProxyKindBaseINSA_18Hipc2ProxyKindBaseILNS9_6detail11MessageTypeE6EEEEEEENS0_30MemoryResourceAllocationPolicyES7_NS3_19ProcessModifierImplINS2_21DefaultProxyFilterTagEEEE16_nn_sf_sync_ReadElRKNS0_9OutBufferE = 0x0000000000025f10 + __sdk_start;
_ZN2nn7nlibsdk17VsnPrintfFallbackEPDimPKDiSt9__va_list = 0x00000000002d91f0 + __sdk_start;
_ZN2nn4npns7ReceiveEPNS0_16NotificationDataE = 0x000000000032edf0 + __sdk_start;
NvRmSurfaceDumpJson = 0x00000000003e2ca0 + __sdk_start;
