@game:110

_ZNSt3__127__tree_balance_after_insertIPNS_16__tree_node_baseIPvEEEEvT_S5_ = 0x00451830
_ZNSt3__113__tree_removeIPNS_16__tree_node_baseIPvEEEEvT_S5_ = 0x00452070
_Znwm = 0x0070b8b0
_Znam = 0x0070b910
_ZnwmRKSt9nothrow_t = 0x0070b970
_ZnamRKSt9nothrow_t = 0x0070b9d0
_ZdlPv = 0x0070bcd0
_ZdaPv = 0x0070bd40
_ZdlPvRKSt9nothrow_t = 0x0070bdb0
_ZdaPvRKSt9nothrow_t = 0x0070be20
_ZNKSt3__120__vector_base_commonILb1EE20__throw_length_errorEv = 0x009c27b0
_ZNKSt3__120__vector_base_commonILb1EE20__throw_out_of_rangeEv = 0x009c2ae0
_ZNSt3__16__sortIRNS_6__lessIiiEEPiEEvT0_S5_T_ = 0x009c3630
_ZNSt3__112basic_stringIcNS_11char_traitsIcEENS_9allocatorIcEEE6assignEPKcm = 0x009c3d80
_ZN16FireBallSafeArea28tryFollowCollisionConnectionEv = 0x00000a10
_ZN29PlayerInvincibleBgmController11notifyStartEb = 0x00001b90
_ZN21BunbunStateSpinAttack4killEv = 0x0000f450
_ZNK2al11LayoutActor7getNameEv = 0x00016ef0
_ZTv0_n24_NK2al11LayoutActor7getNameEv = 0x00016f70
_ZNK16DarkBowserDamage11checkDefeatEv = 0x00019ea0
_ZN20DarkBowserShellSpike9forceKillEv = 0x0001ebc0
_ZN18KoopaChaseFunction14getDamageCountEPK10KoopaChase = 0x00026930
_ZN18KoopaChaseFunction15isOverPointJumpEPK10KoopaChase = 0x000269f0
_ZN18KoopaChaseFunction15isOverPointWarpEPK10KoopaChase = 0x00026a60
_ZN27KoopaLastDemoEndActorHolder6appearEv = 0x0002f160
_ZN11SuperBowser18forceKillFireballsEv = 0x0003e540
_ZNK11SuperBowser21isPlessieChaseBigRampEv = 0x00040f40
_ZN11SuperBowser13startJointAimENS_16BowserJointStateEiii = 0x00043520
_ZN4sead18Matrix34CalcCommonIfE7inverseERNS_9BaseMtx34IfEERKS3_ = 0x00047260
_ZN29SuperBowserGiantFireballState9forceKillEv = 0x00048ee0
_ZN20SuperBowserHealthBar8setStateENS_11OffsetStateEf = 0x00049410
_ZN21SuperBowserLaserState16forceSweepTargetERKN4sead7Vector3IfEES4_ = 0x0004cac0
_ZN21SuperBowserLaserState18calcSweepPositionsEv = 0x0004d570
_ZNK21SuperBowserLaserState24shouldPlayWaterHitEffectEv = 0x0004ef50
_ZN21SuperBowserLaserState16calcRayLeadIndexEv = 0x0004fde0
_ZN21SuperBowserLaserState20updateDamagePositionEv = 0x000500a0
_ZN37SuperBowserPlessieChaseFireFlameState17startOneShotSweepEv = 0x00052100
_ZNK37SuperBowserPlessieChaseFireFlameState8getParamEv = 0x00052130
_ZN28SuperBowserRainFireballState9forceKillEv = 0x00052a90
_ZN28SuperBowserRainFireballState18canFireballDoCheckEi = 0x00052d00
_ZN16TentackMagmaBall9startFallEPKN4sead7Vector2IfEEf = 0x0005c320
_ZNK20TentackResourceParam17setUpTentacleInfoEP19TentackTentacleInfoi = 0x0005cc90
_ZNK26TentackResourceParamHolder22getSwingTentacleNumMaxEi = 0x0005d170
_ZNK26TentackResourceParamHolder22getTentacleGroupNumMaxEi = 0x0005d1d0
_ZNK26TentackResourceParamHolder12getParamInfoEiii = 0x0005d230
_ZN25TentackStateFallRockParamC1Ev = 0x0005f630
_ZN25TentackStateFallRockParamC2Ev = 0x0005f630
_ZN23CameraAngleVerticalCtrl20startTargetInterpoleEf = 0x00064c40
_ZN23CameraAngleVerticalCtrl19startResetInterpoleEv = 0x00064f20
_ZN23GuideFrameOutSingleMode9setEnableEv = 0x000731d0
_ZN4sead11TreeMapImplINS_14TreeMapKeyImplIPN2al9LiveActorEEEE6insertEPNS_11TreeMapNodeIS5_EES9_ = 0x00075480
_ZN21MapPlayerTrackerParts11updateTimerEv = 0x00075980
_ZN20CourseSelectDirector13registerStageEP21CourseSelectMiniature = 0x0007bc00
_ZN17CourseSelectDokan10inactivateEv = 0x0007e220
_ZNK21CourseSelectMiniature12isNextCourseEi = 0x000824a0
_ZNK16CourseSelectNode14getNextNodePosEi = 0x00085ff0
_ZNK16CourseSelectNode7isCurveEv = 0x00086030
_ZN16CourseSelectNode13addLinkedListEi = 0x000860e0
_ZN16CourseSelectNode17addTargetNodeListEi = 0x00086140
_ZNK16CourseSelectNode16isLinkedByTargetEPKS_ = 0x00086190
_ZN21CourseSelectObjKeeper18initAfterPlacementEv = 0x00086880
_ZN23CourseSelectPlayerActor12onPushActionEv = 0x0008a330
_ZN23CourseSelectPlayerActor10hidePlayerEv = 0x0008a730
_ZN23CourseSelectPlayerActor10showPlayerEv = 0x0008a7a0
_ZNK24CourseSelectWindowHolder15isConfirmActiveEv = 0x0009e3b0
_ZNK14DemoActionList13getActionNameEi = 0x0009f980
_ZN12DemoCutscene19setEndAtCutscenePosERKN4sead7Vector3IfEES4_ = 0x000a0140
_ZN12DemoCutscene10isFadedOutEv = 0x000a0f30
_ZNK11DemoObjBase18isCancelWipeActiveEv = 0x000a2d10
_ZN11DemoObjBase17registerFrameHookERKN2al11FunctorBaseEj = 0x000a3180
_ZN11DemoObjBase19registerEndDemoHookERKN2al11FunctorBaseE = 0x000a31e0
_ZN11DemoObjBase22registerCancelDemoHookERKN2al11FunctorBaseE = 0x000a3210
_ZN20DemoPlayerController4showEv = 0x000a39a0
_ZNK20DemoSceneActorHolder16isContainKoopaJrEv = 0x000a5860
_ZN15DemoSceneCamera19setPlacementBaseMtxEPKN4sead8Matrix34IfEE = 0x000a6ba0
_ZN29ActorJointLookControllerParamC1Ev = 0x000af8c0
_ZN29ActorJointLookControllerParamC2Ev = 0x000af8c0
_ZN24ActorJointLookController11resetRotateEb = 0x000aff80
_ZN28ActorStateSupportFreezeParamC1EbibbiRKN4sead7Vector3IfEE = 0x000b0670
_ZN28ActorStateSupportFreezeParamC2EbibbiRKN4sead7Vector3IfEE = 0x000b0670
_ZNK18BrosMoveStepKeeper19isCurrentStepKuriboEv = 0x000c1d10
_ZN23CrawlerLaunchStateParamC2Ev = 0x000cabc0
_ZN23CrawlerLaunchStateParamC1Ev = 0x000cabc0
_ZN21CrawlerWalkStateParamC2Ev = 0x000cb130
_ZN21CrawlerWalkStateParamC1Ev = 0x000cb130
_ZN21CrawlerWalkStateParamC1Effffffffffi = 0x000cb170
_ZN21CrawlerWalkStateParamC2Effffffffffi = 0x000cb170
_ZN21EnemyEffectBulletInfoC2EPKciS1_S1_S1_S1_S1_S1_bbiff = 0x000d0cd0
_ZN21EnemyEffectBulletInfoC1EPKciS1_S1_S1_S1_S1_S1_bbiff = 0x000d0cd0
_ZN23EnemyStateBlowDownParamC2EPKc = 0x000d1b00
_ZN23EnemyStateBlowDownParamC1EPKc = 0x000d1b00
_ZN24KuribonStateReverseParamC2Ev = 0x000f1570
_ZN24KuribonStateReverseParamC1Ev = 0x000f1570
_ZNK11KuriboTower9getBottomEv = 0x000f2010
_ZN11KuriboTower21requestAttackReactionEPN2al9HitSensorE = 0x000f22c0
_ZNK11KuriboTower9getParentEPK15KuriboTowerNode = 0x000f2730
_ZNK11KuriboTower6getTopEv = 0x000f2760
_ZNK11KuriboTower14isTopChildNodeEPK15KuriboTowerNode = 0x000f2790
_ZNK11KuriboTower8isBottomEPK15KuriboTowerNode = 0x000f2820
_ZN17TargetFinderParamC1Ev = 0x00125a60
_ZN17TargetFinderParamC2Ev = 0x00125a60
_ZN17TargetFinderParamC1Efffjffffb = 0x00125a90
_ZN17TargetFinderParamC2Efffjffffb = 0x00125a90
_ZN16WalkerStateParamC2Ev = 0x00134b00
_ZN16WalkerStateParamC1Ev = 0x00134b00
_ZN11ShadowMario13initPoseModelERKN2al13ActorInitInfoEPS_iib = 0x00137010
_ZN2rc16AttachObjectList21syncObjectsToPositionERKN4sead7Vector3IfEE = 0x001488a0
_ZN18CoinBlowConcentric13setTimerFrameEi = 0x0014db00
_ZN21DisasterSpikeDirector22forceKillTorpedoSpikesEv = 0x00153bd0
_ZN26DrcTouchEffectTraceTracker18tryPlayTraceEffectEP15DrcTouchPointer = 0x00158210
_ZN15InkPatchSpecial19addUnlockerInkPatchEP8InkPatch = 0x0015cee0
_ZNK11ButtonGroup16getButtonTouchedEv = 0x00160300
_ZN11ButtonGroup6selectEP12CursorTarget = 0x00160380
_ZNK11ButtonGroup11isDecideAnyEv = 0x00160620
_ZN11ButtonGroup14registerButtonEPN2al11LayoutActorEP12CursorTarget = 0x001606a0
_ZN11ButtonGroup5resetEv = 0x00161240
_ZN11ButtonGroup10invalidateEv = 0x001613d0
_ZN11ButtonGroup8validateEv = 0x00161420
_ZNK11ButtonGroup14isDecideEndAnyEv = 0x00161930
_ZNK11ButtonGroup15getDecideButtonEv = 0x001619b0
_ZNK11ButtonGroup18getDecideEndButtonEv = 0x00161a30
_ZNK11ButtonGroup23getDecideEndButtonIndexEv = 0x00161ab0
_ZN27CourseSelectMiniatureCursor9startDemoEv = 0x0016dcd0
_ZN27CourseSelectMiniatureCursor10startPauseEv = 0x0016dd60
_ZN27CourseSelectMiniatureCursor8endPauseEv = 0x0016ddb0
_ZN13GuideFrameOut9startDemoEv = 0x00171750
_ZN13GuideFrameOut7endDemoEv = 0x00171780
_ZN13GuideFrameOut10startPauseEv = 0x001717d0
_ZN13GuideFrameOut9setEnableEv = 0x001718b0
_ZN13GuideFrameOut10setDisableEv = 0x00171910
_ZN13GuideFrameOut15setEnableBubbleEb = 0x00171940
_ZNK15GuideGameWindow8isActiveEv = 0x00172040
_ZNK15GuideGameWindow13isWaitConfirmEv = 0x00172090
_ZN3fix15TextBoxTextInfo8applyFixEv = 0x00177a40
_ZN19PlayerEntryFunction11entryPlayerE20GameDataHolderWriterii = 0x001838f0
_ZN9bluetooth4initEb = 0x001a4cd0
_ZN9bluetooth7getTypeEj = 0x001a4db0
_ZN9bluetooth13getMoveButtonEj = 0x001a5260
_ZN9bluetooth18setDRCEnableButtonEjb = 0x001a5290
_ZN9bluetooth17getRemoveVerticalEj = 0x001a52d0
_ZN9bluetooth9getAnalogEjN10controller11ANALOGSTICKEPfS2_ = 0x001a5300
_ZN14PadAnalogStick10PAD_AnalogEff = 0x001a5a90
_Z21moveButtonProhibitionhb = 0x001a5b30
_ZN6Vessel8Emulator7Virtual11PlatformHvc4CHvc14_SerializeCoreEPvb = 0x001aa9a0
_ZN6Vessel8Emulator7Virtual11PlatformHvc4CHvc23_SerializeCoreInferSizeEv = 0x001ab830
_ZN6Vessel8Emulator7Virtual11PlatformHvc16CPlatformHvcUnit17_SCycleController18ChangeSequenceModeEi = 0x001ae6b0
_ZN6Vessel8Emulator7Virtual11PlatformHvc16CPlatformHvcUnit17_SCycleController8ProgressEm = 0x001ae6f0
_ZN6Vessel8Emulator7Virtual11PlatformHvc16BusMapSwitchVRAMEPNS2_16CPlatformHvcUnit8_SEntityEi = 0x001af430
_ZN6Vessel8Emulator7Virtual11PlatformHvc16AnalyzeVariationEPKvS4_mRmS5_ = 0x001af4c0
_ZN6Vessel8Emulator7Virtual11PlatformHvc7CHvcCpu23_SerializeCoreInferSizeEv = 0x001b1730
_ZN6Vessel8Emulator7Virtual11PlatformHvc7CHvcGio23_SerializeCoreInferSizeEv = 0x001b21d0
_ZN6Vessel8Emulator7Virtual11PlatformHvc8CHvcMmc113_AdjustBusMapEv = 0x001b2f30
_ZN6Vessel8Emulator7Virtual11PlatformHvc8CHvcMmc47ProcessEPNS1_13CPlatformUnitEmmPNS4_9UArgumentE = 0x001b6c50
_ZN6Vessel8Emulator7Virtual11PlatformHvc8CHvcMmc523_SerializeCoreInferSizeEv = 0x001b8d20
_ZN6Vessel8Emulator7Virtual11PlatformHvc12CHvcMapper4523_SerializeCoreInferSizeEv = 0x001b9570
_ZN6Vessel8Emulator7Virtual11PlatformHvc12CHvcMapper5F7ProcessEPNS1_13CPlatformUnitEmmPNS4_9UArgumentE = 0x001ba100
_ZN6Vessel8Emulator7Virtual11PlatformHvc8CHvcVrc123_SerializeCoreInferSizeEv = 0x001bb250
_ZN6Vessel8Emulator7Virtual11PlatformHvc8CHvcVrc323_SerializeCoreInferSizeEv = 0x001bc3c0
_ZN6Vessel8Emulator7Virtual11PlatformHvc8CHvcVrc423_SerializeCoreInferSizeEv = 0x001bd060
_ZN6Vessel8Emulator7Virtual11PlatformHvc7CHvcSpu7_SNoise5PulseEsmPNS2_16CPlatformHvcUnit8_SEntityE = 0x001c2fc0
_ZN6Vessel8Emulator7Virtual11PlatformHvc7CHvcSpu7_SDelta5PulseEsmPNS2_16CPlatformHvcUnit8_SEntityE = 0x001c3e30
_ZN6Vessel8Emulator7Virtual11PlatformHvc7CHvcSpu7_SDelta9SerializeERN6Common9Serialize12LittleEndianE = 0x001c40b0
_ZN6Vessel8Emulator7Virtual11PlatformHvc7CHvcSpu8_SQdDisk5PulseEsmPNS2_16CPlatformHvcUnit8_SEntityE = 0x001c5e60
_ZN6Vessel8Emulator7Virtual11PlatformHvc7CHvcSpu23_SerializeCoreInferSizeEv = 0x001c7900
_ZN11ErrorViewer10InitializeEv = 0x001c7970
_ZN11ErrorViewer4OpenEij = 0x001c7a00
_Z7getDataPhh = 0x001c8190
_Z9getOffsetPhj = 0x001c8220
_ZN22inputdevice_controller5inEmuEv = 0x001c9420
_ZN22inputdevice_controller8addEntryEjNS_13ADDENTRY_MODEEj = 0x001c9510
_ZN10gamescreen6screenENS_7MONITERENS_10GAMESCREENEb = 0x001cd5a0
_ZN18BallStateFallParamC2Ev = 0x001d7b40
_ZN18BallStateFallParamC1Ev = 0x001d7b40
_ZN18BallStateFallParamC2Effffffffffff = 0x001d7ba0
_ZN18BallStateFallParamC1Effffffffffff = 0x001d7ba0
_ZN21BallStateRollingParamC2Ev = 0x001d8900
_ZN21BallStateRollingParamC1Ev = 0x001d8900
_ZN19BallStateThrowParamC1Effffffffibb = 0x001d8b70
_ZN19BallStateThrowParamC2Effffffffibb = 0x001d8b70
_ZNK18BindPuppeteerGroup12isEndBindAllEv = 0x001d9ed0
_ZNK18BindPuppeteerGroup15getBindingIndexEPK13BindPuppeteer = 0x001d9f60
_ZN18BindPuppeteerGroup16tryCancelBindAllEv = 0x001da0f0
_ZNK18BindPuppeteerGroup18getPuppeteerNoBindEv = 0x001da1c0
_ZNK18BindPuppeteerGroup23calcBindingPuppeteerNumEv = 0x001da210
_ZNK9BlockSlot15getResultNumberEv = 0x001e2a40
_ZN17BlockStateCoinTen21setAppearCoinCallBackERKN2al11FunctorBaseE = 0x001e2ee0
_ZNK17BlockStateCoinTen15isAppearBoxCoinEv = 0x001e2f60
_ZN18ChameleonStateUtil19updateIndirectParamEP27RenderMaterialIndirectParamffRKN4sead7Vector4IfEES6_S6_ = 0x001f27d0
_ZN18ChameleonStateUtil19updateIndirectParamEP27RenderMaterialIndirectParamfPKS0_S3_ = 0x001f29a0
_ZN18ChameleonStateUtil9isVisibleEPK27RenderMaterialIndirectParamS2_S2_ = 0x001f2e80
_ZN27ChikaChikaBlockSynchronizer15registerWatcherEP22ChikaChikaBlockWatcher = 0x001f7250
_ZN25DashPanelSeTriggerChecker6updateEv = 0x0020b5c0
_ZN25DashPanelSeTriggerChecker10tryTriggerEib = 0x0020b610
_ZN22DisasterModeController5pauseEb = 0x0020ea90
_ZN22DisasterModeController13stopFireballsEv = 0x0020eb70
_ZN22DisasterModeController14startFireballsEv = 0x0020eb90
_ZN13DisasterSpike9hasLandedEv = 0x002148c0
_ZNK13DisasterSpike19canBeReplacedByGoldEv = 0x00216870
_ZN13DisasterSpike11isTriggeredEv = 0x00217260
_ZN13DisasterSpike12setTriggeredEb = 0x00217290
_ZN17DrcAssistDirector35tryCalcTouchPointerSlideDirOnScreenEPN4sead7Vector2IfEE = 0x00221e90
_ZN21DrcAssistDirectorList9setEnableEb = 0x00222590
_ZN21DrcAssistDirectorList16setStampDirectorEPN2rc13StampDirectorE = 0x002225d0
_ZN21DrcAssistDirectorList26initAfterPlacementSceneObjERKN2al13ActorInitInfoE = 0x00222600
_ZN21DrcAssistDirectorList21setPlayerAliveWatcherEP18PlayerAliveWatcher = 0x00222670
_ZN21DrcAssistDirectorList15setPlayerHolderEPN2al12PlayerHolderE = 0x002226a0
_ZN21DrcAssistDirectorList21setKinopioBrigadeFlagEb = 0x00222810
_ZN21DrcAssistDirectorList12getDrcAssistEi = 0x002229e0
_ZN15DrcTouchPointer12forcePrevPosEv = 0x00223700
_ZN15DrcTouchPointer18startDisappearGyroEv = 0x00225230
_ZN4sead18Matrix44CalcCommonIfE7inverseERNS_9BaseMtx44IfEERKS3_ = 0x00228c10
_ZN15GigaBellManager29getPlessieChaseBellBaseOffsetEv = 0x0023d830
_ZN8GoalItem8setFrontERN4sead7Vector3IfEEbf = 0x00242cf0
_ZN14GoalItemHolder16registerGoalItemEP8GoalItemii = 0x00247af0
_ZNK13GoalObjHolder6isGoalEv = 0x00248130
_ZNK13GoalObjHolder13isEndGoalDemoEv = 0x002481b0
_ZNK13GoalObjHolder11isUseResultEv = 0x00248230
_ZNK13GoalObjHolder12isRetireGoalEv = 0x002482b0
_ZN25GoalObjStateGoalDemoParamC1Ev = 0x00248330
_ZN25GoalObjStateGoalDemoParamC2Ev = 0x00248330
_ZN22GraphicsAreaController22switchToNormalDisasterEv = 0x00253920
_ZN22GraphicsAreaController20switchToHardDisasterEv = 0x00253960
_ZN22GraphicsAreaController25switchToSuperHardDisasterEv = 0x002539a0
_ZN12IslandKeeper4pushEP12IslandHolder = 0x0025c6a0
_ZNK12IslandKeeper10findIslandEi = 0x0025c8f0
_ZNK12IslandKeeper20getIslandHolderIndexEi = 0x0025cf60
_ZNK12IslandKeeper15allowEchoSoundsEPKN2al9LiveActorE = 0x0025cf80
_ZN12IslandKeeper17getIslandStartPosEi = 0x0025d570
_ZNK10ItemBubble23isEnableGetPlayerSensorEv = 0x0025e400
_ZN24ItemStatePlayerHoldParamC2ERKN4sead7Vector3IfEES4_S4_S4_S4_S4_S4_S4_S4_S4_S4_ = 0x002626a0
_ZN24ItemStatePlayerHoldParamC1ERKN4sead7Vector3IfEES4_S4_S4_S4_S4_S4_S4_S4_S4_S4_ = 0x002626a0
_ZN10Lighthouse22setupCameraLookAtPointEP17CameraLookAtPointi = 0x0027ff50
_ZN17LuckyIslandHolder14registerIslandEP11LuckyIsland = 0x002872c0
_ZN8WaveGrid13QuadPotentialC1Ev = 0x0028e4a0
_ZN8WaveGrid13QuadPotentialC2Ev = 0x0028e4a0
_ZN8WaveGrid13IsTierVisibleERKNS_4DataEj = 0x002914b0
_ZN8WaveGrid4FreeERNS_4DataE = 0x00291590
_ZN9OceanDataC2Ev = 0x00291630
_ZN9OceanDataC1Ev = 0x00291630
_ZN10OceanWater17setHeightMapScaleEfb = 0x00297720
_ZN18OnPlayerInfoHolder15getOnPlayerInfoEPN2al9HitSensorE = 0x002a2ae0
_ZN18OnPlayerInfoHolder6updateEv = 0x002a2b50
_ZN18OnPlayerInfoHolder5resetEv = 0x002a2c10
_ZNK18OnPlayerInfoHolder20calcTotalOnPlayerDirEv = 0x002a2c60
_ZNK18OnPlayerInfoHolder24calcTotalPrevOnPlayerDirEv = 0x002a2cb0
_ZN24PuppetStickRouteSelecter14clearPuppetAllEv = 0x002a80d0
_ZN24PuppetStickRouteSelecter9addPuppetEP16IUsePlayerPuppet = 0x002a8100
_ZN24PuppetStickRouteSelecter11clearPuppetEP16IUsePlayerPuppet = 0x002a8140
_ZNK18RideUserInfoKeeper18isRideGreaterEqualEi = 0x002aa490
_ZNK18RideUserInfoKeeper16isRideAtLeastOneEv = 0x002aa500
_ZNK18RideUserInfoKeeper19isIncreasedRideUserEv = 0x002aa560
_ZN18RideUserInfoKeeper11setUserRideEi = 0x002aa5d0
_ZN2rc13StampDirector20getAllUnlockedStampsEPii = 0x002c0120
_ZN2rc13StampDirector20updateUnlockedStampsEi = 0x002c0220
_ZN2rc13StampDirector13hideAllStampsEv = 0x002c0ae0
_ZN2rc13StampDirector15setCollectStampEi = 0x002c0b30
_ZNK2rc13StampDirector17getStampFromModelEP11alModelCafe = 0x002c0bf0
_ZN12TimerManager13activateTimerEPN2rc9IUseTimerE = 0x002cdf40
_ZN12TimerManager15deactivateTimerEPN2rc9IUseTimerE = 0x002cdfa0
_ZN12TimerManager16setCurrentRabbitEP6Rabbit = 0x002ce030
_ZN12TimerManager18resetCurrentRabbitEP6Rabbit = 0x002ce070
_ZN20TrapezeBindPuppeteer12setSideIndexEif = 0x002d7e40
_ZN4Tree12forceRespawnEv = 0x002da4d0
_ZN12IslandHolder17startDemoOnActorsEv = 0x002e4580
_ZN12IslandHolder15endDemoOnActorsEv = 0x002e4810
_ZN12IslandHolder12findGoalItemEi = 0x002e5e70
_ZN19GhostPlayerFunction13getMarkerDataEPKvi = 0x002e7940
_ZN19GhostPlayerFunction29calcGhostPlayDataSklAnimFrameEPfPKvib = 0x002e7f00
_ZNK4Neko6isModeENS_4ModeE = 0x002fd010
_ZN4Neko9startKillEv = 0x002fd6f0
_ZN10NekoNormal13setNekoParentEPK10NekoParent = 0x00308440
_ZN22NpcHeadControllerParamC1EPKcfRKN4sead7Vector2IfEES6_RKNS2_7Vector3IfEESA_ = 0x0030bf10
_ZN22NpcHeadControllerParamC2EPKcfRKN4sead7Vector2IfEES6_RKNS2_7Vector3IfEESA_ = 0x0030bf10
_ZN13NpcStateParamC1Effffffffif = 0x0030d500
_ZN13NpcStateParamC2Effffffffif = 0x0030d500
_ZN17NpcStateWaitParamC2EPKcS1_S1_S1_S1_S1_S1_bPKN4sead7Vector3IfEEb = 0x0030eed0
_ZN17NpcStateWaitParamC1EPKcS1_S1_S1_S1_S1_S1_bPKN4sead7Vector3IfEEb = 0x0030eed0
_ZN17NpcStateTurnParamC2Effffbbi = 0x0030ef20
_ZN17NpcStateTurnParamC1Effffbbi = 0x0030ef20
_ZN20NpcTargetFinderParamC2Efffjffffbj = 0x0030ffe0
_ZN20NpcTargetFinderParamC1Efffjffffbj = 0x0030ffe0
_ZN15NpcTargetFinder11clearTargetEv = 0x00310ff0
_ZN4sead11TreeMapImplINS_14TreeMapKeyImplIN3npc17NpcFindTargetTypeEEEE6insertEPNS_11TreeMapNodeIS4_EES8_ = 0x00311120
_ZNK19PlayerActionAirMove11calcMoveVecEPN4sead7Vector3IfEE = 0x0031be30
_ZNK20PlayerActionBindJump12isJumpActionEv = 0x0031c9d0
_ZN31PlayerActionCommonNodeConnector6appendEP21PlayerActionConditionP16PlayerActionNode = 0x0031df30
_ZN29PlayerActionConditionBindJump5checkEv = 0x0031e8c0
_ZN24PlayerActionConditionNot5checkEv = 0x00320200
_ZN35PlayerActionConditionNoWaterSurface5checkEv = 0x00320270
_ZN36PlayerActionConditionSquatEnergyFull5checkEv = 0x00320760
_ZN41PlayerActionConditionWallInhibitAfterBind5checkEv = 0x00320d40
_ZN16PlayerActionFunc11calcSideDirEPN4sead7Vector3IfEEPK14PlayerProperty = 0x00322c40
_ZN16PlayerActionFunc5brakeEfjf = 0x00322c80
_ZN16PlayerActionFunc12applyGravityEP14PlayerPropertyPK19IUsePlayerCollisionff = 0x00322cd0
_ZN16PlayerActionFunc15isUpperVelocityEPK14PlayerProperty = 0x00322fa0
_ZN16PlayerActionFunc8convergeEfff = 0x00323380
_ZN16PlayerActionFunc20snapGroundOrSolveAirEP19IUsePlayerCollisionPK14PlayerProperty = 0x00323450
_ZN16PlayerActionFunc24calcSwimVerticalVelocityEfPK15IUsePlayerInputfPK16PlayerConstParam = 0x00323580
_ZN16PlayerActionFunc20calcSwimFallVelocityEffPK16PlayerConstParam = 0x00323640
_ZN16PlayerActionFunc19verticalizeVelocityEPN4sead7Vector3IfEERKS2_ = 0x00323be0
_ZN16PlayerActionFunc7isClimbEPK20PlayerFigureDirector = 0x00324060
_ZN16PlayerActionFunc13scaleVecOfDirEPN4sead7Vector3IfEERKS2_f = 0x003240a0
_ZNK23PlayerActionGigaTrample21getTrampleHipDropJumpEv = 0x0032bee0
_ZNK23PlayerActionGigaTrample24getRisingTrampleHighJumpEv = 0x0032bf10
_ZNK23PlayerActionGigaTrample20getRisingTrampleJumpEv = 0x0032bf40
_ZNK23PlayerActionGigaTrample18getTrampleHighJumpEv = 0x0032bf70
_ZNK23PlayerActionGigaTrample14getTrampleJumpEv = 0x0032bfa0
_ZN17PlayerActionGraph19checkShiftConditionEv = 0x0032d050
_ZN26PlayerActionManekinekoDrop7exeLandEv = 0x00345bf0
_ZNK26PlayerActionManekinekoDrop5isEndEv = 0x00345ea0
_ZN25PlayerActionPropellerJump12updateEngineEv = 0x00347cf0
_ZNK25PlayerActionPropellerJump11calcGravityEv = 0x00347e80
_ZNK16WaitRollingParam15getNoBrakeFrameEv = 0x0034a0e0
_ZNK18NormalRollingParam15getNoBrakeFrameEv = 0x0034a190
_ZNK15AirRollingParam15getNoBrakeFrameEv = 0x0034a240
_ZNK16DashRollingParam15getNoBrakeFrameEv = 0x0034a310
_ZNK26RaccoonDogWaitRollingParam15getNoBrakeFrameEv = 0x0034a3c0
_ZNK28RaccoonDogNormalRollingParam15getNoBrakeFrameEv = 0x0034a470
_ZNK26RaccoonDogDashRollingParam15getNoBrakeFrameEv = 0x0034a520
_ZN25PlayerActionRollingAttack8teardownEv = 0x0034ac20
_ZN34PlayerActionRollingVelocityControl14calcFrontBrakeEf = 0x0034b8e0
_ZN34PlayerActionRollingVelocityControl13calcSideBrakeEf = 0x0034ba30
_ZN34PlayerActionRollingVelocityControl11calcGravityEf = 0x0034bad0
_ZN34PlayerActionRollingVelocityControl5applyEv = 0x0034bb10
_ZN21PlayerActionSwimSquat12controlStateEv = 0x003555b0
_ZN21PlayerActionSwimSquat12applyGravityEv = 0x003558e0
_ZN11PlayerActor15cancelDeathAnimEv = 0x003664d0
_ZN11PlayerActor14clearPanelDashEv = 0x00367430
_ZThn376_NK11PlayerActor7isCharaE12EPlayerChara = 0x0036a780
_ZN11PlayerActor20tryGetTrampleCounterEv = 0x0036ad90
_ZN16PlayerActualMove4calcEv = 0x0036fb70
_ZN26DisableBubbleRequestHolder6updateEv = 0x003704b0
_ZN18PlayerAliveWatcher22setDisableReviveBubbleEPN2al9LiveActorE = 0x00370760
_ZN26DisableBubbleRequestHolder19resetDisableRequestEPN2al9LiveActorE = 0x00370910
_ZN27PlayerAmiiboDirectorWatcher10isValidTagERKN2nn3nfp5TagIdE = 0x00373840
_ZN14PlayerAnimator16setWeightSixfoldEffffff = 0x003753f0
_ZN14PlayerAnimator18clearUpperBodyAnimEv = 0x00375750
_ZNK14PlayerAnimator11getAnimNameEv = 0x00376390
_ZN19PlayerAnimFrameCtrl6updateEv = 0x003766e0
_ZN19PlayerAnimFrameCtrl8setFrameEf = 0x00376760
_ZNK19PlayerAnimFrameCtrl13getActionNameEv = 0x003767a0
_ZNK19PlayerAnimFrameCtrl11isActionEndEv = 0x003767f0
_ZN24PlayerBindableSensorList5clearEv = 0x0037a400
_ZN29PlayerClimbAirAttackInhibitor14requestInhibitEv = 0x0037c9d0
_ZN26PlayerClimbAttackInhibitor14requestInhibitEv = 0x0037ccc0
_ZN14PlayerCollider26recordCeilingCollisionInfoEj = 0x00382c40
_ZN19PlayerCollisionFunc20calcCollisionBodyPosEPN4sead7Vector3IfEERKS2_S5_f = 0x00384bc0
_ZN19PlayerCollisionFunc20calcCollisionHeadPosEPN4sead7Vector3IfEERKS2_S5_ff = 0x00384c00
_ZN19PlayerCollisionFunc20calcWallCheckBodyPosEPN4sead7Vector3IfEERKS2_S5_f = 0x00384c40
_ZN19PlayerCollisionFunc8calcTallEPK14PlayerPropertyPK16PlayerConstParam = 0x00385050
_ZN19PlayerCollisionFunc15calcChestRadiusEPK14PlayerPropertyPK16PlayerConstParam = 0x00385080
_ZN19PlayerCollisionFunc19calcDashCheckRadiusEPK14PlayerPropertyPK16PlayerConstParam = 0x003850b0
_ZN20PlayerContinuousJump7countUpEv = 0x00390990
_ZN23PlayerDamageInvalidater6updateEv = 0x00391350
_ZN23PlayerEquipmentDirector8tryEquipE20EPlayerEquipmentType22EPlayerEquipmentActionPN2al9HitSensorEPN4sead9IDelegateE = 0x00391c20
_ZN23PlayerEquipmentDirector19updateEquipOnlyPoseE20EPlayerEquipmentType = 0x00391e40
_ZNK23PlayerEquipmentDirector10isEquippedE20EPlayerEquipmentType = 0x00392000
_ZN20PlayerFigureDirector4loseEv = 0x00392140
_ZNK22PlayerFireBallLauncher17isPossibleToShootEv = 0x00393af0
_ZNK29PlayerFlightDurationInhibitor9isInhibitEv = 0x00393ca0
_ZN19PlayerGiantDirectorC1EP14PlayerPropertyPK16PlayerConstParamP23IUsePlayerEventReceiver = 0x003941f0
_ZN19PlayerGiantDirectorC2EP14PlayerPropertyPK16PlayerConstParamP23IUsePlayerEventReceiver = 0x003941f0
_ZN19PlayerGiantDirector3endEv = 0x00394390
_ZN18PlayerGigaDirectorC2EPK19IUsePlayerCollisionPK15IUsePlayerInputP14PlayerPropertyP23IUsePlayerEventReceiverP20PlayerFigureDirectorPK16PlayerSimpleFlag = 0x00394470
_ZN18PlayerGigaDirectorC1EPK19IUsePlayerCollisionPK15IUsePlayerInputP14PlayerPropertyP23IUsePlayerEventReceiverP20PlayerFigureDirectorPK16PlayerSimpleFlag = 0x00394470
_ZN18PlayerGigaDirector3endEv = 0x003948e0
_ZNK19PlayerActorAccessor8getCharaEPK11PlayerActor = 0x00395030
_ZN11PlayerGroup12changeFigureEP11PlayerActor13EPlayerFigure = 0x00395380
_ZN11PlayerGroup17changeFigureForceEP11PlayerActor13EPlayerFigure = 0x00395440
_ZN21PlayerInvincibleState8contractEv = 0x00397e30
_ZN19PlayerJumpExtension10checkInputEb = 0x003980a0
_ZN15PlayerKeyConfig6updateEv = 0x00398490
_ZNK13PlayerKoopaJr20isTargettingGraffitiEPKN2al9HitSensorE = 0x003a0360
_ZN20PlayerLandingChecker6updateEv = 0x003a8e00
_ZN18PlayerModelChanger4initEv = 0x003ab9d0
_ZN18PlayerModelChanger6updateEv = 0x003ab9f0
_ZN17PlayerModelHolder16validateHairCtrlEv = 0x003ade80
_ZN17PlayerModelHolder18invalidateHairCtrlEv = 0x003adec0
_ZN33PlayerModelWorldMtxCallbackHolder16registerCallbackERKN2al11FunctorBaseE = 0x003afa90
_ZN29PlayerMoveActionEffectControlC1Ev = 0x003afae0
_ZN29PlayerMoveActionEffectControlC2Ev = 0x003afae0
_ZN29PlayerMoveActionEffectControl13setIsOnGroundEb = 0x003b0460
_ZN12PlayerPuppet11setVelocityERKN4sead7Vector3IfEE = 0x003b0a70
_ZN12PlayerPuppet13forceMaterialEPKc = 0x003b0ee0
_ZN20PlayerSensorArrangerC2Ev = 0x003b1820
_ZN20PlayerSensorArrangerC1Ev = 0x003b1820
_ZN21PlayerShowHideControl6updateEv = 0x003b2500
_ZN17PlayerSizeTrigger6updateEv = 0x003b2630
_ZN16PlayerTailAttackC1EP18IUsePlayerAnimatorP16IUsePlayerAttackPK15IUsePlayerInputPK20PlayerFigureDirectorPK22IUsePlayerCeilingCheckPK19IUsePlayerCollisionPK16PlayerConstParam = 0x003b37e0
_ZN16PlayerTailAttackC2EP18IUsePlayerAnimatorP16IUsePlayerAttackPK15IUsePlayerInputPK20PlayerFigureDirectorPK22IUsePlayerCeilingCheckPK19IUsePlayerCollisionPK16PlayerConstParam = 0x003b37e0
_ZN21PlayerUpperBodyActionC2EP14PlayerAnimatorP15IUsePlayerAudioPK20IUsePlayerCharaQueryPK16PlayerConstParam = 0x003b4230
_ZN21PlayerUpperBodyActionC1EP14PlayerAnimatorP15IUsePlayerAudioPK20IUsePlayerCharaQueryPK16PlayerConstParam = 0x003b4230
_ZN16PlayerVelocityEx8addForceERKN4sead7Vector3IfEE = 0x003b4b40
_ZN16PlayerVelocityEx11addForceAirERKN4sead7Vector3IfEE = 0x003b4b70
_ZN18PlayerWallJumpInfo13startWallJumpERKN4sead7Vector3IfEES4_ = 0x003b57f0
_ZN16ResultCheckArrow6appendERKN4sead7Vector3IfEES4_PKN2al14CollisionPartsERKNS5_8TriangleE = 0x003b6310
_ZN17ResultCheckSphere6appendERKN4sead7Vector3IfEES4_fS4_PKN2al14CollisionPartsERKNS5_8TriangleE = 0x003b6560
_ZN15SinkSandControl4jumpEv = 0x003b6830
_ZN15SinkSandControl8forceOffEv = 0x003b6870
_ZNK15SingleModeScene21isEnableOpenStartWipeEv = 0x003e94f0
_ZN26ProductAsyncResourceLoaderD2Ev = 0x003fbf10
_ZN26ProductAsyncResourceLoaderD1Ev = 0x003fbf10
_ZNK24ProductStateCourseSelect11isGotoTitleEv = 0x003fece0
_ZNK15StageWipeKeeper17isActiveStartWipeEv = 0x00405500
_ZNK15StageWipeKeeper17isActiveRetryWipeEv = 0x00405610
_ZN21ControlUserDataHolder4copyEPKS_ = 0x0040d7f0
_ZNK21ControlUserDataHolder21calcPlayablePlayerNumEv = 0x0040d840
_ZN21ControlUserDataHolder6onSaveEv = 0x0040e330
_ZNK19CourseGreenStarInfo23calcGreenStarAcquireNumEi = 0x0040e410
_ZNK19CourseGreenStarInfo17isCompleteAcquireEi = 0x0040e4a0
_ZN10CourseInfo7setOpenEv = 0x0040e540
_ZN10CourseInfo8setClearEv = 0x0040e570
_ZN10CourseInfo12setBestScoreEi = 0x0040e7a0
_ZN10CourseInfo11setBestTimeEi = 0x0040e7e0
_ZN16CourseInfoHolder4copyEPKS_ = 0x0040e9a0
_ZN18CourseInfoFunction15isClearCompleteE22GameDataHolderAccessori = 0x0040ee10
_ZN20GameDataFlagFunction18isExistNewOpenFlagE22GameDataHolderAccessorb = 0x00413740
_ZN20GameDataFlagFunction15isAfterGameOverE22GameDataHolderAccessor = 0x00413c20
_ZN20GameDataFlagFunction13isAfterEndingE22GameDataHolderAccessor = 0x00413c70
_ZN20GameDataFlagFunction20isAlreadyOpenRosettaE22GameDataHolderAccessor = 0x004147e0
_ZN20GameDataFlagFunction17setShowTouchGuideE20GameDataHolderWriter = 0x00414940
_ZN20GameDataFlagFunction27isAlreadyOpenNetworkSettingE22GameDataHolderAccessor = 0x004149c0
_ZN20GameDataFlagFunction21setOpenNetworkSettingE20GameDataHolderWriter = 0x00414a00
_ZN20GameDataFlagFunction27setShowSpecialWorldOpenDemoE20GameDataHolderWriter = 0x00414a60
_ZN20GameDataFlagFunction21setPlayKinopioBrigadeE20GameDataHolderWriter = 0x00414ac0
_ZN20GameDataFlagFunction17setPlayCasinoRoomE20GameDataHolderWriter = 0x00414b20
_ZN20GameDataFlagFunction12setPlayRidonE20GameDataHolderWriter = 0x00414b80
_ZN20GameDataFlagFunction31isAlreadyOpenCourseSelectRocketE22GameDataHolderAccessor = 0x00414ba0
_ZN20GameDataFlagFunction25setOpenCourseSelectRocketE20GameDataHolderWriter = 0x00414be0
_ZN20GameDataFlagFunction38isAlreadyFirstLaunchCourseSelectRocketE22GameDataHolderAccessor = 0x00414c00
_ZN20GameDataFlagFunction32setFirstLaunchCourseSelectRocketE20GameDataHolderWriter = 0x00414c40
_ZN20GameDataFlagFunction33isAlreadyShowEventGateKeeperFirstE22GameDataHolderAccessor = 0x00414c60
_ZN20GameDataFlagFunction27setShowEventGateKeeperFirstE20GameDataHolderWriter = 0x00414ca0
_ZN20GameDataFlagFunction34isAlreadyShowEventGateKeeperSecondE22GameDataHolderAccessor = 0x00414cc0
_ZN20GameDataFlagFunction28setShowEventGateKeeperSecondE20GameDataHolderWriter = 0x00414d00
_ZN20GameDataFlagFunction19setPlayMysteryHouseE20GameDataHolderWriter = 0x00414d60
_ZN20GameDataFlagFunction20setRetryMysteryHouseE20GameDataHolderWriter = 0x00414dc0
_ZN20GameDataFlagFunction19setPlayKinopioHouseE20GameDataHolderWriter = 0x00414e20
_ZN28SelectedGameDataFlagFunction20isAlreadyOpenRosettaEPK12GameDataFile = 0x00414fc0
_ZN28SelectedGameDataFlagFunction30isAlreadyOpenAllClearCharacterEPK12GameDataFilei = 0x00414fe0
_ZN16GameDataFunction13getPlayerLifeE22GameDataHolderAccessor = 0x00415110
_ZN16GameDataFunction13addPlayerLifeE20GameDataHolderWriteri = 0x00415130
_ZN16GameDataFunction10isGameOverE22GameDataHolderAccessor = 0x00415150
_ZN16GameDataFunction12onStageStartE20GameDataHolderWriter = 0x00415270
_ZN16GameDataFunction10onStageEndE20GameDataHolderWriter = 0x004152a0
_ZN16GameDataFunction10getCoinNumE22GameDataHolderAccessor = 0x00415680
_ZN16GameDataFunction18getPlayingCourseIdE22GameDataHolderAccessor = 0x00415a60
_ZN16GameDataFunction15isStageLastPlayE22GameDataHolderAccessori = 0x00415e80
_ZN16GameDataFunction19getLastPlayCourseIdE22GameDataHolderAccessor = 0x00415ed0
_ZN16GameDataFunction28isStageLastPlayAndFirstClearE22GameDataHolderAccessori = 0x00415ef0
_ZN16GameDataFunction26isLastPlayCourseFirstClearE22GameDataHolderAccessor = 0x00415f60
_ZN16GameDataFunction30isLastPlayCourseClearWorldWarpE22GameDataHolderAccessor = 0x00416110
_ZN16GameDataFunction38isLastPlayCourseFirstAcquireIllustItemE22GameDataHolderAccessor = 0x00416130
_ZN16GameDataFunction31isLastPlayCourseUpdateBestScoreE22GameDataHolderAccessor = 0x00416150
_ZN16GameDataFunction30isLastPlayCourseUpdateBestTimeE22GameDataHolderAccessor = 0x00416170
_ZN16GameDataFunction10isNeedSaveE22GameDataHolderAccessor = 0x00416190
_ZN16GameDataFunction20isNeedOpenCasinoRoomE22GameDataHolderAccessor = 0x004161b0
_ZN16GameDataFunction23isNeedOpenGoldenExpressE22GameDataHolderAccessor = 0x004161d0
_ZN16GameDataFunction30tryGetLastStageBestScoreUserIDE22GameDataHolderAccessor = 0x00416210
_ZN16GameDataFunction28calcTotalAcquireGreenStarNumE22GameDataHolderAccessor = 0x00416530
_ZN16GameDataFunction31getLastTotalAcquireGreenStarNumE22GameDataHolderAccessor = 0x00416550
_ZN16GameDataFunction22calcTotalIllustItemNumE22GameDataHolderAccessor = 0x004165e0
_ZN16GameDataFunction22getGhostPresentCounterE22GameDataHolderAccessor = 0x00416720
_ZN16GameDataFunction15getGhostSettingE22GameDataHolderAccessor = 0x00416880
_ZN16GameDataFunction9getFileIdE22GameDataHolderAccessor = 0x00417150
_ZN14GameDataHolder16setPlayingFileIdEi = 0x004173d0
_ZNK14GameDataHolder9isNewFileEi = 0x00417950
_ZN14GameDataHolder14deleteSaveFileEi = 0x004179b0
_ZN14GameDataHolder12startOpeningEv = 0x00417a60
_ZNK14GameDataHolder24getControlUserDataHolderEv = 0x00417ad0
_ZN14GameDataHolder25resetGameFileForTitleDemoEv = 0x004183b0
_ZN14IslandDataList16getIslandByIndexEi = 0x00419360
_ZN14IslandDataList7endInitEv = 0x00419390
_ZN20IslandSaveDataHolder10initializeEv = 0x004199e0
_ZN20IslandSaveDataHolder4copyERKS_ = 0x00419a80
_ZN11PlayLogData16tryGetCourseDataEi = 0x0041a0b0
_ZN15PlayLogFunction15isUseDrcOneUserE22GameDataHolderAccessor = 0x0041a310
_ZN15PlayLogFunction11useCrossKeyE20GameDataHolderWriter = 0x0041a350
_ZN15PlayLogFunction15useCameraRotateE20GameDataHolderWriter = 0x0041a390
_ZN12ScenarioList22getScenarioDataByIndexEi = 0x0041b800
_ZN14SingleModeData20setCheckpointVisitedEii = 0x0041cf30
_ZN14SingleModeData28setGoalItemCheckpointVisitedEii = 0x0041cf50
_ZN14SingleModeData26setIslandCheckpointVisitedEi = 0x0041cf70
_ZN14SingleModeData24setPhaseFromPlessieChaseEv = 0x0041d150
_ZN22SingleModeDataFunction16isValidPlacementEiib = 0x0041ea20
_ZN22SingleModeDataFunction28isValidPlessieChasePlacementEii = 0x0041ebb0
_ZN22SingleModeDataFunction12restartStageE20GameDataHolderWriter = 0x0041ed80
_ZN2rc11isBossPhaseEi = 0x004209c0
_ZN24SingleModeStockItemArray4copyEPKS_ = 0x00420b70
_ZNK17StageDatabaseInfo7isEventEv = 0x00420d50
_ZNK17StageDatabaseInfo8isNormalEv = 0x00420de0
_ZNK17StageDatabaseInfo13isUseGoalPoleEv = 0x00420eb0
_ZNK17StageDatabaseInfo13isKoopaCastleEv = 0x00420f00
_ZN15StageDataHolder18decStageTimerFrameEi = 0x00421910
_ZNK15StageDataHolder19calcStageTimerCountEv = 0x00421950
_ZNK15StageDataHolder19calcTimeAttackCountEv = 0x00421980
_ZNK13WorldInfoList21findStageDatabaseInfoEi = 0x004219e0
_ZNK15StageListHolder19calcWorldAndStageIdEPiS0_i = 0x004221b0
_ZN13StockItemList10initializeEv = 0x00422720
_ZN13StockItemList4copyEPKS_ = 0x00422750
_ZN19WorldGameDataHolder13resetItemFlagEv = 0x00422e70
_ZN2rc24calcActiveUserNumInOrderE22GameDataHolderAccessori = 0x00425be0
_ZN2rc20endBindAndPuppetNullEPP16IUsePlayerPuppetPK18PlayerBindEndParam = 0x0042a340
_ZN2rc28endBindOnGroundAndPuppetNullEPP16IUsePlayerPuppet = 0x0042a390
_ZN2rc12setPuppetMtxEP16IUsePlayerPuppetPKN4sead8Matrix34IfEE = 0x0042a530
_ZN2rc15isPuppetStickOnEPK16IUsePlayerPuppet = 0x0042a6a0
_ZN2rc18getPuppetInputPortEPK16IUsePlayerPuppet = 0x0042a6d0
_ZN2rc15getPuppetStickXEPK16IUsePlayerPuppet = 0x0042a700
_ZN2rc15getPuppetStickYEPK16IUsePlayerPuppet = 0x0042a730
_ZN2rc30getPuppetStickWorldWithoutSnapEPK16IUsePlayerPuppet = 0x0042a760
_ZN2rc22isPuppetTrigJumpButtonEPK16IUsePlayerPuppet = 0x0042a790
_ZN2rc41isPuppetTrigJumpButtonWithoutPrecedeInputEPK16IUsePlayerPuppet = 0x0042a7c0
_ZN2rc23isPuppetTrigSquatButtonEPK16IUsePlayerPuppet = 0x0042a7f0
_ZN2rc22isPuppetTrigDashButtonEPK16IUsePlayerPuppet = 0x0042a820
_ZN2rc22isPuppetHoldDashButtonEPK16IUsePlayerPuppet = 0x0042a850
_ZN2rc22getPuppetTrigJumpFrameEPK16IUsePlayerPuppet = 0x0042a880
_ZN2rc24changePuppetMaterialCodeEP16IUsePlayerPuppetRKN4sead14SafeStringBaseIcEE = 0x0042a9a0
_ZN2rc16moveSimplePuppetEP16IUsePlayerPuppet = 0x0042ac00
_ZN2rc14solveAirPuppetEP16IUsePlayerPuppet = 0x0042ac30
_ZN2rc16snapGroundPuppetEP16IUsePlayerPuppet = 0x0042ac60
_ZN2rc15isOnFloorPuppetEP16IUsePlayerPuppet = 0x0042ac90
_ZN2rc18getPlayerCharaTypeEPKN2al9LiveActorE = 0x0042b490
_ZN2rc15isPlayerInWaterEPKN2al9LiveActorE = 0x0042cc70
_ZN2rc23isPlayerOnGroundOrWaterEPKN2al9LiveActorE = 0x0042d960
_ZN2rc21getPlayerBindedSenserEPN2al9LiveActorE = 0x0042da20
_ZN2rc12isPlayerGigaEPKN2al9LiveActorE = 0x0042eec0
_ZN2rc18setStayInGigaMarioEPN2al9LiveActorEb = 0x0042ef10
_ZN2rc20unsetStayInGigaMarioEPN2al9LiveActorEb = 0x0042ef30
_ZN2rc19getPlayerFigureTypeEPKN2al9LiveActorE = 0x0042f2f0
_ZN2rc27getPlayerFigureTypeWithNextEPKN2al9LiveActorE = 0x0042f320
_ZN2rc13isPlayerGiantEPKN2al9LiveActorE = 0x0042f520
_ZN2rc27isPlayerClimbOrClimbSpecialEPKN2al9LiveActorE = 0x0042f770
_ZN2rc23getPlayerNextFigureTypeEPKN2al9LiveActorE = 0x0042f840
_ZN2rc31createInvincibleUboWithSubActorEPN2al9LiveActorE = 0x00433040
_ZN13RigidBodyUtil33calcInertiaTensorOfQuadraticPrismEPN4sead8Matrix33IfEEffff = 0x004432a0
_ZThn24_N2nn3atk6detail21PlayerHeapDataManager21SetFileAddressToTableEjPKv = 0x00653de0
_ZThn24_NK2nn3atk6detail21PlayerHeapDataManager23GetFileAddressFromTableEj = 0x00654090
_ZThn24_N2nn3atk16SoundDataManager21SetFileAddressToTableEjPKv = 0x00666550
_ZThn24_NK2nn3atk16SoundDataManager23GetFileAddressFromTableEj = 0x006665a0
_ZThn208_N2nn3atk12Sound3DActor23detail_UpdateAmbientArgEPvPKNS0_6detail10BasicSoundE = 0x0067c240
_ZNSt3__17__sort4IRN2nn3vfx6detail19SortCompareLessUIntINS2_6System18SortEmitterSetDataEEEPS6_EEjT0_SA_SA_SA_T_ = 0x006e66f0
_ZNSt3__17__sort4IRN2nn3vfx6detail29SortCompareGreaterIndexStableINS3_8SortDataEEEPS5_EEjT0_S9_S9_S9_T_ = 0x006e7330
_ZNSt3__17__sort4IRN2nn3vfx6detail26SortCompareLessIndexStableINS3_8SortDataEEEPS5_EEjT0_S9_S9_S9_T_ = 0x006e8420
_ZNSt3__17__sort4IRN2nn3vfx6detail19SortCompareViewInvZINS3_8SortDataEEEPS5_EEjT0_S9_S9_S9_T_ = 0x006e95a0
_ZNSt3__17__sort4IRN2nn3vfx6detail16SortCompareViewZINS3_8SortDataEEEPS5_EEjT0_S9_S9_S9_T_ = 0x006ea790
_ZN4sead8ListNode6erase_Ev = 0x0070bed0
_ZN4sead8ListImpl7popBackEv = 0x0070bf00
_ZN4sead8ListImpl8popFrontEv = 0x0070bf50
_ZNK4sead8ListImpl3nthEi = 0x0070bfa0
_ZNK4sead8ListImpl7indexOfEPKNS_8ListNodeE = 0x0070c000
_ZN4sead12PtrArrayImpl11checkInsertEii = 0x0070c300
_ZN4sead10FileDevice7tryOpenEPNS_10FileHandleERKNS_14SafeStringBaseIcEENS0_12FileOpenFlagEj = 0x0070d100
_ZN4sead10FileDevice14tryGetFileSizeEPjPNS_10FileHandleE = 0x0070d150
_ZN4sead10FileDevice7tryReadEPjPNS_10FileHandleEPhj = 0x0070d180
_ZN4sead10FileDevice8tryCloseEPNS_10FileHandleE = 0x0070d2e0
_ZN4sead10FileDevice8tryWriteEPjPNS_10FileHandleEPKhj = 0x0070d520
_ZN4sead10FileDevice14tryGetFileSizeEPjRKNS_14SafeStringBaseIcEE = 0x0070d760
_ZN4sead10FileDevice16tryOpenDirectoryEPNS_15DirectoryHandleERKNS_14SafeStringBaseIcEE = 0x0070d780
_ZN4sead10FileDevice17tryCloseDirectoryEPNS_15DirectoryHandleE = 0x0070d7d0
_ZN4sead10FileDevice16tryReadDirectoryEPjPNS_15DirectoryHandleEPNS_14DirectoryEntryEj = 0x0070d860
_ZN4sead10FileDevice14tryIsExistFileEPbRKNS_14SafeStringBaseIcEE = 0x0070d910
_ZN4sead10FileHandle7tryReadEPjPhj = 0x0070dff0
_ZN4sead10FileHandle17getCurrentSeekPosEv = 0x0070e270
_ZN4sead10FileHandle11getFileSizeEv = 0x0070e320
_ZN4sead15DirectoryHandle4readEPNS_14DirectoryEntryEj = 0x0070e370
_ZNK4sead14MethodTreeNode15attachMutexRec_EPNS_15CriticalSectionE = 0x007144d0
_ZN4sead14MethodTreeNode8callRec_Ev = 0x00714660
_ZN4sead8TreeNode13pushBackChildEPS0_ = 0x007146e0
_ZN4sead8TreeNode13detachSubTreeEv = 0x00714790
_ZN4sead8TreeNode15pushBackSiblingEPS0_ = 0x00714810
_ZN4sead8TreeNode14pushFrontChildEPS0_ = 0x007148d0
_ZN4sead8TreeNode9detachAllEv = 0x00714990
_ZN4sead8TreeNode27clearChildLinksRecursively_Ev = 0x00714a30
_ZN4sead8TaskBase9CreateArgC1Ev = 0x00715fb0
_ZN4sead8TaskBase9CreateArgC2Ev = 0x00715fb0
_ZN4sead8TaskBase9CreateArgC2ERKNS_11TaskClassIDE = 0x00716000
_ZN4sead8TaskBase9CreateArgC1ERKNS_11TaskClassIDE = 0x00716000
_ZN4sead8TaskBase14attachCalcDrawEv = 0x00716300
_ZN4sead7TaskMgr13InitializeArgC1ERKNS_8TaskBase9CreateArgE = 0x007166c0
_ZN4sead7TaskMgr13InitializeArgC2ERKNS_8TaskBase9CreateArgE = 0x007166c0
_ZN4sead19DebugFontMgrJis1Nvn22swapUniformBlockBufferEv = 0x007191f0
_ZN4sead15DebugFontMgrNvn22swapUniformBlockBufferEv = 0x00719220
_ZNK4sead16DisplayBufferNvn13getWindowCropEPiS1_S1_S1_ = 0x007198f0
_ZN4sead19PrimitiveDrawMgrNvn22swapUniformBlockBufferEv = 0x0071bb90
_ZN4sead19PrimitiveDrawMgrNvn11drawBoxImplEPNS_11DrawContextERKNS_8Matrix34IfEERKNS_7Color4fES9_ = 0x0071c180
_ZN4sead19PrimitiveDrawMgrNvn12drawCubeImplEPNS_11DrawContextERKNS_8Matrix34IfEERKNS_7Color4fES9_ = 0x0071c1d0
_ZN4sead19PrimitiveDrawMgrNvn16drawWireCubeImplEPNS_11DrawContextERKNS_8Matrix34IfEERKNS_7Color4fES9_ = 0x0071c220
_ZN4sead19PrimitiveDrawMgrNvn12drawLineImplEPNS_11DrawContextERKNS_8Matrix34IfEERKNS_7Color4fES9_ = 0x0071c270
_ZN4sead19PrimitiveDrawMgrNvn17drawSphere4x8ImplEPNS_11DrawContextERKNS_8Matrix34IfEERKNS_7Color4fES9_ = 0x0071c2c0
_ZN4sead19PrimitiveDrawMgrNvn18drawSphere8x16ImplEPNS_11DrawContextERKNS_8Matrix34IfEERKNS_7Color4fES9_ = 0x0071c310
_ZN4sead19PrimitiveDrawMgrNvn14drawDisk16ImplEPNS_11DrawContextERKNS_8Matrix34IfEERKNS_7Color4fES9_ = 0x0071c360
_ZN4sead19PrimitiveDrawMgrNvn14drawDisk32ImplEPNS_11DrawContextERKNS_8Matrix34IfEERKNS_7Color4fES9_ = 0x0071c3b0
_ZN4sead19PrimitiveDrawMgrNvn16drawCircle16ImplEPNS_11DrawContextERKNS_8Matrix34IfEERKNS_7Color4fE = 0x0071c400
_ZN4sead19PrimitiveDrawMgrNvn16drawCircle32ImplEPNS_11DrawContextERKNS_8Matrix34IfEERKNS_7Color4fE = 0x0071c450
_ZN4sead19PrimitiveDrawMgrNvn18drawCylinder16ImplEPNS_11DrawContextERKNS_8Matrix34IfEERKNS_7Color4fES9_ = 0x0071c4a0
_ZN4sead19PrimitiveDrawMgrNvn18drawCylinder32ImplEPNS_11DrawContextERKNS_8Matrix34IfEERKNS_7Color4fES9_ = 0x0071c4f0
_ZNK4sead7ExpHeap25findFreeMemBlockFromHead_EmNS0_8FindModeE = 0x0071eb10
_ZNK4sead7ExpHeap25findFreeMemBlockFromHead_EmiNS0_8FindModeE = 0x0071ec20
_ZNK4sead7ExpHeap25findFreeMemBlockFromTail_EmNS0_8FindModeE = 0x0071ed80
_ZNK4sead7ExpHeap25findFreeMemBlockFromTail_EmiNS0_8FindModeE = 0x0071eed0
_ZN4sead4Heap8dispose_EPKvS2_ = 0x00721770
_ZN4sead4Heap16findContainHeap_EPKv = 0x007219a0
_ZN4sead11BitFlagUtil10countOnBitEj = 0x005a97f0
_ZN4sead11BitFlagUtil18findOnBitFromRightEji = 0x005a9830
_ZN4sead8EnumUtil10parseText_EPPcS1_i = 0x00722f70
_ZN4sead10StringUtil10sw16printfEPDsmPKDsz = 0x0072a320
_ZN4sead10StringUtil21tryConvertUtf8ToUtf16EPiPDsjPKci = 0x0072abd0
_ZN4sead10StringUtil18convertUtf16ToUtf8EPcjPKDsi = 0x0072ad10
_ZN4sead10ReadStream7readS32ERi = 0x007306a0
_ZN4sead11WriteStream5flushEv = 0x00730820
_ZN4sead6Thread27quitAndWaitDoneSingleThreadEb = 0x00734bd0
_ZNK4sead13ControllerMgr16getControlDeviceENS_16ControllerDefine8DeviceIdE = 0x00735de0
_ZNK4sead13ControllerMgr20getControllerByOrderENS_16ControllerDefine12ControllerIdEi = 0x00735ee0
_ZNK4sead13ControllerMgr18findControllerPortEPKNS_10ControllerE = 0x00735f20
_ZN4sead14ControllerBase20setPointerWithBound_EbbRKNS_7Vector2IfEE = 0x00735370
_ZN4sead14ControllerBase23updateDerivativeParams_Ejb = 0x00735460
_ZN4sead14ControllerBase12setIdleBase_Ev = 0x007359f0
_ZNK4sead6Camera19getWorldPosByMatrixEPNS_7Vector3IfEE = 0x00736290
_ZNK4sead6Camera27worldPosToCameraPosByMatrixEPNS_7Vector3IfEERKS2_ = 0x00736350
_ZNK4sead6Camera27cameraPosToWorldPosByMatrixEPNS_7Vector3IfEERKS2_ = 0x007363d0
_ZN4sead7Color4f7setLerpERKS0_S2_f = 0x00737000
_ZN4sead7Color4fpLERKS0_ = 0x00737080
_ZN4sead7Color4fmLERKS0_ = 0x007370c0
_ZN4sead7Color4fmLEf = 0x00737100
_ZN4seadmlERKNS_7Color4fES2_ = 0x00737160
_ZN4seadmlERKNS_7Color4fEf = 0x00737190
_ZN4seadeqERKNS_7Color4fES2_ = 0x007371b0
_ZN4sead15GraphicsContextC1Ev = 0x007373c0
_ZN4sead15GraphicsContextC2Ev = 0x007373c0
_ZNK4sead10Projection25getDeviceProjectionMatrixEv = 0x00738060
_ZNK4sead10Projection20cameraPosToScreenPosEPNS_7Vector3IfEERKS2_ = 0x007380d0
_ZNK4sead10Projection20screenPosToCameraPosEPNS_7Vector3IfEERKNS_7Vector2IfEE = 0x00738200
_ZN4sead8Viewport16setByFrameBufferERKNS_18LogicalFrameBufferE = 0x0073a700
_ZNK4sead8Viewport20getOnFrameBufferSizeEPNS_7Vector2IfEERKNS_18LogicalFrameBufferE = 0x0073a9c0
_ZN4sead6Random4initEjjjj = 0x005ac5f0
_ZN4sead6Random6getU64Ev = 0x005ac670
_ZN4sead8Geometry30calcSquaredDistancePointToLineERKNS_7Vector3IfEERKNS_4LineIS2_EEPf = 0x0073af60
_ZN4sead8Geometry30calcIntersectionSegmentToPlaneERKNS_7SegmentINS_7Vector3IfEEEERKNS_6Plane3IfEEPf = 0x0073b140
_ZN4sead6hostio12curveLinear_IfEET_fPKNS0_13CurveDataInfoEPKS2_ = 0x0073b700
_ZN4sead8DateUtil10isLeapYearEj = 0x0073cf30
_ZN4sead8DateUtil11calcWeekDayERKNS_12CalendarTime4YearERKNS1_5MonthERKNS1_3DayE = 0x0073cf80
_ZNK4sead10CoreIdMask11countOnBitsEv = 0x0073d160
_ZN4sead9HashCRC168calcHashEPKvj = 0x0073e170
_ZN4sead9HashCRC328calcHashEPKvj = 0x0073e2a0
_ZN4sead9HashCRC3214calcStringHashEPKc = 0x0073e3d0
_ZN4sead8JobQueue14setGranularityEj = 0x007460c0
_ZN4sead11FixedSizeJQ5enqueEPNS_3JobE = 0x00746140
_ZN4sead11FixedSizeJQ6rewindEv = 0x00746180
_ZN4sead8JobQueue6runAllEPj = 0x00746250
_ZNK4sead15SharcArchiveRes12getFileImpl_ERKNS_14SafeStringBaseIcEEPNS_10ArchiveRes8FileInfoE = 0x00746ac0
_ZN4sead6Worker10clearJobQQEv = 0x00749830
_ZN4sead6Worker12pushJobQueueEPKcPNS_8JobQueueENS_16JobQueuePushTypeE = 0x007498a0
_Z17decodeSZSNxAsm64_PvPKv = 0x0074a940
_ZN4sead8AudioMgr4calcEv = 0x0074dbe0
_ZN4sead14AudioPlayerNin28trySetSoundMemoryPoolHandlerEPNS_22SoundMemoryPoolHandlerE = 0x0074ddb0
_ZThn8_N4sead14AudioPlayerNin17detail_SetupSoundEPN2nn3atk11SoundHandleEjbPKcPKNS2_14SoundStartable9StartInfoE = 0x0074ecf0
_ZN4sead13AudioResetter5resetEi = 0x007504e0
_ZNK4sead13AudioResetter11isResettingEv = 0x00750570
_ZNK4sead13AudioResetter11isResetDoneEv = 0x00750610
_ZN4sead13AudioResetter8shutdownEi = 0x00750730
_ZNK4sead13AudioResetter14isShuttingDownEv = 0x007507c0
_ZNK4sead13AudioResetter14isShutdownDoneEv = 0x00750860
_ZN4sead15AudioFxDelayNin12updateFx4ch_EPiS1_S1_S1_j = 0x00752440
_ZN4sead15AudioFxDelayNin12updateFx6ch_EPiS1_S1_S1_S1_S1_j = 0x00752550
_ZN4sead18AudioFxReverbHiNin9updateFx_EPiS1_j = 0x007532d0
_ZN4sead19AudioFxReverbStdNin12updateFx2ch_EPiS1_j = 0x00754320
_ZN4sead19AudioFxReverbStdNin12updateFx4ch_EPiS1_S1_S1_j = 0x00754560
_ZN4sead19AudioFxReverbStdNin12updateFx6ch_EPiS1_S1_S1_S1_S1_j = 0x00754940
_ZN4sead21AudioFxI3DL2ReverbNin12updateFx2ch_EPiS1_j = 0x00755c00
_ZN4sead21AudioFxI3DL2ReverbNin12updateFx4ch_EPiS1_S1_S1_j = 0x00755f10
_ZN4sead21AudioFxI3DL2ReverbNin12updateFx6ch_EPiS1_S1_S1_S1_S1_j = 0x00756420
_ZN3agl15GPUMemBlockBase5clearEv = 0x007583b0
_ZNK3agl15GPUMemBlockBase13getByteOffsetEv = 0x00758790
_ZN3agl6detail14GPUMemBlockMgr22calcGPUMemoryAlignmentEi = 0x00759af0
_ZN3agl6driver6NVNMgr14countupTextureEj = 0x0075afb0
_ZN3agl6driver6NVNMgr14releaseTextureEj = 0x0075aff0
_ZNK3agl6driver6NVNMgr15getTextureFlagsEbb9NVNformat = 0x0075b370
_ZNK3agl6driver6NVNMgr27setMemoryPoolSettingTextureEPN4sead7BitFlagIjEE = 0x0075b5f0
_ZN3agl6driver11NVNtexture_C1Ev = 0x0075b9c0
_ZN3agl6driver11NVNtexture_C2Ev = 0x0075b9c0
_ZN3agl3g3d7ResFile14GetTextureNameEPKN2nn3g3d7ResFileEi = 0x0075c5d0
_ZN3agl3g3d7ResFile15GetTextureCountEPKN2nn3g3d7ResFileE = 0x0075c750
_ZN3agl11DisplayList16setControlMemoryEPvm = 0x0075d0f0
_ZN3agl11DisplayList5clearEv = 0x0075d140
_ZN3agl11DisplayList9setBufferENS_10GPUMemAddrIhEEm = 0x0075d1d0
_ZN3agl17RenderTargetColor19onApplyTextureData_Ev = 0x0075f0b0
_ZN3agl17ShaderCompileInfo17pushBackVariationEPKcS2_ = 0x00760470
_ZN3agl13ShaderProgram24reserveSetUpAllVariationEv = 0x00762910
_ZN3agl16ResShaderArchive5setUpEv = 0x00762fd0
_ZNK3agl16ResShaderProgram22getResShaderMacroArrayENS_10ShaderTypeE = 0x00763450
_ZNK3agl16ResShaderProgram26getResShaderVariationArrayEv = 0x007634c0
_ZNK3agl18ResShaderVariation8getValueEi = 0x007634f0
_ZNK3agl18ResShaderVariation5getIDEv = 0x00763530
_ZNK3agl11TextureData12getMinSlice_Ev = 0x00763970
_ZN3agl11TextureData13setDebugLabelERKN4sead14SafeStringBaseIcEE = 0x00763db0
_ZN3agl6detail13SamplerObjectC2Ev = 0x00764ff0
_ZN3agl6detail13SamplerObjectC1Ev = 0x00764ff0
_ZN3agl17TextureFormatInfo31isRenderTargetCompressAvailableENS_13TextureFormatE = 0x00765980
_ZN3agl12UniformBlock7declareERKS0_ = 0x007662c0
_ZN3agl15VertexAttribute15setVertexStreamEiPKNS_12VertexBufferEj = 0x00766a70
_ZN3agl12VertexBuffer11setUpStreamEiNS_18VertexStreamFormatEmb = 0x00767380
_ZNK3agl3utl13ParameterBase16isInterpolatableEv = 0x0076d2b0
_ZN3agl3utl13ParameterBase4copyERKS1_ = 0x0076d3d0
_ZN3agl3utl14ParameterCurveILj1EE18postApplyResource_EPKvm = 0x0076f450
_ZN3agl3utl14ParameterCurveILj2EE18postApplyResource_EPKvm = 0x007703f0
_ZN3agl3utl13IParameterObj16pushBackListNodeEPNS0_13ParameterBaseE = 0x00772440
_ZN3agl3utl13IParameterObj4copyERKS1_ = 0x00772880
_ZN3agl3utl13IParameterObj8copyLerpERKS1_S3_f = 0x00772930
_ZN3agl3utl14PrimitiveShape22calcIdxArrayNumSphere_EjjNS1_8DrawTypeENS1_7QualityE = 0x00778ef0
_ZN3agl3utl14PrimitiveShape26calcIdxArrayNumHemisphere_EjjNS1_8DrawTypeENS1_7QualityE = 0x00779730
_ZNK3agl3utl15ResParameterObj11searchIndexEj = 0x0077cc70
_ZN3agl3utl22TextureMemoryAllocator5allocERKNS1_11AllocateArgEPNS_14GPUMemVoidAddrEb = 0x0077da00
_ZNK3agl3utl22TextureMemoryAllocator10dumpDetailEv = 0x0077e110
_ZNK3agl3utl22TextureMemoryAllocator14isOverwrapperdERKS1_ = 0x0077e1b0
_ZN3agl3g3d20ModelShaderAttribute5clearEv = 0x0077ee60
_ZN3agl3g3d18ModelShaderSampler5clearEv = 0x0077f850
_ZN3agl15ResShaderBinary10resolvePtrEPKvb = 0x0078baf0
_ZN3agl3utl14IParameterList8clearObjEv = 0x0078d800
_ZN3agl3utl14IParameterList9removeObjEPNS0_13IParameterObjE = 0x0078d820
_ZN3agl3pfx11FlareFilter8calcViewEiRKNS_4cull18ViewFrustumCullingE = 0x00797cc0
_ZN3agl4cull18ViewFrustumCullingaSERKS1_ = 0x00797d30
_ZN3agl3pfx5Bloom10setNearFarEiff = 0x007a1ff0
_ZN3agl4lght12LightPrePass4calcEv = 0x007a62a0
_ZNK3agl4lght20LightPrePassLightMgrINS0_12LightPrePass10PointLightENS2_7ContextENS2_11CallbackArgEE9updateGPUEv = 0x007ac520
_ZNK3agl4lght20LightPrePassLightMgrINS0_12LightPrePass10PointLightENS2_7ContextENS2_11CallbackArgEE4drawEPNS_11DrawContextEiRKS4_RS5_ = 0x007ac760
_ZN3agl4lght20LightPrePassLightMgrINS0_12LightPrePass9ProjLightENS2_7ContextENS2_11CallbackArgEE4calcEv = 0x007ae700
_ZNK3agl4lght20LightPrePassLightMgrINS0_12LightPrePass9ProjLightENS2_7ContextENS2_11CallbackArgEE4drawEPNS_11DrawContextEiRKS4_RS5_ = 0x007aebb0
_ZNK3agl4lght20LightPrePassLightMgrINS0_12LightPrePass9ProjLightENS2_7ContextENS2_11CallbackArgEE9drawDebugEPNS_11DrawContextEiRKS4_ = 0x007aed00
_ZN3agl3env6EnvObj11setEditableEb = 0x007c9bd0
_ZN3agl3env6EnvObj7update_Ev = 0x007c9c30
_ZN3agl3env12EnvObjBuffer11AllocateArg13setContainMaxEii = 0x007cc190
_ZNK3agl3sdw15DepthShadowUnit36convBoundingToLightSpaceDirectional_EPN4sead9BoundBox3IfEERKS4_ = 0x007d57b0
_ZNK3agl3sdw15DepthShadowUnit23convBoundingSphereToBoxEPN4sead9BoundBox3IfEERKNS2_6SphereINS2_7Vector3IfEEEE = 0x007d6b90
_ZN3agl3sdw13ShadowFrustumC1Ev = 0x007d84f0
_ZN3agl3sdw13ShadowFrustumC2Ev = 0x007d84f0
_ZN3agl3sdw13ShadowFrustum14clipByBoundBoxERKN4sead9BoundBox3IfEERKNS2_8Matrix44IfEENS2_7BitFlagIhEE = 0x007d8800
_ZN3agl3sdw13ShadowFrustum14clipByBoundBoxERKN4sead9BoundBox3IfEERKNS2_8Matrix34IfEENS2_7BitFlagIhEE = 0x007d8950
_ZN3agl3sdw13ShadowFrustum29findSamePointAndSwapFromInterERKN4sead7Vector3IfEE = 0x007d9910
_ZNK3agl3sdw13ShadowFrustum14expandBoundBoxEPN4sead9BoundBox3IfEERKNS2_8Matrix44IfEERKNS2_8Matrix34IfEE = 0x007dae30
_ZN3agl3sdw9ShadowMap7setSizeERKN4sead7Vector2IiEE = 0x007dcfa0
_ZN3eui16CalcPaneBoundBoxEPN4sead9BoundBox2IfEERKN2nn4ui2d4PaneE = 0x007e0e80
_ZN3eui26ApplyTextureInfoToMaterialEPN2nn4ui2d4PaneERKNS1_11TextureInfoEi = 0x007e16e0
_ZN3eui12TagProcessor11setAlphaTagEPDsbh = 0x007eaeb0
_ZN3eui12TagProcessor20calcAlphaValueStart_Ev = 0x007ebd00
_ZN3eui12TagProcessor18calcAlphaValueEnd_Ev = 0x007ebd20
_ZN3eui11AnimatorSet9setBufferEjPPNS_8AnimatorE = 0x007ef660
_ZN3eui11AnimatorSet11setAnimatorEjPNS_8AnimatorE = 0x007ef710
_ZN3eui11AnimatorSet20SetSkipFirstFrameAllEb = 0x007ef7a0
_ZN3eui11AnimatorSet15SetSoundLinkAllEb = 0x007ef800
_ZNK3eui6Screen8isOpenedEv = 0x007f1ab0
_ZNK3eui6Screen13getDrawTargetEv = 0x007f1bc0
_ZN3eui10AnimButton8SetTouchEb = 0x007f4230
_ZN3eui10AnimButton21InactivateByBoxCursorEv = 0x007f4480
_ZN3eui10ButtonBase4DownEv = 0x007f4d70
_ZNK3eui10ButtonBase9IsDowningEv = 0x007f56c0
_ZN3eui12BoxCursorMgr15registerControlENS_10DrawTargetEPNS_16BoxCursorControlE = 0x007f5c90
_ZN3eui16BoxCursorControl32clearActiveAndReservedActiveNodeEPKNS_13BoxCursorNodeE = 0x007f6200
_ZN3eui13BoxCursorNode23eraseNodeFromRouteNodesEPKS0_ = 0x007f6a30
_ZN3eui9ScreenMgr13resetScreenIdEi = 0x007f7200
_ZN3eui9ScreenMgr16inactivateScreenEi = 0x007f7260
_ZN3eui14DecisionButton9ProcessOnEv = 0x007fa9c0
_ZN3eui9AlignPane8doAlign_Ev = 0x007fbd20
_ZN2al12MtxConnector4initEPKN4sead8Matrix34IfEERS4_ = 0x007ff080
_ZNK2al12MtxConnector9multTransEPN4sead7Vector3IfEERKS3_ = 0x007ff240
_ZNK2al12MtxConnector7multMtxEPN4sead8Matrix34IfEERKS3_ = 0x007ff370
_ZN2al12MtxConnector16setBaseQuatTransERKN4sead4QuatIfEERKNS1_7Vector3IfEE = 0x007ff6d0
_ZN2al11StressParamaSERKS0_ = 0x008016a0
_ZNK2al22GraphicsStressDirector14getBufferSizeXEv = 0x00802020
_ZNK2al22GraphicsStressDirector14getBufferSizeYEv = 0x008021c0
_ZNK2al22GraphicsStressDirector15getFXAAAlphaOutEv = 0x00802360
_ZN2al22GraphicsStressDirector15setForceDisableEb = 0x008023a0
_ZN2al13RequestInterpINS_11StressParamEE19requestParamDirect_EiRKS1_ = 0x00803050
_ZNK2al15GraphicsInitArg26isUsingCubeMapAtmosScatterEv = 0x00803bf0
_ZN2al16ActorExecuteInfoC2EPNS_20ExecuteRequestKeeperE = 0x008092b0
_ZN2al16ActorExecuteInfoC1EPNS_20ExecuteRequestKeeperE = 0x008092b0
_ZN2al16ActorExecuteInfo12removeDrawerEPNS_15ModelDrawerBaseE = 0x00809320
_ZN2al16ActorExecuteInfo15removeOptDrawerEv = 0x008093c0
_ZN2al20ExecuteRequestKeeper28executeRequestActorDrawAllOnEv = 0x00809790
_ZN2al20ExecuteRequestKeeper29executeRequestActorDrawAllOffEv = 0x00809830
_ZN2al22ExecuteTableHolderDrawC1Ev = 0x00809ad0
_ZN2al22ExecuteTableHolderDrawC2Ev = 0x00809ad0
_ZN2al22ExecuteTableHolderDrawD2Ev = 0x00809b00
_ZN2al22ExecuteTableHolderDrawD1Ev = 0x00809b00
_ZN2al24ExecuteTableHolderUpdateC2Ev = 0x0080aab0
_ZN2al24ExecuteTableHolderUpdateC1Ev = 0x0080aab0
_ZN2al24ExecutorActorExecuteBase8addActorEPNS_9LiveActorE = 0x0080ba70
_ZN2al24ExecutorActorExecuteBase11removeActorEPNS_9LiveActorE = 0x0080bab0
_ZNK2al17ExecutorActorDraw7executeEv = 0x0080bc30
_ZN2al28ExecutorListActorExecuteBase10createListEv = 0x0080bdf0
_ZNK2al28ExecutorListActorExecuteBase17executeListPausedEv = 0x0080be90
_ZN2al30ExecutorListActorModelDrawBase10createListEv = 0x0080c010
_ZNK2al21ExecutorActorMovement7executeEv = 0x0080e300
_ZNK2al21ExecutorActorMovement13executePausedEv = 0x0080e350
_ZNK2al21ExecutorActorCalcAnim7executeEv = 0x0080e3e0
_ZNK2al24ExecutorActorModelUpdate7executeEv = 0x0080e460
_ZNK2al24ExecutorActorModelUpdate13executePausedEv = 0x0080e4b0
_ZN2al19ExecutorListFunctor15registerFunctorERKNS_11FunctorBaseE = 0x0080e6e0
_ZN2al12ArchiveEntry5clearEv = 0x0080fc10
_ZN2al13ArchiveHolder22addNewLoadRequestEntryERKN4sead14SafeStringBaseIcEEPNS1_4HeapEPNS1_10FileDeviceE = 0x0080ff10
_ZN2al15SoundItemHolder22addNewLoadRequestEntryEjjPNS_20IAudioResourceLoaderE = 0x008103a0
_ZN2al15SoundItemHolder12tryFindEntryEjPNS_20IAudioResourceLoaderE = 0x00810400
_ZN2al11FogDirector7endInitEv = 0x00811500
_ZN2al11FogDirector5clearEv = 0x00811590
_ZN2al15HitSensorKeeper6updateEv = 0x008135a0
_ZN2al9HitSensor13trySensorSortEv = 0x008138d0
_ZN2al9HitSensor8validateEv = 0x00813940
_ZN2al9HitSensor10invalidateEv = 0x00813990
_ZN2al9HitSensor16validateBySystemEv = 0x008139e0
_ZN2al9HitSensor18invalidateBySystemEv = 0x00813a30
_ZN2al9HitSensor6updateEv = 0x00813b30
_ZN2al9HitSensor12addHitSensorEPS0_ = 0x00813ca0
_ZNSt3__17__sort4IRN2al17SensorSortCmpFuncEPPNS1_9HitSensorEEEjT0_S7_S7_S7_T_ = 0x008142c0
_ZN2al14SensorHitGroup6removeEPNS_9HitSensorE = 0x00814ae0
_ZNK2al15ActorItemKeeper17getAppearItemInfoEPKc = 0x00815490
_ZN2al12JointAimInfo12setPowerRateEf = 0x00815be0
_ZN2al12JointAimInfo12addPowerRateEf = 0x00815c80
_ZN2al12JointAimInfo12subPowerRateEf = 0x00815cc0
_ZNK2al19JointControllerBase10findNextIdEPii = 0x00816d20
_ZNK2al19JointControllerBase9isExistIdEi = 0x00816d70
_ZN2al21JointControllerKeeper18pushBackControllerEPNS_19JointControllerBaseE = 0x008170a0
_ZN2al18JointDirectionInfo12setPowerRateEf = 0x008171b0
_ZN2al21JointLookAtController18requestJointLookAtERKN4sead7Vector3IfEE = 0x00818b30
_ZN2al21JointLookAtController12invalidJointEi = 0x00818b60
_ZN2al21JointLookAtController13validAllJointEv = 0x00818be0
_ZN2al12JointRumbler11initDetailsENS0_5EAxisEif = 0x008191c0
_ZN2al21JointSpringController14addControlRateEf = 0x008195a0
_ZN2al21JointSpringController14subControlRateEf = 0x008195e0
_ZN2al13KeyPoseKeeper19setCurrentPoseIndexEi = 0x0081a020
_ZNK2al13KeyPoseKeeper14getNextKeyPoseEv = 0x0081a0a0
_ZNK2al13KeyPoseKeeper17calcNextPoseIndexEv = 0x0081a0f0
_ZN2al13KeyPoseKeeper4nextEv = 0x0081a130
_ZNK2al13KeyPoseKeeper9isLastKeyEv = 0x0081a210
_ZN2al21RollingCubePoseKeeperC1Ev = 0x0081ac90
_ZN2al21RollingCubePoseKeeperC2Ev = 0x0081ac90
_ZN2al21RollingCubePoseKeeper11setCubeSizeERKN4sead9BoundBox3IfEE = 0x0081acc0
_ZN2al21RollingCubePoseKeeper7nextKeyEv = 0x0081afd0
_ZNK2al21RollingCubePoseKeeper21calcBoundingBoxCenterEPN4sead7Vector3IfEERKNS1_4QuatIfEERKS3_ = 0x0081b070
_ZN2al15RollingCubePose11setCubeSizeERKN4sead9BoundBox3IfEE = 0x0081b210
_ZNK2al15RollingCubePose21calcBoundingBoxCenterEPN4sead7Vector3IfEE = 0x0081b450
_ZNK2al22LightIntensityDirector21getCurrentReduceScaleEv = 0x0081fd40
_ZNK2al23ActorPrePassLightKeeper12getLightBaseEi = 0x00822030
_ZN2al16PrePassLightBase17requestKillByUserEi = 0x00823da0
_ZN2al18PrePassLightKeeper5clearEv = 0x00825990
_ZN2al18PrePassLightKeeper7executeEPNS_14ShadowDirectorEb = 0x00825c60
_ZNK3agl4cull18ViewFrustumCulling8isInsideERKN4sead7Vector3IfEEf = 0x008278e0
_ZNK3agl4lght20LightPrePassLightMgrIN2al16LppLightDataBaseINS2_15PointLightParamEEENS0_12LightPrePass7ContextENS6_11CallbackArgEE4drawEPNS_11DrawContextEiRKS7_RS8_ = 0x0082b7a0
_ZNK3agl4lght20LightPrePassLightMgrIN2al16LppLightDataBaseINS2_15PointLightParamEEENS0_12LightPrePass7ContextENS6_11CallbackArgEE9drawDebugEPNS_11DrawContextEiRKS7_ = 0x0082b8f0
_ZNK3agl4lght20LightPrePassLightMgrIN2al16LppLightDataBaseINS2_14LineLightParamEEENS0_12LightPrePass7ContextENS6_11CallbackArgEE4drawEPNS_11DrawContextEiRKS7_RS8_ = 0x0082dc90
_ZNK3agl4lght20LightPrePassLightMgrIN2al16LppLightDataBaseINS2_14LineLightParamEEENS0_12LightPrePass7ContextENS6_11CallbackArgEE9drawDebugEPNS_11DrawContextEiRKS7_ = 0x0082dde0
_ZN3agl4lght20LightPrePassLightMgrIN2al16LppLightDataBaseINS2_14ProjLightParamEEENS0_12LightPrePass7ContextENS6_11CallbackArgEE4calcEv = 0x0082eae0
_ZNK3agl4lght20LightPrePassLightMgrIN2al16LppLightDataBaseINS2_14ProjLightParamEEENS0_12LightPrePass7ContextENS6_11CallbackArgEE4drawEPNS_11DrawContextEiRKS7_RS8_ = 0x0082ef90
_ZNK3agl4lght20LightPrePassLightMgrIN2al16LppLightDataBaseINS2_14ProjLightParamEEENS0_12LightPrePass7ContextENS6_11CallbackArgEE9drawDebugEPNS_11DrawContextEiRKS7_ = 0x0082f0e0
_ZN2al9SSIIParamaSERKS0_ = 0x00830440
_ZN2al14LiveActorGroup16makeActorDeadAllEv = 0x00831890
_ZN14alAnimFunction9checkPassEfff = 0x00834e40
_ZN2al22isExpandedClippingModeEPKNS_9LiveActorE = 0x00834fa0
_ZN2al26setSubActorOffSyncClippingEPNS_9LiveActorE = 0x00836d20
_ZN2al23setSubActorOnSyncAppearEPNS_9LiveActorE = 0x00836d60
_ZN2al13ActorInitInfo14initViewIdHostEPKNS_13PlacementInfoERKS0_ = 0x00836f50
_ZN2al13ActorInitInfo12initNoViewIdEPKNS_13PlacementInfoERKS0_ = 0x008370e0
_ZN2al17setLODForceLevel0EPNS_9LiveActorE = 0x0083a310
_ZN2al23setMaterialProgrammableEPNS_9LiveActorE = 0x0083b4c0
_ZN2al11setVelocityEPNS_9LiveActorERKN4sead7Vector3IfEE = 0x0083bb30
_ZN2al11setVelocityEPNS_9LiveActorEfff = 0x0083bb70
_ZN2al12setVelocityXEPNS_9LiveActorEf = 0x0083bbc0
_ZN2al12setVelocityYEPNS_9LiveActorEf = 0x0083bbf0
_ZN2al15setVelocityZeroEPNS_9LiveActorE = 0x0083bc20
_ZN2al11addVelocityEPNS_9LiveActorERKN4sead7Vector3IfEE = 0x0083bde0
_ZN2al12addVelocityYEPNS_9LiveActorEf = 0x0083be40
_ZN2al13scaleVelocityEPNS_9LiveActorEf = 0x0083c1e0
_ZN2al14scaleVelocityYEPNS_9LiveActorEf = 0x0083c230
_ZN2al15scaleVelocityHVEPNS_9LiveActorEff = 0x0083c270
_ZN2al14isVelocityFastEPKNS_9LiveActorEf = 0x0083c960
_ZN2al14isVelocitySlowEPKNS_9LiveActorEf = 0x0083c9c0
_ZN2al20ActorPoseKeeperTRMSV13updatePoseMtxEPKN4sead8Matrix34IfEE = 0x0083ed50
_ZN2al19ActorPoseKeeperTFSV13updatePoseMtxEPKN4sead8Matrix34IfEE = 0x0083eef0
_ZN2al20ActorPoseKeeperTFGSV13updatePoseMtxEPKN4sead8Matrix34IfEE = 0x0083f180
_ZN2al19ActorPoseKeeperTQSV14updatePoseQuatERKN4sead4QuatIfEE = 0x0083f390
_ZNK2al19ActorPoseKeeperTQSV11calcBaseMtxEPN4sead8Matrix34IfEE = 0x0083f400
_ZN2al8setTransEPNS_9LiveActorERKN4sead7Vector3IfEE = 0x0083f760
_ZN2al9setRotateEPNS_9LiveActorERKN4sead7Vector3IfEE = 0x0083f780
_ZN2al11calcSideDirEPN4sead7Vector3IfEEPKNS_9LiveActorE = 0x0083f8b0
_ZN2al9calcUpDirEPN4sead7Vector3IfEEPKNS_9LiveActorE = 0x0083f900
_ZN2al12calcFrontDirEPN4sead7Vector3IfEEPKNS_9LiveActorE = 0x0083f950
_ZN2al10setRotateXEPNS_9LiveActorEf = 0x0083fa70
_ZN2al10setRotateYEPNS_9LiveActorEf = 0x0083faa0
_ZN2al10setRotateZEPNS_9LiveActorEf = 0x0083fad0
_ZN2al9getScaleXEPKNS_9LiveActorE = 0x0083fc30
_ZN2al9getScaleYEPKNS_9LiveActorE = 0x0083fc60
_ZN2al9getScaleZEPKNS_9LiveActorE = 0x0083fc90
_ZN2al8setScaleEPNS_9LiveActorERKN4sead7Vector3IfEE = 0x0083fcc0
_ZN2al8setScaleEPNS_9LiveActorEfff = 0x0083fd10
_ZN2al11setScaleAllEPNS_9LiveActorEf = 0x0083fd60
_ZN2al9setScaleYEPNS_9LiveActorEf = 0x0083fda0
_ZN2al9setScaleZEPNS_9LiveActorEf = 0x0083fdd0
_ZN2al7setQuatEPNS_9LiveActorERKN4sead4QuatIfEE = 0x0083fe30
_ZN2al10setGravityEPKNS_9LiveActorERKN4sead7Vector3IfEE = 0x0083fe70
_ZN2al8setFrontEPNS_9LiveActorERKN4sead7Vector3IfEE = 0x0083fed0
_ZN2al11multVecPoseEPN4sead7Vector3IfEEPKNS_9LiveActorERKS2_ = 0x0083ff10
_ZN2al14multVecInvQuatEPN4sead7Vector3IfEEPKNS_9LiveActorERKS2_ = 0x00840080
_ZN19alActorPoseFunction15updatePoseTRMSVEPN2al9LiveActorE = 0x00840340
_ZN2al14ActorSceneInfoC1Ev = 0x00840b30
_ZN2al14ActorSceneInfoC2Ev = 0x00840b30
_ZN2al21ActorSensorController26resetActorSensorControllerEv = 0x00840e10
_ZN2al25ActorSensorControllerList17setAllSensorScaleEf = 0x00840f30
_ZN2al21calcVecBetweenSensorsEPN4sead7Vector3IfEEPKNS_9HitSensorES6_ = 0x008419f0
_ZN2al14isHitBoxSensorEPKNS_9HitSensorERKN4sead7Vector3IfEERKNS3_9BoundBox3IfEE = 0x00841a30
_ZN2al13isSensorValidEPKNS_9HitSensorE = 0x00842280
_ZN2al15isMsgItemGetAllEPKNS_9SensorMsgE = 0x0084a9a0
_ZN2al28isSensorPlayerOrPlayerWeaponEPKNS_9HitSensorE = 0x0084c5d0
_ZN2al19isSensorBindableAllEPKNS_9HitSensorE = 0x0084c960
_ZN2al14isSensorSimpleEPKNS_9HitSensorE = 0x0084c990
_ZN2al9LiveActor17pausedModelUpdateEv = 0x0085c350
_ZNK2al9LiveActor10getBaseMtxEv = 0x0085cb90
_ZN2al13LiveActorFlagC1Ev = 0x0085d1b0
_ZN2al13LiveActorFlagC2Ev = 0x0085d1b0
_ZN19alLiveActorFunction14setAlphaCtrlOnEPN2al9LiveActorEb = 0x0085d330
_ZN2al16setSubActorAlphaEPNS_9LiveActorE = 0x0085e020
_ZN2al23offSyncClippingSubActorEPNS_9LiveActorEPKS0_ = 0x0085e260
_ZN2al10isNearZeroERKN4sead7Vector2IfEEf = 0x00869500
_ZN2al10isNearZeroERKN4sead7Vector3IfEEf = 0x00869610
_ZN2al14verticalizeVecEPN4sead7Vector3IfEERKS2_S5_ = 0x00869770
_ZN2al6isNearEfff = 0x00869db0
_ZN2al6isNearERKN4sead7Color4fES3_f = 0x00869e90
_ZN2al19isParallelDirectionERKN4sead7Vector3IfEES4_f = 0x00869fb0
_ZN2al18isReverseDirectionERKN4sead7Vector3IfEES4_f = 0x0086a040
_ZN2al15isNearDirectionERKN4sead7Vector3IfEES4_f = 0x0086a0f0
_ZN2al9isInRangeEfff = 0x0086a1a0
_ZN2al21getMaxAbsElementIndexERKN4sead7Vector3IfEE = 0x0086a890
_ZN2al8clampV3fEPN4sead7Vector3IfEERKS2_S5_ = 0x0086ab50
_ZN2al11hermiteRateEfff = 0x0086ad70
_ZN2al12lerpValueNewEfff = 0x0086adb0
_ZN2al9lerpValueEfff = 0x0086adf0
_ZN2al7lerpVecEPN4sead7Vector2IfEERKS2_S5_f = 0x0086af60
_ZN2al7lerpVecEPN4sead7Vector3IfEERKS2_S5_f = 0x0086afa0
_ZN2al8convergeEiii = 0x0086aff0
_ZN2al8convergeEfff = 0x0086b020
_ZN2al14parallelizeVecEPN4sead7Vector3IfEERKS2_S5_ = 0x0086b990
_ZN2al11roundOffVecEPN4sead7Vector3IfEE = 0x0086bc80
_ZN2al13snapVecToGridEPN4sead7Vector3IfEERKS2_fS5_ = 0x0086bce0
_ZN2al20calcNearVecFromAxis3EPN4sead7Vector3IfEERKS2_S5_S5_S5_ = 0x0086bd80
_ZN2al20calcNearVecFromAxis3EPN4sead7Vector3IfEERKS2_RKNS0_4QuatIfEE = 0x0086c090
_ZN2al20calcQuatLocalAxisAllERKN4sead4QuatIfEEPNS0_7Vector3IfEES7_S7_ = 0x0086c140
_ZN2al12calcQuatSideEPN4sead7Vector3IfEERKNS0_4QuatIfEE = 0x0086ca40
_ZN2al10calcQuatUpEPN4sead7Vector3IfEERKNS0_4QuatIfEE = 0x0086caa0
_ZN2al13calcQuatFrontEPN4sead7Vector3IfEERKNS0_4QuatIfEE = 0x0086cb00
_ZN2al17calcQuatLocalAxisEPN4sead7Vector3IfEERKNS0_4QuatIfEEi = 0x0086cb80
_ZN2al21calcQuatLocalSignAxisEPN4sead7Vector3IfEERKNS0_4QuatIfEEi = 0x0086cc90
_ZN2al16rotateVectorQuatEPN4sead7Vector3IfEERKNS0_4QuatIfEE = 0x0086fbb0
_ZN2al22checkHitHalfLineSphereERKN4sead7Vector3IfEES4_S4_f = 0x00870550
_ZN2al23isNearCollideSphereAabbERKN4sead7Vector3IfEEfRKNS0_9BoundBox3IfEE = 0x00870b90
_ZN2al16calcBoxFacePointEPN4sead7Vector3IfEERKNS0_9BoundBox3IfEEiRKNS0_4QuatIfEERKS2_ = 0x00870f60
_ZN2al29calcPerpendicFootToLineInsideEPN4sead7Vector3IfEERKS2_S5_S5_ = 0x00871810
_ZN2al20calcReflectionVectorEPN4sead7Vector3IfEERKS2_ff = 0x008718e0
_ZNK2al13ParabolicPath12calcPositionEPN4sead7Vector3IfEEf = 0x00872230
_ZNK2al13ParabolicPath28calcPathTimeFromGravityAccelEf = 0x008722a0
_ZN2al12MemorySystem16destroySceneHeapEb = 0x00872f60
_ZNK2al12MemorySystem25isReallyFreeSceneResourceEb = 0x00872fd0
_ZN2al12MemorySystem23destroyCourseSelectHeapEv = 0x008730d0
_ZN11alModelCafe10updateLastEv = 0x00874640
_ZNK11alModelCafe11getResModelEv = 0x00874850
_ZN2al10MeshDrawer20clearDepthShadowFlagEv = 0x00875090
_ZNK2al10MeshDrawerltERKS0_ = 0x00875300
_ZN2al10MeshDrawer7addMeshEPKN2nn3g3d8ModelObjEPKNS2_8ShapeObjEPKNS_14SimpleModelG3DE = 0x00876220
_ZN2al10MeshDrawer10removeMeshEPKN2nn3g3d8ModelObjEPKNS2_8ShapeObjE = 0x008762a0
_ZN2al11ModelKeeper14setDisableDrawEb = 0x0087ac00
_ZN2al11ModelKeeper21setDisableDepthShadowEb = 0x0087ac50
_ZN2al14SimpleModelG3DC1Ev = 0x0087cf10
_ZN2al14SimpleModelG3DC2Ev = 0x0087cf10
_ZNK2al14SimpleModelG3D14isShapeVisibleEi = 0x0087d9c0
_ZNK2al14SimpleModelG3D14getMaterialObjEi = 0x0087dd20
_ZN2al14SimpleModelG3D9updateLodERKN4sead7Vector3IfEEi = 0x0087dd70
_ZN2al14SimpleModelG3D12setLodParamsEPKfi = 0x0087de10
_ZN2al14AnimScaleParamC2Ev = 0x0087deb0
_ZN2al14AnimScaleParamC1Ev = 0x0087deb0
_ZN2al14AnimScaleParamC1Efffffffiffff = 0x0087df20
_ZN2al14AnimScaleParamC2Efffffffiffff = 0x0087df20
_ZNK2al12FlashingCtrl16isNowJustFlashedEv = 0x0087e6c0
_ZN2al13FlashingTimer6updateEv = 0x0087e730
_ZN4sead10RingBufferIN2al15PoseHistoryPath8PoseInfoEE13forcePushBackERKS3_ = 0x0087ef00
_ZNK2al15PoseHistoryPath16calcPoseAndTransEPN4sead4QuatIfEEPNS1_7Vector3IfEEf = 0x0087efb0
_ZN2al18RotateHangDynamics11moveRootPosERKN4sead7Vector3IfEE = 0x0087f830
_ZN2al18RotateHangDynamics13applyForcePosERKN4sead7Vector3IfEES5_ = 0x0087f8c0
_ZN2al18RotateHangDynamics12applyGravityERKN4sead7Vector3IfEE = 0x0087f930
_ZN15alNerveFunction20NerveActionCollector8addNerveEPN2al11NerveActionE = 0x008802c0
_ZN2al11NerveKeeper8setNerveEPKNS_5NerveE = 0x00880600
_ZN2al14NerveStateCtrl18updateCurrentStateEv = 0x00880890
_ZN2al14NerveStateCtrl10startStateEPKNS_5NerveE = 0x008808b0
_ZN2al14NerveStateCtrl18tryEndCurrentStateEv = 0x00880900
_ZN2al6isStepEPKNS_9IUseNerveEi = 0x008809f0
_ZN2al12getNerveStepEPKNS_9IUseNerveE = 0x00880a70
_ZN2al11isFirstStepEPKNS_9IUseNerveE = 0x00880ab0
_ZN2al10isLessStepEPKNS_9IUseNerveEi = 0x00880ae0
_ZN2al15isLessEqualStepEPKNS_9IUseNerveEi = 0x00880b20
_ZN2al13isGreaterStepEPKNS_9IUseNerveEi = 0x00880b60
_ZN2al18isGreaterEqualStepEPKNS_9IUseNerveEi = 0x00880ba0
_ZN2al14isIntervalStepEPKNS_9IUseNerveEii = 0x00880be0
_ZN2al10isNewNerveEPKNS_9IUseNerveE = 0x00880c30
_ZN2al13calcNerveRateEPKNS_9IUseNerveEi = 0x00880c60
_ZN2al22isEqualCharacterIdBaseERKNS_7NfpInfoENS_14NfpCharacterIdE = 0x00882eb0
_ZN2al18isEqualNumberingIdERKNS_7NfpInfoEi = 0x00882ef0
_ZN2al17tryGetCharacterIdEPNS_14NfpCharacterIdERKNS_7NfpInfoE = 0x00882f10
_ZN2al17tryGetNumberingIdEPiRKNS_7NfpInfoE = 0x00882f40
_ZN2al15isEqualSeriesIDERKNS_7NfpInfoEi = 0x00882f60
_ZN2al14tryGetSeriesIDEPiRKNS_7NfpInfoE = 0x00882f80
_ZN2al13tryGetNfpTypeEPiRKNS_7NfpInfoE = 0x00882fa0
_ZN2al22isCharacterIdBasePeachERKNS_7NfpInfoE = 0x00882ff0
_ZN2al22isCharacterIdBaseKoopaERKNS_7NfpInfoE = 0x00883020
_ZN2al24isCharacterIdBaseKoopaJrERKNS_7NfpInfoE = 0x00883050
_ZN2al15tryGetLocalAxisEPN4sead7Vector3IfEERKNS_13ActorInitInfoEi = 0x0088ada0
_ZNK2al12PlayerHolder12tryGetPlayerEi = 0x0088d7a0
_ZN2al16LightStreakParamaSERKS0_ = 0x008977f0
_ZN2al22OccludedEffectDirectorD2Ev = 0x0089a690
_ZN2al22OccludedEffectDirectorD1Ev = 0x0089a690
_ZNK2al11LinearCurve10calcEndPosEPN4sead7Vector3IfEE = 0x0089baa0
_ZNK2al4Rail16getLengthToPointEi = 0x0089c210
_ZN2al8RailPart5setUpERN4sead7Vector3IfEES4_ = 0x0089ca60
_ZNK2al11BezierCurve12calcVelocityEPN4sead7Vector3IfEEf = 0x0089d1a0
_ZNK2al11BezierCurve10calcEndPosEPN4sead7Vector3IfEE = 0x0089d7f0
_ZN2al15calcRailMoveDirEPN4sead7Vector3IfEEPKNS_9LiveActorE = 0x0089e820
_ZNK2al12DemoDirector15isAnyActiveDemoEv = 0x008a3630
_ZN2al12DemoDirector18isOtherDemoRunningEv = 0x008a3710
_ZN2al12DemoDirector12addDemoActorEPNS_9LiveActorE = 0x008a3d40
_ZN2al12DemoDirector15removeDemoActorEPNS_9LiveActorE = 0x008a3d80
_ZNK2al5Scene18getSceneCameraInfoEv = 0x008a4290
_ZN2al14SceneObjHolder26initAfterPlacementSceneObjERKNS_13ActorInitInfoE = 0x008a4980
_ZN2al11setSceneObjEPKNS_18IUseSceneObjHolderEPNS_9ISceneObjEi = 0x008a4a20
_ZN2al11getSceneObjEPKNS_18IUseSceneObjHolderEi = 0x008a4a60
_ZN2al14tryGetSceneObjEPKNS_18IUseSceneObjHolderEi = 0x008a4a90
_ZN2al15isExistSceneObjEPKNS_18IUseSceneObjHolderEi = 0x008a4ac0
_ZN2al13SceneStopCtrl6updateEv = 0x008a4b50
_ZN2al11isStopSceneEPKNS_5SceneE = 0x008a5bb0
_ZN2al21ScreenPointCheckGroup8setValidEPNS_17ScreenPointTargetE = 0x008a7180
_ZN2al21ScreenPointCheckGroup10setInvalidEPNS_17ScreenPointTargetE = 0x008a71e0
_ZN2al13ScreenPointer30getHitTargetAndSetPosAndNormalEi = 0x008a7380
_ZN2al17ScreenPointKeeper6updateEv = 0x008a7620
_ZN2al17ScreenPointKeeper10invalidateEv = 0x008a76d0
_ZN2al17ScreenPointTarget6updateEv = 0x008a78c0
_ZNK2al21ScreenCaptureExecutor18isAnyActiveRequestEv = 0x008a80c0
_ZNK2al10FunctorV1MIPNS_5SceneEMS1_FvRKNS_13SceneInitInfoEES5_EclEv = 0x00472bd0
_ZN2al23DeferredRenderingShpUbo6setMtxEPKN4sead8Matrix34IfEE = 0x008ac7d0
_ZN2al12GBufferArray13setContextMRTEPN4sead18GraphicsContextMRTE = 0x008adcd0
_ZN2al12GBufferArray16setContextMRTXluEPN4sead18GraphicsContextMRTE = 0x008add00
_ZN2al12GBufferArray19setContextMRTXluNrmEPN4sead18GraphicsContextMRTE = 0x008add40
_ZN2al12GBufferArray22setContextMRTAlphaMaskEPN4sead18GraphicsContextMRTE = 0x008adfc0
_ZN2al8EnvTexId6changeERKS0_ = 0x008b2010
_ZNK2al10EnvTexInfo12getCubeMapIdEv = 0x008b2110
_ZN2al10EnvTexInfoC2Ev = 0x008b2130
_ZN2al10EnvTexInfoC1Ev = 0x008b2130
_ZN2al22ShaderEnvTextureKeeperC2EPNS_18GraphicsSystemInfoEPNS_12PlayerHolderE = 0x008b2360
_ZN2al22ShaderEnvTextureKeeperC1EPNS_18GraphicsSystemInfoEPNS_12PlayerHolderE = 0x008b2360
_ZNK2al20ShaderMirrorDirector28getRenderingCameraNearOffsetEv = 0x008b5fe0
_ZNK2al20ShaderMirrorDirector18getRenderingCameraEv = 0x008b6010
_ZN2al13isExistShadowEPNS_9LiveActorE = 0x008bb490
_ZN2al14setShadowFixedEPNS_9LiveActorEb = 0x008bbe10
_ZN2al16setShadowDropDirEPNS_9LiveActorERKN4sead7Vector3IfEE = 0x008bbe60
_ZN2al19setShadowDropLengthEPNS_9LiveActorEf = 0x008bc140
_ZN2al35setShadowDropLengthWithDrawCategoryEPNS_9LiveActorEfNS_22ShadowMaskDrawCategoryE = 0x008bc1c0
_ZN2al34setShadowDropLengthEvenPlaneNormalEPKNS_9LiveActorERKN4sead7Vector3IfEE = 0x008bc480
_ZN2al22getShadowDropLengthMaxEPKNS_9LiveActorE = 0x008bc4e0
_ZN2al26isShadowMaskDrawCategoryAOEPKNS_14ShadowMaskBaseE = 0x008bc5d0
_ZNK2al14ShadowDirector21isEnableShadowPrePassEv = 0x008becd0
_ZN2al12ShadowKeeper18initAfterPlacementEv = 0x008c1c00
_ZN2al11isShadowMrtEi = 0x008c2600
_ZN2al16ShadowMaskKeeper24updateGpuBufferMultiCoreEi = 0x008c5c20
_ZN2al16ShadowMaskKeeper5clearEv = 0x008c7140
_ZN2al16ShadowMaskKeeper18registerShadowMaskEPNS_14ShadowMaskBaseE = 0x008c7bc0
_ZN2al16ShadowMaskKeeper16removeShadowMaskEPNS_14ShadowMaskBaseE = 0x008c7ca0
_ZN2al16ShadowMaskKeeper11setViewInfoEiPNS_12GBufferArrayEPKN4sead8Matrix34IfEEPKNS3_8Matrix44IfEE = 0x008ca000
_ZN2al16ShadowMaskKeeper26overrideLinearDepthTextureEPN3agl11TextureDataE = 0x008ca090
_ZN2al16ShadowMaskKeeper20overrideColorTextureEPN3agl11TextureDataE = 0x008ca100
_ZNK2al16ShadowMaskKeeper21isExistDrawShadowMaskEv = 0x008ca170
_ZNK2al16ShadowMaskKeeper29isExistDrawShadowMaskCategoryEi = 0x008ca3e0
_ZN2al26StageSwitchFunctorListener12setOnFunctorERKNS_11FunctorBaseE = 0x008ccda0
_ZN2al26StageSwitchFunctorListener13setOffFunctorERKNS_11FunctorBaseE = 0x008ccdd0
_ZN2al24StageSwitchWatcherHolder8movementEv = 0x008ccf30
_ZN2al18AsyncFunctorThread5startEv = 0x008cd540
_ZN2al16InitializeThread5startEv = 0x008cd830
_ZN2al16InitializeThread21tryWaitDoneAndDestroyEv = 0x008cd860
_ZNK2al9ByamlIter11isTypeArrayEv = 0x008cda20
_ZNK2al9ByamlIter15isTypeContainerEv = 0x008cda40
_ZNK2al9ByamlIter7getSizeEv = 0x008cdb30
_ZNK2al9ByamlIter13tryConvertIntEPiPKNS_9ByamlDataE = 0x008ce300
_ZNK2al14ByamlArrayIter14getDataByIndexEPNS_9ByamlDataEi = 0x008ce7d0
_ZNK2al13ByamlHashIter14getDataByIndexEPNS_9ByamlDataEi = 0x008ceac0
_ZNK2al13ByamlHashIter12getDataByKeyEPNS_9ByamlDataEi = 0x008ceb00
_ZNK2al13ByamlHashIter8findPairEi = 0x008cebb0
_ZNK2al13ByamlHashIter14getPairByIndexEi = 0x008cec20
_ZN15alYamlMacroUtil14YamlParamGroup13readyToSetPtrEv = 0x008cf8e0
_ZN2al14ActionFlagCtrl6updateEff = 0x008d3c50
_ZN2al19ActionOceanWaveCtrl11startActionEPKc = 0x008d3da0
_ZN2al16AnimPlayerSimple6updateEv = 0x008d5430
_ZN2al16AnimPlayerSimple12setAnimFrameEf = 0x008d54c0
_ZNK2al13AnimPlayerSkl18getSklAnimBlendNumEv = 0x008d6770
_ZNK2al13AnimPlayerSkl15getSklAnimFrameEi = 0x008d67c0
_ZNK2al13AnimPlayerSkl18getSklAnimFrameMaxEi = 0x008d6870
_ZNK2al13AnimPlayerSkl19getSklAnimFrameRateEi = 0x008d68c0
_ZN2al13AnimPlayerSkl19setSklAnimFrameRateEif = 0x008d68f0
_ZNK2al13AnimPlayerSkl16isSklAnimPlayingEi = 0x008d69e0
_ZNK2al13AnimPlayerSkl21getPlayingSklAnimNameEi = 0x008d6a10
_ZNK2al13AnimPlayerSkl23getPartialAnimFrameRateEi = 0x008d7410
_ZN2al13AnimPlayerSkl23setPartialAnimFrameRateEif = 0x008d7440
_ZNK2al15ModelAnimInterp10interpAnimEPN2nn3g3d11SkeletonObjE = 0x008d8670
_ZN2al12AreaInitInfo3setERKNS_13PlacementInfoEPNS_19StageSwitchDirectorE = 0x008d95a0
_ZNK2al7AreaObj10isInVolumeERKN4sead7Vector3IfEE = 0x008d9af0
_ZN2al7AreaObj10isInVolumeERKN4sead7Vector3IfEES5_PS3_S6_ = 0x008d9b30
_ZN2al7AreaObj11setStartPosERN4sead7Vector3IfEE = 0x008d9b80
_ZN2al7AreaObj11getStartPosEPN4sead7Vector3IfEE = 0x008d9bb0
_ZNK2al15AreaObjDirector16getTotalAreaObjsEv = 0x008da2e0
_ZN2al12AreaObjGroup15resisterAreaObjEPNS_7AreaObjE = 0x008daa30
_ZN2al12AreaObjGroup18getInVolumeAreaObjERKN4sead7Vector3IfEE = 0x008daae0
_ZN2al12AreaObjGroup18getInVolumeAreaObjERKN4sead7Vector3IfEEPPNS_7AreaObjE = 0x008dab80
_ZN2al12AreaObjGroup17getInFirstAreaObjERKN4sead7Vector3IfEE = 0x008dad00
_ZN2al21SwitchKeepOnAreaGroup6updateERKN4sead7Vector3IfEE = 0x008dd970
_ZN2al21AudioResourceDirector25destroyAudioResourceLayerERKN4sead14SafeStringBaseIcEE = 0x008dfc90
_ZN2al12calcHashCodeEPKc = 0x008e3ef0
_ZN2al16tryReplaceStringEPN4sead22BufferedSafeStringBaseIcEEPKcS5_ = 0x008e4690
_ZN2al17isStartWithStringEPKcS1_ = 0x008e4a10
_ZN2al13isEqualStringEPKcS1_ = 0x008e4b20
_ZN2al13isEqualStringERKN4sead14SafeStringBaseIcEES4_ = 0x008e4b50
_ZN13alBgmFunction33isPlayingBgmByUpperLayerAudioUserEPKN2al11BgmDataBaseEPKc = 0x008e9180
_ZN2al7BgmLineC2Ef = 0x008e9390
_ZN2al7BgmLineC1Ef = 0x008e9390
_ZNK2al7BgmLine23isEnableRhythmDetectionEv = 0x008e9990
_ZN2al3Bgm12changeRegionEPKNS_17BgmRegionProcInfoE = 0x008ec120
_ZN2al3Bgm13modulatePitchEPKNS_26BgmPitchModulationProcInfoE = 0x008ec210
_ZN2al20getActiveBgmDirectorEPKNS_15IUseAudioKeeperE = 0x008ef870
_ZN2al22disableChangeSituationEPKNS_15IUseAudioKeeperE = 0x008f07d0
_ZN2al21enableChangeSituationEPKNS_15IUseAudioKeeperE = 0x008f0860
_ZN2al20disableBgmChangeAreaEPKNS_15IUseAudioKeeperE = 0x008f0950
_ZN2al19enableBgmChangeAreaEPKNS_15IUseAudioKeeperE = 0x008f0980
_ZN2al15disableBgmStartEPKNS_15IUseAudioKeeperE = 0x008f0ab0
_ZN2al19disableVolumeChangeEPKNS_15IUseAudioKeeperE = 0x008f0b50
_ZN2al18enableVolumeChangeEPKNS_15IUseAudioKeeperE = 0x008f0b90
_ZN2al17BlockRailDirector26initAfterPlacementSceneObjERKNS_13ActorInitInfoE = 0x008f26b0
_ZNK2al13BlockRailLink6isRideEPfRKN4sead7Vector3IfEES6_ = 0x008f2b90
_ZNK2al13BlockRailLink13calcPosAndDirEPN4sead7Vector3IfEES4_f = 0x008f2bc0
_ZNK2al13BlockRailLink10isPrevLinkEPKS0_ = 0x008f2c70
_ZNK2al13BlockRailLink10isNextLinkEPKS0_ = 0x008f2cc0
_ZN2al19BlockRailPartsGroup10calcOffsetERKN4sead7Vector3IfEE = 0x008f38a0
_ZN2al19BlockRailPartsGroup6activeEv = 0x008f3960
_ZNK2al18CameraPoserAnim_RS11isExistAnimEPKc = 0x008f77e0
_ZN2al22CameraPoserEntrance_RS11setStartPosERN4sead7Vector3IfEE = 0x008f99c0
_ZN2al19CameraPoserFixActor14setDirectAngleERN4sead7Vector3IfEE = 0x008fa260
_ZN2al19CameraPoserFixActor21updateReturnCamTargetERN4sead7Vector3IfEE = 0x008fa900
_ZN2al19CameraPoserFixActor9setReturnEPKNS_13IUseCamera_RSEiRKN4sead7Vector3IfEES8_ = 0x008facf0
_ZN2al19CameraPoserFixActor9setReturnEiRKN4sead7Vector3IfEES5_ = 0x008fad40
_ZN2al14CameraPoserFix9setReturnEi = 0x008fbac0
_ZN2al14CameraDirector15setCameraAspectEPKN4sead8ViewportES4_ = 0x00901630
_ZN2al14CameraDirector16reviseCameraInfoEPNS_15SceneCameraInfoE = 0x00901c60
_ZNK2al14CameraDirector28isValidUserCameraControlModeEv = 0x009027e0
_ZN2al14CameraDirector15endSnapshotModeEv = 0x00902b10
_ZN2al13CameraCreatorC2EPNS_14CameraSwitcherEPNS_13PlayerWatcherEPKN4sead12LookAtCameraEPKNS5_21PerspectiveProjectionEPNS_17CollisionDirectorEPKbSF_SF_ = 0x00902b70
_ZN2al13CameraCreatorC1EPNS_14CameraSwitcherEPNS_13PlayerWatcherEPKN4sead12LookAtCameraEPKNS5_21PerspectiveProjectionEPNS_17CollisionDirectorEPKbSF_SF_ = 0x00902b70
_ZN2al14CameraFunction21calcPosFromZoneToRootEPN4sead7Vector3IfEERKS3_RKNS1_8Matrix34IfEE = 0x00903c30
_ZN2al17ControlAngleParamC1Ev = 0x00905600
_ZN2al17ControlAngleParamC2Ev = 0x00905600
_ZN2al12SettingParamC2Ev = 0x00905630
_ZN2al12SettingParamC1Ev = 0x00905630
_ZN2al16CameraRailHolder13setCameraRailEPNS_10CameraRailEb = 0x009130a0
_ZN2al21getCameraLookAtCameraEPKNS_10IUseCameraE = 0x00913dd0
_ZN2al19getCameraProjectionEPKNS_10IUseCameraE = 0x00913df0
_ZN2al24getCameraLookAtCameraSubEPKNS_10IUseCameraE = 0x00913e10
_ZN2al22getCameraProjectionSubEPKNS_10IUseCameraE = 0x00913e30
_ZN2al16getCameraViewMtxEPKNS_10IUseCameraE = 0x00913e70
_ZN2al12getCameraPosEPKNS_10IUseCameraE = 0x00913ec0
_ZN2al15getCameraLookAtEPKNS_10IUseCameraE = 0x00913ef0
_ZN2al14getCameraUpDirEPKNS_10IUseCameraE = 0x00913f20
_ZN2al15getCameraPosSubEPKNS_10IUseCameraE = 0x00913f50
_ZN2al18getCameraLookAtSubEPKNS_10IUseCameraE = 0x00913f80
_ZN2al19getCameraFovyRadianEPKNS_10IUseCameraE = 0x00913fb0
_ZN2al20getCameraDistanceMinEPKNS_10IUseCameraE = 0x00914110
_ZN2al20getCameraDistanceMaxEPKNS_10IUseCameraE = 0x00914150
_ZN2al22requestCancelInterpoleEPKNS_10IUseCameraE = 0x009149b0
_ZN2al25setTopPlayerActorFromRailEPKNS_10IUseCameraEPNS_9LiveActorE = 0x00914be0
_ZN2al16setPlayerRailPosEPKNS_9LiveActorEiRKN4sead7Vector3IfEE = 0x00914c10
_ZN2al16setPlayerRailDirEPKNS_9LiveActorERKN4sead7Vector3IfEE = 0x00914c70
_ZN2al16getPlayerRailDirEPKNS_9LiveActorE = 0x00914cc0
_ZN2al29requestResetUserCameraControlEPKNS_10IUseCameraE = 0x00914cf0
_ZN2al23requestStartCameraShakeEPKNS_10IUseCameraEPKc = 0x00914d20
_ZN2al24invalidUserCameraControlEPKNS_9LiveActorE = 0x00914e20
_ZN2al22validUserCameraControlEPKNS_9LiveActorE = 0x00914e60
_ZN2al17getTopPlayerActorEPKNS_10IUseCameraE = 0x00914ea0
_ZN2al19getCameraViewMtxPtrEPKNS_10IUseCameraE = 0x00914ed0
_ZN2al13calcCameraDirEPN4sead7Vector3IfEEPKNS_10IUseCameraE = 0x00914f30
_ZN2al17calcCameraLookDirEPN4sead7Vector3IfEEPKNS_10IUseCameraE = 0x00914f70
_ZN2al19getCameraRailHolderEPKNS_10IUseCameraE = 0x00915280
_ZN2al18requestOffGyroModeEPKNS_10IUseCameraE = 0x009155c0
_ZN2al13PlayerWatcherC2EPPNS_9LiveActorES3_PN4sead7Vector3IfEES7_PbPPKS6_S8_S8_S8_ = 0x009163b0
_ZN2al13PlayerWatcherC1EPPNS_9LiveActorES3_PN4sead7Vector3IfEES7_PbPPKS6_S8_S8_S8_ = 0x009163b0
_ZNK2al13PlayerWatcher18getPlayerLookAtPosEPN4sead7Vector3IfEEi = 0x00916d10
_ZNK2al20UserCameraController15isInitCameraPosEv = 0x00918eb0
_ZN2al19CameraAngleCtrlInfo5startEf = 0x00919320
_ZN2al17CameraDirector_RS26setupCameraAreaObjDirectorEPNS_15AreaObjDirectorE = 0x0091a550
_ZN2al17CameraDirector_RS17setFreezeDistanceEv = 0x0091a8a0
_ZN2al21AreaCameraSwitcher_RS20findCameraAreaTicketEPNS_7AreaObjE = 0x0091bce0
_ZN2al17CameraInputHolder11updateInputEv = 0x0091c880
_ZN2al21CameraLimitRailKeeperC2Ev = 0x0091ca60
_ZN2al21CameraLimitRailKeeperC1Ev = 0x0091ca60
_ZN21alCameraPoserFunction32isExistSlopeCollisionUnderTargetEPKN2al14CameraPoser_RSE = 0x0091df10
_ZN21alCameraPoserFunction13rotateVecZoneEPN4sead7Vector3IfEERKS2_PKN2al14CameraPoser_RSE = 0x0091f650
_ZN21alCameraPoserFunction22makeCameraKeepInFrameVEPN4sead12LookAtCameraERKNS0_7Vector3IfEEPKN2al14CameraPoser_RSEff = 0x0091f9d0
_ZN21alCameraPoserFunction22calcCameraRotateStickHEPKN2al14CameraPoser_RSE = 0x0091fde0
_ZN21alCameraPoserFunction11isOnRideObjEPKN2al14CameraPoser_RSE = 0x00920010
_ZN2al20CameraAngleSwingInfoC2Ev = 0x009200e0
_ZN2al20CameraAngleSwingInfoC1Ev = 0x009200e0
_ZNK2al22CameraVerticalAbsorber16makeLookAtCameraEPN4sead12LookAtCameraE = 0x00921430
_ZN2al14CameraPoser_RS45movementAndCalcCameraPoseForEndAfterInterpoleEPN4sead12LookAtCameraE = 0x00923440
_ZNK2al15CameraPoserFlag32isValidKeepPreSelfPoseNextCameraEv = 0x00923700
_ZN2al24CameraRequestParamHolderC2Ev = 0x009263e0
_ZN2al24CameraRequestParamHolderC1Ev = 0x009263e0
_ZN2al20CameraStartParamCtrl13tryApplyParamEPNS_15CameraStartInfoE = 0x00927d30
_ZNK2al15CameraStopJudge6isStopEv = 0x00927db0
_ZN2al17CameraPlayingInfo9addCameraERKNS_23CameraSwitchRequestInfoE = 0x00928450
_ZN2al17CameraPlayingInfo12removeCameraERKNS_23CameraSwitchRequestInfoE = 0x009284d0
_ZN2al17CameraPlayingInfo32tryEndAndRemoveCameraByOverwriteEv = 0x00928570
_ZN2al17CameraPlayingInfo23tryRemoveCameraKillSelfEv = 0x009285c0
_ZN2al16CameraSwitchInfoC1Ev = 0x00928690
_ZN2al16CameraSwitchInfoC2Ev = 0x00928690
_ZN2al23CameraSwitchRequestInfo23tryRemoveRequestIfExistEPNS_12CameraTicketE = 0x009288e0
_ZN2al23CameraSwitchRequestInfo5resetEv = 0x00928970
_ZNK2al24CameraTargetAreaLimitter14applyAreaLimitEPN4sead7Vector3IfEERKS3_ = 0x00928b10
_ZN2al18CameraTargetHolder6updateEv = 0x00929370
_ZN2al18CameraTicketHolder7endInitEv = 0x00929810
_ZN2al18CameraTicketHolder14registerTicketEPNS_12CameraTicketE = 0x00929890
_ZN2al13getViewNumMaxEPKNS_13IUseCamera_RSE = 0x00929bf0
_ZN2al15getLookAtCameraEPKNS_13IUseCamera_RSEi = 0x00929cd0
_ZN2al15getCameraPos_RSEPKNS_13IUseCamera_RSEi = 0x00929d20
_ZN2al14getCameraAt_RSEPKNS_13IUseCamera_RSEi = 0x00929d90
_ZN16alCameraFunction22requestCameraShakeLoopEPKN2al13IUseCamera_RSEPKc = 0x0092ab40
_ZN16alCameraFunction21isValidCameraAreaKidsEPKN2al14CameraFlagCtrlE = 0x0092b070
_ZN2al18SnapShotCameraCtrl5startEf = 0x0092c4b0
_ZN2al21ClippingAreaActorInfo13disableFarLodEv = 0x0092e4d0
_ZN2al19ClippingActorHolder6updateEPKNS_13ClippingJudgeE = 0x00931970
_ZNK2al19ClippingActorHolder4findEPKNS_9LiveActorE = 0x00931dc0
_ZN2al21ClippingActorInfoList6removeEPNS_9LiveActorE = 0x00932230
_ZNK2al21ClippingActorInfoList4findEPKNS_9LiveActorEPi = 0x009322a0
_ZNK2al21ClippingActorInfoList7tryFindEPKNS_9LiveActorE = 0x00932300
_ZNK2al21ClippingActorInfoList8isInListEPKNS_9LiveActorE = 0x00932340
_ZN2al23ClippingFarAreaObserverC2EPKNS_15AreaObjDirectorEPKNS_12PlayerHolderE = 0x009324b0
_ZN2al23ClippingFarAreaObserverC1EPKNS_15AreaObjDirectorEPKNS_12PlayerHolderE = 0x009324b0
_ZNK2al12FrustumRadar11judgeInAreaEPKN4sead7Vector3IfEEiff = 0x00933740
_ZN2al11ViewFrustum22calcFrustumFromViewMtxERKN4sead8Matrix34IfEEffff = 0x00933a10
_ZN2al8Collider12onInvalidateEv = 0x00934d30
_ZNK2al8Collider12calcCheckPosEPN4sead7Vector3IfEE = 0x00934d90
_ZN2al17CollisionDirector17checkStrikeSphereERKN4sead7Vector3IfEEfbS5_ = 0x00936ae0
_ZNK2al17CollisionDirector30searchCollisionPartsWithSphereERKN4sead7Vector3IfEEfRNS1_10IDelegate1IPNS_14CollisionPartsEEEPKNS_24CollisionPartsFilterBaseE = 0x00936f20
_ZNK2al24CollisionMultiSphereBase10getHitInfoEj = 0x00937480
_ZN2al21isValidCollisionPartsEPKNS_9LiveActorE = 0x0093d250
_ZN2al10isCollidedEPKNS_9LiveActorE = 0x0093da00
_ZN2al18isCollidedWallFaceEPKNS_9LiveActorE = 0x0093daa0
_ZN2al34tryGetCollidedGroundCollisionPartsEPKNS_9LiveActorE = 0x0093dde0
_ZN2al32tryGetCollidedWallCollisionPartsEPKNS_9LiveActorE = 0x0093de00
_ZN2al26tryGetCollidedGroundSensorEPKNS_9LiveActorE = 0x0093de20
_ZN2al24tryGetCollidedWallSensorEPKNS_9LiveActorE = 0x0093de50
_ZN2al27tryGetCollidedCeilingSensorEPKNS_9LiveActorE = 0x0093de80
_ZN15alCollisionUtil23getCollisionPartsKeeperEPKN2al13IUseCollisionE = 0x0093dec0
_ZN15alCollisionUtil19getFirstPolyOnArrowEPKN2al13IUseCollisionEPN4sead7Vector3IfEEPNS0_8TriangleERKS6_SB_PKNS0_24CollisionPartsFilterBaseEPKNS0_18TriangleFilterBaseE = 0x0093e2a0
_ZN15alCollisionUtil32tryGetStrikeArrowCollisionSensorEPKN2al13IUseCollisionERKN4sead7Vector3IfEES8_PKNS0_24CollisionPartsFilterBaseEPKNS0_18TriangleFilterBaseE = 0x0093eb00
_ZN15alCollisionUtil14isInvalidPartsERKN2al14CollisionPartsERKNS0_22CollisionCheckInfoBaseE = 0x0093eba0
_ZN15alCollisionUtil9isFarAwayERKN2al14CollisionPartsERKN4sead7Vector3IfEEf = 0x0093ec20
_ZNSt3__17__sort3IRPFbRKN15alCollisionUtil17SphereMoveHitInfoES4_EPS2_EEjT0_S9_S9_T_ = 0x00940270
_ZNSt3__17__sort4IRPFbRKN15alCollisionUtil17SphereMoveHitInfoES4_EPS2_EEjT0_S9_S9_S9_T_ = 0x00940990
_ZN2al16KCollisionServerC2Ev = 0x009428a0
_ZN2al16KCollisionServerC1Ev = 0x009428a0
_ZN2al16KCollisionServer10checkPointEPNS_6KCFxyzEfPf = 0x00943030
_ZN2al16KCollisionServer20checkSphereForPlayerEPNS_6KCFxyzEfjPN4sead15FixedRingBufferINS_9KCHitInfoELi512EEE = 0x00944500
_ZN2al16KCollisionServer11searchPrismEPNS_6KCFxyzEfRN4sead10IDelegate2IPNS_11KCPrismDataEPKNS_13KCPrismHeaderEEE = 0x009458e0
_ZN2al18SphereInterpolator8nextStepEv = 0x00946040
_ZNK2al18SphereInterpolator13calcInterpPosEPN4sead7Vector3IfEE = 0x00946070
_ZNK2al18SphereInterpolator10calcInterpEPN4sead7Vector3IfEEPfS4_ = 0x009460c0
_ZNK2al13GamePadSystem20isDisconnectPlayableEv = 0x00947350
_ZNK2al13GamePadSystem10getPadNameEh = 0x00947380
_ZN2al14NpadController20setAnyControllerModeEb = 0x0094cca0
_ZN2al12PadGyroAddon4calcEv = 0x0094de00
_ZNK2al12PadGyroAddon7getPoseEPN4sead7Vector3IfEES4_S4_ = 0x0094e100
_ZNK2al12PadGyroAddon10getSDKPoseEPN4sead7Vector3IfEES4_S4_ = 0x0094e140
_ZN2al17PadRumbleDirectorC2EPKNS_12PlayerHolderEPKNS_17CameraDirector_RSE = 0x0094f650
_ZN2al17PadRumbleDirectorC1EPKNS_12PlayerHolderEPKNS_17CameraDirector_RSE = 0x0094f650
_ZN2al18setPadRumbleKeeperEPKNS_9LiveActorEPKNS_15PadRumbleKeeperE = 0x00952390
_ZN2al21trySetPadRumbleKeeperEPKNS_9LiveActorEPKNS_15PadRumbleKeeperE = 0x009523c0
_ZN2al22isExistPadRumbleKeeperEPKNS_9LiveActorE = 0x009523f0
_ZN4sead8PtrArrayIN2al17WaveVibrationDataEE4sortEv = 0x00955400
_ZN2al15GpuMemAllocator15allocMemoryPoolEv = 0x00955c30
_ZN2al15GpuMemAllocator23registerShadingModelObjEPN2nn3g3d15ShadingModelObjE = 0x00955c90
_ZN2al12ViewRenderer22setReducedEffectRenderEbb = 0x00956950
_ZN2al12ViewRenderer22setSingleModeRenderingEv = 0x009569c0
_ZNK2al6Effect16isLoopOrInfinityEv = 0x0095e7e0
_ZN2al13EffectEmitter16tryDeleteEmitterEb = 0x0095fb20
_ZN2al18EffectShaderHolder21setGraphicsSystemInfoEPKNS_18GraphicsSystemInfoE = 0x00962140
_ZN2al12EffectSystem13addCalcEffectEm = 0x00964fa0
_ZNK2al12EffectSystem21isHasRenderingEmitterEj = 0x00964fc0
_ZN2al12EffectSystem18checkCalculateFlagEi = 0x00965050
_ZN2al11EffectLight3setERKN4sead7Vector3IfEEfRKNS1_7Color4fEb = 0x00967500
_ZN2al20MultiCoreQueueThread14requestExecuteEPNS_22MultiCoreQueueExecutorE = 0x0096acc0
_ZN2al18killLayoutIfActiveEPNS_11LayoutActorE = 0x0096e0c0
_ZN2al9calcTransEPN4sead7Vector3IfEEPKNS_10IUseLayoutE = 0x0096e0f0
_ZN2al13getLocalTransEPKNS_10IUseLayoutE = 0x0096e140
_ZN2al13setLocalTransEPNS_10IUseLayoutERKN4sead7Vector3IfEE = 0x0096e170
_ZN2al13setLocalTransEPNS_10IUseLayoutERKN4sead7Vector2IfEE = 0x0096e1c0
_ZN2al13setLocalScaleEPNS_10IUseLayoutEf = 0x0096e210
_ZN2al14getGlobalAlphaEPKNS_10IUseLayoutEPKc = 0x0096e4e0
_ZN2al17setPaneLocalTransEPNS_10IUseLayoutEPKcRKN4sead7Vector2IfEE = 0x0096e530
_ZN2al17setPaneLocalTransEPNS_10IUseLayoutEPKcRKN4sead7Vector3IfEE = 0x0096e590
_ZN2al18setPaneLocalRotateEPNS_10IUseLayoutEPKcRKN4sead7Vector3IfEE = 0x0096e600
_ZN2al17setPaneLocalScaleEPNS_10IUseLayoutEPKcRKN4sead7Vector2IfEE = 0x0096e670
_ZN2al16setPaneLocalSizeEPNS_10IUseLayoutEPKcRKN4sead7Vector2IfEE = 0x0096e6d0
_ZN2al17setPaneLocalAlphaEPNS_10IUseLayoutEPKcf = 0x0096e730
_ZN2al17getPaneLocalTransEPKNS_10IUseLayoutEPKc = 0x0096e790
_ZN2al16getPaneLocalSizeEPN4sead7Vector2IfEEPKNS_10IUseLayoutEPKc = 0x0096e7e0
_ZN2al17getPaneLocalScaleEPKNS_10IUseLayoutEPKc = 0x0096e840
_ZN2al19showPaneNoRecursiveEPNS_10IUseLayoutEPKc = 0x0096e930
_ZN2al19hidePaneNoRecursiveEPNS_10IUseLayoutEPKc = 0x0096e980
_ZN2al10isHidePaneEPKNS_10IUseLayoutEPKc = 0x0096e9d0
_ZN2al23showPaneRootNoRecursiveEPNS_10IUseLayoutE = 0x0096ea80
_ZN2al23hidePaneRootNoRecursiveEPNS_10IUseLayoutE = 0x0096eab0
_ZN2al14isHidePaneRootEPKNS_10IUseLayoutE = 0x0096eae0
_ZN2al11isExistPaneEPKNS_10IUseLayoutEPKc = 0x0096eb10
_ZN2al15getPaneChildNumEPKNS_10IUseLayoutEPKc = 0x0096ec20
_ZN2al18getPaneTextureInfoEPN2nn4ui2d11TextureInfoEPKNS_10IUseLayoutEPKc = 0x0096f690
_ZN2al14setPaneTextureEPNS_10IUseLayoutEPKcPKN2nn4ui2d11TextureInfoE = 0x0096f730
_ZN2al25updateLayoutPaneRecursiveEPNS_11LayoutActorE = 0x0096f7b0
_ZN2al14LayoutInitInfo4initEPNS_15ExecuteDirectorEPKNS_16EffectSystemInfoEPNS_14SceneObjHolderEPKNS_13AudioDirectorEPNS_14CameraDirectorEPNS_15SceneCameraInfoEPKNS_12LayoutSystemEPKNS_13MessageSystemEPKNS_13GamePadSystemEPNS_17PadRumbleDirectorE = 0x00970cf0
_ZN2al12LayoutKeeper4drawEv = 0x00971c80
_ZN2al17showPaneRecursiveEPN2nn4ui2d4PaneE = 0x009731c0
_ZN2al17hidePaneRecursiveEPN2nn4ui2d4PaneE = 0x00973210
_ZN2al22LayoutPartsActorKeeper6appearEv = 0x009733e0
_ZN2al22LayoutPartsActorKeeper4killEv = 0x00973430
_ZN2al22LayoutPartsActorKeeper6updateEv = 0x00973480
_ZN2al14LayoutResource15loadAllTexturesEPN2nn3gfx7TDeviceINS2_12ApiVariationINS2_7ApiTypeILi4EEENS2_10ApiVersionILi8EEEEEEE = 0x00973730
_ZN2al12LayoutSystemC1Ev = 0x00973be0
_ZN2al12LayoutSystemC2Ev = 0x00973be0
_ZN2al17calcMtxLocalTransEPN4sead7Vector3IfEERKNS0_8Matrix34IfEERKS2_ = 0x00978070
_ZN2al11preScaleMtxEPN4sead8Matrix34IfEERKNS0_7Vector3IfEE = 0x00978190
_ZN2al22addTransMtxLocalOffsetEPN4sead8Matrix34IfEERKS2_RKNS0_7Vector3IfEE = 0x009781f0
_ZN2al18calcMxtInvertOrthoEPN4sead8Matrix34IfEERKS2_ = 0x00978430
_ZN2al10MessageTagC2EPKDs = 0x0097aee0
_ZN2al10MessageTagC1EPKDs = 0x0097aee0
_ZN2al35calcMessageSizeWithoutNullCharacterEPKDsS1_ = 0x0097aff0
_ZN2al18copyMessageWithTagEPDsiPKDs = 0x0097b930
_ZNK2al11JointMtxPtr14getTranslationEPN4sead7Vector3IfEE = 0x0097c1d0
_ZNK2al11JointMtxPtr6copyToEPN4sead8Matrix34IfEE = 0x0097c240
_ZN2al13AudioInfoListINS_17OceanWavePlayInfoEE8sortInfoEv = 0x0097eac0
_ZN2al13AudioInfoListINS_13OceanWaveInfoEE8sortInfoEv = 0x0097ef30
_ZNK2al12ParameterObj7isEqualERKS0_ = 0x00986940
_ZN2al12ParameterObj4copyERKS0_ = 0x00986a40
_ZN2al12ParameterObj8copyLerpERKS0_S2_f = 0x00986af0
_ZN2al18ParamRequestInterpC2Ev = 0x00987000
_ZN2al18ParamRequestInterpC1Ev = 0x00987000
_ZN2al18ParamRequestInterp12updateInterpEv = 0x009871b0
_ZN2al18KaleidoscopeDrawerD2Ev = 0x00990cc0
_ZN2al18KaleidoscopeDrawerD1Ev = 0x00990cc0
_ZN2al26GraphicsParamRequesterImplC2EPN3agl3utl12IParameterIOEPKc = 0x00996cc0
_ZN2al26GraphicsParamRequesterImplC1EPN3agl3utl12IParameterIOEPKc = 0x00996cc0
_ZN2al16ScreenBlurDrawerD2Ev = 0x0099a140
_ZN2al16ScreenBlurDrawerD1Ev = 0x0099a140
_ZN2al10Projection9setOffsetERKN4sead7Vector2IfEE = 0x0099ea30
_ZN2al15ScreenCoverCtrl25requestCaptureScreenCoverEi = 0x0099eac0
_ZN2al26SeCategoryParamsController6moveToEPKNS_18SeCategoryInfoListEi = 0x0099f310
_ZN2al26SeCategoryParamsController6updateEv = 0x0099f3a0
_ZN2al26SeCategoryParamsController6linkToEPKS0_ = 0x0099f400
_ZN2al14AudioMixVolume6moveToEfi = 0x0099f4a0
_ZN2al14AudioMixVolume6updateEv = 0x0099f510
_ZNK2al14AudioMixVolume23calcLinkedVolumeDecibelEv = 0x0099f590
_ZN14alSeDbFunction19convertSeInputParamEN2al17SeInputFunctionIdEf = 0x009a1310
_ZN2al18SeEffectController8finalizeEv = 0x009a4590
_ZN2al18SeEffectController20releaseAllWorkBufferEv = 0x009a45c0
_ZN2al24DspLinearValueController12changeTargetEfi = 0x009a6240
_ZNK2al15SeEmitterHolder10getEmitterEi = 0x009a8de0
_ZN2al9SeEmitter6updateEv = 0x009a9420
_ZN2al10SeListener18calcListenerMatrixERKNS_16ISeListenerParamE = 0x009ab250
_ZNK2al16ISeListenerParam31calcLookAtDirNormFromViewMatrixEPN4sead7Vector3IfEE = 0x009ab940
_ZNK2al16ISeListenerParam27calcUpDirNormFromViewMatrixEPN4sead7Vector3IfEE = 0x009ab990
_ZN2al15SePlayParamList5resetEv = 0x009ac1d0
_ZN2al15SePlayParamList9setVolumeEf = 0x009ac2b0
_ZNK2al15SePlayParamList19findAvailableRecordEii = 0x009ac300
_ZN2al15SePlayParamList8setPitchEf = 0x009ac650
_ZN2al15SePlayParamList8setTempoEf = 0x009ac6a0
_ZN2al15SePlayParamList10setLpfFreqEf = 0x009ac6f0
_ZN2al15SePlayParamList16setLocalVariableEii = 0x009ac790
_ZNK2al15SePlayParamList19tryGetLocalVariableERii = 0x009ac7e0
_ZNK2al20InactiveSeListHolder20getInfoIfEqualSourceEPNS_15InactiveSeParamEiPNS_8SeSourceE = 0x009aec90
_ZN2al9SeRequest5pauseEv = 0x009af160
_ZNK2al9SeRequest17isFinishedPlayingEv = 0x009af5e0
_ZN2al15isExistSeKeeperEPKNS_15IUseAudioKeeperE = 0x009b5ec0
_ZN2al26updateSeMaterialBeyondWallEPNS_15IUseAudioKeeperEb = 0x009b6150
_ZN2al19resetSeMaterialNameEPKNS_15IUseAudioKeeperE = 0x009b61e0
_ZN2al13setSeModifierEPKNS_15IUseAudioKeeperEPNS_11ISeModifierE = 0x009b6590
_ZNK2al12ShaderHolder15getShadingModelEPKc = 0x009b8360
_ZNK2al12ShaderHolder19getShadingModelUberEPKc = 0x009b8500
_ZN2al25StageSwitchListenerHolder13requestChangeEib = 0x009b9510
_ZN2al23StageSwitchListenerList6updateEv = 0x009b97b0
_ZNK2al11TextureUnit4is2DEv = 0x009b9d40
_ZNK2al11TextureUnit4is3DEv = 0x009b9d80
_ZN5erepo7Manager8loadDataEjjjjPjS1_S1_Pf = 0x009bad50
_ZN5erepo7Manager8saveDataEPjS1_S1_S1_S1_S1_S1_Pf = 0x009bb100
_ZN5erepo8Reporter6reportERKN4sead12StringIdBaseILj4096ELj32ELj1936023908EjEE = 0x009bdf10
_ZN5erepo12SendDataBase4saveEPNS0_11ESendResultE = 0x009c1320
_ZN17CourseSelectDokan19activateImmediatelyEv = 0x0007e540
_ZN2al14tryInitAccountEv = 0x008cfab0
_ZN31CloudBonusLauncherBindPuppeteer11launchStartEf = 0x001fbbb0
_ZN2rc50tryFindNearestActivePlayerOrKoopaJrActorInCylinderEPKN2al9LiveActorEfff = 0x00431920
_ZN9KaronWing10receiveMsgEPKN2al9SensorMsgEPNS0_9HitSensorES5_ = 0x000e5480
_ZN21ItemStateAssistRotate7exeLerpEv = 0x00261110
_ZN2al14tryStartActionEPNS_9LiveActorEPKc = 0x008327e0
_ZN4sead13ControllerMgrC1ERKNS_16TaskConstructArgE = 0x00735c80
_ZN4sead13ControllerMgrC2ERKNS_16TaskConstructArgE = 0x00735c80
_ZN2al12faceToTargetEPNS_9LiveActorERKN4sead7Vector3IfEE = 0x0083dd90
_ZN8FairyMii7exeMoveEv = 0x002f7360
_ZNK2al19CameraParamTransfer16tryTransferParamEPNS_14CameraPoser_RSES2_ = 0x0091d070
_ZN17PlayerEntryPlayer13startDecisionEv = 0x0018bbb0
_ZN13TuccondorBase19tryRequestPressDownEPKN2al9SensorMsgEPNS0_9HitSensorES5_b = 0x0012f790
_ZN3eui33IteratePaneForSetupPaneAfterBuildEPN2nn4ui2d4PaneEPNS_8LayoutExE = 0x007e28b0
_ZN2al15SeRequestKeeper22findIdAndSetIsPlayNextEN4sead10OffsetListINS_9SeRequestEE8iteratorE = 0x009ad120
_ZN16alPlayerFunction13isPlayerActorEPKN2al9LiveActorE = 0x0088e2f0
_ZN15NpcTargetFinderC2EPN2al9LiveActorEPK20NpcTargetFinderParam = 0x00310020
_ZN15NpcTargetFinderC1EPN2al9LiveActorEPK20NpcTargetFinderParam = 0x00310020
_ZN11PlayerActor15restartOnGroundERKN4sead7Vector3IfEE = 0x0036b280
_ZN2al11NfpDirector14executeCommandEPN4sead6ThreadEl = 0x00881c50
_ZN19DarkBowserShellSpinC1EP10DarkBowserRKN2al13ActorInitInfoE = 0x0001f530
_ZN19DarkBowserShellSpinC2EP10DarkBowserRKN2al13ActorInitInfoE = 0x0001f530
_ZN15SingleModeScene14handleGameOverEv = 0x003e9b20
_ZN2al10tryGetBymlEPKNS_8ResourceERKN4sead14SafeStringBaseIcEE = 0x008a0770
_ZN4sead17PrimitiveDrawUtil13setDiskVertexEPNS0_6VertexEPti = 0x0071d0a0
_ZN2al20SeSourcePose3DMtxPtrC2EPKN4sead8Matrix34IfEE = 0x009b24e0
_ZN2al20SeSourcePose3DMtxPtrC1EPKN4sead8Matrix34IfEE = 0x009b24e0
_ZN15PlayerBoomerang8tryCatchEv = 0x0037b490
_ZN18KoopaFireBallGiant16updateConnectionEv = 0x002706d0
_ZN3agl3utl14INamedObjIndex4bindEPNS0_12INamedObjMgrE = 0x007ca1c0
_ZN8WaveGrid14InitRenderDataERNS_10RenderDataE = 0x0028e500
_ZN2al25initJointSpringControllerEPKNS_9LiveActorEPKc = 0x008166d0
_ZN2rc20isEnableTouchPointerEPKN2al9LiveActorE = 0x00222b70
_ZN2al10SeDataBaseC2EPKcPNS_15SeadAudioPlayerES2_ = 0x0099f630
_ZN2al10SeDataBaseC1EPKcPNS_15SeadAudioPlayerES2_ = 0x0099f630
_ZN19PackunFlowerWithPot4initERKN2al13ActorInitInfoE = 0x00105dd0
_ZN2al15DepthShadowClipC2EPKNS_18GraphicsSystemInfoE = 0x008bdde0
_ZN2al15DepthShadowClipC1EPKNS_18GraphicsSystemInfoE = 0x008bdde0
_ZN2al15stopSequenceBgmEPKNS_15IUseAudioKeeperEPKci = 0x008efbf0
_ZN2rc28findNearestActivePlayerActorEPKN2al9LiveActorE = 0x00431b30
_ZN2al19StageSwitchAccesser4initEPNS_19StageSwitchDirectorEPKcRKNS_11PlacementIdEb = 0x008cbf00
_ZN25ActorStateDemoCameraProtoC1EPN2al9LiveActorERKNS0_13ActorInitInfoEPKciib = 0x001ce2e0
_ZN25ActorStateDemoCameraProtoC2EPN2al9LiveActorERKNS0_13ActorInitInfoEPKciib = 0x001ce2e0
_ZN2al18SeCategoryNameListC1EPPKci = 0x0099f060
_ZN2al18SeCategoryNameListC2EPPKci = 0x0099f060
_ZN2al14ResourceSystem15isCategoryAddedERKN4sead14SafeStringBaseIcEE = 0x008a0e70
_ZN19GhostPlayerDirectorC1EPKN2al18IUseSceneObjHolderERKNS0_13SceneInitInfoEPNS0_15ExecuteDirectorEPNS0_12PlayerHolderEPK14GameDataHolder = 0x002e71c0
_ZN19GhostPlayerDirectorC2EPKN2al18IUseSceneObjHolderERKNS0_13SceneInitInfoEPNS0_15ExecuteDirectorEPNS0_12PlayerHolderEPK14GameDataHolder = 0x002e71c0
_ZN15SingleModeScene20checkDemoIntroChangeEb = 0x003e9e60
_ZN2al14createInfoListINS_22AudioEachBusEffectInfoEEEPNS_13AudioInfoListIT_EERKNS_9ByamlIterE = 0x009a7750
_ZN2al19getProjectionMtx_RSEPKNS_13IUseCamera_RSEi = 0x00929c90
_ZN3eui22FrameBufferMultiFilter32applyTextureDataToWindowMaterialEPNS_8WindowExEPN2nn4ui2d11TextureInfoEPKN3agl11TextureDataERKNS_10DrawInfoExE = 0x007e6ea0
_ZN16BobsledDashPanelC1EPKc = 0x001e5d30
_ZN21SingleModeSceneLayoutC1ERKN2al14LayoutInitInfoEP14GameDataHolderPKcPK15GreenStarKeeperPKNS0_12PlayerHolderEPK18PlayerAliveWatcherP19ProjectItemDirector = 0x00197850
_ZN9IslandMap14exeSnapToPointEv = 0x001754e0
_ZNK2al15SeEmitterHolder11findEmitterEPKc = 0x009a8d50
_ZN2al19LightStreakDirectorD2Ev = 0x008981e0
_ZN2al19LightStreakDirectorD1Ev = 0x008981e0
_ZN15DrcTouchCheckerC1EPN2al15SceneCameraInfoE = 0x00223300
_ZN15DrcTouchCheckerC2EPN2al15SceneCameraInfoE = 0x00223300
_ZN4nerd4sqrtEf = 0x00722d30
_ZN17ShadowMarioPlayer4initERKN2al13ActorInitInfoE = 0x0013b3d0
_ZN11BlockChoice13appearItemAllEb = 0x001dd560
_ZN20PlayerActionTypeFunc15isHipDropActionEPK17PlayerActionGraphb = 0x00357f50
_ZN19ClimbHandleMapPartsC1EPKc = 0x001f8b80
_ZN2al23updateMaterialCodeWaterEPNS_9LiveActorEbb = 0x0083a220
_ZN26CourseSelectStateClearDemo6appearEv = 0x0009a110
_ZN14PlayerAnimator12startSubAnimERKN4sead14SafeStringBaseIcEE = 0x00374c60
_ZN17ShardCounterParts11updateCountEi = 0x001471d0
_ZN2al30findOrCreateResourceSystemDataEPKcS1_ = 0x008a02e0
_ZN2rc17doGigaHitReactionEPKN2al9LiveActorEPKc = 0x0042b100
_ZN3agl6detail9FileIOMgr4saveERKN4sead11XmlDocumentERKNS1_9DialogArgEj = 0x00780370
_ZN2al27isExistSePlayNameInUserInfoEPKNS_15IUseAudioKeeperEPKc = 0x009b63f0
_ZN6Shards13exeDemoAppearEv = 0x002b5380
_ZN10PlayReport7AddItemEPcf = 0x003b72c0
_ZN2al11StressParam6interpERKS0_S2_f = 0x00801700
_ZN9SuperLeafC1EPKcP10ItemBubble = 0x002c3870
_ZN2al23setCameraCalcTargetFlagEPKNS_9LiveActorEb = 0x00914d50
_ZN18PlayerGigaDirector6updateEv = 0x003944a0
_ZN3agl3utl12INamedObjMgr19constructListByNameEb = 0x007cead0
_ZN4sead7TaskMgr13doCreateTask_ERKNS_8TaskBase9CreateArgEPNS_9HeapArrayE = 0x00717360
_ZN17DrcAssistDirector19calcJoyConDiffAngleEv = 0x00221980
_ZN3agl3utl14PrimitiveShape21setupVtxBufferCapsuleEPNS_12VertexBufferENS_10GPUMemAddrINS1_6VertexEEEjjj = 0x0077a510
_ZN10ProminenceC1EPKc = 0x0010ea00
_ZN7Kyuppon13tryStartSwoonEv = 0x00034e30
_ZN4sead7TaskMgr14createTaskSyncERKNS_8TaskBase9CreateArgE = 0x00717010
_ZN2rc28isGuideGameWindowWaitConfirmEPKN2al18IUseSceneObjHolderE = 0x00172900
_ZN4sead13ControllerMgr7prepareEv = 0x00735cd0
_ZN8WarpCube9exeAppearEv = 0x002ddeb0
_ZN2al30CameraVerticalAbsorber2DGalaxyC1Ev = 0x009009f0
_ZN2al30CameraVerticalAbsorber2DGalaxyC2Ev = 0x009009f0
_ZN2al19setPaneStringLengthEPNS_10IUseLayoutEPKcPKDsttj = 0x0096eca0
_ZNK3agl3sdw4SSAO9drawBlur_EPNS_11DrawContextEiii = 0x0079f7a0
_ZN21KinopioBrigadeWatcherC1EPKc = 0x0026bd80
_ZN2al10calcRate01Efff = 0x0086ac10
_ZN16PlayerActionFunc19setupSquatStartAnimEP18IUsePlayerAnimatorPKc = 0x00324300
_ZN17BallStateFunction15calcRotateSpeedEPN2al9LiveActorERKN4sead7Vector3IfEE = 0x001d8180
_ZN10CameraIconC1ERKN2al14LayoutInitInfoEb = 0x00166050
_ZN10HammerBros4initERKN2al13ActorInitInfoE = 0x000e0180
_ZN2rc20isPlayerDeadOrBubbleEPKN2al9LiveActorEi = 0x0042d640
_ZN23CourseSelectDokanHolderC2Ev = 0x0007ed80
_ZN23CourseSelectDokanHolderC1Ev = 0x0007ed80
_ZN3agl3pfx15ColorCorrectionC2Ev = 0x00793060
_ZN3agl3pfx15ColorCorrectionC1Ev = 0x00793060
_ZN2al7BgmLine6updateEv = 0x008e97a0
_ZN2al32GraphicsParamRequestInterpKeeperINS_15ShadowMaskParamEEC2EPNS_18GraphicsSystemInfoEiPKcS6_S6_ = 0x008c5800
_ZN11SuperBowser36plessieChaseUpdateTorpedoSpikeAttackEv = 0x00040ca0
_ZN15GreenStarKeeperC2Ev = 0x00257fc0
_ZN15GreenStarKeeperC1Ev = 0x00257fc0
_ZN22inputdevice_controller16getDRCMoveButtonEj = 0x001c8ee0
_ZN2rc23cancelAllPlayersForDemoEPN2al9LiveActorE = 0x00433d90
_ZN17DrcAssistDirector18setJoyConBaseAngleERKN4sead7Vector2IfEE = 0x00221510
_ZN13SamboSnowHeadC1EPKc = 0x001156f0
_ZN2al20ShaderMirrorDirectorC1EPNS_18GraphicsSystemInfoEPNS_12LiveActorKitE = 0x008b4cf0
_ZN2al20ShaderMirrorDirectorC2EPNS_18GraphicsSystemInfoEPNS_12LiveActorKitE = 0x008b4cf0
_ZN2al18AudioResourceLayerC1EPNS_20IAudioResourceLoaderEi = 0x008dfe20
_ZN2al18AudioResourceLayerC2EPNS_20IAudioResourceLoaderEi = 0x008dfe20
_ZN10NekoParent19tryStartDemoCollectEv = 0x0030afb0
_ZN15BoomerangFlowerC1EPKcP10ItemBubbleb = 0x001e61c0
_ZN15alModelFunction23isShaderAssignAlphaMaskEPKN2nn3g3d11MaterialObjE = 0x00879440
_ZN3agl15VertexAttributeC2Ev = 0x00766780
_ZN3agl15VertexAttributeC1Ev = 0x00766780
_ZN2al21startSklAnimInterpoleEPNS_9LiveActorEPKcS3_ = 0x00833630
_ZN2al23DeferredRenderingShpUboC1EPKN2nn3g3d15ResShadingModelEPKNS2_16ResShaderProgramEi = 0x008ac6b0
_ZN2al23DeferredRenderingShpUboC2EPKN2nn3g3d15ResShadingModelEPKNS2_16ResShaderProgramEi = 0x008ac6b0
_ZN10NekoParent20updateTryCollectNekoEb = 0x0030a700
_ZN2al32initCreateActorWithPlacementInfoEPNS_9LiveActorERKNS_13ActorInitInfoERKNS_13PlacementInfoE = 0x00838cb0
_ZN10NekoNormal16exeFollowJumpEndEv = 0x00306970
_ZN2al11convergeVecEPN4sead7Vector3IfEERKS2_S5_f = 0x0086b0e0
_ZN8GoalPole22startGoalPoseNpcActionEv = 0x0024b6a0
_ZNK2al14BlockRailRider7calcDirEPN4sead7Vector3IfEE = 0x008f40d0
_ZN2rc17declareIllustItemEPKN2al9LiveActorE = 0x0025b320
_ZNK21CourseSelectMiniature14isKinopioHouseEv = 0x00082620
_ZN11DemoObjBase7exePlayEv = 0x000a2f20
_ZN11PlayerActor8movementEv = 0x00364eb0
_ZN2al26GraphicsParamRequesterImpl12requestParamEiiPv = 0x00996e40
_ZN16BossBunretsuCore11exeBlowDownEv = 0x000bec10
_ZN2al20ShaderMirrorDirector14startRenderingEv = 0x008b6040
_ZN13FairyPrincess24initFairyWithArchiveNameERKN2al13ActorInitInfoEPKcS5_ = 0x002f8210
_ZN3agl3pfx10HDRComposeC2Ev = 0x007e0140
_ZN3agl3pfx10HDRComposeC1Ev = 0x007e0140
_ZN3agl13ShaderProgram15VariationBufferD2Ev = 0x00762a70
_ZN3agl13ShaderProgram15VariationBufferD1Ev = 0x00762a70
_ZN2al20checkStrikeArrowCoreEPNS_20ArrowHitResultBufferERKN4sead5TListIPNS_14CollisionPartsEEERKNS_14ArrowCheckInfoE = 0x00939f70
_ZNK16BossBunretsuCore12isAttackableEv = 0x000bd890
_ZNK13ListClearStar14isInTransitionEv = 0x001795a0
_ZN15BoxKillerBullet8startFlyEifb = 0x001ea0a0
_ZN2al16findResourceYamlEPKNS_8ResourceEPKcS4_ = 0x008a0420
_ZN19RaidonSurfAnimState10playSplashEv = 0x003c8500
_ZN4sead7TaskMgr11createHeap_EPNS_9HeapArrayERKNS_8TaskBase9CreateArgE = 0x00716e70
_ZN6PunpunC1EPKc = 0x00036960
_ZN14EnemyStateUtil18tryRequestBlowDownEPKN2al9SensorMsgEPNS0_9HitSensorES5_P18EnemyStateBlowDownb = 0x000d2820
_ZN18CourseInfoFunction30isClearFlagTopCourseInfoHolderEPK16CourseInfoHolder22GameDataHolderAccessori = 0x0040edb0
_ZN5erepo7Manager13setLoadFinishEv = 0x009bb050
_ZN2al12LayoutKeeper18reinitializeShaderEv = 0x009717a0
_ZN2al10MeshDrawer17createDisplayListEPNS_15GpuMemAllocatorENS0_26RENDER_STATE_ACTIVATE_TYPEENS0_21TEXTURE_ACTIVATE_TYPEENS0_22MATERIAL_ACTIVATE_TYPEEb = 0x00875330
_ZN3eui14ArcResourceMgr33finalizeInitializedShaderResourceEPv = 0x007fdee0
_ZN2al27ClippingAreaActorViewHolderC2EiPNS_20MultiCoreQueueThreadEPKNS_15AreaObjDirectorE = 0x0092fdd0
_ZN2al27ClippingAreaActorViewHolderC1EiPNS_20MultiCoreQueueThreadEPKNS_15AreaObjDirectorE = 0x0092fdd0
_ZN2al19pushAndAddVelocityHEPNS_9LiveActorEPKNS_9HitSensorES4_f = 0x0084cc60
_ZN10RaidonSurf22updateWaterPosVelocityEfff = 0x003c39a0
_ZN15EnemyAttachItemC1EPN2al9LiveActorEPKcS4_iPKN4sead7Vector3IfEEPKNS5_8Matrix34IfEERS8_b = 0x000cfd00
_ZNK2al9AreaShape9calcTransEPN4sead7Vector3IfEE = 0x008dc570
_ZNSt3__127__insertion_sort_incompleteIRN2nn3vfx6detail19SortCompareViewInvZINS3_8SortDataEEEPS5_EEbT0_S9_T_ = 0x006e9b60
_ZN2al20GyroCameraController16updateGyroParamsERKN4sead12LookAtCameraEffb = 0x00915e90
_ZN4sead14MathCalcCommonIfE8atan2IdxEff = 0x00735830
_ZN2al19SeWaitingListKeeperC2Ev = 0x009b6ec0
_ZN2al19SeWaitingListKeeperC1Ev = 0x009b6ec0
_ZN3agl4lght12LightPrePass17updateSpecPowTex_Ev = 0x007a5fa0
_ZN2al9EffectObj7controlEv = 0x00883740
_ZN4sead9FrameworkC2Ev = 0x00713410
_ZN2al11GodRayParam6interpERKS0_S2_f = 0x008901c0
_ZN18BlockStateHeadgearC2EPN2al9LiveActorERKNS0_13ActorInitInfoEi = 0x001e3150
_ZN18BlockStateHeadgearC1EPN2al9LiveActorERKNS0_13ActorInitInfoEi = 0x001e3150
_ZN19RaidonSurfAnimState11requestIdleEv = 0x003cabf0
_ZN7preport17PlayReportManager10InitializeEP14GameDataHolderi = 0x003b9130
_ZNK2al23ActorPrePassLightKeeper12getLightBaseEPKc = 0x00821f80
_ZN16MicInputSePlayerC1EPN2al13AudioDirectorE = 0x00001660
_ZN16MicInputSePlayerC2EPN2al13AudioDirectorE = 0x00001660
_ZN10RosettaNpcC1EPKcRKN2al13ActorInitInfoE = 0x00316cc0
_ZN2al5SceneC2EPKc = 0x008a3f70
_ZN2al5SceneC1EPKc = 0x008a3f70
_ZN20DemoSceneActorPlayer9startDemoERKN4sead8Matrix34IfEE = 0x000a65b0
_ZN3agl4proc3LUT29listenPropertyEventParametersEPN4sead6hostio10ReflexibleEPKNS3_13PropertyEventE = 0x00795380
_ZN3agl6detail10MemoryPool10initializeEPvmRKNS0_14MemoryPoolTypeERKS1_i = 0x00758880
_ZN13SnapshotStateC2EP14SnapshotLayoutPN2al5SceneEP21DrcAssistDirectorListPN2rc13StampDirectorEP18PlayerAliveWatcher = 0x003f03c0
_ZN13SnapshotStateC1EP14SnapshotLayoutPN2al5SceneEP21DrcAssistDirectorListPN2rc13StampDirectorEP18PlayerAliveWatcher = 0x003f03c0
_ZN14PlayerCollider10moveSimpleEb = 0x0037d2a0
_ZN2al19BlockRailPartsGroup4initERKNS_13ActorInitInfoE = 0x008f3770
_ZN2al15OceanWaveKeeper4initEPKcRNS_9ByamlIterE = 0x0097e480
_ZN15IslandWarpState6appearEv = 0x003d5120
_ZNK24ItemStatePlayerHoldParam16getPlayerHoldPosEPKN2al9HitSensorE = 0x00262760
_ZN2rc37tryFindActivePlayerActorFirstByUserIdEPKN2al9LiveActorEi = 0x00432a00
_ZN12GigaBellItem15stopForCutsceneEv = 0x0015c080
_ZNK3agl14TextureSampler9initRegs_Ej = 0x00765ce0
_ZThn192_N2nn3atk6detail6driver15WaveSoundPlayer14InvalidateDataEPKvS5_ = 0x006716f0
_ZN17SwitchRotateParts15initFromWatcherEPKN4sead8Matrix34IfEERS3_ = 0x002c63e0
_ZNK3eui23TwoTouchCheckKeepButton18GetRuntimeTypeInfoEv = 0x007fa2f0
_ZN15SplatterPlotter16updatePlotPointsEv = 0x002bd870
_ZN10RaidonSurf6exeDieEv = 0x003c61c0
_ZN10IslandFlag15setScenarioAnimEv = 0x0025ba90
_ZN22DisasterModeController8initFlowEv = 0x0020ce10
_ZN2al10EdgeDrawerD2Ev = 0x00984d30
_ZN2al10EdgeDrawerD1Ev = 0x00984d30
_ZN26PlayerActionWallClimbSlide12controlSlideEv = 0x0035dcc0
_ZN4sead19AudioFxReverbStdNin16AssignWorkBufferEPvj = 0x00755170
_ZN21CourseSelectPuppeteer19startRocketDemoWarpEv = 0x0008bee0
_ZN23ListClearStarFairyParts7setShowEii = 0x00179950
_ZN13ItemStockTray9exeAppearEv = 0x00143cc0
_ZN10GameSystem17tryChangeSequenceEPKc = 0x00418a00
_ZN11SuperBowser17doPlessieChaseHitEb = 0x0003e120
_ZN2al13RequestInterpINS_8HdrParamEE12updateInterpEv = 0x008971b0
_ZN3agl3pfx11FlareFilter10initializeEiPN4sead4HeapE = 0x00797960
_ZN15SingleModeScene21decidePlayerPlacementEv = 0x003e8260
_ZN15DarkBowserLaser11calcTargetsEv = 0x0001c680
_ZN11SuperBowser16squareUpToPlayerEv = 0x00043720
_ZN20LookAtPointInterpole13updatePlayingEv = 0x00283760
_ZNK3agl14TextureSampler8activateEPNS_11DrawContextERKNS_14ShaderLocationEib = 0x00765bf0
_ZN18WaterAreaMoveModel9updateUboEPN2al9LiveActorEb = 0x002e16a0
_ZN8Pukupuku11exeSwimWaitEv = 0x0010fd00
_ZN19ItemStatePopUpFront8setParamERK24ItemStatePopUpFrontParamPKN2al9HitSensorE = 0x00263ef0
_ZN3eui10AnimButton9StartDownEv = 0x007f4770
_ZN2al32ModelAdditionalInfoRenderCubeMapC1EPKNS_18GraphicsSystemInfoE = 0x0087cb50
_ZN2al32ModelAdditionalInfoRenderCubeMapC2EPKNS_18GraphicsSystemInfoE = 0x0087cb50
_ZN2al16ActorParamHolderC2EPNS_9LiveActorE = 0x008d4780
_ZN2al16ActorParamHolderC1EPNS_9LiveActorE = 0x008d4780
_ZN3agl3utl14PrimitiveShape18setupVtxBufferConeEPNS_12VertexBufferENS_10GPUMemAddrINS1_6VertexEEEjj = 0x0077afc0
_ZN18DokanBindPuppeteer4warpEiib = 0x0021ae60
_ZN22inputdevice_controller5IsDRCEj = 0x001c94c0
_ZN3eui16BoxCursorControl17selectActiveNode_Ev = 0x007f6260
_ZNK3agl4lght12LightPrePass20applyGraphicsContextEPNS_11DrawContextERKNS1_11CallbackArgEbb = 0x007a73d0
_ZNK11SuperBowser25findSpawnClosestUnlimitedEN4sead7Vector3IfEEb = 0x000465f0
_ZN2rc34tryStartFromObjGhostPlayerRecorderEPKN2al18IUseSceneObjHolderEPKNS0_11PlacementIdE = 0x002e97c0
_ZN28PlayerActionStandSwimSurfaceC2EPK15PlayerActionArgPK20PlayerFigureDirectorPK24IUsePlayerWaterFlowFieldPK26IUsePlayerWaterSurfaceInfoP21IUsePlayerForwardBentPK19IUsePlayerCheckAreaPK20IUsePlayerCharaQueryP13PlayerTrigger = 0x00353840
_ZN28PlayerActionStandSwimSurfaceC1EPK15PlayerActionArgPK20PlayerFigureDirectorPK24IUsePlayerWaterFlowFieldPK26IUsePlayerWaterSurfaceInfoP21IUsePlayerForwardBentPK19IUsePlayerCheckAreaPK20IUsePlayerCharaQueryP13PlayerTrigger = 0x00353840
_ZN18BlockRouletteStateC2EPN2al9LiveActorERKNS0_13ActorInitInfoE = 0x001e17a0
_ZN18BlockRouletteStateC1EPN2al9LiveActorERKNS0_13ActorInitInfoE = 0x001e17a0
_ZN10DarkBowser15createCutscenesERKN2al13ActorInitInfoE = 0x00010e50
_ZN11ScoreNumber10startScoreEiji = 0x00196fc0
_ZNK3agl13ShaderProgram18setUpForVariation_Ev = 0x00761f50
_ZN2al8getTransEPN4sead7Vector3IfEERKNS_13PlacementInfoE = 0x00889dd0
_ZN2al12CameraShaker18startShakeByStringEPKc = 0x00913220
_ZN2al18PadTouchController11gatherInputEv = 0x00952cd0
_ZN2al22CameraPoserProgramableC1EPKNS_11PlacementIdE = 0x0090eb70
_ZN2al22CameraPoserProgramableC2EPKNS_11PlacementIdE = 0x0090eb70
_ZN2al8Collider14findCollidePosEPiPNS_18SphereInterpolatorEPNS_13SphereHitInfoEj = 0x00936490
_ZN10OceanWater22initReflectionFromYamlEPKcR9OceanDataRKN2al9ByamlIterE = 0x00294750
_ZN2al12ShaderHolder21initAndLoadAllFromDirEPKcPN4sead4HeapE = 0x009b7cd0
_ZNK2al10WipeSimple15getWipeFrameNumEv = 0x008891b0
_ZN6Teresa13exeShyEndSignEv = 0x0012ab90
_ZN3agl3sdw13ShadowFrustum23appendIntersectionPointEPNS1_8PolytopeE = 0x007d9640
_ZN13DisasterSpike9tryAppearEb = 0x00213950
_ZN23CourseSelectSceneLayout19updateMainGroupAnimEv = 0x0016e8c0
_ZN26WalkerStateFindPlayerParamC2Ev = 0x00133850
_ZN26WalkerStateFindPlayerParamC1Ev = 0x00133850
_ZN19BlockAssistFunction26isBlockAssistSetStartPointEPK15BlockAssistLeaf = 0x001db6f0
_ZN15alCollisionUtil21checkStrikeSphereMoveEPKN2al13IUseCollisionEPNS_17SphereMoveHitInfoEiRKN4sead7Vector3IfEEfSA_PKNS0_24CollisionPartsFilterBaseEPKNS0_18TriangleFilterBaseE = 0x0093ecd0
_ZN17RouteDokanBazooka8exeReadyEv = 0x002ac450
_ZN15FrameOutCheckerC1EPKc = 0x00234380
_ZNK21DisasterSpikeDirector27calcSpikeNoFallRadiusTargetEv = 0x00151dc0
_ZN2al45calcDistanceCurrentKeyRotateCenterToBoxCenterEPKNS_21RollingCubePoseKeeperE = 0x0081c110
_ZN10DarkBowser17createChildActorsERKN2al13ActorInitInfoE = 0x00011340
_ZNK23PlayerAliveWatcherGroup19calcActivePlayerNumEv = 0x00371d20
_ZN17CourseSelectScene20setNameplatesVisibleEb = 0x00095ed0
_ZN2al31activateUniformBlockAssignArrayERKNS_23UniformBlockAssignArrayE = 0x008aede0
_ZN14DemoSceneActor4initERKN2al13ActorInitInfoE = 0x000a4780
_ZN2al19ActorPoseKeeperBase8copyPoseEPKS0_ = 0x0083e6e0
_ZN2al17ScreenPointTarget16validateBySystemEv = 0x008a7a90
_ZN23StageSceneStateGameOver7exeMissEv = 0x003f7640
_ZN19AssistSlideMapParts6exeOffEv = 0x001d0780
_ZN19RaidonSurfAnimStateC1EPKcP10RaidonSurf = 0x003c7dd0
_ZN19RaidonSurfAnimStateC2EPKcP10RaidonSurf = 0x003c7dd0
_ZN13ShardsWatcher14setGoalitemPosEv = 0x002b6390
_ZN2rc17getItemTypeByNameEPKc = 0x00427fc0
_ZN2al21initHitReactionKeeperEPNS_9LiveActorEPKc = 0x00836670
_ZN10MeraWanwan9emitTrackEv = 0x000fc210
_ZN21DisasterSpikeDirector13trySpawnSpikeEv = 0x00154620
_ZN2al24ActorCollisionController6updateEv = 0x00941ba0
_ZN20PlayerUprightMtxCalc6updateEf = 0x003b4630
_ZN16SuperBowserShell9stopAllSeEv = 0x00055170
_ZNK2al25ModelAnimInterpInfoHolder14getInterpFrameEPKcS2_ = 0x008d8f50
_ZNK18OceanWaterIndirect12bindTexturesEPKN3agl13ShaderProgramE = 0x0029d300
_ZN2rc17getEffectCodeNameEPKcS1_ = 0x00434150
_ZN20SuperBowserHealthBarC1EPKN2al9LiveActorERKNS0_14LayoutInitInfoEPFfS3_ENS_13HealthBarTypeEPKN4sead8Matrix34IfEESE_ff = 0x00049320
_ZN3eui10MessageMgr10initializeEPN4sead4HeapEj = 0x007ec260
_ZNK22ProductStageStartParam16getStageDataNameEv = 0x003fdc50
_ZN3eui11AnimatorSet11allocBufferEjPN4sead4HeapE = 0x007ef550
_ZN37SuperBowserPlessieChaseFireFlameState18calcSweepShootInfoEv = 0x00051240
_ZN3eui9TextBoxEx24createLetterAnimControl_EPN2nn4util13IntrusiveListINS_11ControlBaseENS2_29IntrusiveListMemberNodeTraitsIS4_XadL_ZNS4_6m_LinkEEES4_Lm40EEEEEPNS_8LayoutExE = 0x007e98c0
_ZN20PlayerGroundFollower12followGroundEP14PlayerPropertyPN4sead7Vector3IfEES5_S5_PKN2al14CollisionPartsE = 0x00394b00
_ZN22WalkerStateWanderParamC1Ev = 0x00135c60
_ZN22WalkerStateWanderParamC2Ev = 0x00135c60
_ZN4Bush18initWithColorFrameERKN2al13ActorInitInfoEiPKc = 0x001ee2e0
_ZN2al15CameraInterpole36startCameraSwitchSuperbAreaInterpoleERKN4sead12LookAtCameraES4_i = 0x009054f0
_ZN2al18SeEffectController4initEPNS_15SeadAudioPlayerES2_PKNS_19AudioEffectDataBaseE = 0x009a34e0
_ZN15StockBlurEffect5startEN4sead7Vector3IfEES2_ = 0x0019cf20
_ZN22DisasterModeController16updateBgmRequestEv = 0x0020d3e0
_ZN3agl3utl21VertexAttributeHolderC2Ev = 0x0077e730
_ZN3agl3utl21VertexAttributeHolderC1Ev = 0x0077e730
_ZN2al15normalizeOrZeroEPN4sead7Vector3IfEE = 0x00869d00
_ZN2al21ModelDrawerInvincibleC2EPKc = 0x008783e0
_ZN2al21ModelDrawerInvincibleC1EPKc = 0x008783e0
_ZN23PlayerActionHipDropJumpC1EP22PlayerActionAirMoveArgP20PlayerContinuousJumpPK32IUsePlayerHorizontalSpeedAveragePK20IUsePlayerActualMovePK14IUsePlayerFlagSC_ = 0x00341f00
_ZN23PlayerActionHipDropJumpC2EP22PlayerActionAirMoveArgP20PlayerContinuousJumpPK32IUsePlayerHorizontalSpeedAveragePK20IUsePlayerActualMovePK14IUsePlayerFlagSC_ = 0x00341f00
_ZN2al18tryNormalizeOrZeroEPN4sead7Vector3IfEE = 0x0086a650
_ZN18IslandCounterPartsC1ERKN2al14LayoutInitInfoEPKcS5_PNS0_11LayoutActorES5_ = 0x00141f60
_ZN13KoopaGraffiti10createItemERKN2al13ActorInitInfoE = 0x00271650
_ZN2rc21isMsgAskControlUserIdEPKN2al9SensorMsgEPKNS0_9HitSensorE = 0x00436480
_ZN2al14ActionFlagCtrl5startEPKc = 0x008d3930
_ZN13DemoEffectObjC1EPKc = 0x000a1af0
_ZN3agl2fx10RadialBlurD2Ev = 0x007cf480
_ZN3agl2fx10RadialBlurD1Ev = 0x007cf480
_ZN11ButtonGroup16resetDestinationEPKcS1_S1_S1_S1_b = 0x001606d0
_ZNK3agl3sdw4SSAO14drawToAOBufferEPNS_11DrawContextEiiiRKNS_11TextureDataERKN4sead8Matrix34IfEERKNS7_8Matrix44IfEE = 0x0079e380
_ZNK3agl3utl23DynamicTextureAllocator8isValid_EPKNS1_7ContextE = 0x00769b30
_ZN2al17DeferredRendering8drawSSAOEiPNS_12GBufferArrayERKN4sead8Matrix34IfEERKNS3_8Matrix44IfEEN3agl10ShaderModeE = 0x0095a320
_ZN27ChikaChikaBlockSynchronizerC2Ev = 0x001f70b0
_ZN27ChikaChikaBlockSynchronizerC1Ev = 0x001f70b0
_ZN20TentackResourceParamC2EPKN2al9ByamlIterEi = 0x0005c6f0
_ZN20TentackResourceParamC1EPKN2al9ByamlIterEi = 0x0005c6f0
_ZN2al13ParameterList11tryGetParamERKNS_9ByamlIterE = 0x00986df0
_ZN16PlayerInkCheckerC2EPK11PlayerActorPK14PlayerPropertyPK16PlayerConstParamP16PlayerSimpleFlagb = 0x00396500
_ZN16PlayerInkCheckerC1EPK11PlayerActorPK14PlayerPropertyPK16PlayerConstParamP16PlayerSimpleFlagb = 0x00396500
_ZN2al16rotateQuatRadianEPN4sead4QuatIfEERKS2_RKNS0_7Vector3IfEEf = 0x0086d140
_ZNK2al25CollisionPartsKeeperArray16checkStrikeArrowEPNS_20ArrowHitResultBufferERKNS_14ArrowCheckInfoE = 0x0093adb0
_ZN2al17ActorActionKeeper9tryCreateEPNS_9LiveActorEPKcS4_ = 0x008d2600
_ZN19RaidonSurfWaitState10receiveMsgEPKN2al9SensorMsgEPNS0_9HitSensorES5_ = 0x003cbcb0
_ZNK10MeraWanwan14isEnableAttackEv = 0x000fb230
_ZN15NpcTargetFinder10changeHostEPN2al9LiveActorEPKcPK22IUseTargetFinderFilter = 0x00310160
_ZN2al15normalizeOrZeroEPN4sead7Vector2IfEE = 0x0086a3c0
_ZN14BossWackunBody9startDownERKN4sead7Vector3IfEE = 0x0000a160
_ZN11Application14createInstanceEPN4sead4HeapE = 0x0040b610
_ZN10gamescreen4initEv = 0x001cce30
_ZN19AssistSlideMapPartsC1EPKc = 0x001cfea0
_ZNK18PlayerAliveWatcher18calcDoubleMarioNumEv = 0x003702e0
_ZN11KuriboTowerC1EPKc = 0x000f1750
_ZN6Kuribo4initERKN2al13ActorInitInfoE = 0x000e9240
_ZN21CourseSelectPuppeteer22exeWorldWarpDokanStartEv = 0x0008cf40
_ZN3agl3utl13IParameterObj21applyResParameterObj_EbNS0_15ResParameterObjES2_fPNS0_14IParameterListE = 0x007725c0
_ZN9BlockHard13exeBreakStartEv = 0x001ded30
_ZN2rc18declareGreenStarIdEPKN2al9LiveActorEi = 0x002580f0
_ZN2al13GamePadSystem10setPadNameEhRKN4sead14SafeStringBaseIDsEE = 0x00947800
_ZN16PlayerActionFunc26calcSwimHorizontalVelocityEPN4sead7Vector3IfEEPK15IUsePlayerInputPK14PlayerPropertyPK19IUsePlayerCollisionbPK16PlayerConstParamb = 0x00323850
_ZN4sead9Framework10initializeERKNS0_13InitializeArgE = 0x00713620
_ZNK10NekoNormal9isRunAwayEv = 0x00301a40
_ZNK22DisasterModeController14isReadyForDemoEv = 0x0020cfe0
_ZN23CameraAngleVerticalCtrl32setRailAngleDegreeRangeAndInterpEffi = 0x000652a0
_ZN3agl6detail10MemoryPool8finalizeEv = 0x007589a0
_ZN19KoopaChaseBattleLv2C2EP10KoopaChaseRKN2al13ActorInitInfoE = 0x00025510
_ZN19KoopaChaseBattleLv2C1EP10KoopaChaseRKN2al13ActorInitInfoE = 0x00025510
_ZN10RaidonSurf13addSpawnPointERKN2al13ActorInitInfoE = 0x003bf4f0
_ZN2al13BgmLineKeeper14startIslandBgmERKNS_17BgmPlayingRequestEPNS_7BgmLineEi = 0x008ed370
_ZN18CameraRailObserverC1EPKc = 0x001ef390
_ZN11EchoEmitter5startERKN4sead7Vector3IfEEfi = 0x00227a90
_ZN4sead4HeapC2ERKNS_14SafeStringBaseIcEEPS0_PvmNS0_13HeapDirectionEb = 0x00721470
_ZN19alPadRumbleFunction22startPadRumbleLoopNo3DEPKN2al9LiveActorEPKcPKN4sead7Vector3IfEEib = 0x009527a0
_ZN2al23resetNerveActionForInitEPNS_9LiveActorE = 0x00833220
_ZN4sead14QuatCalcCommonIfE23makeVectorRotationLimitERNS_8BaseQuatIfEERKNS_8BaseVec3IfEES8_f = 0x0008f080
_ZN2al15CameraPoserZoomC2EPKNS_13PlayerWatcherEPKNS_11PlacementIdEPNS_15IUseAudioKeeperEPKb = 0x00911e20
_ZN2al15CameraPoserZoomC1EPKNS_13PlayerWatcherEPKNS_11PlacementIdEPNS_15IUseAudioKeeperEPKb = 0x00911e20
_ZN2rc29isPadTriggerUiInventoryByPortEi = 0x00426f80
_ZN8ChorobonC1EPKcPKf = 0x000c6d90
_ZN18CounterRecordParts18setPaneStringScoreEi = 0x0016a920
_ZN3eui9AlignPaneC1EPKN2nn4ui2d7ResPaneERKNS2_11BuildArgSetE = 0x007fb250
_ZN3eui9AlignPaneC2EPKN2nn4ui2d7ResPaneERKNS2_11BuildArgSetE = 0x007fb250
_ZN2al23OccludedEffectRequesterC1EPKc = 0x0089ac80
_ZN2al11isExistRailERKNS_13ActorInitInfoE = 0x0088b9a0
_ZN6Gamane7runAwayEv = 0x000d8b00
_ZNK3agl24TextureDataImageAccessor17updateImageBufferEPNS_11DrawContextERKNS_11TextureDataE = 0x00765410
_ZN16BossBunretsuChip12startBreakupEv = 0x000bcb10
_ZN12NeedleRoller12attackSensorEPN2al9HitSensorES2_ = 0x0028b020
_ZN12IslandKeeper27tryUpdateLastIslandScenarioEv = 0x0025cae0
_ZN7CatGull25onDisasterModeStateChangeEN22DisasterModeController5StateE = 0x001f15c0
_ZN15TuccondorAroundC1EPKc = 0x0012eaf0
_ZN21WalkerStateChaseParamC2EfffffbbPKcS1_f = 0x00132fd0
_ZN21WalkerStateChaseParamC1EfffffbbPKcS1_f = 0x00132fd0
_ZN2al11BgmUserInfo10createInfoERKNS_9ByamlIterERKN4sead14SafeStringBaseIcEE = 0x008ef3b0
_ZN8WarpCube7endWarpEv = 0x002ddbd0
_ZN2rc17isAllPlayerBindedEPKN2al9LiveActorEPNS0_9HitSensorE = 0x0042bf20
_ZN15GhostPresentBox4stopEb = 0x002e9d90
_ZNK2al18SnapShotCameraCtrl20makeLookAtCameraLastEPN4sead12LookAtCameraE = 0x0092cff0
_ZN13DisasterSpike25updateCollisionValidationEv = 0x002161a0
_ZN2al20SaveDataSequenceReadC2Eh = 0x008a2f50
_ZN2al20SaveDataSequenceReadC1Eh = 0x008a2f50
_ZN2al20initPlacementAreaObjEPNS_5SceneERKNS_13ActorInitInfoEPKNS_17StageResourceListE = 0x008a4f40
_ZN18RCS_SaveDataLayout12resetButtonsEi = 0x00194d20
_ZN2al26calcMultValueToDestinationEjff = 0x00871c70
_ZN2al15addRandomVectorEPN4sead7Vector3IfEERKS2_f = 0x0086c1d0
_ZN4sead7TaskMgr14doDestroyTask_EPNS_8TaskBaseE = 0x007177a0
_ZN16CounterCoinParts12setCoinCountEi = 0x00167ea0
_ZN15alCollisionUtil28getStrikeArrowCollisionPartsEPKN2al13IUseCollisionEPN4sead7Vector3IfEERKS6_S9_PKNS0_24CollisionPartsFilterBaseEPKNS0_18TriangleFilterBaseE = 0x0093e9b0
_ZN3agl14TextureSamplerC2Ev = 0x007659d0
_ZN3agl14TextureSamplerC1Ev = 0x007659d0
_ZN12DemoCutscene14createWipeFadeERKN2al13ActorInitInfoEbi = 0x000a00d0
_ZNK2al18NoiseTextureKeeper12getTexture3DEi = 0x009823e0
_ZN2al14RotateMapPartsC1EPKc = 0x00865780
_ZN2al20CameraPoserRailTower9loadParamEPKNS_9ByamlIterE = 0x0090faf0
_ZN2al34expandClippingRadiusByShadowLengthEPNS_9LiveActorEPN4sead7Vector3IfEEf = 0x00835270
_ZN6Player15arrangeVelocityEv = 0x003198d0
_ZN15KuriboTowerItem17updateItemPostureEv = 0x000f55f0
_ZN17BlockStateCoinTen10receiveMsgEPKN2al9SensorMsgE = 0x001e2da0
_ZN2al8SeKeeperC1EPNS_15AudioSystemInfoEPNS_10SeDirectorEPKcPKN4sead7Vector3IfEEPKNS7_8Matrix34IfEEPKNS_11ModelKeeperES6_ = 0x009a95f0
_ZN2al8SeKeeperC2EPNS_15AudioSystemInfoEPNS_10SeDirectorEPKcPKN4sead7Vector3IfEEPKNS7_8Matrix34IfEEPKNS_11ModelKeeperES6_ = 0x009a95f0
_ZNK3agl3pfx12DepthOfField20uniformComposeParam_EPNS_11DrawContextERKNS1_7DrawArgEPKNS_13ShaderProgramE = 0x007b88c0
_ZN19PlayerDamageControl6updateEv = 0x00390fc0
_ZN2al19AtmosScatterCubeMapC1EPNS_18GraphicsSystemInfoE = 0x008ab790
_ZN2al19AtmosScatterCubeMapC2EPNS_18GraphicsSystemInfoE = 0x008ab790
_ZN2al15CameraPoserAnimC2EPNS_14CameraSwitcherE = 0x00905ad0
_ZN2al15CameraPoserAnimC1EPNS_14CameraSwitcherE = 0x00905ad0
_ZN19DarkBowserShellSpin9spinFrontEv = 0x0001f970
_ZN13CoinStackBase12initPositionERKN4sead7Vector3IfEE = 0x00207c50
_ZN2al21ClippingAreaActorInfo13checkClippingEPNS_27ClippingAreaActorViewHolderE = 0x0092e8f0
_ZN13NeedleBarRoot10receiveMsgEPKN2al9SensorMsgEPNS0_9HitSensorES5_ = 0x0028aa30
_ZN22BgmBeatAnimeController13setAnimeFrameEv = 0x00077d80
_ZN16LighthouseSimple13setPhaseColorEv = 0x00283e90
_ZN16alPlayerFunction21findPlayerHolderIndexEPKN2al9HitSensorE = 0x0088e280
_ZNK2al20CameraResourceHolder22tryFindCameraParamListEPNS_9ByamlIterEPKNS_11PlacementIdEPKc = 0x00926b70
_ZNK11SuperBowser37isPlayerWithinPlessieChaseAttackRangeEv = 0x000441b0
_ZN2al14createInfoListINS_11BgmPlayInfoEEEPNS_13AudioInfoListIT_EERKNS_9ByamlIterE = 0x008e67e0
_ZN17NpcTerritoryMoverC1EPKN2al9LiveActorEff = 0x00311450
_ZN17NpcTerritoryMoverC2EPKN2al9LiveActorEff = 0x00311450
_ZNK17CourseSelectScene14isTriggerPauseEPi = 0x00096b50
_ZN3agl3g3d14TextureUtilG3D19convertToResTextureEPN2nn3gfx14ResTextureDataERKNS_11TextureDataEPKc = 0x007e0b50
_ZN2al14CollisionParts18invalidateBySystemEv = 0x00937d40
_ZN14DarkBowserUtil16jointChainAppendEPKN2al9LiveActorERNS_20ControlledJointChainEPKcfff = 0x00020270
_ZN3agl3utl23DynamicTextureAllocator6alloc_EPNS_11DrawContextEPNS1_7ContextERKN4sead14SafeStringBaseIcEENS_13TextureFormatENS_11TextureTypeEjjjNS_15MultiSampleTypeEjPNS_14GPUMemVoidAddrEbNS1_12AllocateTypeEbb = 0x00768fd0
_ZNK3agl3sdw9ShadowMap12drawVarianceEPNS_11DrawContextE = 0x007dc510
_ZN2al12moveRailTurnEPKNS_9LiveActorEff = 0x0089de60
_ZN2al11FixMapParts14initWithSuffixERKNS_13ActorInitInfoEPKc = 0x008610a0
_ZN8CoinBlow14setBoundOnAreaEv = 0x001fe230
_ZN2al10appearItemEPKNS_9LiveActorERKN4sead7Vector3IfEES7_PKNS_9HitSensorE = 0x00814f20
_ZN5ByugoC1EPKc = 0x000c6020
_ZN2al13CameraCreator16createAnimCameraEv = 0x009032d0
_ZN2al16ActorScoreKeeper4initERKNS_9ByamlIterE = 0x008155b0
_ZN2al15CameraInterpoleC2Ev = 0x00904580
_ZN2al15CameraInterpoleC1Ev = 0x00904580
_ZN6KuriboC1EPKc = 0x000e8f70
_ZN2al23ClippingViewFadeInAreasC1EPKcRKNS_13PlacementInfoERKNS_13ActorInitInfoE = 0x00932d00
_ZN2al23ClippingViewFadeInAreasC2EPKcRKNS_13PlacementInfoERKNS_13ActorInitInfoE = 0x00932d00
_ZN19MysteryHouseCheckerC1EPKc = 0x00289990
_ZN25PlayerCollisionMsgRolling10trySendingEP22IUsePlayerCollisionMsg = 0x00385a90
_ZN28CourseSelectPlayerActionPushC1EPK15PlayerActionArgP23CourseSelectPlayerActor = 0x000898f0
_ZN28CourseSelectPlayerActionPushC2EPK15PlayerActionArgP23CourseSelectPlayerActor = 0x000898f0
_ZN2al16DepthShadowModelC1EPNS_9LiveActorERKNS_13ActorInitInfoEPKc = 0x008832a0
_ZN34PlayerActionRollingVelocityControl16calcSideVelocityEPK15IUsePlayerInputfff = 0x0034b910
_ZN2al16ShadowMaskKeeper18setUniformCylinderEPN3agl12UniformBlockERKNS0_8PrimInfoERKN4sead8Matrix34IfEERKNS7_8Matrix44IfEE = 0x008c7710
_ZN2al13ActorInitInfo19initViewIdHostActorERKS0_PKNS_9LiveActorE = 0x00836ff0
_ZN2al26CollisionPartsKeeperOctree36updateOctNodeCollisionPartsRecursiveEPNS0_7OctNodeE = 0x0093c8a0
_ZN2al11BezierCurveC2Ev = 0x0089ccd0
_ZN2al11BezierCurveC1Ev = 0x0089ccd0
_ZN4Bush20tryStartRabbitAppearEv = 0x001eef10
_ZN10WindowSave12appearWindowEi = 0x001a1a20
_ZN5erepo12SendDataBase11setEventId_ERKN4sead15FixedSafeStringILi31EEE = 0x009c1a50
_ZNK3agl3pfx5Bloom18releaseBloomBufferEi = 0x007a4fc0
_ZN18SwitchRotateSwitch16requestOffSwitchEi = 0x002c6890
_ZN11Candlestand4initERKN2al13ActorInitInfoE = 0x001eff00
_ZNK7Trapeze17calcSwingAnimRateEb = 0x002d7990
_ZN17RunnerOnGotogoton17setFollowTransPtrEPN4sead7Vector3IfEE = 0x00113700
_ZN15SingleModeScene23initPlacementCheckpointERKN2al13ActorInitInfoE = 0x003ee290
_ZN16PlayerInkChecker6updateEv = 0x00396550
_ZN3agl6detail15PrivateResource14createInstanceEPN4sead4HeapE = 0x00780e80
_ZN2al29calcSystemMessageCharacterNumEPKNS_17IUseMessageSystemEPKcS4_ = 0x0097b660
_ZN4sead11XmlDocument9addEntityERKNS_14SafeStringBaseIcEES4_ = 0x0073fd50
_ZN4sead15SZSDecompressor6decompEPvjPKvj = 0x0074a270
_ZN22BgmBeatAnimeController13initAnimeInfoEv = 0x00077850
_ZN16CourseSelectLockC1EPKcP21CourseSelectMiniaturei = 0x00080430
_ZN17NpcHeadControllerC2EPN2al9LiveActorEPK22NpcHeadControllerParamS5_iP15NpcTargetFinderN3npc17NpcFindTargetTypeEiRKN4sead7Vector3IfEE = 0x0030bf70
_ZN17NpcHeadControllerC1EPN2al9LiveActorEPK22NpcHeadControllerParamS5_iP15NpcTargetFinderN3npc17NpcFindTargetTypeEiRKN4sead7Vector3IfEE = 0x0030bf70
_ZN12RaftConveyerC1EPKc = 0x002a8530
_ZN2al10WipeSimple13tryStartCloseEi = 0x00888ed0
_ZN2al19tryGetLocalSignAxisEPN4sead7Vector3IfEERKNS_13ActorInitInfoEi = 0x0088add0
_ZNK17CameraLookAtPoint11interpolateEjjfPN4sead7Vector3IfEES3_ = 0x000639b0
_ZN2al15SeRequestKeeper17stopAllExceptListEjPPKcj = 0x009ae1a0
_ZN13TrampleSwitch11resetSwitchEv = 0x002d1ec0
_ZN2al12GBufferArray24bindRenderBufferLightBufEv = 0x008adc00
_ZN2al17PadRumbleDirector19startRumbleLoopNo3DEPKcPKN4sead7Vector3IfEERKNS_14PadRumbleParamEib = 0x00950db0
_ZNK22PlayerActionGroundMove17getSuperDashTimerEv = 0x0033f020
_ZN4sead10TextWriter10printImpl_EPKDsibPNS_9BoundBox2IfEEPKNS_10ProjectionEPKNS_6CameraE = 0x0073a010
_ZN2rc19calcPlayerDotMinMaxEPfS0_PKN2al9LiveActorERKN4sead7Vector3IfEES9_ = 0x00431180
_ZNK21CameraPoserDarkBowser17checkStickyCameraEv = 0x00069630
_ZN27KoopaLastDemoEndActorHolderC2EPN2al9LiveActorE = 0x0002ed50
_ZN27KoopaLastDemoEndActorHolderC1EPN2al9LiveActorE = 0x0002ed50
_ZN2al18tryGetZoneMatrixTREPN4sead8Matrix34IfEERKNS_13PlacementInfoE = 0x0088a0e0
_ZN18RouteDokanLauncherC1EPKc = 0x002aff40
_ZN10DarkBowser8jointAimERKN4sead7Vector3IfEE = 0x00012a70
_ZN2al19NfpControllerThread11handleErrorERKN2nn6ResultEb = 0x0097e010
_ZNK19WorldGameDataHolder13writeToStreamEPN4sead11WriteStreamEb = 0x00423420
_ZN3eui7FontMgrC2Ev = 0x007e85b0
_ZN3eui7FontMgrC1Ev = 0x007e85b0
_ZN2al21tryRequestPreLoadFileEPKNS_8ResourceERKN4sead14SafeStringBaseIcEEPNS3_4HeapEPNS_20IAudioResourceLoaderE = 0x0080f390
_ZN14ChorobonHolder23calcNearestCoordOfPointEPKN2al9LiveActorE = 0x000c8600
_ZN3agl2fx7OfxBase10PresetBase13initializeOfxERKNS2_9CreateArgEPNS0_17OccludedEffectMgrEiiPN4sead4HeapE = 0x007c0210
_ZN2al20SeArchiveLoadingInfo10createInfoERKNS_9ByamlIterE = 0x009a01d0
_ZN17DisasterSpikeDirtC1EPKc = 0x00155190
_ZN2al18isEnableRhythmAnimEPKNS_15IUseAudioKeeperEPKc = 0x008f0c90
_ZN2al17EffectObjFunction18initActorEffectObjEPNS_9LiveActorERKNS_13ActorInitInfoEPKc = 0x00883db0
_ZN19RaidonRideAnimState11requestJumpEv = 0x003be4a0
_ZN3agl3pfx12DepthOfField22setIndirectTextureDataEPKNS_11TextureDataE = 0x007b9270
_ZN2al8RailPartC1Ev = 0x0089c8d0
_ZN2al8RailPartC2Ev = 0x0089c8d0
_ZN10KinokoGiga6appearEv = 0x002685b0
_ZN11PlayerActor11prepareBindEPN2al9HitSensorEj = 0x00367830
_ZN18OnPlayerInfoHolderC2Ei = 0x002a2a60
_ZN18OnPlayerInfoHolderC1Ei = 0x002a2a60
_ZN2al17stopAllSeFromUserEPKNS_15IUseAudioKeeperEi = 0x009b5e40
_ZN2al12EffectKeeper12updatePrefixERKNS_16EffectPrefixTypeEb = 0x009610f0
_ZN20CoinConcentricCircle7exeWaitEv = 0x00201360
_ZN2al16ShadowMaskKeeper12drawPrimCubeEiRNS0_7ContextEPKN3agl13ShaderProgramERKNS3_11TextureDataERKN4sead8Matrix34IfEERKNSA_8Matrix44IfEENS3_10ShaderModeEi = 0x008c94f0
_ZN2al17createTextureInfoEv = 0x0096f520
_ZN2al14SimpleModelG3D17updateWorldMatrixERKN4sead8Matrix34IfEERKNS1_7Vector3IfEE = 0x0087d700
_ZN2al16LightStreakParam6interpERKS0_S2_f = 0x00897850
_ZN10KuriboMini4initERKN2al13ActorInitInfoE = 0x000ecd30
_ZN2al21CameraPoserBossBattle21tryChangeFollowCameraEv = 0x008f8130
_ZN21TentackHeadAttackBall4shotEPKN2al9LiveActorERKN4sead7Vector3IfEE = 0x000590f0
_ZN3agl3sdw11DepthShadow18updateShadowMatrixEv = 0x007d4d00
_ZN20TrapezeBindPuppeteer10tryReleaseEv = 0x002d8130
_ZN15screenfilterCpu12KidoTbl_InitEv = 0x001ca930
_ZN2al7BgmLine8pauseBgmEi = 0x008ea4a0
_ZN2al10WipeSimple12tryStartOpenEi = 0x00889080
_ZN21StaffRollLayoutHolderC2ERKN2al14LayoutInitInfoEb = 0x00199d20
_ZN21StaffRollLayoutHolderC1ERKN2al14LayoutInitInfoEb = 0x00199d20
_ZN2al24calcDistanceNextKeyTransEPKNS_13KeyPoseKeeperE = 0x0081a660
_ZN2al11NfpDirectorC2Ei = 0x008816e0
_ZN2al11NfpDirectorC1Ei = 0x008816e0
_ZN15SingleModeScene14prepareDestroyEv = 0x003e9460
_ZN7MapMenu11startAppearEii = 0x0017c740
_ZN2rc27calcControlUserDisplayOrderE22GameDataHolderAccessori = 0x00425eb0
_ZN2al15turnToDirectionEPNS_9LiveActorERKN4sead7Vector3IfEEf = 0x0083db00
_ZN27ExplosionComboCounterHolderC2Ev = 0x00229750
_ZN27ExplosionComboCounterHolderC1Ev = 0x00229750
_ZN2al17DepthShadowDrawer18setupShaderProgramEiPKN3agl13ShaderProgramE = 0x008c06a0
_ZN11ScoreHolder28addScoreAndPopNumberFromIterEPKN2al9LiveActorEiRKNS0_9ByamlIterEiRKN4sead7Vector3IfEEPSA_bi = 0x002b29f0
_ZNK17DrcAssistDirector15unrotatePoseMtxEifPN4sead8Matrix34IfEE = 0x00222140
_ZN18OceanWaveGenerator9initOceanEP5Ocean = 0x0029fa50
_ZN9StampType15calcStampTypeIDEPKc = 0x004225e0
_ZN2al15RollingCubePose15setNextCubePoseEPKS0_ = 0x0081b550
_ZN2al22SupportFreezeSyncGroup4initERKNS_13ActorInitInfoE = 0x00867140
_ZN19RaidonRideAnimStateC2EPKcP10RaidonBase = 0x003bd560
_ZN19RaidonRideAnimStateC1EPKcP10RaidonBase = 0x003bd560
_ZN3agl3utl14PrimitiveShape21setupIdxStreamCircle_ItEEvPNS_11IndexStreamENS_10GPUMemAddrIT_EEjNS1_8DrawTypeENS1_7QualityE = 0x00778d30
_ZNK2al12MeInfoKeeper4isMeEi = 0x009a2d70
_ZN2al16countMessagePageEPKNS_17IUseMessageSystemEPKDsi = 0x0097b9d0
_ZN3agl2fx17OccludedEffectMgr8calcViewEiRKN4sead8Matrix34IfEERKNS2_8Matrix44IfEEffffRKNS2_7Vector2IfEE = 0x007be670
_ZN3agl3pfx21AutoExposureVtxStream6createEi = 0x007b9a50
_ZN2al16appearItemTimingEPKNS_9LiveActorEPKc = 0x008150c0
_ZN18RCS_SaveDataLayout13setSelectLoadEv = 0x00194d70
_ZN22DisasterModeController14startLightningEv = 0x00211790
_ZN13CoinChameleon4initERKN2al13ActorInitInfoE = 0x001fedb0
_ZN2al24initLayoutActorLocalizedEPNS_11LayoutActorERKNS_14LayoutInitInfoEPKcS6_ = 0x00971090
_ZN17DokanGuideBalloonC1EPKN4sead7Vector3IfEE = 0x0016fa80
_ZN3agl3g3d13ShaderUtilG3D4loadEPNS_11DrawContextERKNS_14ShaderLocationERKjS8_ = 0x0075cbd0
_ZN16TeresaFakeObject10receiveMsgEPKN2al9SensorMsgEPNS0_9HitSensorES5_ = 0x002c7a90
_ZN11OneSideStepC1EPKc = 0x002a09b0
_ZN7InkBomb14updateColliderEv = 0x00018290
_ZNK4sead8Viewport5applyEPNS_11DrawContextERKNS_18LogicalFrameBufferE = 0x0073a750
_ZN11GhostPlayer11stopAndHideEb = 0x002e6e90
_ZN10NekoParent14tryCollectNekoEP17IUseNekoModeActor = 0x0030b9e0
_ZN19KoopaLastPartsModel17makeActorAppearedEv = 0x0002fd80
_ZN14GameDataHolder28createSaveDataAccessSequenceEPN2al11ErrorViewerEPNS0_13NetworkSystemERKNS0_14LayoutInitInfoE = 0x00417680
_ZN2al15SeadAudioPlayer28tryGetSoundMemoryPoolHandlerEPKc = 0x008e3470
_ZN21GoalPoleBindPuppeteer9startFallEiiPKS_ = 0x0024dbd0
_ZN2al18CameraTicketHolderC1Ei = 0x00929790
_ZN2al18CameraTicketHolderC2Ei = 0x00929790
_ZNK3agl12RenderBuffer5clearEPNS_11DrawContextEjjRKN4sead7Color4fEfj = 0x0075e9e0
_ZN10KuriboGiga11initSpecialERKN2al13ActorInitInfoEf = 0x000dba40
_ZN16PlayerEntryParts6cancelEv = 0x00188f50
_ZN24BlockHardLaserOnlyDebrisC1EPKcP18BlockHardLaserOnly = 0x0014c820
_ZN2al16initSceneCreatorEPNS_16IUseSceneCreatorERKNS_16SequenceInitInfoEPNS_18GameDataHolderBaseEPNS_13AudioDirectorEPNS_21ScreenCaptureExecutorEPN15alSceneFunction12SceneFactoryE = 0x008a98b0
_ZN3agl3utl14PrimitiveShape20setupVtxBufferCircleEPNS_12VertexBufferENS_10GPUMemAddrINS1_6VertexEEEj = 0x00778b90
_ZN2al24SeListenerPoserMiddlePosC1ERKN4sead14SafeStringBaseIcEES5_f = 0x009ab480
_ZN2al24SeListenerPoserMiddlePosC2ERKN4sead14SafeStringBaseIcEES5_f = 0x009ab480
_ZN17MessageAppearBase24exeWaitDisplayTouchGuideEv = 0x002b7e00
_ZN2al14BlockRailParts12initRailLinkEv = 0x008f33b0
_ZN2al18ViewDepthDrawParamC2Ev = 0x0099a3e0
_ZN2al18ViewDepthDrawParamC1Ev = 0x0099a3e0
_ZNK2al14CollisionParts30checkStrikeSphereForPlayerCoreEPNS_21SphereHitResultBufferERKN4sead7Vector3IfEES7_S7_S7_fPKNS_18TriangleFilterBaseE = 0x00939290
_ZNK3agl4perf12GPUTimeStamp3getEv = 0x00796200
_ZN2al30changeAudioEffectWithAreaCheckEPKNS_15IUseAudioKeeperE = 0x008e2c90
_ZN2al21swapModelUniformBlockEPN3agl12UniformBlockE = 0x0083b7c0
_ZN20ActorStateDemoCameraC1EPN2al9LiveActorERKNS0_13ActorInitInfoEPKcPK25ActorStateDemoCameraParamb = 0x001cdab0
_ZN20ActorStateDemoCameraC2EPN2al9LiveActorERKNS0_13ActorInitInfoEPKcPK25ActorStateDemoCameraParamb = 0x001cdab0
_ZN2al12SurfMapPartsC1EPKc = 0x00867350
_ZN3eui8AnimatorC2Ev = 0x007f0a00
_ZN3eui8AnimatorC1Ev = 0x007f0a00
_ZN2rc13StampDirector13activateStampEPNS_5StampEi = 0x002c08c0
_ZNK19NpcGoalCameraTarget12calcDistanceEPKN2al9LiveActorEf = 0x00071190
_ZN2al17getLanguageStringEv = 0x009795e0
_ZN2al14LayoutInitInfoC1Ev = 0x00970cc0
_ZN2al14LayoutInitInfoC2Ev = 0x00970cc0
_ZN17PlayerActionSlide12calcVelocityEv = 0x0034d500
_ZN4sead11XmlDocument36replaceXmlNumericCharacterReference_EPcjj = 0x00744ad0
_ZNK20GoalPoleStateRunaway10isMoveStopEf = 0x00250540
_ZN2al13CartoonDrawerD1Ev = 0x0098d930
_ZN2al13CartoonDrawerD2Ev = 0x0098d930
_ZN2al14CollisionParts11resetAllMtxEv = 0x00937ef0
_ZN8GoalItem4initERKN2al13ActorInitInfoE = 0x00241170
_ZN7Skipper15exeTurnToPlayerEv = 0x0011ad60
_ZN3eui22RegisterSlotForTextureEPN2nn3gfx14DescriptorSlotERKNS1_12TTextureViewINS1_12ApiVariationINS1_7ApiTypeILi4EEENS1_10ApiVersionILi8EEEEEEEPv = 0x007e2ab0
_ZN27CourseSelectMiniatureCursor11startDecideEv = 0x0016e030
_ZN2al14activateShaderEPKN2nn3g3d16ResShaderProgramEN3agl10ShaderModeE = 0x008af300
_ZN2al32GraphicsParamRequestInterpKeeperINS_9SSIIParamEE10NamedParamC2Ev = 0x00830f50
_ZNK19NpcGoalCameraTarget15isActorsVisibleEPKN2al9LiveActorERKN4sead7Vector3IfEES8_S8_PK25GoalCameraCollisionFilter = 0x00070f80
_ZN2al14makeMtxUpFrontEPN4sead8Matrix34IfEERKNS0_7Vector3IfEES7_ = 0x00976c90
_ZN2al17EffectObjFunction18initActorEffectObjEPNS_9LiveActorERKNS_13ActorInitInfoE = 0x00883d60
_ZN16KuriboTowerChild8exeChaseEv = 0x000f3f60
_ZN12DemoAnimaticC1EPKcN12alSeFunction8DemoTypeE = 0x0009fa00
_ZN10OceanWater22initRefractionFromYamlEPKcRN4sead7Color4fERfS5_RKN2al9ByamlIterE = 0x00294660
_ZN4sead20AudioFxDelayParamNinC2Ev = 0x00752070
_ZN4sead20AudioFxDelayParamNinC1Ev = 0x00752070
_ZN16PlayerTailAttack8forceEndEv = 0x003b3b50
_ZN2al14ActorAlphaCtrl10SphereInfo6updateEPNS_9LiveActorEPKNS_13ClippingJudgeE = 0x0097fb30
_ZN6KuriboC2EPKc = 0x000e8e70
_ZN18CounterPlayerParts17setPlayerAndCountE22GameDataHolderAccessorb = 0x00169a00
_ZNK16CourseSelectNode6isWaitEv = 0x00085f70
_ZN19DisasterSpikeLaunch6appearEP11SuperBowser = 0x00155930
_ZN4sead10XmlElement10setContentEPhjb = 0x0073e830
_ZN11TouchEffectC1ERKN2al14LayoutInitInfoEPK18DrcTouchAssistInfo = 0x0019f6c0
_ZN17DisasterSpikeArea17clearTriggerFlagsEv = 0x00000820
_ZN12GuideBalloonC1EPKcS1_RKN2al14LayoutInitInfoEPKN4sead7Vector3IfEERS9_bPNS2_12DemoDirectorE = 0x00170820
_ZN23PlayerWallJumpDirection4initEv = 0x003b5510
_ZN18SpotLightPatroller9setPatrolEv = 0x002bc060
_ZN23CourseSelectSceneLayout7endDemoEb = 0x0016f460
_ZNK3agl2fx17OccludedEffectMgr13updateViewGPUEiRKNS_12RenderBufferE = 0x007be790
_ZN2al20CameraStartParamCtrl18initAfterPlacementEv = 0x00927bc0
_ZN21PlayerActionSwimSquat14applyFlowFieldEv = 0x00355760
_ZN11PlayerAudio6onJumpEv = 0x00377d80
_ZN20RunnerStateJumpParamC2EPKcS1_S1_S1_ = 0x00114270
_ZN20RunnerStateJumpParamC1EPKcS1_S1_S1_ = 0x00114270
_ZN30PlayerActionConditionDashInput5checkEv = 0x0031ee10
_ZN3agl3utl13ImageFilter2D18drawTexture2DArrayEPNS_11DrawContextERKNS_14TextureSamplerERKN4sead8ViewportEiRKNS7_7Vector2IfEESE_f = 0x0076a5d0
_ZN2al21ClippingAreaActorInfo23updateCollisionSettingsEfRKN4sead7Vector3IfEEPS4_fb = 0x0092d7b0
_ZN16ProductStateBootC1EP15ProductSequenceRKN2al16SequenceInitInfoEP15StageWipeKeeperP26ProductAsyncResourceLoaderPNS2_21ScreenCaptureExecutorE = 0x003fe370
_ZN16ProductStateBootC2EP15ProductSequenceRKN2al16SequenceInitInfoEP15StageWipeKeeperP26ProductAsyncResourceLoaderPNS2_21ScreenCaptureExecutorE = 0x003fe370
_ZN2al11isClassNameERKNS_13ActorInitInfoEPKc = 0x00889a40
_ZN18PlayerGigaDirector8forceEndEv = 0x00394910
_ZN2al15BloomNamedParamC2Eb = 0x0081f090
_ZN2al15BloomNamedParamC1Eb = 0x0081f090
_ZN11PlayerInput16calcFrontAndSideEPN4sead7Vector3IfEES3_RKNS0_8Matrix34IfEE = 0x00396de0
_ZN4sead12MessageQueue8allocateEiPNS_4HeapE = 0x00733ec0
_ZN2al21ClippingAreaActorInfoC1EPNS_25ClippingAreaActorInfoNodeERKNS_13ActorInitInfoEPKNS_13PlacementInfoE = 0x0092dd40
_ZN21PlayerActionWallClimb12controlSlideERKN4sead7Vector3IfEE = 0x0035c4f0
_ZN2al10SeListener15setCurrentPoserERKN4sead14SafeStringBaseIcEE = 0x009ab1d0
_ZN17CloudBonusWatcher27tryResetLastCloudBonusStageEv = 0x0014ced0
_ZN15GigaBellManager14resetGigaBellsEv = 0x0023d550
_ZN2al21removeExtensionStringEPcjPKc = 0x008e45c0
_ZN2al14DirectionParam4lerpERKS0_S2_f = 0x0081ebc0
_ZN2al13SwingMovement12updateRotateEv = 0x0087ffe0
_ZN4sead6BufferIN3agl3utl12INamedObjMgr5GroupEE14tryAllocBufferEiPNS_4HeapEi = 0x007cef40
_ZN8GoalItem10exeCollectEv = 0x00243e60
_ZN19WorldGameDataHolder14readFromStreamEPN4sead10ReadStreamE = 0x00423310
_ZN5Imozo15getCollisionDirEPN4sead7Vector3IfEE = 0x000e1fb0
_ZN2al17CameraInputHolder18initAfterPlacementEv = 0x0091c840
_ZN2al19setRailClippingInfoEPN4sead7Vector3IfEEPNS_9LiveActorEPKNS_10RailKeeperEff = 0x0089ee90
_ZN14PlayerAnimator9startAnimERKN4sead14SafeStringBaseIcEE = 0x003747a0
_ZNK2al18GraphicsSystemInfo23tryDirectionalLightInfoEPN4sead7Vector3IfEEPKcPf = 0x00805d70
_ZN4sead10XmlElement12addAttributeERKNS_14SafeStringBaseIcEES4_PNS_4HeapE = 0x0073f050
_ZN15PlayerKeyConfig18isPadTriggerDecideEib = 0x00398430
_ZN2al14BlockRailPartsC1EPKc = 0x008f3090
_ZN3agl3utl15MultiFilterUnit10initializeEPNS0_11MultiFilterEPN4sead5TListIPS1_EEPNS4_4HeapE = 0x00790560
_ZN4sead9FrameHeap6adjustEv = 0x00720870
_ZN14GoalItemHolderC1Ev = 0x00247a00
_ZN14GoalItemHolderC2Ev = 0x00247a00
_ZN15TentackTentacle13setSwingYRateEf = 0x000618d0
_ZN18TrampleSwitchTimer23endCameraAtReturnAnglesEf = 0x002d4650
_ZN13DisasterSpikeC2EPKc = 0x00211d60
_ZN2al18calcTouchScreenPosEPN4sead7Vector2IfEEi = 0x0094b450
_ZN2al17StageResourceList12initZoneInfoERNS_13PlacementInfoEiPKcPS1_ = 0x008a65f0
_ZN13CollectNumber14appearCompleteERKN4sead7Vector3IfEEi = 0x001668e0
_ZN10AssistLeafC1EPKc = 0x001cf440
_ZN14BossWackunHandC1EP10BossWackun = 0x0000b1d0
_ZN14PunpunDivisionC1EPKc = 0x00038860
_ZN21alAudioEffectFunction8getBusIdEPKc = 0x009a6060
_ZN11DemoObjBaseC1EPKc = 0x000a2ab0
_ZN11PlayerActor24controlPushVeryStrongMsgEPN2al9HitSensorES2_ = 0x00364d20
_ZNK18BindPuppeteerGroup19isBindingSameUserIdEPKN2al9HitSensorE = 0x001d9e40
_ZN19DisasterSpikeLaunchC1EPKcP21DisasterSpikeDirector = 0x00155790
_ZN17NeedleRollerSwing7doBreakEv = 0x0028d620
_ZN2al29setEnablePrePassLightSpecularEPKNS_9LiveActorEPKcb = 0x00820090
_ZN9StageType15calcStageTypeIDEPKc = 0x00422250
_ZN2al16tryOnStageSwitchEPNS_15IUseStageSwitchEPKc = 0x008cc3e0
_ZN23EnemyStateBlowDownParamC2Eb = 0x000d1a90
_ZN23EnemyStateBlowDownParamC1Eb = 0x000d1a90
_ZN2al10SeDirector20pauseSystemExceptSubEbPKcj = 0x009a20e0
_ZN11PlayerActor13updateSensorsEv = 0x00361c00
_ZN9GotogotonC1EPKc = 0x00251f90
_ZN2al12EffectSystem11postprocessEv = 0x00964bd0
_ZN2al12getBlendFuncEPKN2nn3g3d11MaterialObjEbb = 0x00806cb0
_ZN5erepo12SendDataBase11initialize_EiiiPN4sead4HeapE = 0x009c16d0
_ZN13FairyPrincess14tryBreakBottleEv = 0x002f8870
_ZN20TentackTentacleGroup9appearAllEv = 0x00062090
_ZN2rc18getControllerStyleEi = 0x004275e0
_ZN2al12GBufferArray19setContextMRTCustomEPN4sead18GraphicsContextMRTEPKN2nn3g3d11MaterialObjEb = 0x008add90
_ZN6Rabbit18tryAppearKinokoBigEi = 0x003139c0
_ZN14PlayerAnimator21applyPartsSpecialRuleEv = 0x00374630
_ZN4sead8GraphicsC2Ev = 0x00737240
_ZN3agl2fx10RadialBlurC2Ev = 0x007cf350
_ZN3agl2fx10RadialBlurC1Ev = 0x007cf350
_ZNK18BlockHardLaserOnly10isDisabledEv = 0x0014bef0
_ZN2al26tryGetMapPartsResourceYamlERKNS_13ActorInitInfoEPKc = 0x008405a0
_ZNK3agl4lght4SSII6TexBuf4initEPNS_11DrawContextEPKNS_11TextureDataEjj = 0x007af420
_ZN21CourseSelectPuppeteer18exeDokanPrepareOutEv = 0x0008cce0
_ZN6Dossun4initERKN2al13ActorInitInfoE = 0x000ced50
_ZN2al15KeyMoveMapPartsC1EPKc = 0x00862150
_ZNK2al11BezierCurve10calcLengthEffi = 0x0089ce10
_ZN16SuperBowserShell28recalculatePhaseChangeFramesEv = 0x000539b0
_ZN17BallStateFunction18sendMsgToCollisionEPN2al9LiveActorEb = 0x001d7e30
_ZN8FireBrosC1EPKc = 0x000d2cb0
_ZN5Gesso4initERKN2al13ActorInitInfoE = 0x000da700
_ZN2al19NfpControllerThread24setDeviceHandleAndNpadIdERKN2nn3nfp12DeviceHandleEj = 0x0097d480
_ZN11BowserSpikeC1EPKcPK16BowserSpikeParam = 0x000bf390
_ZN26PlayerActionSpinAttackJumpC1EP22PlayerActionAirMoveArgPK14IUsePlayerFlagP21IUsePlayerFlagControlP13PlayerTriggerPK19IUsePlayerCheckArea = 0x0034ef40
_ZN26PlayerActionSpinAttackJumpC2EP22PlayerActionAirMoveArgPK14IUsePlayerFlagP21IUsePlayerFlagControlP13PlayerTriggerPK19IUsePlayerCheckArea = 0x0034ef40
_ZN15RouteDokanRider15forceCancelBindEv = 0x002b1da0
_ZN16alCameraFunction20initMirrorAreaCameraEPKN2al13IUseCamera_RSERKNS0_13PlacementInfoEPKc = 0x0092b090
_ZN2al19ClippingActorHolder13registerActorEPNS_9LiveActorE = 0x009319d0
_ZN19DarkBowserStateDemoC1EP10DarkBowserRKN2al13ActorInitInfoE = 0x00015800
_ZN19DarkBowserStateDemoC2EP10DarkBowserRKN2al13ActorInitInfoE = 0x00015800
_ZN3agl6detail8RootNode14createInstanceEPN4sead4HeapE = 0x00782190
_ZN6Kameck9exeAttackEv = 0x000e46d0
_ZN4sead11FixedSizeJQ10initializeEjPNS_4HeapE = 0x00745d70
_ZN2rc12revivePlayerEPN2al9LiveActorE = 0x0042f860
_ZN15SceneObjFactory20createSceneObjHolderEv = 0x003e6230
_ZN2al17isNearAngleRadianERKN4sead7Vector3IfEES4_f = 0x008697d0
_ZN10Lighthouse12jumpToFinishEv = 0x002805d0
_ZN17CourseSelectFairy8calcAnimEv = 0x0007f3b0
_ZN13TractorBubbleC1Eb = 0x002cf970
_ZN19DemoSceneSingleModeC2Ebb = 0x003d3a90
_ZN19DemoSceneSingleModeC1Ebb = 0x003d3a90
_ZN15SingleModeScene31initPlacementDisasterModeBowserERKN2al13ActorInitInfoE = 0x003ef4d0
_ZN4sead14MathCalcCommonIfE8logTableEf = 0x00735be0
_ZN2al12tryGetZoneIDEPiRKNS_13PlacementInfoE = 0x0088cb30
_ZN10Lighthouse13setSinkedItemEP10SinkedItem = 0x00282df0
_ZN14EnemyStateUtil15requestBlowDownEPKN2al9SensorMsgEPNS0_9HitSensorES5_P18EnemyStateBlowDownb = 0x000d28e0
_ZN8GigaBell15trySetLockStateENS_9LockStateE = 0x0023b280
_ZN3eui12SharcArchive10initializeEPN4sead4HeapEPvj = 0x007e5ec0
_ZNK2al7BgmLine19isRunningByPlayNameEPKc = 0x008e9cb0
_ZN2al22setShadowIntensityUserEPNS_9LiveActorEhPKc = 0x008bc570
_ZN2rc22setAlreadyShowBossDemoEPKN2al9LiveActorE = 0x000a9540
_ZN10MysteryBox16warpPlayerPuppetEP21WarpCubeBindPuppeteerRKN4sead7Vector3IfEES6_S6_PK18PlayerBindEndParam = 0x00288910
_ZN9TimerGate4stopEv = 0x002cbf80
_ZN18BindPuppeteerGroup14erasePuppeteerEP13BindPuppeteer = 0x001da2c0
_ZN2al10calcSpeedVEPKNS_9LiveActorE = 0x0083ca90
_ZN2al14createInfoListINS_21BgmResourceSuffixInfoEEEPNS_13AudioInfoListIT_EERKNS_9ByamlIterE = 0x008e4f50
_ZN2al15isActionPlayingEPKNS_9LiveActorEPKc = 0x00832970
_ZN21ControlUserDataHolder10initializeEb = 0x0040d740
_ZN2rc21getPadUiMapZoomByPortEi = 0x00427220
_ZN2rc19isAllPlayerOnGroundEPKN2al9LiveActorE = 0x0042cab0
_ZN14IslandDataListC2Ei = 0x00418ba0
_ZN14IslandDataListC1Ei = 0x00418ba0
_ZN13BlockQuestion4initERKN2al13ActorInitInfoE = 0x001dfc10
_ZN3agl6detail12ShaderHolder14createInstanceEPN4sead4HeapE = 0x00784f40
_ZN2rc18calcWaterSinkDepthEPKN2al9LiveActorE = 0x00424170
_ZN2al20InactiveSeListHolderC2Ev = 0x009aeb90
_ZN2al20InactiveSeListHolderC1Ev = 0x009aeb90
_ZN14EnemyStateUtil28tryRequestAttackFireBlowDownEPKN2al9SensorMsgEPNS0_9HitSensorES5_P18EnemyStateBlowDownb = 0x000d2970
_ZN2al13isInWaterAreaEPKNS_11IUseAreaObjERKN4sead7Vector3IfEE = 0x008dba50
_ZNK4sead12LookAtCamera14doUpdateMatrixEPNS_8Matrix34IfEE = 0x00736610
_ZN21SingleModeSceneLayout15fadeOutAreaNameEb = 0x001989e0
_ZN3agl6detail7CompSel10setDefaultENS_13TextureFormatE = 0x00764aa0
_ZN14EnemyStateUtil26isKillByAreaOrMaterialCodeEPKN2al9LiveActorE = 0x000d2b30
_ZN2al27createRollingCubePoseKeeperERKN4sead9BoundBox3IfEERKNS_13ActorInitInfoE = 0x0081bf10
_ZN19PipePackunBodyParts10killSwitchEv = 0x0010de00
_ZN23CameraAngleVerticalCtrlC2EPN2al14CameraPoser_RSE = 0x000645d0
_ZN23CameraAngleVerticalCtrlC1EPN2al14CameraPoser_RSE = 0x000645d0
_ZN10CoinHolder4initERKN2al13ActorInitInfoE = 0x00203c10
_ZN3agl20ShaderProgramArchive7destroyEv = 0x00789cc0
_ZN16PlayerEntryParts16resetButtonIconsEv = 0x001890b0
_ZN10RaidonSurf17startFollowCameraEv = 0x003bf6a0
_ZN22CameraPoserFollowLimit17trySwitchLimitObjEv = 0x0006e5e0
_ZN11PlayerActorC2EPKN4sead8Matrix34IfEE = 0x0035f3b0
_ZN2al21createPadRumbleKeeperEPKNS_9LiveActorEi = 0x00952330
_ZN21CourseSelectObjKeeperC2Eii = 0x000866f0
_ZN21CourseSelectObjKeeperC1Eii = 0x000866f0
_ZN2rc27tryCreateAttachedItemBubbleEPKci = 0x00429320
_ZN15ChikaChikaBlock11startSwitchEv = 0x001f6ad0
_ZNK21DisasterSpikeDirector15tryGetGoldSpikeEv = 0x00154470
_ZN2al27tryGetByamlKeyAndIntByIndexEPPKcPiRKNS_9ByamlIterEi = 0x008cf800
_ZN3agl3utl13ImageFilter2D8drawBlurEPNS_11DrawContextERKNS_14TextureSamplerERKN4sead8ViewportENS1_8BlurTypeERKNS7_7Vector2IfEESF_SF_ = 0x0076ac30
_ZN20PlayerFigureDirectorC1EP15IUsePlayerAudiob = 0x003920c0
_ZN20PlayerFigureDirectorC2EP15IUsePlayerAudiob = 0x003920c0
_ZN2al15CameraPoserZoom9loadParamEPKNS_9ByamlIterE = 0x00912360
_ZN19WalkerStateFunction19calcPassiveMovementEPN2al9LiveActorEPK16WalkerStateParam = 0x00133e90
_ZN2al12calcDistanceEPKNS_9LiveActorES2_ = 0x0083ccd0
_ZN4sead7HeapMgr14removeRootHeapEPNS_4HeapE = 0x00722b70
_ZN10SuperKoura16doKouraInputProcEv = 0x00409870
_ZN22SingleModeDataFunction16reportShineEventE20GameDataHolderWriterPKN2al18IUseSceneObjHolderEi = 0x0041fa10
_ZN9WaterUtil19calcWaterSurfacePosEPKN2al11IUseAreaObjERKN4sead7Vector3IfEEfPS6_ = 0x003b6aa0
_ZN19BlockAssistFunction14setBlockAssistEP15BlockAssistLeaf = 0x001db690
_ZNK2al23AlphaMaskProjectionInfo13getCurrentDirEv = 0x008b3130
_ZNK2al14CollisionParts26checkStrikeSphereForPlayerEPNS_21SphereHitResultBufferERKN4sead7Vector3IfEEfPKNS_18TriangleFilterBaseE = 0x00938f80
_ZN7Gondola14updateDynamicsEv = 0x00251140
_ZN14PlayerFireBallC1ERKN4sead14SafeStringBaseIcEEPK14PlayerPropertyPN2al9LiveActorERKNS8_13ActorInitInfoEPNS8_9HitSensorE = 0x00392370
_ZN9BoxKiller16tryGetBulletDeadEv = 0x001e8bb0
_ZNK4sead9FrameHeap11getFreeSizeEv = 0x00720d00
_ZN2al12LppLineParam10initByInfoERKNS_13ActorInitInfoE = 0x00823600
_ZN15DemoEndingScene4initERKN2al13SceneInitInfoE = 0x003d0f10
_ZN20TrapezeBindPuppeteer5startEPN2al9HitSensorES2_ = 0x002d7cc0
_ZN2al15FloaterMapParts4initERKNS_13ActorInitInfoE = 0x00861350
_ZN2al16calcBoxFacePointEPN4sead7Vector3IfEERKNS0_9BoundBox3IfEEiRKNS0_8Matrix34IfEE = 0x00870c40
_ZN9BoxKiller13tryShiftCarryEPN2al9HitSensorES2_ = 0x001e8410
_ZN2al22LayoutTextPaneAnimator10updateTextEv = 0x00976430
_ZN30CourseSelectRouteDokanEntrance14setEnableInputEv = 0x00093870
_ZN2al21initProgramableCameraEPKNS_10IUseCameraERKNS_13ActorInitInfoEPKc = 0x00914550
_ZN23PlayerActionTrampleJump5setupEv = 0x00356320
_ZN11PlayerActor16cancelAndReleaseEb = 0x00364780
_ZNK11SuperBowser16findSpawnClosestEN4sead7Vector3IfEEb = 0x000463b0
_ZN2al18initActorAlphaCtrlEPNS_9LiveActorERKNS_13ActorInitInfoEPKcS6_ = 0x00836ba0
_ZThn1456_N3agl3pfx5Bloom9postRead_Ev = 0x007a50e0
_ZN3agl3utl14PrimitiveShape19setUpStreamPyramid_EPN4sead4HeapE = 0x00774ae0
_ZN12ScenarioData4initEiPKcS1_S1_ibb = 0x0041b820
_ZN3agl3utl14PrimitiveShape22setupIdxStreamCapsule_ItEEvPNS_11IndexStreamENS_10GPUMemAddrIT_EEjjjNS1_8DrawTypeENS1_7QualityE = 0x0077a9e0
_ZN22SingleModeDataFunction29isActorInPlessieChaseDisabledERKN2al13ActorInitInfoE = 0x0041e980
_ZN8GoalItem12appearHiddenEv = 0x002428f0
_ZN20ButtonItemStockParts7endDemoEv = 0x001624c0
_ZN2al27MultiCoreExecutorThreadBaseD2Ev = 0x0080eeb0
_ZN2al27MultiCoreExecutorThreadBaseD1Ev = 0x0080eeb0
_ZNK2al18EffectCameraHolder19tryMakeBillboardMtxEPN4sead8Matrix34IfEERKNS1_7Vector3IfEE = 0x0095f4b0
_ZN13KoopaGraffiti10appearItemEv = 0x00272660
_ZN16CourseSelectNode11exeOpenRoadEv = 0x00085b50
_ZN2al13FileEntryBaseC2Ev = 0x0080fc40
_ZN16KuriboTowerChild7endInitEv = 0x000f3b30
_ZN8BallSnow11startEffectEv = 0x001d71b0
_ZN4sead11FixedSizeJQ8finalizeEv = 0x00746060
_ZN7preport17PlayReportManager8EventEndEv = 0x003b93d0
_ZN17KoopaLastFunction18explosionCollisionEPN2al9LiveActorEPKc = 0x0002fae0
_ZNK13PlayerKoopaJr17isHeadLookAtValidEv = 0x003a0a30
_ZN19PlayerActionRollingC1EPKNS_16IUseRollingParamEPK15PlayerActionArgP23IUsePlayerCollisionSizeP13PlayerTriggerPK20PlayerFigureDirectorP16IUsePlayerAttackPK19IUsePlayerEquipmentPK14IUsePlayerFlagPK19IUsePlayerCheckAreabbSK_ = 0x00349940
_ZN19PlayerActionRollingC2EPKNS_16IUseRollingParamEPK15PlayerActionArgP23IUsePlayerCollisionSizeP13PlayerTriggerPK20PlayerFigureDirectorP16IUsePlayerAttackPK19IUsePlayerEquipmentPK14IUsePlayerFlagPK19IUsePlayerCheckAreabbSK_ = 0x00349940
_ZN12ControlGuide19updatePageIndicatorEv = 0x00167040
_ZN19GhostPlayerFunction22getGhostPlayerDirectorEPKN2al18IUseSceneObjHolderE = 0x002e7450
_ZN20PlayerWallClimbInput19updateClimbJumpInfoERKN4sead8Matrix34IfEE = 0x003b4f00
_ZN2al27ClippingAreaActorViewHolder26waitIfPendingAsyncClippingEv = 0x00930d50
_ZN2al15SePlayParamListC2Ev = 0x009ac080
_ZN2al15SePlayParamListC1Ev = 0x009ac080
_ZN11PlayerActor11initSpecialERKN2al13ActorInitInfoEiPKcP33IUsePlayerRetargettingInfoCreatorP30IUsePlayerRetargettingSelectorP28IUsePlayerActionGraphBuilderS5_jiS5_ = 0x003600d0
_ZN18WaterAreaMoveModelC1EPKc = 0x002e1330
_ZN2rc42checkAllPlayerBindedAndDisableReviveBubbleEPKN2al9LiveActorEPNS0_9HitSensorE = 0x0042c0f0
_ZN3agl3g3d18ModelShaderSamplerC1Ev = 0x0077f7a0
_ZN3agl3g3d18ModelShaderSamplerC2Ev = 0x0077f7a0
_ZN2rc5Stamp12isStampActorEPKN2al9LiveActorE = 0x002bdd50
_ZN18DarkBowserRingBeam9exeActiveEv = 0x000cc900
_ZN24KoopaLastDefendeBlockPowC1EPKc = 0x0002d880
_ZNK3agl3utl14IParameterList10writeToXMLEPN4sead10XmlElementEPNS2_4HeapE = 0x0078df20
_ZN19ActorStateGiantBlow7exeBlowEv = 0x001cedb0
_ZN21KinopioBrigadeWatcher4initERKN2al13ActorInitInfoE = 0x0026be10
_ZN18CounterRecordPartsC1ERKN2al14LayoutInitInfoEPKcS5_PNS0_11LayoutActorE = 0x0016a820
_ZN23CameraAngleVerticalCtrl26startTargetInterpoleByStepEfi = 0x00064cb0
_ZN2rc23updateDrcAssistDirectorEPKN2al18IUseSceneObjHolderE = 0x00222a80
_ZNK23CourseSelectPlayerActor22isInCourseSelectBubbleEv = 0x0008a290
_ZN2rc14isPuppetSensorEP16IUsePlayerPuppetPKN2al9HitSensorE = 0x0042ad10
_ZN19TouchCarryItemStateC2EPN2al9LiveActorEPK24TouchCarryItemStateParam = 0x002ce410
_ZN19TouchCarryItemStateC1EPN2al9LiveActorEPK24TouchCarryItemStateParam = 0x002ce410
_ZN2rc25findRelativeControlUserIdEPN2al9HitSensorE = 0x00426380
_ZN14PunpunDivision17startDivideAppearEv = 0x00038f20
_ZN8CoinBlowC1EPKc = 0x001fd730
_ZN30CourseSelectRouteDokanEntranceC1EPKcS1_ = 0x00093470
_ZN13SamboSnowBodyC1EPKc = 0x00114970
_ZN4sead7ExpHeap24findFirstMemBlockIfFree_Ev = 0x0071e3c0
_ZN11SuperBowser11calcJumpPosEN4sead7Vector3IfEES2_f = 0x000434a0
_ZN3agl11DrawContextC1Ev = 0x00757dc0
_ZN3agl11DrawContextC2Ev = 0x00757dc0
_ZN2al20isPercentProbabilityEf = 0x0086b710
_ZN33PlayerFireBallAppearWatchFunction18registKillFireBallEPN2al9LiveActorE = 0x00393970
_ZN11SuperBowser16goToNextFlowNodeEv = 0x0003e3a0
_ZNK2al12ActorFactory11convertNameEPKc = 0x0080f050
_ZN2rc26tryGetNeedleRollerHitParamEPN4sead7Vector3IfEEPfPKN2al9SensorMsgE = 0x0043a390
_ZN7BombHei7controlEv = 0x000b4540
_ZN2al11setCpuBoostEbb = 0x009b9950
_ZN15PlayerEntryMini23requestStopLrAssignModeEv = 0x00187cf0
_ZN12IslandKeeper15updateScenariosEv = 0x0025c960
_ZN2al15SeadAudioPlayerC2Ev = 0x008e3250
_ZN2al15SeadAudioPlayerC1Ev = 0x008e3250
_ZN2al32initMapPartsActorNoPlacementInfoEPNS_9LiveActorERKNS_13ActorInitInfoEPKc = 0x00839740
_ZN3agl3sdw18PrimitiveOcclusion15initSphereAoUboEPN4sead7Buffer2INS_12UniformBlockEEE = 0x008b8a10
_ZNK2al13PlayerWatcher18getCameraTargetNumEv = 0x00917240
_ZN2al21initProgramableCameraEPKNS_10IUseCameraEPKc = 0x009145f0
_ZN19KoopaChaseStateWarp5startERKN4sead7Vector3IfEE = 0x0002a630
_ZN3agl6driver6NVNMgr27nvnCommandBufferBindTextureEPNS_11DrawContextEmRKNS_14ShaderLocationEi = 0x0075b6f0
_ZN9CoinFalls14tryAppearCoinsEv = 0x00203750
_ZN14GoalItemHolder22appearWindowProcessingEv = 0x00247b50
_ZN2al16invalidateShadowEPNS_9LiveActorEPNS_14ShadowMaskBaseE = 0x008bb950
_ZN2al14tryGetByamlU32EPjRKNS_9ByamlIterEPKc = 0x008ced70
_ZN13ItemStockTray8setCountEii = 0x00142cc0
_ZN4sead7TaskMgr20doRequestCreateTask_ERKNS_8TaskBase9CreateArgEPNS_13DelegateEventIPS1_E4SlotE = 0x007174c0
_ZN3agl3utl26ContextParameterBufferImpl25copyParameterToAllContextEi = 0x007997a0
_ZN21alCameraPoserFunction35initSnapShotCameraCtrlZoomAutoResetEPN2al14CameraPoser_RSE = 0x0091ea50
_ZN13PlayerKoopaJr14updateColliderEv = 0x0039c450
_ZN4BombC1EPKcb = 0x000b1680
_ZN3agl4proc3LUT20genMessageParametersEPN4sead6hostio7ContextE = 0x00795280
_ZN12NoiseTexture9updateUboEv = 0x009821b0
_ZN23ActorStateSupportFreeze21receiveMsgScreenPointEPKN2al9SensorMsgEPNS0_13ScreenPointerEPNS0_17ScreenPointTargetE = 0x000b0990
_ZN3agl17ShaderProgramEdit10initializeEPNS_20ShaderProgramArchiveEiNS_16ResShaderProgramEPN4sead4HeapE = 0x0078aa90
_ZN4sead19PrimitiveDrawMgrNvn9drawImpl_EP16NVNcommandBuffer16NVNdrawPrimitiveRKNS_8Matrix34IfEERKNS_7Color4fESA_P9NVNbufferjSC_jPKNS_7TextureEPKNS_7Vector2IfEESJ_ = 0x0071bdd0
_ZNK3agl3pfx12DepthOfField23uniformVignettingParam_EPNS_11DrawContextERKNS1_7DrawArgEPKNS_13ShaderProgramE = 0x007b8e70
_ZN2rc31tryCalcPadPortByFirstActiveUserE22GameDataHolderAccessor = 0x00425970
_ZN2rc17calcPlayerHoldPosEPN4sead7Vector3IfEEPKN2al9HitSensorE = 0x00430180
_ZN2al15SceneCameraInfoC2Ei = 0x00917560
_ZN2al15SceneCameraInfoC1Ei = 0x00917560
_ZN22DisasterModeController27forceKillSuperBowserAttacksEv = 0x0020c120
_ZN4sead5Event4waitENS_8TickSpanE = 0x00733e50
_ZN3agl3env9EnvObjSet4bindEPNS0_9EnvObjMgrE = 0x007cca50
_ZN2al12ArchiveEntry4loadEv = 0x0080fac0
_ZN2al16CameraCloseUpperC2EPN4sead12LookAtCameraEPNS1_21PerspectiveProjectionES5_Pi = 0x00903420
_ZN2al16CameraCloseUpperC1EPN4sead12LookAtCameraEPNS1_21PerspectiveProjectionES5_Pi = 0x00903420
_ZN2al9LiveActor8movementEv = 0x0085bec0
_ZN17OceanScenarioList23tryGetOceanScenarioListEPKN2al18IUseSceneObjHolderEi = 0x0041bac0
_ZN2al12EffectKeeper10emitEffectEPKcPKN4sead7Vector3IfEE = 0x009612a0
_ZNK15PlayerEntryItem11isNotActiveEv = 0x00183fa0
_ZN10Trampoline10receiveMsgEPKN2al9SensorMsgEPNS0_9HitSensorES5_ = 0x002d5f50
_ZN20DemoScenePlayerModel9createAllERKN2al13ActorInitInfoEPKcP26PlayerRetargettingSelectorPNS0_11IUseHioNodeES5_ = 0x000a7fb0
_ZN5March9exeAttackEv = 0x000f8f20
_ZN2al9LiveActor15initModelKeeperEPNS_11ModelKeeperE = 0x0085cc90
_ZN2al16ShadowMaskKeeper16updateShadowMaskEv = 0x008c7240
_ZN3agl3sdw11DepthShadow11clipByPlaneERKN4sead6Plane3IfEE = 0x007d4c90
_ZN11SuperBowser27updatePlessieChaseKnockbackEf = 0x00042aa0
_ZN4Coin10appearJumpEv = 0x001fca40
_ZN24SpotLightPatrollFunction21tryCreateAndGetHolderEPKN2al9LiveActorE = 0x002bc5e0
_ZNK15PlayerEntryMini17calcActiveItemNumEv = 0x001877a0
_ZN11SuperBowser9disappearEb = 0x00043c90
_ZN2al22listenStageSwitchOnOffEPNS_15IUseStageSwitchEPKcRKNS_11FunctorBaseES6_ = 0x008ccc20
_ZN2al27createLinksActorFromFactoryERKNS_12ActorFactoryERKNS_13ActorInitInfoEPKci = 0x00838ef0
_ZN11PunpunParam12getDividePosEiii = 0x00039260
_ZN2al15startAnimCameraEPKNS_10IUseCameraEPKNS_10CameraInfoEPKcPKN4sead8Matrix34IfEEi = 0x009149e0
_ZN16alEffectFunction17tryFindEffectUserEPKN2al16EffectSystemInfoEPKc = 0x00960d00
_ZN18OceanWaterIndirect13setupVerticesEffff = 0x0029d940
_ZN9MultiLiftC1EPKc = 0x00287820
_ZN2rc27calcTouchPanelPortByPortNumEi = 0x004256f0
_ZN2rc23getPadUiMapScrollByPortEi = 0x004271a0
_ZN10NekoNormal23tryStartDefaultBehaviorEN2al5param12NekoBehaviorE = 0x003014c0
_ZN2al12FrustumRadar15calcFrustumAreaERKN4sead8Matrix34IfEERKNS1_8Matrix44IfEEff = 0x009334c0
_ZN22HeadgearStateBlowParamC2Ev = 0x0025a110
_ZN22HeadgearStateBlowParamC1Ev = 0x0025a110
_ZN2al21SeAreaTriggeredPlayerC1EPKNS_13AudioDirectorEPNS_15AreaObjDirectorEPKNS_12PlayerHolderE = 0x0099eb10
_ZN2al21SeAreaTriggeredPlayerC2EPKNS_13AudioDirectorEPNS_15AreaObjDirectorEPKNS_12PlayerHolderE = 0x0099eb10
_ZN2al3Bgm11changePitchEPKNS_16BgmPitchProcInfoE = 0x008ec160
_ZN21PlayerStockerFunction23registerPlacementPlayerEPKN2al5SceneEP11PlayerActori = 0x003d7ef0
_ZN4sead12MessageQueue4freeEv = 0x00733f20
_ZN2al19ShaderCubeMapKeeper17makeTextureByInfoERKNS0_10TexResInfoEbPKcS5_ = 0x008b07e0
_ZN20PlayerInvincibleDash6updateEv = 0x00397760
_ZN2al14BlockRailParts10calcOffsetERKN4sead7Vector3IfEE = 0x008f3270
_ZN12IslandHolder13setScenarioIDEib = 0x002e4f00
_ZNK21DisasterSpikeDirector17getLaunchSpikePosEi = 0x00154360
_ZN2al16MessageProjectEx4initEv = 0x0097ae10
_ZN19TentackTentacleStepC1EPKcP15TentackTentaclePKN4sead7Vector3IfEE = 0x00062560
_ZN2al13AnimPlayerSkl12startSklAnimEPKcS2_S2_S2_S2_S2_S2_ = 0x008d5cd0
_ZN15RaidonGoalState10updateMoveEfff = 0x003bcb80
_ZN2al17initMapPartsActorEPNS_9LiveActorERKNS_13ActorInitInfoEPKci = 0x00838730
_ZNK2al12CameraHolder13getCameraByIdEPKNS_11PlacementIdE = 0x00904400
_ZN16FieryRotatePartsC1EPKc = 0x001591d0
_ZN6Vessel8Emulator7Virtual11PlatformHvc4CHvc11ContentSizeEm = 0x001a84d0
_ZN22ProductStageStartParam19createCommandStringEPN4sead22BufferedSafeStringBaseIcEE = 0x003fdcc0
_ZN26PlayerKoopaJrStateGraffiti10receiveMsgEPKN2al9SensorMsgEPNS0_9HitSensorES5_ = 0x003a8720
_ZN2al13isExistActionEPKNS_9LiveActorEPKc = 0x00832b00
_ZN3agl3pfx10HDRCompose10initializeEiPN4sead4HeapE = 0x007e0330
_ZN2rc16removeDemoPlayerEP11PlayerActor = 0x000a9b80
_ZN4sead15OrthoProjectionC2Ev = 0x00738840
_ZN4sead15OrthoProjectionC1Ev = 0x00738840
_ZN2al15SceneCameraCtrl4initEi = 0x0092c080
_ZN2al15CubeMapDirector18initByCapturePointEPNS_12PlayerHolderE = 0x008ab630
_ZN2al9lerpValueEfffff = 0x0086ae30
_ZN2al13WheelMapParts4initERKNS_13ActorInitInfoE = 0x008682e0
_ZN14DarkBowserUtil17jointChainReleaseERNS_20ControlledJointChainE = 0x00020ed0
_ZN21SuperBowserLaserStateC2EP11SuperBowserRKN2al13ActorInitInfoE = 0x00049570
_ZN21SuperBowserLaserStateC1EP11SuperBowserRKN2al13ActorInitInfoE = 0x00049570
_ZN11ShadowMario16exeWaitForPlayerEv = 0x0013a140
_ZN21GoalPoleBindPuppeteer20exeCatchFailureStartEv = 0x0024ece0
_ZN16NeedleRollerFall13startGenerateEv = 0x0028bbf0
_ZN2al17CollisionDirector16checkStrikeArrowERKN4sead7Vector3IfEES5_ = 0x00936b80
_ZN3eui10DrawInfoEx18freeDynamicTextureEv = 0x007e4b70
_ZN16TeresaFakeObject4killEv = 0x002c7a30
_ZN2rc17isPlayerHideModelEPKN2al9HitSensorE = 0x00430020
_ZN3eui9TextBoxEx12doSetString_EPKDstPbibPv = 0x007e91b0
_ZN11CoinCountUp11appearFrontERKN4sead7Vector3IfEE = 0x00201bb0
_ZN2al14setNerveAtStepEPNS_9IUseNerveEPKNS_5NerveEi = 0x00880980
_ZN19KoopaChaseStateJumpC1EP10KoopaChaseRKN2al13ActorInitInfoE = 0x00029320
_ZN19KoopaChaseStateJumpC2EP10KoopaChaseRKN2al13ActorInitInfoE = 0x00029320
_ZN3agl3utl14INamedObjIndexD2Ev = 0x007ca150
_ZN3agl3utl14INamedObjIndexD1Ev = 0x007ca150
_ZN2al26initLayoutPartsAudioKeeperEPNS_11LayoutActorERKNS_14LayoutInitInfoERKN4sead14SafeStringBaseIcEE = 0x00971480
_ZN2al10calcHeightEPKNS_9LiveActorERKN4sead7Vector3IfEE = 0x0083cf50
_ZN15alYamlMacroUtil14YamlParamGroup9readParamERKN2al9ByamlIterE = 0x008cf920
_ZN6Vessel8Emulator7Virtual11PlatformHvc7CHvcSpu7_SWavwR5SetupEhhPNS2_16CPlatformHvcUnit8_SEntityE = 0x001c10e0
_ZN2al8SeKeeper7stopAllEi = 0x009aa540
_ZN4sead13GameFramework10initializeERKNS_9Framework13InitializeArgE = 0x00713f50
_ZN18BlockHardLaserOnlyC1EPKc = 0x0014b3c0
_ZN21CourseSelectMiniature15tryFindNextNodeEPP28ICourseSelectActorControlleri = 0x00082650
_ZN4sead13FileDeviceMgr7tryLoadERNS_10FileDevice7LoadArgE = 0x0070ee90
_ZN10SuperKoura8tryBreakEv = 0x00407f00
_ZN12BossBunretsuC1EPKc = 0x000ba360
_ZN6Killer21receiveMsgScreenPointEPKN2al9SensorMsgEPNS0_13ScreenPointerEPNS0_17ScreenPointTargetE = 0x000e6f00
_ZN2al15GameFrameworkNx9procDraw_Ev = 0x0096be90
_ZN3agl2fx17OccludedEffectMgr11TextureInfo9PlacementC2EiPS2_ = 0x007bf950
_ZN3agl3utl13ImageFilter2D13drawTexture3DEPNS_11DrawContextERKNS_14TextureSamplerERKN4sead8ViewportEfRKNS7_7Vector2IfEESE_f = 0x0076a700
_ZN9Gotogoton12tryStartSinkEv = 0x00252de0
_ZN11PlayerInput9snapStickEPN4sead7Vector2IfEE = 0x00396f70
_ZN25FlyerStateFindPlayerParamC2EfPc = 0x000d5260
_ZN25FlyerStateFindPlayerParamC1EfPc = 0x000d5260
_ZN2al15CameraPoserRailC2ERKNS_20CameraPoserRailParamEPKNS_13PlayerWatcherEPKNS_11PlacementIdE = 0x0090ed20
_ZN2al15CameraPoserRailC1ERKNS_20CameraPoserRailParamEPKNS_13PlayerWatcherEPKNS_11PlacementIdE = 0x0090ed20
_ZNK15RouteDokanRider21isEnablePlayerRefrectEv = 0x002b1850
_ZN3agl2fx7OfxBase13initializeOfxERKNS1_9CreateArgEiPKNS1_10PresetBaseEPN4sead4HeapEPNS0_17OccludedEffectMgrE = 0x007c09b0
_ZN12BalanceTruckC1EPKc = 0x001d0d10
_ZN2al9setLengthEPN4sead7Vector3IfEEf = 0x0086a8e0
_ZN19GhostPlayerRecorder17setPlacementIdObjEPKcb = 0x002e9220
_ZN18RideUserInfoKeeperC2Ev = 0x002aa2c0
_ZN18RideUserInfoKeeperC1Ev = 0x002aa2c0
_ZN2rc20isPlayerCharaKinopioEPKN2al9HitSensorE = 0x0042df90
_ZN17HeadgearStateBlowC2EPN2al9LiveActorEPK22HeadgearStateBlowParam = 0x0025a160
_ZN17HeadgearStateBlowC1EPN2al9LiveActorEPK22HeadgearStateBlowParam = 0x0025a160
_ZN14CheckPointStar7endMoveEv = 0x001f61a0
_ZN2al9ParameterIN4sead15FixedSafeStringILi64EEEEC2ERKS3_RKNS1_14SafeStringBaseIcEESA_SA_PNS_12ParameterObjEb = 0x00988c50
_ZN3agl13ShaderProgram17setUpAllVariationEb = 0x00762800
_ZN19alPlacementFunction17getClippingViewIdEPN2al11PlacementIdERKNS0_13PlacementInfoE = 0x0088cf80
_ZN15DarkBowserWheel11updateAudioEv = 0x000221a0
_ZN2al21setVelocityBlowAttackEPNS_9LiveActorERKN4sead7Vector3IfEEff = 0x0083c860
_ZN22SingleModeDataFunction18recordDisasterModeE20GameDataHolderWriterNS_20DisasterForceSettingEPKN2al18IUseSceneObjHolderE = 0x0041ef10
_ZN20SuperBowserFireFlame12exeLandStartEv = 0x00047d20
_ZNK15DarkBowserLaser16isInLaserFrustumERKN4sead7Vector3IfEEf = 0x0001cef0
_ZN2al19ClippingGroupHolderC2Ev = 0x00932670
_ZN2al19ClippingGroupHolderC1Ev = 0x00932670
_ZN2al18PrePassLightKeeper17requestPointLightERKN4sead7Vector3IfEEfRKNS1_7Color4fEffbbS8_i = 0x00825d80
_ZN30CourseSelectRouteDokanEntrance13createStopperERKN2al13ActorInitInfoE = 0x00093690
_ZN14SuperSkateRail19getReverseDirectionEv = 0x002c4a70
_ZN2al17calcCameraSideDirEPN4sead7Vector3IfEEPKNS_10IUseCameraE = 0x00914fc0
_ZN17IslandAreaWatcherC1EPN2al12PlayerHolderE = 0x0025b3e0
_ZN17IslandAreaWatcherC2EPN2al12PlayerHolderE = 0x0025b3e0
_ZN2rc30startHitReactionIfThroughWaterEPKN2al9LiveActorE = 0x00428db0
_ZN14PlayerCollider12calcWallInfoERN4sead7Vector3IfEES3_S3_S3_jRKS2_ = 0x003828a0
_ZNK3agl3g3d20ModelShaderAttribute20activateVertexBufferEPNS_11DrawContextE = 0x0077f710
_ZNK2al13PlayerWatcher18isExistPriorPlayerEv = 0x00917380
_ZN22RouteDokanBazookaRider8exeStartEv = 0x002adea0
_ZN2al15FootPrintServer17findDeadFootPrintEv = 0x00885160
_ZN7BombHei14killForRespawnEv = 0x000b4640
_ZN15NpcTargetFinder12attackSensorEPN2al9HitSensorES2_ = 0x003101c0
_ZNK4sead8Viewport19getOnFrameBufferPosEPNS_7Vector2IfEERKNS_18LogicalFrameBufferE = 0x0073a860
_ZN3agl3sdw13ShadowFrustum19updateByViewFrustumERKN4sead8Matrix34IfEERKNS2_8Matrix44IfEEff = 0x007da280
_ZN11DemoObjBase7endDemoEb = 0x000a2e40
_ZN2al18DepthOfFieldDrawerC2EPKNS_18GraphicsSystemInfoEi = 0x0088e800
_ZN2al18DepthOfFieldDrawerC1EPKNS_18GraphicsSystemInfoEi = 0x0088e800
_ZNK7Tentack20isEnablePlacementPosERKN4sead7Vector3IfEE = 0x000564e0
_ZN2al11isInAreaObjEPKNS_11IUseAreaObjEPKcRKN4sead7Vector3IfEE = 0x008db8a0
_ZN2al6Effect17tryUpdateMaterialEPKcRA4_Kb = 0x0095d830
_ZN23ActorStateSupportStroke21receiveMsgScreenPointEPKN2al9SensorMsgEPNS0_13ScreenPointerEPNS0_17ScreenPointTargetE = 0x002f6680
_ZN15PlayerSubActionC1EPK15IUsePlayerInputP18IUsePlayerAnimatorP15IUsePlayerAudioP16IUsePlayerEffectP20PlayerFigureDirectorPK20IUsePlayerCharaQueryP26IUsePlayerFireBallLauncherSF_P16IUsePlayerAttackPK22IUsePlayerCeilingCheckPK19IUsePlayerEquipmentPK14IUsePlayerFlagPK19IUsePlayerCollisionPK16PlayerConstParamP23IUsePlayerEventReceiverPK19PlayerGiantDirectorPK18PlayerGigaDirectorP11PlayerActor = 0x003b2d20
_ZN15PlayerSubActionC2EPK15IUsePlayerInputP18IUsePlayerAnimatorP15IUsePlayerAudioP16IUsePlayerEffectP20PlayerFigureDirectorPK20IUsePlayerCharaQueryP26IUsePlayerFireBallLauncherSF_P16IUsePlayerAttackPK22IUsePlayerCeilingCheckPK19IUsePlayerEquipmentPK14IUsePlayerFlagPK19IUsePlayerCollisionPK16PlayerConstParamP23IUsePlayerEventReceiverPK19PlayerGiantDirectorPK18PlayerGigaDirectorP11PlayerActor = 0x003b2d20
_ZN2al18CameraPoserAnim_RS16initAnimResourceEPKNS_8ResourceEPKN4sead8Matrix34IfEE = 0x008f75e0
_ZN2rc5Stamp8setStampEv = 0x002be100
_ZN32StageStartBindDemoKinopioBrigade18updateBrigadeIntroEi = 0x000ac550
_ZN20PlayerActionSwimDiveC1EPK15PlayerActionArgP21IUsePlayerFlagControlP13PlayerTrigger = 0x00354810
_ZN20PlayerActionSwimDiveC2EPK15PlayerActionArgP21IUsePlayerFlagControlP13PlayerTrigger = 0x00354810
_ZN10GameSystem4initEv = 0x00418730
_ZN18BlockRouletteState5resetEv = 0x001e22e0
_ZN3eui9ScreenMgrC2Ev = 0x007f6d00
_ZN3eui9ScreenMgrC1Ev = 0x007f6d00
_ZN13BrosStateJumpC2EPN2al9LiveActorEPNS0_13KeyPoseKeeperEPK18BrosMoveStepKeeper = 0x000c2660
_ZN13BrosStateJumpC1EPN2al9LiveActorEPNS0_13KeyPoseKeeperEPK18BrosMoveStepKeeper = 0x000c2660
_ZNK2al17CategoryLightInfo24calcApplyModelLightColorEPN4sead7Color4fERKS2_ = 0x0087c690
_ZN20NpcStateRunAwayParamC1EfifffffbbbPKcS1_fi = 0x0030d730
_ZN20NpcStateRunAwayParamC2EfifffffbbbPKcS1_fi = 0x0030d730
_ZN2al16getRandomNonSyncEff = 0x0086b350
_ZN21WalkerStateChaseParamC1Ev = 0x00132dd0
_ZN21WalkerStateChaseParamC2Ev = 0x00132dd0
_ZN2al11NfpDirector10initializeEv = 0x00882090
_ZN3agl12UniformBlock6createEPN4sead4HeapEii = 0x007662f0
_ZN17BallStateFunction14rotateOnGroundEPN2al9LiveActorERKN4sead7Vector3IfEE = 0x001d8210
_ZN2rc27disappearCameraChangeLayoutEPKN2al18IUseSceneObjHolderE = 0x00165dc0
_ZN21DrcAssistDirectorList32disappearTouchPointerImmediatelyEv = 0x00222740
_ZN2al12EffectSystem4initEv = 0x00964630
_ZN2al32GraphicsParamRequestInterpKeeperINS_16LightStreakParamEE10NamedParamC2Ev = 0x00899e50
_ZN2al19isSensorHostSubNameEPKNS_9HitSensorEPKc = 0x00842220
_ZN6Teresa10receiveMsgEPKN2al9SensorMsgEPNS0_9HitSensorES5_ = 0x0012a0a0
_ZN2al16AnimPlayerSimple9startAnimEPKc = 0x008d53d0
_ZN2rc25sendMsgCameraPushToPlayerEPN2al9LiveActorEPNS0_9HitSensorERKN4sead7Vector3IfEE = 0x0043a850
_ZN2rc36getExplosionComboCounterAndNextIndexEPKN2al9LiveActorE = 0x00229920
_ZN22BoomerangBrosBoomerang5shootERKN4sead7Vector3IfEE = 0x000b9730
_ZN4sead7ExpHeap15pushToFreeList_EPNS_8MemBlockE = 0x0071f060
_ZNK2al19CameraPoserParallel29calcLayoutBoxIncludeAllPlayerEPN4sead9BoundBox2IfEEPb = 0x0090d4d0
_ZN23DemoPlayerModelDirectorC1Ev = 0x000a41e0
_ZN23DemoPlayerModelDirectorC2Ev = 0x000a41e0
_ZNK2al12EffectSystem12updateEffectEPKc = 0x00964d50
_ZN2al10SeDirector14addHoldRequestEjPNS_8SeSourceEPKNS_22SeResourceSpecificInfoEPNS_6MeInfoEPKcibS9_ = 0x009a1ac0
_ZN3agl3sdw9ShadowMap16beginDepthBufferEPNS_11DrawContextEiRKN4sead7Vector2IfEES8_ = 0x007dc150
_ZN2al23getPrePassSpotLightInfoEPKNS_9LiveActorEPKcPfS5_PN4sead7Vector3IfEES9_ = 0x00820120
_ZNK21SuperBowserLaserState14calcLaserAccelEv = 0x0004dc00
_ZN11PlayerEntryC1ERKN2al14LayoutInitInfoERKNS0_13ActorInitInfoEP14GameDataHolder = 0x001827c0
_ZN4sead4Path18getPathExceptDriveEPNS_22BufferedSafeStringBaseIcEERKNS_14SafeStringBaseIcEE = 0x00710be0
_ZN2al18tryOffSwitchDeadOnEPNS_15IUseStageSwitchE = 0x008cc990
_ZN4Neko13setActiveFaceERKN4sead7Vector3IfEE = 0x002fd7d0
_ZN15TimerCoinHolder4initERKN2al13ActorInitInfoE = 0x002cb3a0
_ZN2al13ActionBgmCtrl9tryCreateEPNS_11AudioKeeperE = 0x008d2b40
_ZNK3agl3pfx12DepthOfField17bindRenderBuffer_EPNS_11DrawContextERNS_12RenderBufferEii = 0x007b85d0
_ZN2al18EffectShaderHolder18setupTextureDitherEPKN3agl11TextureDataERKN4sead7Vector2IfEE = 0x00962ae0
_ZNK3agl3pfx12AutoExposure20setCommonShaderParamEPNS_11DrawContextEPKNS_13ShaderProgramE = 0x007ba8b0
_ZN12PackunFlower14checkCollisionEPKN2al9SensorMsgEPNS0_9HitSensorES5_ = 0x00104910
_ZN13ItemStockTray9stockItemEPKN2al9LiveActorES3_ib = 0x00143870
_ZN4sead16DirectProjection19setProjectionMatrixERKNS_8Matrix44IfEENS_8Graphics13DevicePostureE = 0x00739140
_ZNK4sead7HeapMgr15findContainHeapEPKv = 0x007227d0
_ZN15StageWipeKeeper14closeRetryWipeEb = 0x00405590
_ZN4sead12PerfJobQueue10initializeEPKcPNS_4HeapE = 0x00745e50
_ZN14CheckpointFlag13setStateAfterEv = 0x001f4f10
_ZN2al27ClippingAreaActorViewHolder24removeFromClippingSystemEPNS_9LiveActorE = 0x009301e0
_ZN11PlayerActor15startDiveCameraEv = 0x0036b530
_ZN2al18CameraInterpole_RS20exeActiveRotateAxisYEv = 0x00925e20
_ZN2al16ColorClampDrawerC1EPNS_12ShaderHolderE = 0x00990340
_ZN2al16ColorClampDrawerC2EPNS_12ShaderHolderE = 0x00990340
_ZN9KaronWing16moveEyesToPlayerEv = 0x000e58b0
_ZN13PlayerKoopaJr18startBossIntroDemoERKN4sead7Vector3IfEES4_S4_ib = 0x0039f4b0
_ZN2al24isSensorBlockTransparentEPKNS_9HitSensorE = 0x0084c770
_ZN4sead13FileDeviceMgr7unmountEPNS_10FileDeviceE = 0x0070ebb0
_ZN16PlayerActionFunc9setupJumpEP14PlayerPropertyP19IUsePlayerCollisionfb = 0x00323160
_ZN11SuperBowser18updateLaunchSpikesEv = 0x0003f920
_ZN19DarkBowserShellDive21tryAppearGuideMessageEv = 0x0001e690
_ZN21PlayerUpperBodyAction4dropEv = 0x003b4420
_ZN2al16SeSourcePoseNullC2Ev = 0x009b2ad0
_ZN2al16SeSourcePoseNullC1Ev = 0x009b2ad0
_ZN2al9SystemKitC2Ev = 0x008ccf80
_ZN2al9SystemKitC1Ev = 0x008ccf80
_ZN2al15isMsgBindCancelEPKNS_9SensorMsgE = 0x008458e0
_ZN4sead10StringUtil21tryConvertSjisToUtf16EPiPDsjPKci = 0x0072a450
_ZN10PipePackun7exeMoveEv = 0x0010cb50
_ZN3agl3env9EnvObjSet8pushBackEPNS0_6EnvObjE = 0x007cd300
_ZN23ImozoStateBlockRailMove16tryStartReactionEPKN2al9SensorMsgEPNS0_9HitSensorES5_ = 0x000e2b50
_ZN2al6Effect18setStopCalcAndDrawEb = 0x0095e340
_ZNK3eui12SharcArchive15startFileReaderEPNS0_10FileReaderE = 0x007e6050
_ZN2al17PadRumbleDirector18updateInfoListLoopEv = 0x00951800
_ZN4Peto4initERKN2al13ActorInitInfoE = 0x0010a300
_ZN21WarpCubeBindPuppeteer16startBindInStartEPN2al9HitSensorES2_ = 0x002defa0
_ZN21ButtonSquareIconParts8exeTouchEv = 0x001637e0
_ZN2al15getRandomVectorEPN4sead7Vector3IfEEf = 0x0086b560
_ZN2al26SeSourcePose3DMtxOffsetPtrC1EPKN4sead8Matrix34IfEEPKNS1_7Vector3IfEE = 0x009b1ae0
_ZN2al26SeSourcePose3DMtxOffsetPtrC2EPKN4sead8Matrix34IfEEPKNS1_7Vector3IfEE = 0x009b1ae0
_ZN2al13SkyProjectionC2EPKc = 0x00886de0
_ZN43PlayerActionConditionGigaClimbAirMoveToWall5checkEv = 0x0031f650
_ZN20DemoSceneActorHolder11startActionEib = 0x000a58e0
_ZN12GeneratorBox12attackSensorEPN2al9HitSensorES2_ = 0x00235940
_ZN5erepo12ObserverBase15createSendData_ERKN4sead15FixedSafeStringILi31EEEiiiRKNS1_12StringIdBaseILj4096ELj32ELj1936023908EjEEb = 0x009bdd30
_ZN16TimerClockNumberC1ERKN2al14LayoutInitInfoEi = 0x0019d760
_ZN2al10SeDirector22notifiedUpdateMaterialEPNS_8SeSourceEPKci = 0x009a1fe0
_ZN16GameDataFunction33getPlayerCharacterNameFromBitFlagE22GameDataHolderAccessorj = 0x00415170
_ZN4sead25SingleScreenMethodTreeMgrC2Ev = 0x00714b90
_ZN4sead25SingleScreenMethodTreeMgrC1Ev = 0x00714b90
_ZN21WarpCubeBindPuppeteer13tryCancelBindEPKN2al9SensorMsgEPNS0_9HitSensorE = 0x002df030
_ZN7TrapezeC1EPKc = 0x002d6700
_ZN4sead14MessageSetBase8finalizeEv = 0x00747e50
_ZN21SuperBowserLaserState11startShrinkEv = 0x0004c9b0
_ZN3agl4lght12LightPrePassD2Ev = 0x007a5830
_ZN3agl4lght12LightPrePassD1Ev = 0x007a5830
_ZN4sead10StringUtil11parseNumberIfEET_RKNS_14SafeStringBaseIcEENS0_14CardinalNumberE = 0x00729980
_ZN2al19tryAddVelocityLimitEPNS_9LiveActorERKN4sead7Vector3IfEEf = 0x0083c150
_ZN2al22OccludedEffectDirectorC2EPNS_18GraphicsSystemInfoEi = 0x0089a250
_ZN2al22OccludedEffectDirectorC1EPNS_18GraphicsSystemInfoEi = 0x0089a250
_ZN2al16PrePassLightBase6appearEv = 0x00823bd0
_ZN2al16calcDirToNextKeyEPN4sead7Vector3IfEEPKNS_13KeyPoseKeeperE = 0x0081a740
_ZN16TicoCourseSelect4initERKN2al13ActorInitInfoE = 0x0009f800
_ZN2al17CameraDirector_RS24createMirrorObjectCameraEPKNS_11PlacementIdEPKciRKN4sead8Matrix34IfEE = 0x0091b320
_ZN21DisasterSpikeDirector21forceKillLaunchSpikesEv = 0x00153ca0
_ZN3agl2fx7OfxBase4calcEv = 0x007c0ed0
_ZN2al21GraphicsParamFilePathC1EPKcS2_ = 0x008039c0
_ZN2al21GraphicsParamFilePathC2EPKcS2_ = 0x008039c0
_ZN2al10SeSource3DC2ERKN4sead14SafeStringBaseIcEEPNS_14SeSourcePose3DEPNS_15AudioSystemInfoE = 0x009b0560
_ZNK2al9AreaShape12calcLocalPosEPN4sead7Vector3IfEERKS3_ = 0x008dc260
_ZN20PlayerActionObserver6updateEv = 0x003469c0
_ZN2al19ClippingActorHolderC2Ei = 0x009318d0
_ZN2al19ClippingActorHolderC1Ei = 0x009318d0
_ZN2al25tryChangeSingleCameraModeEPKNS_10CameraInfoE = 0x00915570
_ZN21PlayerInvincibleState6updateEv = 0x00397aa0
_ZN22inputdevice_controller12getDRCButtonEj = 0x001c8880
_ZN2al22updateMaterialCodeAreaEPNS_9LiveActorE = 0x0083a070
_ZN15PlayerEntryItem7endDemoEv = 0x00184450
_ZN6Runner19trySetTransOnGroundEv = 0x00112a80
_ZNK3agl3sdw18PrimitiveOcclusion6drawAoEiRKNS_11TextureDataES4_bNS_10ShaderModeE = 0x008ba590
_ZN3agl3env9EnvObjSetC2Ev = 0x007cc7d0
_ZN3agl3env9EnvObjSetC1Ev = 0x007cc7d0
_ZN4Neko15initAsModelNameERKN2al13ActorInitInfoEPKc = 0x002fc840
_ZN2rc40tryReceiveMsgPushConnectedAndAddVelocityEPN2al9LiveActorEPKNS0_9SensorMsgEPKNS0_9HitSensorES8_f = 0x0043b810
_ZN4Ball11startEffectEv = 0x001d3ef0
_ZN13DisasterSpike7controlEv = 0x002145c0
_ZN2al14SubActorKeeperC1EPNS_9LiveActorERKNS_13ActorInitInfoEPKci = 0x0085d8f0
_ZN2al14SubActorKeeperC2EPNS_9LiveActorERKNS_13ActorInitInfoEPKci = 0x0085d8f0
_ZN4sead9WorkerMgr8finalizeEv = 0x00749010
_ZN16BossBunretsuCoreC1EP12BossBunretsuPKc = 0x000bd6c0
_ZN12BoxPropeller21tryUpdateGuideMessageEv = 0x001ed350
_ZN2al12AtmosScatter14createTexturesEv = 0x008aa1f0
_ZN22DisasterModeController25exeAnticipationTransitionEv = 0x00210360
_ZN15PlayerEntryMiniC1ERKN2al14LayoutInitInfoEP14GameDataHolderPNS0_12PlayerHolderEi = 0x00186fe0
_ZN11PlayerEntry12retirePlayerEi = 0x00182af0
_ZN2al21ScreenCaptureExecutor10tryCaptureEPN3agl11DrawContextEPKNS1_12RenderBufferEi = 0x008a7f20
_ZN16SimpleMenuLayout11isDecideEndEv = 0x0019d3e0
_ZN9CoinFalls12initShapeUboEv = 0x002028a0
_ZN10Lighthouse13killInkPillarEv = 0x00280360
_ZN2al18CameraTargetHolder18initAfterPlacementEPKNS_12PlayerHolderE = 0x00929210
_ZN14DemoWorldClear4initERKN2al13ActorInitInfoE = 0x000aa5d0
_ZN4sead11XmlDocument12resetEntity_EPNS_4HeapE = 0x0073f9a0
_ZN10Trampoline12attackSensorEPN2al9HitSensorES2_ = 0x002d5e20
_ZN2al21CameraPoserBossBattleC1EPKcPKN4sead7Vector3IfEE = 0x008f7d30
_ZN2al21CameraPoserBossBattleC2EPKcPKN4sead7Vector3IfEE = 0x008f7d30
_ZN11ShadowMario15setShadowActionERN2al9StringTmpILi64EEEPKc = 0x00138650
_ZN20CourseSelectDirector6updateEv = 0x0007da50
_ZNK10KuriboMini21isEnableResetPositionEv = 0x000ee050
_ZNK3agl3pfx15ColorCorrection7drawMapEPNS_11DrawContextE = 0x00794070
_ZN11SyumockUtil27isMsgSyumockDeathSingleModeEPKN2al9SensorMsgE = 0x00123d10
_ZN19ActorRailBrakeMover14setSpeedByTimeEib = 0x000b05d0
_ZN2al7BgmLine7stopBgmEi = 0x008e9e70
_ZN20TrapezeBindPuppeteerC2EPK7Trapeze = 0x002d7c10
_ZN20TrapezeBindPuppeteerC1EPK7Trapeze = 0x002d7c10
_ZNK2al20GraphicsAreaDirector26getGraphicsAreaInfoByIndexEi = 0x00800fd0
_ZN2al12AreaObjGroupC2EPKcS2_RKNS_13ActorInitInfoE = 0x008da890
_ZN2al12AreaObjGroupC1EPKcS2_RKNS_13ActorInitInfoE = 0x008da890
_ZN2al23calcAndExpandViewVolumeEPN2nn3g3d10ViewVolumeERKN4sead8Matrix34IfEERKNS4_8Matrix44IfEERKNS4_7Vector3IfEEf = 0x008065f0
_ZNK3agl4lght12LightPrePass12SpotLightMgr9drawImpl_EPNS_11DrawContextERKNS1_9SpotLightEiRKNS1_7ContextERNS1_11CallbackArgE = 0x007a9460
_ZN21alAudioSystemFunction18pauseBySystemErrorEPKN2al13AudioDirectorES3_bj = 0x008e28a0
_ZN9JumpPanelC1EPKc = 0x002654d0
_ZN20DemoPlayerController7setQuatERKN4sead4QuatIfEE = 0x000a36b0
_ZN3agl6driver6NVNMgr6toTileEPNS_11TextureDataE = 0x0075b3c0
_ZNK2al14SimpleModelG3D19setModelGlobalAlphaEv = 0x0087d5a0
_ZN2al27tryFindPlessieTunnelAreaObjEPKNS_11IUseAreaObjEPKc = 0x008db1e0
_ZN2al20calcMatrixMultParentEPN4sead8Matrix34IfEERKNS_13ActorInitInfoES6_ = 0x0088b090
_ZN2al17CameraPoseUpdater15endSnapShotModeEv = 0x00924110
_ZN3agl3sdw15DepthShadowUnit17updateSceneMatrixERKNS0_11LightMatrixERKN4sead8Matrix34IfEERKNS5_8Matrix44IfEEfff = 0x007d5a20
_ZN2al7BgmLine12attachSuffixEPKNS_11BgmProcInfoEb = 0x008ea730
_ZN2al19WaveVibrationHolder5pauseEv = 0x00954f60
_ZN19PlayerAnimFrameCtrlC1Ev = 0x003763f0
_ZN19PlayerAnimFrameCtrlC2Ev = 0x003763f0
_ZN19BlockBrickBreakableC1EPKc = 0x001dc650
_ZN2al13RequestInterpINS_9YFogParamEE12requestParamEiiRKS1_ = 0x00812630
_ZN22ControllerEventWatcherC2Ev = 0x00425350
_ZN22ControllerEventWatcherC1Ev = 0x00425350
_ZN20DarkBowserShellSpike12launchRandomEv = 0x0001f210
_ZN3agl3pfx12DepthOfField10initIndex_EPN4sead4HeapE = 0x007b6ba0
_ZN2al14ParameterArray11tryGetParamERKNS_9ByamlIterE = 0x00986870
_ZN2al19createKeyPoseKeeperERKNS_13ActorInitInfoE = 0x0081a300
_ZN7TopMenuC1EP12TopMenuSceneRKN2al14LayoutInitInfoEP14GameDataHolderP15StageWipeKeeperPKc = 0x0019e900
_ZN12GuideBalloon13updateDRCIconEb = 0x001709d0
_ZN11RaidonActor8backHeadEv = 0x003bbc80
_ZN15EnemyAttachItem9endAttachEb = 0x000d0510
_ZN14SingleModeData12getPhaseNameEPKN2al18IUseSceneObjHolderE = 0x0041c2e0
_ZN20CourseSelectDirector12registerNodeEP16CourseSelectNode = 0x0007bc40
_ZN19GateKeeperStateDemo15exeInitOnGroundEv = 0x00023310
_ZN15KuriboClimbRail13exeBodyAttackEv = 0x000ebb60
_ZN18DarkBowserRingBeam18updateSoundEffectsEv = 0x000ccac0
_ZN2al15isEndWithStringEPKcS1_ = 0x008e4a50
_ZN11ShadowMario12setTraceModeEPS_ibi = 0x00137080
_ZN18IslandCounterParts21updateShineCountOceanEPK14GameDataHolder12ScenarioInfo = 0x001427e0
_ZN3agl2fx17OccludedEffectMgr11loadSettingEPKvjPKN4sead14SafeStringBaseIcEEb = 0x007bea20
_ZN23ActorStateSupportFreeze13setTouchActorEPN2al9HitSensorE = 0x000b0a20
_ZN2al14BlockRailRider4moveEfPN4sead7Vector3IfEES4_ = 0x008f3b10
_ZN2al12ShadowKeeper18ShadowMaskBaseInfo6setPtrEv = 0x008c0fb0
_ZN8WaveGrid10RenderDataD2Ev = 0x002981b0
_ZN13CollectNumberC1ERKN2al14LayoutInitInfoEPKcS5_ = 0x001666f0
_ZN2rc17isAllPlayerBindedEPKN2al9LiveActorE = 0x0042c030
_ZThn208_N2al21SeadAudioActorWrapperD1Ev = 0x009b1920
_ZN2al15SeRequestKeeper22reactivateSeFromSourceEPNS_8SeSourceE = 0x009adb10
_ZN2al16KCollisionServer11KCHitSphereEPKNS_11KCPrismDataEPKNS_13KCPrismHeaderEPKNS_6KCFxyzEffPfPh = 0x00943700
_ZN21GoalPoleBindPuppeteer9startBindEPN2al9HitSensorES2_i = 0x0024d630
_ZN2rc22sendMsgJumpPanelActionEPN2al9HitSensorES2_b = 0x00434950
_ZNK2al8Resource11getEntryNumERKN4sead14SafeStringBaseIcEE = 0x0089f5e0
_ZN11LuckyIsland7exeFadeEv = 0x00286490
_ZN21KoopaChaseStateDamage13doSmallDamageEPN2al9HitSensorEb = 0x00027cc0
_ZNK2al13PlayerWatcher12getPlayerPosEi = 0x00916bf0
_ZN4sead8DateTime26initializeSystemTimeModuleEv = 0x0073caa0
_ZNK2al30AudioGeneralPurposeAreaChecker18getIntArgInCurAreaEPKc = 0x008deff0
_ZN18CourseInfoFunction19isAcquireIllustItemE22GameDataHolderAccessoribi = 0x0040f050
_ZN11ShadowMario4initERKN2al13ActorInitInfoE = 0x00136c20
_ZN13PlayerKoopaJr15startMysteryBoxEv = 0x0039f690
_ZN15GamaneChameleon16requestDisappearEv = 0x000d9ee0
_ZN2al19createLinkAreaGroupEPNS_9LiveActorERKNS_13ActorInitInfoEPKcS6_S6_ = 0x008db780
_ZN2al19WaveVibrationHolderC1EPKNS_13GamePadSystemE = 0x00953300
_ZN2al19WaveVibrationHolderC2EPKNS_13GamePadSystemE = 0x00953300
_ZN17TreeBindPuppeteer7exeTurnEv = 0x002db540
_ZN14DarkBowserUtil15jointChainPitchERNS_20ControlledJointChainEif = 0x00020c10
_ZN2al32GraphicsParamRequestInterpKeeperINS_8FogParamEEC2EPNS_18GraphicsSystemInfoEiPKcS6_S6_ = 0x00810780
_ZN9DemoSceneC1Ebb = 0x003d2a80
_ZN9DemoSceneC2Ebb = 0x003d2a80
_ZN2rc26getSelectMiniatureCourseIdEP20CourseSelectDirector = 0x0009d340
_ZN18TrampleSwitchTimer17exeWaitCameraAreaEv = 0x002d4370
_ZN4sead11ResourceMgr6createERKNS0_9CreateArgE = 0x0072f7e0
_ZN11ScoreNumber13startPlayerUpEiPKN4sead7Vector3IfEERS3_i = 0x00197530
_ZN20DemoSceneActorPlayer20tryStartActionByNameEPKc = 0x000a6760
_ZN22inputdevice_controller7setMaskEv = 0x001c88f0
_ZN2rc20isInAreaObjPlayerOneEPKN2al11IUseAreaObjENS_11AreaObjTypeEPKNS0_12PlayerHolderE = 0x00423860
_ZN2rc31isTurnToDefaultDirectionCurrentEPKN2al9LiveActorEPK18BrosMoveStepKeeper = 0x000c2d10
_ZN16ResultTimerCountC2EP10StageTimerP15StageDataHolderPN2al13AudioDirectorE = 0x00196ba0
_ZN16ResultTimerCountC1EP10StageTimerP15StageDataHolderPN2al13AudioDirectorE = 0x00196ba0
_ZN2al23ModelDrawerDeferredEchoC1EPKcNS_16EchoDrawCategoryE = 0x0097c2d0
_ZN2al23ModelDrawerDeferredEchoC2EPKcNS_16EchoDrawCategoryE = 0x0097c2d0
_ZN2al21makeQuatRotationLimitEPN4sead4QuatIfEERKNS0_7Vector3IfEES7_f = 0x0086c880
_ZN4sead12CalendarTime7setDateERKNS0_4DateE = 0x0073c950
_ZN23PlayerAliveWatcherGroup6appearEv = 0x003716a0
_ZN8GigaBell20addPlayerItemsToDemoEv = 0x00239fe0
_ZN16WindowProcessing23appearWithSystemMessageEPKcS1_ib = 0x001a1660
_ZN2al22ActionPadAndCameraCtrl11startActionEPKc = 0x008d1380
_ZN4sead12PtrArrayImpl5eraseEii = 0x0070c190
_ZN11OptionsMenu17appearKoopaJrDemoEi = 0x00145fd0
_ZNK3agl3utl23DynamicTextureAllocator5dump_Ei = 0x00769df0
_ZN3agl3sdw15DepthShadowUnit11clipByPlaneERKN4sead6Plane3IfEE = 0x007d6bd0
_ZN2al13PlacementInfoC1Ev = 0x008894f0
_ZN2al13PlacementInfoC2Ev = 0x008894f0
_ZN2al22calcDistanceVecToPlaneERKN4sead7Vector3IfEES4_S4_S4_ = 0x0086bb20
_ZN22DisasterModeController38calcProsperityStartAdditionalFramesMaxEv = 0x0020efa0
_ZN2al18AsyncFunctorThreadC1ERKN4sead14SafeStringBaseIcEERKNS_11FunctorBaseEii = 0x008cd390
_ZN2al18AsyncFunctorThreadC2ERKN4sead14SafeStringBaseIcEERKNS_11FunctorBaseEii = 0x008cd390
_ZNK2al16CameraPoserTower16makeLookAtCameraEPN4sead12LookAtCameraE = 0x00910580
_ZN10BossWackun15exeDamageRotateEv = 0x00008b70
_ZN23GiantTouchBreakMapParts4initERKN2al13ActorInitInfoE = 0x00236be0
_ZN2al23CameraPoserFollowSimpleC1EPKc = 0x008fbb10
_ZN2al23CameraPoserFollowSimpleC2EPKc = 0x008fbb10
_ZN30CourseSelectPlayerActionFollowC2EPK15PlayerActionArgiPKN2al14ActorSceneInfoEP22IUsePlayerPanicControlPK20PlayerFigureDirectorP23CourseSelectPlayerActor = 0x00087450
_ZN30CourseSelectPlayerActionFollowC1EPK15PlayerActionArgiPKN2al14ActorSceneInfoEP22IUsePlayerPanicControlPK20PlayerFigureDirectorP23CourseSelectPlayerActor = 0x00087450
_ZNK3agl3sdw13ShadowPrePass17drawShadowPrePassEPNS_11DrawContextERKNS1_7ContextERKNS_14TextureSamplerES9_S9_iPS8_bii = 0x007df7c0
_ZN14RingBeamerBeamC1EPKcPN2al9LiveActorE14RingBeamerTypeb = 0x00111560
_ZN21PlayerLandingInformer6updateEv = 0x003a8ef0
_ZN15alModelFunction32createMeshDrawerTableDisplayListEPKN2al15MeshDrawerTableEPK11alModelCafeb = 0x008791b0
_ZN7MapMenu12transitionInEb = 0x0017ca50
_ZN17BallStateFunction23getCollidedNormalAndPosEPN2al9LiveActorEPN4sead7Vector3IfEES6_ = 0x001d8740
_ZN2rc24getExplosionComboCounterEPKN2al9LiveActorE = 0x00229890
_ZNK2al19LightStreakDirector11drawBlurMrtEiiiRKN3agl11TextureDataES4_iNS1_10ShaderModeE = 0x00899000
_ZN14DarkBowserUtil15calcLaserHitPosEPN2al9LiveActorEPKN4sead7Vector3IfEERS6_PS5_ = 0x000210f0
_ZN2al14setDisableDrawEPNS_9LiveActorEb = 0x0083a7e0
_ZN2al9SeRequest4stopEi = 0x009aee80
_ZN2al19tryGetPlacementInfoEPNS_13PlacementInfoEPKNS_8ResourceEPKcS6_ = 0x008a57b0
_ZN17SkipperTrampolineC1EPKc = 0x0011b9c0
_ZN15alModelFunction25isMaterialUsingModelLightEPKN2nn3g3d11ResMaterialE = 0x008796f0
_ZN2al17tryOnSwitchDeadOnEPNS_15IUseStageSwitchE = 0x008cc900
_ZN11SuperBowser25prepareEndBowerExitCameraEv = 0x0003d790
_ZN6Tenten21receiveMsgScreenPointEPKN2al9SensorMsgEPNS0_13ScreenPointerEPNS0_17ScreenPointTargetE = 0x00126940
_ZN11ShadowRacer16tryChangeSectionEf = 0x0013c330
_ZN2al14isDisasterModeEPNS_9LiveActorE = 0x00840ce0
_ZN13TrampleSwitchC2EPKc = 0x002d1c70
_ZN2al12GBufferArray31createLightBufferAndCalcContextEPN3agl4lght12LightPrePassEiiiRKN4sead12LookAtCameraERKNS5_21PerspectiveProjectionEb = 0x008ad6b0
_ZN4Neko14attachDisasterERK16NekoAttachReason = 0x002fd170
_ZN7InkUtil17isInInkLimitArrowEPKN2al13IUseCollisionERKN4sead7Vector3IfEEf = 0x00427910
_ZN12PlayerEffect18stopEffectSubActorEPKciS1_ = 0x003919b0
_ZN15GuideGameWindowC2ERKN2al14LayoutInitInfoEb = 0x00171fb0
_ZN15GuideGameWindowC1ERKN2al14LayoutInitInfoEb = 0x00171fb0
_ZN21DisasterSpikeDirector17spawnTorpedoSpikeEP11SuperBowserib = 0x001537d0
_ZN11TouchEffect14setInvalidCharEv = 0x0019f860
_ZN11PlayerCrownC1ERKN2al13ActorInitInfoEPKc = 0x002a4880
_ZN2al21isPadEnableRightStickEi = 0x0094b910
_ZN15alCollisionUtil30getFirstCollisionSensorOnArrowEPKN2al13IUseCollisionEPN4sead7Vector3IfEEPPNS0_9HitSensorERKS6_SC_PKNS0_24CollisionPartsFilterBaseEPKNS0_18TriangleFilterBaseE = 0x0093e840
_ZN8GoalItem13exePreAnimateEv = 0x002441d0
_ZN2al19rotateVectorDegreeZEPN4sead7Vector3IfEEf = 0x0086fab0
_ZN2al13BlockRailLink4initERKNS_13ActorInitInfoERKNS_9ByamlIterE = 0x008f2940
_ZN13KoopaFireBall16appearSingleModeERKN4sead7Vector3IfEE = 0x0026d020
_ZN2al19isHitCylinderSensorEPN4sead7Vector3IfEES3_PKNS_9HitSensorERKS2_S8_f = 0x00841d20
_ZNK2al14SimpleModelEnv16prepareModelDrawEi = 0x0087be50
_ZN2al13AnimPlayerSkl11calcSklAnimEv = 0x008d6200
_ZN3agl3env9EnvObjMgr5clearEi = 0x007cad90
_ZN2al15tryGetStringArgEPPKcRKNS_13ActorInitInfoES1_ = 0x0088b1f0
_ZN2al32addVelocityToGravityFittedGroundEPNS_9LiveActorEfj = 0x0083bf80
_ZN10DarkBowserC1EPKc = 0x000103c0
_ZN21alCameraPoserFunction19calcTargetVelocityHEPN4sead7Vector3IfEEPKN2al14CameraPoser_RSE = 0x0091d970
_ZN2al18PrePassLightKeeper7endInitEv = 0x00825500
_ZN14EnemyGenerator4initERKN2al13ActorInitInfoE = 0x000d0e00
_ZN23ActorStateSupportFreeze4killEv = 0x000b07c0
_ZN7TopMenu20returnFromFileSelectEPKcb = 0x0019f440
_ZN2al10LutTextureC1EN3agl13TextureFormatEjjj = 0x008b8010
_ZN2al10LutTextureC2EN3agl13TextureFormatEjjj = 0x008b8010
_ZN21CourseSelectMiniatureC1EPKc = 0x00080c80
_ZN3agl3utl14IParameterList6addObjEPNS0_13IParameterObjERKN4sead14SafeStringBaseIcEE = 0x0078d7b0
_ZN3agl20ShaderProgramArchive15destroyResFile_Ev = 0x0078a8f0
_ZN14DemoSceneActor20tryStartActionByNameEPKc = 0x000a4c50
_ZN21DisasterSpikeDirector6updateEv = 0x00152be0
_ZN2al10LutTexture8initCoreEv = 0x008b82f0
_ZN2rc34tryStartFromObjGhostPlayerRecorderEPKN2al18IUseSceneObjHolderEPKc = 0x002e9740
_ZN2al27initJointLocalDirControllerEPKNS_9LiveActorEPKNS_18JointDirectionInfoEPKc = 0x008163b0
_ZN2al9YFogParam4initEv = 0x00810690
_ZN14RaidonEndState11exeTouchJoyEv = 0x003bc880
_ZN2al21ClippingAreaActorInfo27updateOnlyCollisionSettingsERKN4sead7Vector3IfEEPS4_fb = 0x0092d600
_ZN2al16syncSensorScaleYEPNS_9LiveActorE = 0x008393f0
_ZN5erepo10SendThread9finalize_Ev = 0x009c1f00
_ZN2al10CameraInfoC1EPKNS_11PlacementIdEPNS_11CameraPoserEi = 0x00904530
_ZN2al10CameraInfoC2EPKNS_11PlacementIdEPNS_11CameraPoserEi = 0x00904530
_ZNK3agl3sdw13ShadowPrePass17createTempBuffer_EPNS_11DrawContextEijj = 0x007dea40
_ZN3agl3utl14PrimitiveShape16setUpStreamCone_EjjPN4sead4HeapE = 0x00777490
_ZN11PlayerInput9snapWideXEPN4sead7Vector2IfEE = 0x00397170
_ZN14PunpunDivision12exeThrowWaitEv = 0x00038cf0
_ZN19GateKeeperStateDemoC1EPN2al9LiveActorERKNS0_13ActorInitInfoEPK24GateKeeperStateDemoParamPNS0_10CameraInfoE = 0x00022cf0
_ZN19GateKeeperStateDemoC2EPN2al9LiveActorERKNS0_13ActorInitInfoEPK24GateKeeperStateDemoParamPNS0_10CameraInfoE = 0x00022cf0
_ZN2al11NfpDirector5startEv = 0x00882600
_ZN11SkipperWeak10receiveMsgEPKN2al9SensorMsgEPNS0_9HitSensorES5_ = 0x0011e230
_ZN14BlockStateItem21tryExecAppearItemLongEPKN2al9HitSensorE = 0x001e49f0
_ZN2al9LiveActor16initActionKeeperEPKcS2_ = 0x0085ccd0
_ZN2al21SwitchKeepOnAreaGroupC1EPNS_12AreaObjGroupE = 0x008dd6d0
_ZN2al21SwitchKeepOnAreaGroupC2EPNS_12AreaObjGroupE = 0x008dd6d0
_ZN2al28SeListenerPoserViewPosOffsetC2ERKN4sead14SafeStringBaseIcEES5_RKNS1_7Vector3IfEE = 0x009aba90
_ZN2al28SeListenerPoserViewPosOffsetC1ERKN4sead14SafeStringBaseIcEES5_RKNS1_7Vector3IfEE = 0x009aba90
_ZN13FairyPrincess15startDemoActionEPKcPKN2al9LiveActorE = 0x002f87a0
_ZN2rc17killStepKuriboAllEPK18BrosMoveStepKeeperPN2al9HitSensorE = 0x000c3010
_ZN6ShardsC1EPKcb = 0x002b39a0
_ZN10SuperKoura10exeReleaseEv = 0x00409280
_ZN11PlayerActor11updateInputERKN4sead8Matrix34IfEE = 0x00365540
_ZN2al21ClippingAreaActorInfo14calculateAlphaEf = 0x0092e510
_ZN22DisasterModeController12endInstantlyEbb = 0x0020e900
_ZN14AllDeadWatcher8exeWatchEv = 0x000b1480
_ZN2al17DeferredRendering19drawDeferredShadingEPNS_12LiveActorKitERKN3agl12RenderBufferERKN4sead8ViewportEPNS_17DepthShadowDrawerERKNS7_8Matrix34IfEERKNS7_8Matrix44IfEEPNS_12GBufferArrayEiNS_11SkyFillTypeENS3_10ShaderModeEPKNS_14SimpleModelEnvEb = 0x0095a800
_ZN2al20resetAllCollisionMtxEPNS_9LiveActorE = 0x0093d280
_ZN3agl7InitArgC1Ev = 0x0075d5c0
_ZN3agl7InitArgC2Ev = 0x0075d5c0
_ZN4Neko12attachNormalERK16NekoAttachReason = 0x002fd060
_ZN2rc19killAllPlayerEffectEPN2al9LiveActorE = 0x00433a50
_ZN21SuperBowserLaserState17enableLaserSensorEv = 0x0004f7b0
_ZNK2al18CameraInterpole_RS16makeLookAtCameraEPN4sead12LookAtCameraE = 0x00925470
_ZN2al10WipeSimple12exeDelayOpenEv = 0x00889100
_ZN26DemoPlayerControllerHolderC1EPN2al12PlayerHolderE = 0x000a3a40
_ZN26DemoPlayerControllerHolderC2EPN2al12PlayerHolderE = 0x000a3a40
_ZN24DarkBowserLaserIndicator8initYamlEv = 0x00016300
_ZN2al11tryGetZoneREPN4sead7Vector3IfEERKNS_13PlacementInfoE = 0x0088a480
_ZN2al26ApplicationMessageReceiver4initEv = 0x008d9330
_ZN11SyumockUtil30isMsgSyumockReactionSingleModeEPKN2al9SensorMsgEi = 0x00123e80
_ZN23ImozoStateBlockRailMove11exeReactionEv = 0x000e2f70
_ZNK15PlayerKeyConfig22isPadHoldPlayerRollingEv = 0x00398b10
_ZN22CourseSelectMenuHeader9setHeaderEPKcb = 0x00141670
_ZN17DisasterSpikeDirt6appearEN4sead7Vector3IfEENS0_4QuatIfEE = 0x00155500
_ZN24GroupClippingDummyTarget4initERKN2al13ActorInitInfoE = 0x00258570
_ZN2al11getBaseNameEPKc = 0x008e3f40
_ZN2rc37turnToTargetOrDefaultDirectionCurrentEPN2al9LiveActorEPK18BrosMoveStepKeeperf = 0x000c29c0
_ZN2al9LayoutKitD2Ev = 0x0081c9c0
_ZN2al9LayoutKitD1Ev = 0x0081c9c0
_ZN3agl3sdw4SSAO18initRotateTexture_Eb = 0x0079dcf0
_ZN2al21SaveDataSequenceWriteC2Eh = 0x008a3150
_ZN2al21SaveDataSequenceWriteC1Eh = 0x008a3150
_ZN21CourseSelectMiniature14startClearDemoEv = 0x00082380
_ZN2al21ClippingAreaActorInfo13registerActorEPNS_25ClippingAreaActorInfoNodeEb = 0x0092dcd0
_ZN16GameDataFileBase21updateTotalPlayTimePREv = 0x00413530
_ZNK15DrcTouchPointer17isCompletelyAliveEv = 0x00225680
_ZN16BasicActionGuide19resetScrollLocationEv = 0x0013df30
_ZNK15DrcTouchPointer21isVisibleAndNotHiddenEv = 0x00225540
_ZN2al18CameraAreaObserverC2EPNS_14CameraSwitcherEPKNS_13PlayerWatcherEPNS_15AreaObjDirectorE = 0x009038b0
_ZN2al18CameraAreaObserverC1EPNS_14CameraSwitcherEPKNS_13PlayerWatcherEPNS_15AreaObjDirectorE = 0x009038b0
_ZN23SceneEventMessageSender26initAfterPlacementSceneObjERKN2al13ActorInitInfoE = 0x003e5c70
_ZN3agl22ResBinaryShaderArchive5setUpEb = 0x0078b5d0
_ZN15SyumockRailMoveC1EPKc = 0x00122450
_ZN2al16CameraCloseUpper4initEPKNS_12PlayerHolderE = 0x009034d0
_ZN2al12EffectSystem28createSystemWithPatchResouceEPN3agl11DrawContextEPN4sead4HeapE = 0x009641d0
_ZN3agl3pfx11FlareFilter7ContextC2Ev = 0x00799470
_ZN22DisasterModeController5beginEb = 0x0020e7a0
_ZN11ScoreNumberC1ERKN2al14LayoutInitInfoE = 0x00196ea0
_ZN15CounterWarpCube8addCountEPKN2al9LiveActorEPNS0_9HitSensorE = 0x0016b2a0
_ZN25WalkerStateRouteDokanMoveC1EPN2al9LiveActorERKNS0_13ActorInitInfoEPK16WalkerStateParamPK30WalkerStateRouteDokanMoveParam = 0x00135560
_ZN25WalkerStateRouteDokanMoveC2EPN2al9LiveActorERKNS0_13ActorInitInfoEPK16WalkerStateParamPK30WalkerStateRouteDokanMoveParam = 0x00135560
_ZN2al15getRailPartRateEPKNS_9LiveActorEif = 0x0089e620
_ZN2al32GraphicsParamRequestInterpKeeperINS_15ShadowMaskParamEE10NamedParamC2Ev = 0x008ca8f0
_ZN2rc28isEnableTouchPointerGrabItemEPKN2al9LiveActorE = 0x00222bf0
_ZN2al25ClippingAreaActorViewAreaC1ERKNS_13PlacementInfoERKNS_13ActorInitInfoE = 0x0092f760
_ZN2al21CameraPoserFixedPointC1EPKNS_13PlayerWatcherEPKNS_11PlacementIdE = 0x00906f10
_ZN2al21CameraPoserFixedPointC2EPKNS_13PlayerWatcherEPKNS_11PlacementIdE = 0x00906f10
_ZN16BossBunretsuCore14exeTurnPrepareEv = 0x000be2d0
_ZN2al16RailMoveMapParts4initERKNS_13ActorInitInfoE = 0x00863a10
_ZN25DashPanelSeTriggerChecker4initEiib = 0x0020b520
_ZN12GigaBell3in1C1EPKc = 0x0015aa90
_ZN10Lighthouse11setInkPatchEP8InkPatchii = 0x00282b40
_ZN2al16startHitReactionEPKNS_11LayoutActorEPKcS4_ = 0x0096d300
_ZN10Trampoline13tryJumpPlayerEv = 0x002d5ab0
_ZN15SingleModeScene10updatePlayEv = 0x003e95f0
_ZN12PackunFlower10receiveMsgEPKN2al9SensorMsgEPNS0_9HitSensorES5_ = 0x00104130
_ZNK2al4Rail23calcNearestRailPosCoordERKN4sead7Vector3IfEEf = 0x0089c270
_ZN4sead7TaskMgr13calcCreation_Ev = 0x00717940
_ZN2al18SeEffectController16stopAllBusFxSendEv = 0x009a3540
_ZN2rc18hidePuppetAllPartsEP16IUsePlayerPuppet = 0x0042aa60
_ZN19BlockAssistFunction17setCheckpointFlagEPKN2al18IUseSceneObjHolderEPK14CheckpointFlag = 0x001db640
_ZN4sead17RegionLanguageMgr9loadMask_EPNS_10RingBufferINS_16RegionLanguageIDEEERKNS0_7InitArgE = 0x007232e0
_ZN19alPadRumbleFunction27startPadRumbleNo3DWithParamEPKN2al9LiveActorEPKcffffib = 0x00952600
_ZN23PlayerAliveWatcherGroup17changeShadowLightEv = 0x00371ea0
_ZN2al17PadRumbleDirector14stopRumbleLoopEPKcPKN4sead7Vector3IfEEi = 0x00951050
_ZN2al14CameraPoser_RS8movementEv = 0x00922d10
_ZN2al15CameraInterpole26startCameraSwitchInterpoleERKN4sead12LookAtCameraEfi = 0x00904f30
_ZN24TentackResourceParamInfoC2ERKN2al9ByamlIterE = 0x0005cd40
_ZN24TentackResourceParamInfoC1ERKN2al9ByamlIterE = 0x0005cd40
_ZN13DisasterSpike11checkGroundERN4sead7Vector3IfEERNS0_4QuatIfEE = 0x00217300
_ZN2al16ShadowMaskKeeper15drawPrimTexCubeEiRNS0_7ContextEPKN3agl13ShaderProgramERKNS3_11TextureDataERKN4sead8Matrix34IfEERKNSA_8Matrix44IfEENS3_10ShaderModeEibi = 0x008c9a30
_ZNK3agl3utl13IParameterObj10writeToXMLEPN4sead10XmlElementEPNS2_4HeapE = 0x00772470
_ZN13PlayerKoopaJr16startMidBossDemoEv = 0x003a0860
_ZN3agl3pfx10BlurFilterC2Ev = 0x007e0980
_ZN3agl3pfx10BlurFilterC1Ev = 0x007e0980
_ZN2al20CameraResourceHolderC1EPKci = 0x009264a0
_ZN2al20CameraResourceHolderC2EPKci = 0x009264a0
_ZN2al9EuiScreenD1Ev = 0x009708b0
_ZN2al9EuiScreenD2Ev = 0x009708b0
_ZN23PlayerAliveWatcherGroup18changeShadowNormalEv = 0x00371f10
_ZN10RaidonSurf10forceSpawnEb = 0x003c36e0
_ZN16TestAndoGoalPoleC1EPKc = 0x002c7b40
_ZN2al14CameraPoserFix11storeCameraERKN4sead7Vector3IfEES5_ = 0x008fb960
_ZN2al15setVelocityJumpEPNS_9LiveActorEf = 0x0083bc90
_ZN2al23CameraSwitchRequestInfoC1Ev = 0x009287f0
_ZN2al23CameraSwitchRequestInfoC2Ev = 0x009287f0
_ZN22BoomerangBrosBoomerangC1EPKc = 0x000b8d50
_ZN22DisasterModeController18tryApplyDoubleTimeEv = 0x0020fad0
_ZN2rc11killAllEchoEPKN2al9LiveActorE = 0x00228b50
_ZN8InkPatch18endSpecialInkPatchEb = 0x0015cad0
_ZN4sead8ListImpl14mergeSortImpl_IN2al9SeRequestERFiPKS3_S5_EEEvPNS_8ListNodeES9_iiOT0_ = 0x009ae980
_ZN2al23tryOnStageSwitchInstantEPNS_15IUseStageSwitchEPKc = 0x008cc500
_ZNK3agl6driver6NVNMgr18enableTiledCachingEPNS_11DrawContextEjj = 0x0075b620
_ZNK14PipePackunBody18calcClippingSphereEPN4sead7Vector3IfEEPfRKS2_f = 0x0010d770
_ZN2al15turnVecToVecCosEPN4sead7Vector3IfEERKS2_S5_fS5_f = 0x0086f250
_ZN2al21ReducedBufferRendererC2EPKNS_12ShaderHolderEPKNS_18FullScreenTriangleE = 0x0095b210
_ZN2al21ReducedBufferRendererC1EPKNS_12ShaderHolderEPKNS_18FullScreenTriangleE = 0x0095b210
_ZN2al20rotateQuatXDirDegreeEPN4sead4QuatIfEERKS2_f = 0x0086d2e0
_ZN3eui10MessageMgrC2Ev = 0x007ec200
_ZN3eui10MessageMgrC1Ev = 0x007ec200
_ZN2al13ActorInitInfo14initViewIdSelfEPKNS_13PlacementInfoERKS0_ = 0x00836e90
_ZN8GoalDoorC1EPKc = 0x00240880
_ZN22DisasterModeController25tryChangeActorWetMaterialEb = 0x0020f490
_ZN21LuckyIslandController15setActiveIslandEv = 0x00287030
_ZN12FlowerCactus10receiveMsgEPKN2al9SensorMsgEPNS0_9HitSensorES5_ = 0x00232fb0
_ZN23PlayerActionOrConditionD2Ev = 0x00346c60
_ZN23PlayerActionOrConditionD1Ev = 0x00346c60
_ZNK10MeraWanwan21isEnableSupportFreezeEv = 0x000fb840
_ZN10RosettaNpc10receiveMsgEPKN2al9SensorMsgEPNS0_9HitSensorES5_ = 0x00316ee0
_ZN26EffectObjBattleArenaBunBun4initERKN2al13ActorInitInfoE = 0x001588a0
_ZN2al13AnimPlayerMat4initEPKNS_18AnimPlayerInitInfoE = 0x008d5070
_ZN2al26CollisionPartsKeeperOctree17insertLooseOctreeEPNS0_7OctNodeEPNS_14CollisionPartsE = 0x0093b760
_ZN6Killer12startFlyWaitEv = 0x000e7470
_ZN2al10isInScreenERKN4sead7Vector2IfEEf = 0x008a8790
_ZN12PackunFlower9isInSightEv = 0x00104df0
_ZN2al9SystemKit20createResourceSystemEPKciib = 0x008cd0c0
_ZN2al18SnapShotCameraCtrl4loadERKNS_9ByamlIterE = 0x0092c4e0
_ZN21PlayerActionSwimSquat15controlVelocityEv = 0x003554c0
_ZN2rc45disappearCameraChangeLayoutAndResetCameraModeEPKN2al18IUseSceneObjHolderE = 0x00165e20
_ZN7DoorKey21tryKillBySandwichWallEv = 0x0021e360
_ZNK12BindPriority9isGreaterEPKN2al9HitSensorES3_ = 0x00317c20
_ZN2al19ClippingGroupHolder12createAndAddEPNS_17ClippingActorInfoERKNS_13ActorInitInfoEi = 0x00932920
_ZN22DisasterModeController14movementPausedEb = 0x0020e620
_ZN20SingleModeCheckpoint14setStateBeforeEv = 0x002b7860
_ZN18CloudBonusLauncher16endBindAllPuppetEv = 0x001f9ef0
_ZN2al22InitResourceDataAction9tryCreateEPNS_8ResourceEPKNS_20InitResourceDataAnimE = 0x008d4b10
_ZN5erepo12SendDataBaseC2EPN4sead4HeapERKNS1_15FixedSafeStringILi31EEERKNS1_12StringIdBaseILj4096ELj32ELj1936023908EjEEb = 0x009c1670
_ZN2al9initActorEPNS_9LiveActorERKNS_13ActorInitInfoE = 0x00837180
_ZN22DisasterModeController13exeProsperityEv = 0x0020fc50
_ZN2al19ScreenBlurDrawParamC1Ev = 0x00999970
_ZN2al19ScreenBlurDrawParamC2Ev = 0x00999970
_ZN16PlayerActionWait6updateEv = 0x0035ac90
_ZN2rc22updateLayoutPosAtOwnerEPN2al11LayoutActorEPKNS0_9LiveActorERKN4sead7Vector3IfEEf = 0x0042a0a0
_ZN2al21JointLookAtControllerC2EiPKN4sead8Matrix34IfEE = 0x00817a70
_ZN2al21JointLookAtControllerC1EiPKN4sead8Matrix34IfEE = 0x00817a70
_ZN19KoopaChaseBattleLv114updateRunSpeedEv = 0x00024a70
_ZN16PlayerActionFunc20addAndAdjustVelocityEPN4sead7Vector3IfEERKS2_ff = 0x003234b0
_ZN3agl3pfx8FilterAAD1Ev = 0x0079b1e0
_ZN3agl3pfx8FilterAAD2Ev = 0x0079b1e0
_ZN3agl3sdw13ShadowFrustum17clipPointByPlane_EPNS1_7PolygonES3_RKS2_RKN4sead6Plane3IfEE = 0x007d9320
_ZN19PlayerActionRolling5setupEv = 0x00349c10
_ZN14BlockStateItem13tryAppearItemEPKN2al9SensorMsgEPNS0_9HitSensorEb = 0x001e4400
_ZN3agl3utl13ImageFilter2D4drawEPNS_11DrawContextERKNS_13ShaderProgramERKNS_14TextureSamplerERKN4sead8ViewportERKNSA_7Vector2IfEESH_ = 0x00769fe0
_ZN16PlayerActualMoveC2EPK14PlayerProperty = 0x0036fb20
_ZN16PlayerActualMoveC1EPK14PlayerProperty = 0x0036fb20
_ZN3agl3utl23DynamicTextureAllocator5free_EPKNS_11TextureDataE = 0x00769780
_ZN15screenfilterCpu15SubAutoContrastEPjS0_ = 0x001cc1e0
_ZN7WoodBox7doBreakEPKN2al9SensorMsgEPNS0_9HitSensorEbb = 0x002e31e0
_ZN20SequenceWindowKeeperC2ERKN2al14LayoutInitInfoE = 0x00405040
_ZN20SequenceWindowKeeperC1ERKN2al14LayoutInitInfoE = 0x00405040
_ZN17GeneratorBoxChild12requestBreakEv = 0x00236710
_ZN16CourseSelectNode9initBasicERKN2al13ActorInitInfoE = 0x00083fd0
_ZN21LuckyIslandController16getClosestCameraERKN4sead7Vector3IfEE = 0x00287210
_ZN8GigaBell18exeExplainCutsceneEv = 0x00238ac0
_ZN10CoinAttachC1EPKcP10ItemBubble = 0x001fce90
_ZN27MysteryHouseCheckerFunction20tryRegisterGreenStarEPK9GreenStar = 0x00289ee0
_ZN2al22CameraVerticalAbsorberC1EPKNS_14CameraPoser_RSEb = 0x00920d50
_ZN2al22CameraVerticalAbsorberC2EPKNS_14CameraPoser_RSEb = 0x00920d50
_ZN2al14ShadowDirector6updateEv = 0x008bff70
_ZN4sead21AudioFxI3DL2ReverbNinC1Ev = 0x00755730
_ZN4sead21AudioFxI3DL2ReverbNinC2Ev = 0x00755730
_ZN13ScoreFunction13popUpPlayerUpEPKN2al9LiveActorEif = 0x00444060
_ZN19alPlacementFunction14getLinkGroupIdEPN2al11PlacementIdERKNS0_13ActorInitInfoEPKc = 0x0088cda0
_ZN2al22GraphicsStressDirector8movementEv = 0x008024c0
_ZN11BlockChoiceC1EPKc = 0x001dd270
_ZN2al19ActorPoseKeeperTRSV14updatePoseQuatERKN4sead4QuatIfEE = 0x0083e7b0
_ZN16alCameraFunction10initCameraEPN2al14CameraPoser_RSEPKNS0_13IUseCamera_RSERKNS0_13PlacementInfoEPKci = 0x0092ad60
_ZNK20CourseSelectDirector19tryFindNearestActorEv = 0x0007bf20
_ZN4sead14AudioFxBaseNinC2Ev = 0x00752c20
_ZN18EnemyStateBlowDown10setBlowDirEPKN2al9LiveActorE = 0x000d1d20
_ZN2rc19tryGetEmitterHolderEPKN2al18IUseSceneObjHolderE = 0x002288e0
_ZN2al9SeRequest19applyParamToRequestEbff = 0x009af7f0
_ZN2al19JointControllerBaseC2Ev = 0x00816a80
_ZN24SpotLightPatrollerHolder26initAfterPlacementSceneObjERKN2al13ActorInitInfoE = 0x002bc3d0
_ZN18CloudBonusLauncherC1EPKc = 0x001f8ed0
_ZNK20PlayerAmiiboDirector19isAmiiboTypeAllowedEPKN2al7NfpInfoE = 0x00373730
_ZN3agl3sdw4SSAO17initSphereVolume_Eib = 0x0079dfc0
_ZN13PlayerKoopaJr14spawnStockItemEv = 0x0039f040
_ZNK4sead15SharcArchiveRes18readDirectoryImpl_EPNS_9SafeArrayIhLi32EEEPNS_14DirectoryEntryEj = 0x00746fd0
_ZN2al10SeDirector9stopAllIdEjPNS_8SeSourceEjPKc = 0x009a1d70
_ZN6Vessel8Emulator7Virtual11PlatformHvc7CHvcSpu7_SNoise5SetupEhhPNS2_16CPlatformHvcUnit8_SEntityE = 0x001c2e60
_ZN2al3Bgm12detachSuffixEPKNS_17BgmSuffixProcInfoE = 0x008ec560
_ZN5UkiboC1EPKc = 0x00130af0
_ZN4sead4Heap15removeDisposer_EPNS_9IDisposerE = 0x00721920
_ZN2al21PencilSketchDrawParamC2Ev = 0x009934b0
_ZN2al21PencilSketchDrawParamC1Ev = 0x009934b0
_ZN32SuperBowserFireFlamePlessieChase4initERKN2al13ActorInitInfoE = 0x00048100
_ZN17CounterPlayerInfoC1ERKN2al14LayoutInitInfoEPK14GameDataHolder = 0x001694d0
_ZN21alCameraPoserFunction12disableInputEPKN2al14CameraPoser_RSEb = 0x0091fc80
_ZN11KinokoSuperC1EPKcP10ItemBubble = 0x00269bd0
_ZN2al14ShadowMaskCube16calcShadowMatrixEPN4sead8Matrix34IfEE = 0x008c4560
_ZN11alModelCafe18initUpdateBoundingEv = 0x00874880
_ZN13ItemStockTrayC1ERKN2al14LayoutInitInfoEPKcS5_PNS0_11LayoutActorEPK14GameDataHolderP19ProjectItemDirector = 0x00142df0
_ZN17DokanGuideBalloon15setPlayerSensorEPKN2al9HitSensorE = 0x0016fc70
_ZN2al18GraphicsSystemInfo13updateViewGpuEiPKN4sead6CameraEPKNS1_21PerspectiveProjectionE = 0x00805ba0
_ZN11PlayerActor26trySendMsgPlayerUpperPunchEPN2al9HitSensorES2_ = 0x0036eff0
_ZNK9BootScene9drawMain_Ev = 0x003d0910
_ZN2al21setDepthCtrlToContextEPN4sead18GraphicsContextMRTEPKN2nn3g3d11MaterialObjE = 0x00807b80
_ZN3agl3env9EnvObjMgr10initializeERKNS1_7InitArgEPN4sead4HeapE = 0x007ca8f0
_ZN6Vessel8Emulator7Virtual11PlatformHvc8CHvcVrc614_SerializeCoreEPvb = 0x001bd6d0
_ZN2al18SeEffectController22isEffectSystemDisabledEv = 0x009a3fa0
_ZN2al20PostProcessingFilter19initProjectResourceEv = 0x009880c0
_ZN2rc16isMsgForBlockAllEPKN2al9SensorMsgEPKNS0_9HitSensorES6_f = 0x00428760
_ZN2al28reboundVelocityFromCollisionEPNS_9LiveActorEfff = 0x0083c560
_ZN21SingleModeSceneLayout16showShardCounterEv = 0x00198b40
_ZN2al19WaveVibrationHolder14stopAllOneShotEv = 0x00954c40
_ZN2rc22tryAppearItemPressDownEPKN2al9LiveActorEPKc = 0x00428430
_ZN2al26initActorModelForceCubeMapEPNS_9LiveActorERKNS_13ActorInitInfoE = 0x00836230
_ZN21BunbunStateSpinAttack15startKouraThrowEv = 0x0000f6e0
_ZN2al18createUniformBlockEPKNS_18UniformBlockLayoutEiPN4sead4HeapEi = 0x008b8900
_ZN2al12ViewInfoCtrl6updateEv = 0x00934a70
_ZN2al7BgmLine14startIslandBgmERKNS_17BgmPlayingRequestEiii = 0x008ea420
_ZN2al13ParameterBase8copyLerpERKS0_S2_f = 0x00986330
_ZN3agl3sdw9ShadowMap4freeEv = 0x007db8d0
_ZN16GameDataFileBase12copyFileBaseERKS_ = 0x004136a0
_ZN10MeraWanwan10receiveMsgEPKN2al9SensorMsgEPNS0_9HitSensorES5_ = 0x000fb370
_ZN10CoinHolder8sinkCoinEP4Coin = 0x00203da0
_ZN17LiftMikeBlockRailC1EPKc = 0x0027dca0
_ZN2al21flyAndTurnToDirectionEPNS_9LiveActorEPN4sead7Vector3IfEERKS4_ffff = 0x0083e310
_ZN2al14CameraSwitcherC2EPPNS_11CameraPoserEPKNS_12CameraHolderEPNS_13PlayerWatcherEPb = 0x00913330
_ZN2al14CameraSwitcherC1EPPNS_11CameraPoserEPKNS_12CameraHolderEPNS_13PlayerWatcherEPb = 0x00913330
_ZN4neko32tryReceiveMsgPushAndAddVelocityHEPN2al9LiveActorEPKNS0_9SensorMsgEPKNS0_9HitSensorES8_ffbb = 0x002fc2c0
_ZN2al19ShaderSamplerSetterC2EPN3agl11DrawContextEPKNS1_13ShaderProgramEPKNS1_14TextureSamplerEPKcb = 0x008b8690
_ZN2al19ShaderSamplerSetterC1EPN3agl11DrawContextEPKNS1_13ShaderProgramEPKNS1_14TextureSamplerEPKcb = 0x008b8690
_ZN2al12JointRumbler6updateEv = 0x00819200
_ZN3eui9TextBoxExC1EPKN2nn4ui2d10ResTextBoxES5_RKNS2_11BuildArgSetEPNS2_7TextBox21InitializeStringParamE = 0x007e8ca0
_ZN3eui9TextBoxExC2EPKN2nn4ui2d10ResTextBoxES5_RKNS2_11BuildArgSetEPNS2_7TextBox21InitializeStringParamE = 0x007e8ca0
_ZN2al19initActorItemKeeperEPNS_9LiveActorERKNS_13ActorInitInfoEPKcS6_ = 0x008369d0
_ZN2al3SSRD2Ev = 0x009b90c0
_ZN2al3SSRD1Ev = 0x009b90c0
_ZN19KoopaChaseStateDemo23placePlayersToReturnPosEv = 0x00028740
_ZN2al8Resource13loadPatchDataEv = 0x0089f1c0
_ZN6Rabbit7exeJumpEv = 0x00314200
_ZN4sead17RegionLanguageMgr10initializeERKNS0_7InitArgE = 0x007241b0
_ZN20SuperBowserFireFlame9exeAttackEv = 0x00047bb0
_ZNK15PlayerEntryMini18isAllPlayerDecidedEv = 0x00187680
_ZN3agl6detail7Surface8copyFromERK10NVNtexture = 0x00764e70
_ZNK17CourseSelectScene16isTriggerMapMenuEPi = 0x00096c20
_ZNK16CourseSelectNode7isEqualERKN4sead7Vector3IfEE = 0x00086050
_ZNK3agl3utl12ResParameter11getDataSizeEv = 0x0077ccd0
_ZN21SuperBowserLaserState17effectsLaserScaleEv = 0x0004f670
_ZN2al16AreaShapeFactoryC1EPKc = 0x00928b90
_ZN2al16AreaShapeFactoryC2EPKc = 0x00928b90
_ZN2al21isFaceToTargetDegreeHEPKNS_9LiveActorERKN4sead7Vector3IfEES7_f = 0x0083d5f0
_ZN16SuperBowserShell7exeSpinEv = 0x00054a90
_ZN18DokanBindPuppeteerC1EPKcbbPN2al9LiveActorE = 0x0021a550
_ZN18DokanBindPuppeteerC2EPKcbbPN2al9LiveActorE = 0x0021a550
_ZN20PlayerActionTypeFunc12isJumpActionEPK17PlayerActionGraph = 0x00357850
_ZN2al19ShaderCubeMapKeeper19updateCubeMapKeeperEv = 0x008b1530
_ZN2rc13StampDirector14incrementStampEv = 0x002c0580
_ZN14PlayerAnimator10endSubAnimEv = 0x00374e60
_ZN16RabbitRoutePointC1ERKN2al13PlacementInfoEPS_PN4sead8PtrArrayIS_EE = 0x00315750
_ZN16RabbitRoutePointC2ERKN2al13PlacementInfoEPS_PN4sead8PtrArrayIS_EE = 0x00315750
_ZN33PlayerFireBallAppearWatchFunction20registAppearFireBallEPN2al9LiveActorE = 0x003938e0
_ZNK2al19CameraArrowCollider16makeLookAtCameraEPN4sead12LookAtCameraE = 0x008f6820
_ZN2al15LayoutPaneGroup14createAnimatorEPN2nn4ui2d6LayoutE = 0x00972090
_ZN18PlayerSnapWallInfo6recordEP14PlayerPropertyRKN4sead7Vector3IfEES6_PKc = 0x003b2760
_ZN7KuribonC1EPKc = 0x000eefb0
_ZN8GoalItem18initAfterPlacementEv = 0x002424a0
_ZN3agl3utl23DynamicTextureAllocatorD1Ev = 0x00768580
_ZN3agl3utl23DynamicTextureAllocatorD2Ev = 0x00768580
_ZN2al13AnimInfoTable3addEPKcPvfb = 0x008d5800
_ZN2al19ActorPoseKeeperTQSV13updatePoseMtxEPKN4sead8Matrix34IfEE = 0x0083f3c0
_ZN20KoopaChaseStateThrow13tryStartThrowEb = 0x00029cb0
_ZN11KuriboTower12releaseChildEP15KuriboTowerNode = 0x000f2370
_ZN2rc13isInDeathAreaEPKN2al9LiveActorE = 0x004239d0
_ZN2al9LayoutKit15setLayoutSystemEPNS_12LayoutSystemE = 0x0081cae0
_ZN4CoinC1EPKc = 0x001fc260
_ZN7BoxCoinC1EPKc = 0x001e6b40
_ZN2al11limitLengthEPN4sead7Vector3IfEERKS2_f = 0x0086a950
_ZN3agl3pfx5BloomC1Ev = 0x007a1520
_ZN3agl3pfx5BloomC2Ev = 0x007a1520
_ZN2rc18isPlayerInvincibleEPKN2al9LiveActorEPKNS0_9HitSensorE = 0x0042c940
_ZN2al20GyroCameraControllerC2EPNS_15IUseAudioKeeperEPNS_17CollisionDirectorEPNS_15AreaObjDirectorEPKbS8_ = 0x00915b60
_ZN2al20GyroCameraControllerC1EPNS_15IUseAudioKeeperEPNS_17CollisionDirectorEPNS_15AreaObjDirectorEPKbS8_ = 0x00915b60
_ZN2al24ExecuteTableHolderUpdate23createExecutorListTableEv = 0x0080b160
_ZN2al13ArchiveHolderC2Ev = 0x0080fe80
_ZN2al13ArchiveHolderC1Ev = 0x0080fe80
_ZN11ScoreHolder20addScoreAndPopNumberEPKN2al9LiveActorEPNS0_9HitSensorEPKciRKN4sead7Vector3IfEEPSB_ = 0x002b2ca0
_ZN15RouteDokanRider9startBindEiP18RouteDokanEntranceP16IUsePlayerPuppet = 0x002b1c10
_ZN25familycomputer_controller14cpu_controllerEj = 0x001c7dc0
_ZN8CoinRing4initERKN2al13ActorInitInfoE = 0x00206940
_ZNK2al13PlayerWatcher21tryGetPlayerLookAtPosEPN4sead7Vector3IfEEi = 0x009170c0
_ZN2al10BlurFilter4initEiiRKN4sead18LogicalFrameBufferERKNS1_8ViewportEN3agl3utl13ImageFilter2D11ReduceScaleE = 0x00984340
_ZN21BunbunStateSpinAttack12exeAttackEndEv = 0x0000fd00
_ZN27TorpedoSpikeRestrictionAreaC1EPKc = 0x000013a0
_ZN25ChameleonStateGiantPlayerC2EPN2al9LiveActorEP27RenderMaterialIndirectParamPKS3_S6_ff = 0x001f1ae0
_ZN25ChameleonStateGiantPlayerC1EPN2al9LiveActorEP27RenderMaterialIndirectParamPKS3_S6_ff = 0x001f1ae0
_ZN2rc13isInWaterAreaEPKN2al9LiveActorE = 0x00423cc0
_ZN3agl3utl13ImageFilter2D19drawCubemapGaussianEPNS_11DrawContextERKNS_14TextureSamplerEjjjNS1_8BlurTypeEf = 0x0076b150
_ZN2al20GyroCameraController14calcInputStickEPN4sead7Vector2IfEEi = 0x00916270
_ZN21ProductStateLuigiBrosC2EP15ProductSequenceP22ProductStageStartParamRKN2al16SequenceInitInfoERKNS4_14LayoutInitInfoEP14GameDataHolderP15StageWipeKeeperPNS4_21ScreenCaptureExecutorEP24ControllerConnectChecker = 0x00400000
_ZN21ProductStateLuigiBrosC1EP15ProductSequenceP22ProductStageStartParamRKN2al16SequenceInitInfoERKNS4_14LayoutInitInfoEP14GameDataHolderP15StageWipeKeeperPNS4_21ScreenCaptureExecutorEP24ControllerConnectChecker = 0x00400000
_ZN20PlayerContinuousJump6updateEv = 0x00390830
_ZN2al14GodRayDirectorD2Ev = 0x00890c20
_ZN2al14GodRayDirectorD1Ev = 0x00890c20
_ZN18RCS_SaveDataLayout18updateEffectColorsEv = 0x00194db0
_ZN15screenfilterCpu15SubDarkBlurTimeEPjS0_i = 0x001cb310
_ZN3agl3sdw15DepthShadowUnit28addCasterClipPlanesSweepDir_ERKN4sead7Vector3IfEEPS5_iS6_ = 0x007d8090
_ZN2rc37tryGetRawControllerPortFirstConnectedEv = 0x00426a80
_ZN9IslandMap14updateMapScaleEv = 0x001751b0
_ZN2al22setContextMRTAlphaMaskEPN4sead18GraphicsContextMRTE = 0x00807c90
_ZN3agl3pfx20FlareFilterParameterC1Ev = 0x00796b80
_ZN3agl3pfx20FlareFilterParameterC2Ev = 0x00796b80
_ZN15alModelFunction16isShaderIndirectERKN2nn3g3d15ShadingModelObjE = 0x00879670
_ZN2al26getActorRecourseDataStringEPPKcPNS_9LiveActorES1_S1_ = 0x00839640
_ZN2al13setPaneStringEPNS_10IUseLayoutEPKcPKDstj = 0x0096edf0
_ZN2al13BgmLineKeeperC1Ef = 0x008ec7e0
_ZN2al13BgmLineKeeperC2Ef = 0x008ec7e0
_ZN17ShardCounterParts12updateStringEii = 0x00146df0
_ZN19PlayerActionHipDrop12exeLandReadyEv = 0x00341740
_ZN19PlayerCollisionFunc13checkSnapWallEPK14PlayerPropertyP29IUsePlayerCollisionCheckArrowRKN4sead7Vector3IfEEff = 0x00384e70
_ZN10NekoNormal12startReleaseEN4sead7Vector3IfEEff = 0x00308280
_ZN2al15GpuMemAllocator19createMemoryWithTmpEPKciiPN4sead4HeapEiN3agl15MemoryAttributeE = 0x00955f00
_ZN15SingleModeScene22updateDemoMovingCameraEb = 0x003eaaa0
_ZN21StaffRollLayoutHolder9exeAppearEv = 0x0019a3c0
_ZN3agl6detail9FileIOMgr10initializeERKNS1_9CreateArgEPN4sead4HeapE = 0x00780270
_ZNK2al8Resource11isExistFileERKN4sead14SafeStringBaseIcEE = 0x0089f280
_ZN3agl6driver11NVNsampler_15updateTextureIdEi = 0x0075c050
_ZN10HammerBrosC1EPKc = 0x000e00d0
_ZN2al18GraphicsSystemInfo14updateGraphicsEb = 0x008055b0
_ZN5erepo17PlayStyleObserverC2Ev = 0x009bbfa0
_ZN5erepo17PlayStyleObserverC1Ev = 0x009bbfa0
_ZN3agl3utl13TextureDataEx5resetEPNS_11DrawContextERKN4sead14SafeStringBaseIcEEbj = 0x00769d00
_ZN3eui8Animator14SetupWithGroupERKN2nn4ui2d12AnimResourceEPNS_8LayoutExEPNS2_5GroupEb = 0x007f0a90
_ZN9MagmaFish21receiveMsgScreenPointEPKN2al9SensorMsgEPNS0_13ScreenPointerEPNS0_17ScreenPointTargetE = 0x000f7320
_ZN17DemoOpeningSwitch4initERKN2al13ActorInitInfoE = 0x000a3360
_ZN19WalkerStateRailMove18setPositionToStartEv = 0x001350a0
_ZN2al13BlockRailLink10tryConnectEPS0_S1_f = 0x008f2d10
_ZNK4sead13FileDeviceMgr18findDeviceFromPathERKNS_14SafeStringBaseIcEEPNS_22BufferedSafeStringBaseIcEE = 0x0070ece0
_ZNK18DokanBindPuppeteer17isEnableStartBindEbb = 0x0021add0
_ZN2al17DepthShadowDrawer4initEPKNS_12LiveActorKitE = 0x008c0230
_ZN15TentackTentacle13receiveDamageEbi = 0x00060ad0
_ZN13LiftMikeSlideC1EPKc = 0x0027e570
_ZN15alModelFunction36createShaderSelectorFromAssignShaderEPN2al15GpuMemAllocatorEPKN2nn3g3d8ShapeObjEPKNS4_11MaterialObjE = 0x00879140
_ZN8FireBros21receiveMsgScreenPointEPKN2al9SensorMsgEPNS0_13ScreenPointerEPNS0_17ScreenPointTargetE = 0x000d39b0
_ZN37PlayerActionConditionInWaterFlowField5checkEv = 0x0031fed0
_ZN13AreaNameParts10changeNameERK12ScenarioInfo = 0x0015dca0
_ZN2al27calcQuatRotateAxisAndDegreeEPN4sead7Vector3IfEEPfRKNS0_4QuatIfEES8_ = 0x0086cf60
_ZN3agl6detail14MemoryPoolHeap6createEmimimmRKNS0_14MemoryPoolTypeEPNS0_20GPUMemBlockMgrHeapExE = 0x007589f0
_ZN4Neko12tryStartHideEv = 0x002fd540
_ZN21alCameraPoserFunction11calcLookDirEPN4sead7Vector3IfEEPKN2al14CameraPoser_RSE = 0x0091d340
_ZN3agl3sdw11LightMatrixC2Ev = 0x007d51d0
_ZN3agl3sdw11LightMatrixC1Ev = 0x007d51d0
_ZN10ItemBubble21receiveMsgScreenPointEPKN2al9SensorMsgEPNS0_13ScreenPointerEPNS0_17ScreenPointTargetE = 0x0025e270
_ZN2al19removeStringFromEndEPcjPKcS2_ = 0x008e4630
_ZN2al12AtmosScatterD1Ev = 0x008aa3d0
_ZN2al12AtmosScatterD2Ev = 0x008aa3d0
_ZN14alSeDbFunction23calcIsOneTimeInUserInfoEPKN2al10SeUserInfoE = 0x009a10e0
_ZNK21KinopioBrigadeWatcher19getBrigadeCollectedEv = 0x0026c0e0
_ZN3agl4lght4SSII8calcViewEiRKNS_4cull18ViewFrustumCullingE = 0x007b0bd0
_ZN3agl3utl12IParameterIO21listenPropertyEventIOEPN4sead6hostio10ReflexibleEPKNS3_13PropertyEventE = 0x0078d5b0
_ZN2al9FootPrint23setFollowCollisionPartsEPKNS_14CollisionPartsE = 0x00884080
_ZN9BootScene4initERKN2al13SceneInitInfoE = 0x003d06e0
_ZN4sead10StrTreeMapILi64EiE6insertERKNS_14SafeStringBaseIcEERKi = 0x008d8cd0
_ZN2al21EffectShaderHolderNew23renderStateReduceBufferERN2nn3vfx17RenderStateSetArgE = 0x00967ec0
_ZN18MapOceanShineParts12endIconBlinkEv = 0x000751a0
_ZN8BallSnow20requestPlayerReleaseEv = 0x001d6e70
_ZN16PlayerActionLand5setupEv = 0x003446f0
_ZN5Ukibo20startActionWithFloatEPKc = 0x00130df0
_ZN2al18makeMtxUpNoSupportEPN4sead8Matrix34IfEERKNS0_7Vector3IfEE = 0x009771b0
_ZN2rc11getItemTypeERKN2al13ActorInitInfoE = 0x00427f80
_ZN16PlayerActionFall5setupEv = 0x003229d0
_ZN19ItemStatePopUpFront10receiveMsgEPKN2al9SensorMsgEPNS0_9HitSensorES5_ = 0x002640a0
_ZN2al26ShaderFresnelTextureKeeper13findFresnelIdEPKc = 0x008b31c0
_ZN5Byugo11exeBlowLoopEv = 0x000c69f0
_ZN2al19EffectLightDirector11removeLightEPNS_11EffectLightE = 0x00967830
_ZN16PlayerActionFunc19updateSquatVelocityEP14PlayerPropertyPK15IUsePlayerInputfff = 0x00324850
_ZN12GeneratorBox14updateChildPosEv = 0x00235320
_ZN21CameraPoserDarkBowser19requestAerialCameraEv = 0x000682b0
_ZN2al15addVelocityJumpEPNS_9LiveActorEf = 0x0083c0d0
_ZN17ButtonCursorPartsC1ERKN2al14LayoutInitInfoEPKcS5_PNS0_11LayoutActorE = 0x0015f5a0
_ZNK2al28EmitterSetResourceInfoHolder24tryFindEffectResouceInfoEPKc = 0x009698b0
_ZN6Vessel8Emulator7Virtual11PlatformHvc16CPlatformHvcUnit13ImportContentEPKvmRm = 0x001af0b0
_ZN2al18CameraInterpole_RS5startEPKNS_12CameraTicketEfi = 0x00924950
_ZN17RunnerOnGotogotonC1EPKc = 0x001131e0
_ZN2al5Scene16initLiveActorKitERKNS_13SceneInitInfoEiiii = 0x008a4350
_ZNK20CourseSelectDirector17tryFindNextCourseEPP21CourseSelectMiniatureii = 0x0007c050
_ZN2al17isHitCircleSensorEPN4sead7Vector3IfEES3_PKNS_9HitSensorERKS2_S8_ff = 0x00841eb0
_ZN14PlayerColliderC2EPN2al9LiveActorEP21IUseCollisionPartsMtxPK16PlayerConstParamPK18IUsePlayerAnimatorb = 0x0037ccf0
_ZN14PlayerColliderC1EPN2al9LiveActorEP21IUseCollisionPartsMtxPK16PlayerConstParamPK18IUsePlayerAnimatorb = 0x0037ccf0
_ZNK2al9ByamlIter19getByamlDataByIndexEPNS_9ByamlDataEi = 0x008cdc50
_ZN2al25CameraPoserParallelSimpleC1EPKc = 0x008fd660
_ZN2al25CameraPoserParallelSimpleC2EPKc = 0x008fd660
_ZN3eui11CapturePane16setupClearColor_EPN4sead4HeapEPN2nn4ui2d4PaneEPNS_8LayoutExEPNS1_7BitFlagIhEE = 0x007e33f0
_ZN2al9SeEmitterC1EPNS_15AudioSystemInfoEPKNS_13SeEmitterInfoEPKNS_11ModelKeeperEPNS_12SeSourcePoseEb = 0x009a8ea0
_ZN2al9SeEmitterC2EPNS_15AudioSystemInfoEPKNS_13SeEmitterInfoEPKNS_11ModelKeeperEPNS_12SeSourcePoseEb = 0x009a8ea0
_ZN17ShadowMarioPlayerC1EPKc = 0x0013b320
_ZN2rc26setPlayerColorAnimBySensorEPN2al9LiveActorEPKNS0_9HitSensorEPKc = 0x00432cb0
_ZNK10DarkBowser12initCutsceneERKN2al13ActorInitInfoEPKcS5_b = 0x000127d0
_ZN14DemoSceneActor11startActionEi = 0x000a4a80
_ZN21alCameraPoserFunction34initSnapShotCameraCtrlZoomRollMoveEPN2al14CameraPoser_RSEbb = 0x0091eaa0
_ZN20DemoScenePlayerModel16releaseDemoActorEv = 0x000a89c0
_ZN2al15initJointMasherEPKNS_9LiveActorEPKbi = 0x00816490
_ZN4TreeC1EPKc = 0x002d8760
_ZN2al13EffectEmitter18setStopCalcAndDrawEb = 0x0095fcb0
_ZN9FlingPole4initERKN2al13ActorInitInfoE = 0x0022d910
_ZN15KeyMoveLoopLiftC1EPKc = 0x002670c0
_ZN2rc21getReactionCountByMsgEPKN2al9SensorMsgE = 0x00428ae0
_ZN19PipePackunBodyParts14setTurnPatternEPKS_ = 0x0010e080
_ZNK10TentackLv311getTentacleEi = 0x0005b8c0
_ZN2al18SeEffectControllerC2Ev = 0x009a3470
_ZN2al18SeEffectControllerC1Ev = 0x009a3470
_ZN2al10EdgeDrawer4initEPKNS_15SceneCameraInfoEPNS_12ShaderHolderEPNS_15AreaObjDirectorEPKNS_12PlayerHolderE = 0x00984e10
_ZN19RaidonSurfAnimState15updateSwimSoundEv = 0x003c8940
_ZN19RaidonSurfAnimState4killEv = 0x003c80d0
_ZN2al15createChildStepERKNS_13ActorInitInfoEPNS_9LiveActorEb = 0x0085ee40
_ZN2al17BgmActionInfoList6createERKNS_9ByamlIterE = 0x008eef80
_ZNK2al23ActorPrePassLightKeeper26setupPrePassProjLightParamEPNS_7LppProjE = 0x008211d0
_ZN21CameraPoserDarkBowser11toggleFocusERKN4sead7Vector3IfEES4_ = 0x00068360
_ZN2al13BlockRailLink4initERKN4sead4QuatIfEERKNS1_7Vector3IfEERKNS_9ByamlIterE = 0x008f2a60
_ZN4sead14AudioPlayerNinD2Ev = 0x0074ddf0
_ZN4sead14AudioPlayerNinD1Ev = 0x0074ddf0
_ZN19alPadRumbleFunction18startPadRumbleNo3DEPKN2al9LiveActorEPKcib = 0x00952460
_ZN10RaidonSurf24playHitReactionHitEffectEPKN2al9LiveActorEPKcPKNS0_9HitSensorES8_ = 0x003c0fc0
_ZN4sead21ControllerWrapperBaseD2Ev = 0x00747f20
_ZN4sead21ControllerWrapperBaseD1Ev = 0x00747f20
_ZN21PlayerLandingInformer14appendObserverEP25IUsePlayerLandingObserver = 0x003a8ea0
_ZN6Gamane16receiveMsgAtRealEPKN2al9SensorMsgEPNS0_9HitSensorES5_ = 0x000d85a0
_ZN8CoinRingC1EPKc = 0x002068a0
_ZN14SingleModeData14setOptionsDataEt = 0x0041bbd0
_ZN21PlayerStockerFunction19createPlayerStockerEPKN2al5SceneEb = 0x003d7e20
_ZNK2al20ShaderMirrorDirector21activateMirrorTextureEi = 0x008b5890
_ZN16CrawlerGeneratorC1EPKc = 0x000ca530
_ZN4sead13GameFrameworkC2Ev = 0x00713be0
_ZN17ProductStateTitle13playLoadAudioEv = 0x00403e50
_ZN25PlayerActionPropellerJumpC1EP22PlayerActionAirMoveArgP21IUsePlayerFlagControlP28IUsePlayerPropellerInhibitorPK14IUsePlayerFlagP13PlayerTriggerPK19IUsePlayerCheckArea = 0x003478e0
_ZN25PlayerActionPropellerJumpC2EP22PlayerActionAirMoveArgP21IUsePlayerFlagControlP28IUsePlayerPropellerInhibitorPK14IUsePlayerFlagP13PlayerTriggerPK19IUsePlayerCheckArea = 0x003478e0
_ZN11ButtonTouchC1EPKcPN2al11LayoutActorEPK16ButtonTouchParam = 0x00165170
_ZN11ButtonTouchC2EPKcPN2al11LayoutActorEPK16ButtonTouchParam = 0x00165170
_ZN17TreeBindPuppeteer8exeCatchEv = 0x002db440
_ZN23PlayerAliveWatcherGroup7endDemoEv = 0x003717a0
_ZN16PlayerActionFunc11forceFaceToEP14PlayerPropertyRKN4sead7Vector3IfEE = 0x00322d70
_ZN2al7HitInfoC2Ev = 0x009421e0
_ZN2al7HitInfoC1Ev = 0x009421e0
_ZN6Vessel8Emulator7Virtual11PlatformHvc16CPlatformHvcUnit20ValidateSerializeTagEPKhhhtS5_m = 0x001ae940
_ZNK18OceanWaterIndirect16bindUniformBlockEPN2al12UniformBlockE = 0x0029cb90
_ZN22KoopaLastWallClimbDown12attackSensorEPN2al9HitSensorES2_ = 0x00032500
_ZN4Peto14exeAttackStartEv = 0x0010b050
_ZN2al22SceneCameraControlInfoC1Ev = 0x00917520
_ZN2al22SceneCameraControlInfoC2Ev = 0x00917520
_ZN16PlayerEntryParts20requestStartDecisionEv = 0x00189980
_ZN2al21stopActiveSequenceBgmEPKNS_15IUseAudioKeeperEi = 0x008efda0
_ZN4sead16TextStreamFormat8writeBitEPNS_9StreamSrcEPKvj = 0x00733130
_ZN12GigaBell3in115startBarrierVFXEv = 0x0015ae30
_ZN9TitleLogoC1ERKN2al14LayoutInitInfoEP14GameDataHolder = 0x0019d9e0
_ZN8GoalItem21updateCameraDirectionEv = 0x00244cd0
_ZN2al14isFloorPolygonERKN4sead7Vector3IfEES4_ = 0x00945e50
_ZN2al14ActionFlagCtrl16updateCtrlSensorEff = 0x008d3c70
_ZNK3agl4lght4SSII24allocReprojectionBuffer_EPNS_11DrawContextEi = 0x007b3040
_ZN18RCS_SaveDataLayout10appearLoadEi = 0x00194c20
_ZN13BrosStateWaitC2EPN2al9LiveActorE = 0x000c3190
_ZN13BrosStateWaitC1EPN2al9LiveActorE = 0x000c3190
_ZN2al15AreaObjDirector12setEnableAllEb = 0x008da560
_ZN11PlayerInputC1EPK19IUsePlayerKeyConfig = 0x003966a0
_ZN11PlayerInputC2EPK19IUsePlayerKeyConfig = 0x003966a0
_ZN2al17CameraDirector_RS7endInitEPKNS_12PlayerHolderEib = 0x0091a020
_ZN2al26GraphicsParamRequesterImpl13updateRequestEv = 0x00996d10
_ZN13PlayerKoopaJr18updateHeadLookCtrlEb = 0x0039c350
_ZN2al12CameraShaker6updateEv = 0x00913130
_ZN2al7KeyPose4initERKNS_13PlacementInfoE = 0x0081a290
_ZNK2al22DirectionalLightKeeper28tryGetNamedOrDefaultDirLightEPKc = 0x0081deb0
_ZN10PlayReport6UpdateEv = 0x003b6e00
_ZN16SimpleMenuLayout5resetEPKc = 0x0019d460
_ZN14SuperSkateRail4lerpEf = 0x002c4b60
_ZN2al14multVecInvPoseEPN4sead7Vector3IfEEPKNS_9LiveActorERKS2_ = 0x0083ffc0
_ZN16SuperBowserShell16exeGrowOverTime4Ev = 0x00054620
_ZN2al15ActorItemKeeperC2EPKNS_9LiveActorEi = 0x00815380
_ZN2al15ActorItemKeeperC1EPKNS_9LiveActorEi = 0x00815380
_ZN2al25attachMtxConnectorToJointEPNS_12MtxConnectorEPKNS_9LiveActorEPKc = 0x007fef00
_ZN2al6Effect15tryEmitEmittersEPKN4sead7Vector3IfEEb = 0x0095e000
_ZN18RCSControlGuideBar10changeTextENS_15GuideBarMsgTypeEib = 0x0018c880
_ZN2al9normalizeEPN4sead8Matrix34IfEE = 0x0086a2a0
_ZN6Vessel8Emulator7Virtual11PlatformHvc7CHvcSpu7_SWavwT5PulseEsmPNS2_16CPlatformHvcUnit8_SEntityE = 0x001c22d0
_ZN3eui9PictureExC2EPKN2nn4ui2d10ResPictureES5_RKNS2_11BuildArgSetE = 0x007e5cb0
_ZN3eui9PictureExC1EPKN2nn4ui2d10ResPictureES5_RKNS2_11BuildArgSetE = 0x007e5cb0
_ZN6RaidonC1EPKc = 0x003b9860
_ZN15PlayerBoomerang14tryReflectWallEv = 0x0037bae0
_ZN2rc18AssetLoadingThread12waitLoadDoneENS0_9LOAD_TYPEE = 0x0040cc40
_ZN4sead14ControllerBaseC1Eiiii = 0x00735290
_ZN4sead14ControllerBaseC2Eiiii = 0x00735290
_ZN2rc9HealthBarC2EPKN2al9LiveActorERKNS1_14LayoutInitInfoEPFfS4_EPKc = 0x00016930
_ZN2al14setCameraResetEPKNS_13IUseCamera_RSEb = 0x00929e40
_ZN2al36isMsgPlayerTrampleForCrossoverSensorEPKNS_9SensorMsgEPKNS_9HitSensorES5_ = 0x0084c1b0
_ZN8GoalItem10receiveMsgEPKN2al9SensorMsgEPNS0_9HitSensorES5_ = 0x00242eb0
_ZNK2al19CameraDistanceCurve12calcDistanceEf = 0x0091c6b0
_ZN2al12LayoutKeeper10initLayoutEPN2nn4ui2d6LayoutEPNS_14LayoutResourceE = 0x009718b0
_ZN9FlowerCat4initERKN2al13ActorInitInfoE = 0x0015a400
_ZN2al20ActorPoseKeeperTFGSV16updatePoseRotateERKN4sead7Vector3IfEE = 0x0083f000
_ZN21SuperBowserLaserState15limitLaserAngleEv = 0x0004d650
_ZN10gamescreen4drawEv = 0x001cd280
_ZN4sead4Task14attachDrawImplEv = 0x00715b40
_ZN3agl3pfx12DepthOfField10initializeEiPN4sead4HeapE = 0x007b5d40
_ZN15alCollisionUtil19getFirstPolyOnArrowEPKN2al13IUseCollisionEPPKNS0_12ArrowHitInfoERKN4sead7Vector3IfEESC_PKNS0_24CollisionPartsFilterBaseEPKNS0_18TriangleFilterBaseE = 0x0093e0c0
_ZN2al25NWSound3DEngineCustomCAFE18UpdateAmbientParamEPN2nn3atk17SoundAmbientParamEPKNS2_14Sound3DManagerEPKNS2_12Sound3DParamEjj = 0x008e2f70
_ZN20DemoSceneActorPlayer4initERKN2al13ActorInitInfoE = 0x000a6370
_ZN2al14NerveStateCtrlC1Ei = 0x008807c0
_ZN2al14NerveStateCtrlC2Ei = 0x008807c0
_ZN6Tenten5resetEv = 0x00126ec0
_ZN2al41calcScreenPosFromWorldPosSubClampInScreenEPN4sead7Vector2IfEEPKNS_10IUseCameraERKNS0_7Vector3IfEE = 0x008a8ce0
_ZN2al23tryCallControllerAppletEPKNS_13GamePadSystemEii = 0x00946910
_ZN2al12FallMapParts11exeFallSignEv = 0x00860b80
_ZNK2al19ActorPoseKeeperTFSV11calcBaseMtxEPN4sead8Matrix34IfEE = 0x0083ef30
_ZN10CameraIcon15setCameraNoIconEv = 0x001662f0
_ZN14PlayerCollider15checkHeadSphereEPN4sead7Vector3IfEES3_S3_S3_RKS2_S5_ = 0x00381700
_ZN14BallStateThrowC2EPN2al9LiveActorEPK19BallStateThrowParam = 0x001d8bb0
_ZN14BallStateThrowC1EPN2al9LiveActorEPK19BallStateThrowParam = 0x001d8bb0
_ZN5Koura10exeBindEndEv = 0x002785f0
_ZN2al24tryGetPortFirstConnectedEPKii = 0x0094bac0
_ZN2rc8addScoreEPKN2al9LiveActorEPNS0_9HitSensorERKN4sead7Vector3IfEEi = 0x004437f0
_ZN30CourseSelectInfoLayoutFunction12setPaneStampEP20CourseSelectInfoBase = 0x0016cb50
_ZN13SamboSnowBody20requestSupportFreezeEPKN2al9LiveActorE = 0x00115140
_ZN10NeedleTrapC1EPKc = 0x0028db50
_ZN21PlayerActionWallClimbC2EPK15PlayerActionArgPK22IUsePlayerSnapWallInfoP23PlayerWallJumpDirectionPK23IUsePlayerWallClimbInfoPK24IUsePlayerWallClimbInputP13PlayerTriggerPK14IUsePlayerFlag = 0x0035bdc0
_ZN21PlayerActionWallClimbC1EPK15PlayerActionArgPK22IUsePlayerSnapWallInfoP23PlayerWallJumpDirectionPK23IUsePlayerWallClimbInfoPK24IUsePlayerWallClimbInputP13PlayerTriggerPK14IUsePlayerFlag = 0x0035bdc0
_ZN2rc20tryChangeToGigaMarioEPKN2al9LiveActorEPS1_ = 0x0042eb90
_ZN6Killer9exeAppearEv = 0x000e7040
_ZN2al24CameraPoserSubjective_RSC2EPKc = 0x008fdd10
_ZN2al24CameraPoserSubjective_RSC1EPKc = 0x008fdd10
_ZN3agl3sdw18PrimitiveOcclusion12calcContext_Ei = 0x008b9a00
_ZNK3agl3sdw4SSAO16drawReduceDepth_EPNS_11DrawContextEiRKNS_11TextureDataE = 0x0079e980
_ZN32SuperBowserFireFlamePlessieChase12attackSensorEPN2al9HitSensorES2_ = 0x000481c0
_ZN13PlayerKoopaJr25calcPlayerFollowTargetPosEPN4sead7Vector3IfEEb = 0x0039f740
_ZN6Player12updateEffectEv = 0x00319a00
_ZN2al12MemorySystem22createCourseSelectHeapEv = 0x00873020
_ZN14CheckPointStar6cancelEv = 0x001f5690
_ZN12TakoboBullet4initERKN2al13ActorInitInfoE = 0x00125280
_ZN4sead11XmlDocument16expandEntityListEiPNS_4HeapE = 0x00740180
_ZN22DisasterModeController25triggerAnticipationSwitchEv = 0x00211a80
_ZN19PlayerEntryFunction18shufflePlayerModelE20GameDataHolderWriter = 0x001838c0
_ZN2al16ScreenBlurDrawerC1Ei = 0x0099a020
_ZN2al16ScreenBlurDrawerC2Ei = 0x0099a020
_ZN6Vessel8Emulator7Virtual11PlatformHvc8CHvcMmc313_AdjustBusMapEv = 0x001b4480
_Z7AppMainiPPc = 0x0040c0b0
_ZN3agl6detail14GPUMemBlockMgr10initializeEPN4sead4HeapES4_ = 0x00759580
_ZN18DarkBowserFirebombC2EP10DarkBowserRKN2al13ActorInitInfoE = 0x0001af70
_ZN18DarkBowserFirebombC1EP10DarkBowserRKN2al13ActorInitInfoE = 0x0001af70
_ZN2al13MessageSystemC1Ev = 0x00979eb0
_ZN2al13MessageSystemC2Ev = 0x00979eb0
_ZN2al18CameraAreaObserver6updateEv = 0x00903900
_ZN2al12LayoutSystem7initEuiEv = 0x009741f0
_ZN2al23CameraPoserSceneInfo_RSC1Ev = 0x00922450
_ZN2al23CameraPoserSceneInfo_RSC2Ev = 0x00922450
_ZN15TentenGenerator21receiveMsgTouchAssistEPKN2al9LiveActorE = 0x00128180
_ZN2al22calcWaterDistanceCheckEPKNS_11IUseAreaObjERKN4sead7Vector3IfEEfPf = 0x008dbda0
_ZN2al18turnVecToVecDegreeEPN4sead7Vector3IfEERKS2_S5_f = 0x0086f100
_ZN17CourseSelectDokan8activateEv = 0x0007e480
_ZN8WarpDoorC1EPKc = 0x002df9a0
_ZN4sead16DirectProjectionC2Ev = 0x00738ed0
_ZN4sead16DirectProjectionC1Ev = 0x00738ed0
_ZN11PlayerActor9forceKillEv = 0x00366340
_ZN2al13tryGetLinksQTEPN4sead4QuatIfEEPNS0_7Vector3IfEERKNS_13ActorInitInfoEPKc = 0x0088c320
_ZNK2al13BgmRhythmCtrl18isEnableRhythmAnimEv = 0x008ee210
_ZN29PlayerInvincibleBgmController6updateEv = 0x00001a40
_ZN14PlayerFireBall4turnERKN4sead7Vector3IfEE = 0x003932c0
_ZN2rc13addScoreComboEPKN2al9LiveActorEPNS0_9HitSensorEPKNS0_9SensorMsgEf = 0x004439c0
_ZN2al10CameraRail16setPlayerRailDirEPNS_9LiveActorE = 0x00912f00
_ZN22inputdevice_controller4mainEv = 0x001c82d0
_ZN2al25initObjectCameraManual_RSEPKNS_13IUseCamera_RSEPKcRKNS_13ActorInitInfoE = 0x0092a250
_ZNK3agl3utl10BlurFilter9drawBlur_EPNS_11DrawContextEPNS0_22MultiFilterDrawContextENS0_15MultiFilterUnit8BlurTypeENS0_13ImageFilter2D14GaussianKernelE = 0x00791760
_ZNK7Kuribon12isEnableDownEv = 0x000f0430
_ZN2al20CameraPoserRailParamC2Ev = 0x0090f610
_ZN2al20CameraPoserRailParamC1Ev = 0x0090f610
_ZN3agl3sdw9ShadowMap16allocDepthBufferEPNS_11DrawContextEii = 0x007dbbd0
_ZN2al20CameraParamMoveLimit6createEPKNS_14CameraPoser_RSE = 0x00920360
_ZN3eui9TextBoxEx11adjustText_EPNS_8LayoutExE = 0x007e95e0
_ZN5Bonze12attackSensorEPN2al9HitSensorES2_ = 0x000b6920
_ZN21GoalPoleBindPuppeteer10startCatchEPKc = 0x0024ded0
_ZN16GameDataFunction16setSkipStartDemoE20GameDataHolderWriterb = 0x00416da0
_ZNK10RaidonSurf20getClosestSpawnIndexEN4sead7Vector3IfEEb = 0x003c3300
_ZN17CollectRingHolder12exeCountDownEv = 0x00209e10
_ZN6Togezo9exeWanderEv = 0x0012d030
_ZNK2al9ByamlIter19tryGetStringByIndexEPPKci = 0x008ce4b0
_ZN3agl3utl8DevTools27setUniformToDevToolsShader_EPNS_11DrawContextERKN4sead8Matrix34IfEES8_RKNS4_8Matrix44IfEERKNS4_7Color4fESF_RKNS4_7Vector3IfEE = 0x00782b40
_ZN3agl3utl8DevTools12drawTexture_EPNS_11DrawContextERKNS_13ShaderProgramERKNS_14TextureSamplerERKN4sead8Matrix34IfEERKNSA_8Matrix44IfEERKNSA_7Color4fE = 0x00784a40
_ZN8BoxLight16exeCarryLightingEv = 0x001ebb70
_ZN21ListClearStarMaxParts7setShowEiibb = 0x00179c00
_ZN4sead11GraphicsNvnC1ERKNS0_9CreateArgE = 0x0071a2e0
_ZN4sead11GraphicsNvnC2ERKNS0_9CreateArgE = 0x0071a2e0
_ZNK2al14CollisionParts15checkStrikeDiskEPNS_19DiskHitResultBufferERKN4sead7Vector3IfEEffS7_PKNS_18TriangleFilterBaseE = 0x00939580
_ZN11PlayerActor16setNameplateNameEPKcbbb = 0x0036f410
_ZN11FireBarRoot7controlEv = 0x0022a380
_ZN19GhostPlayerRecorder14writeGhostDataEv = 0x002e8f00
_ZN2al9SeRequest5clearEv = 0x009aedf0
_ZN9BombBound9exeKickedEv = 0x00003540
_ZNK2al17AreaShapeCylinder13calcNearPointEPN4sead7Vector3IfEERKS3_ = 0x008dd1d0
_ZN2al13CartoonDrawer19initProjectResourceEPN2nn3g3d7ResFileE = 0x0098d9b0
_ZN2al21ClippingAreaActorInfo18checkStillClippingEPNS_27ClippingAreaActorViewHolderE = 0x0092f0c0
_ZN8GoalItem28tryTriggerGoalItemLightStartEi = 0x00246c30
_ZN2al20GyroCameraController6updateEPN4sead12LookAtCameraEPNS_17ControlAngleParamEb = 0x00915bf0
_ZN2al22CameraVerticalAbsorber4loadERKNS_9ByamlIterE = 0x00920ea0
_ZN2al12MemorySystem15removeNamedHeapEPKc = 0x00873680
_ZN18BombBoundGenerator9exeLaunchEv = 0x000b3e30
_ZN4nerd5rsqrtEf = 0x00722d90
_ZN16CounterCoinPartsC1ERKN2al14LayoutInitInfoEPKcS5_PNS0_11LayoutActorE = 0x00167b60
_ZN7Kyuppon6exeRunEv = 0x00034c90
_ZN3agl2fx12OfxLensFlare6PresetC2Ev = 0x007c3110
_ZN3agl2fx12OfxLensFlare6PresetC1Ev = 0x007c3110
_ZNK23PlayerSubAttackOnGround11isAttackingEv = 0x003b35c0
_ZN4sead13NullFaderTaskC2ERKNS_16TaskConstructArgE = 0x00718190
_ZN4sead13NullFaderTaskC1ERKNS_16TaskConstructArgE = 0x00718190
_ZN2al24getPlacementInfoAndCountEPNS_13PlacementInfoEPiPKNS_9StageInfoEPKc = 0x008a58f0
_ZNK2al13PlayerWatcher17getAlivePlayerNumEv = 0x00916b20
_ZN8CoinUtil28tryStartSpinCoinIfMicInputOnEPN2al9LiveActorEPKNS0_5NerveE = 0x00424910
_ZN2al12LiveActorKit25updateReducedBufferEffectEv = 0x00831e60
_ZN9BootScene6appearEv = 0x003d08c0
_ZN2al12ActionSeCtrl6updateEff = 0x008d1f70
_ZN2al29reallocateTextBoxStringBufferEPNS_11LayoutActorEPKNS_8ResourceEPKc = 0x009704f0
_ZN37SuperBowserPlessieChaseFireFlameState12initFromYamlEv = 0x00050e00
_ZNK2al9ByamlIter10isExistKeyEPKc = 0x008cda70
_ZN35CourseSelectRouteDokanEntranceGroup4initEPN2al19BlockRailPartsGroupERKNS0_13ActorInitInfoE = 0x00093ad0
_ZN2al5SceneD1Ev = 0x008a40e0
_ZN2al5SceneD2Ev = 0x008a40e0
_ZN20GameDataFlagFunction30isAlreadyOpenAllClearCharacterE22GameDataHolderAccessorii = 0x00414770
_ZN7BoxCoin13tryShiftCarryEPN2al9HitSensorES2_ = 0x001e7000
_ZNK3agl2fx17OccludedEffectMgr16getPresetByIndexEii = 0x007bf610
_ZN12GoalPoleFlagC1EP8GoalPole = 0x0024f560
_ZN2al8SeSourceC2ERKN4sead14SafeStringBaseIcEE = 0x009b0d50
_ZN8GoalPole29prepareDemoW7KoopaCastleClearEv = 0x0024b5b0
_ZNK2al22LightIntensityDirector11getExposureEv = 0x0081fbd0
_ZN4neko9isInRangeEPKN2al9LiveActorERKN4sead7Vector3IfEEf = 0x002fbd50
_ZN2al10HdrCompose11ViewContextC2Ev = 0x00893a50
_ZN7Kuribon12startReverseEPKN2al9LiveActorE = 0x000f0190
_ZN4sead17RegionLanguageMgr14createInstanceEPNS_4HeapE = 0x00723240
_ZN4neko14isInChaseRangeEPK17IUseNekoModeActorRKN4sead7Vector3IfEE = 0x002fbcd0
_ZN32StageStartBindDemoKinopioBrigade14warpDemoEndPosEb = 0x000ac3e0
_ZN3agl3sdw11DepthShadow10initializeERKNS1_9CreateArgEPN4sead4HeapE = 0x007d3680
_ZN4sead4Path15getBaseFileNameEPNS_22BufferedSafeStringBaseIcEERKNS_14SafeStringBaseIcEE = 0x00711450
_ZN15DrcTouchPointer8exeKnockEv = 0x002264f0
_ZN2al21ClippingAreaActorInfo21initStageSwitchKeeperERKNS_13PlacementInfoERKNS_13ActorInitInfoE = 0x0092dae0
_ZN2al16ShadowMaskKeeper4initEPNS_15ExecuteDirectorE = 0x008c7dc0
_ZN18RCS_SaveDataLayout27updateFileSelectButtonStateEb = 0x00193970
_ZN10RaidonSurf7exeRideEv = 0x003c4270
_ZN2rc23getActiveControlUserNumE22GameDataHolderAccessor = 0x004259e0
_ZN2al22ShaderEnvTextureKeeper11initTextureEPNS_12ShaderHolderE = 0x008b2400
_ZN19ItemStatePlayerHold15tryStartCarryUpEPKN2al9SensorMsgEPNS0_9HitSensorEb = 0x00262aa0
_ZN2al14ActorAlphaCtrlC1ERKNS_9ByamlIterEPNS_9LiveActorE = 0x0097fcf0
_ZN2al14ActorAlphaCtrlC2ERKNS_9ByamlIterEPNS_9LiveActorE = 0x0097fcf0
_ZN5Koura8tryBreakEv = 0x00275fd0
_ZN19RaidonSurfWaitState19trySetReactionNerveEPKN2al9SensorMsgE = 0x003cba90
_ZNK8GoalPole17calcHighestUserIdEv = 0x0024b480
_ZN4sead15AudioFxDelayNin16AssignWorkBufferEPvj = 0x007527e0
_ZN3agl6driver11NVNsampler_C1ERKS1_ = 0x0075bf00
_ZN3agl6driver11NVNsampler_C2ERKS1_ = 0x0075bf00
_ZN6Skatis10updateMoveEv = 0x00119910
_ZN2al21ParabolicPathMovementC2EPNS_9LiveActorEb = 0x0087ea00
_ZN2al21ParabolicPathMovementC1EPNS_9LiveActorEb = 0x0087ea00
_ZN2al16PrePassLightBaseC2EPKc = 0x00823310
_ZN2al22ModelDrawerDeferredExtC1EPKcbb = 0x0097c680
_ZN2al22ModelDrawerDeferredExtC2EPKcbb = 0x0097c680
_ZN20DisasterSpikeTorpedo23enforceFollowAngleLimitEv = 0x00157520
_ZN3agl3pfx12AutoExposureC2Ev = 0x007ba000
_ZN3agl3pfx12AutoExposureC1Ev = 0x007ba000
_ZNK2al9ByamlIter12getIterByKeyEPKc = 0x008cdce0
_ZN18KoopaLastBreakWallC1EPKc = 0x0002cd10
_ZN3agl3utl14PrimitiveShape19setupVtxBufferTorusEPNS_12VertexBufferENS_10GPUMemAddrINS1_6VertexEEEjjffii = 0x0077b630
_ZN11PlayerModel19initJointControllerERKN4sead7Vector2IfEEPKbPKNS0_4QuatIfEEf = 0x003aa470
_ZN10StageScene10updatePlayEv = 0x003f3ec0
_ZN2al20SeMaterialInfoKeeper14findReplacedIdEiPKciPKNS_22SeResourceSpecificInfoE = 0x009abdc0
_ZN19PlayerEntryFunction27calcPrevPlayerCharacterTypeEiPK14GameDataHolder = 0x001835e0
_ZN2al20CameraResourceHolder13tryInitZoneIDEPKci = 0x009269e0
_ZN19PlayerActionAirMove5setupEv = 0x0031b300
_ZN2al11MirrorParam4initEv = 0x008b3e20
_ZN2al14ShadowMaskCubeC2EPKc = 0x008c3f90
_ZN2al14ShadowMaskCubeC1EPKc = 0x008c3f90
_ZN16FireBrosFireBallC1EPKc = 0x000d3f80
_ZN22SingleModeDataFunction26getNumRemainingLuckyShinesE22GameDataHolderAccessor = 0x0041f400
_ZN4sead7TaskMgrC1ERKNS0_13InitializeArgE = 0x007166e0
_ZN4sead7TaskMgrC2ERKNS0_13InitializeArgE = 0x007166e0
_ZN2al18LayoutActionKeeper6updateEv = 0x0096d700
_ZN2al21AreaCameraSwitcher_RS31makeAllAreaCameraAfterPlacementEv = 0x0091b830
_ZN2al22calcAngleOnPlaneDegreeERKN4sead7Vector3IfEES4_S4_ = 0x00869640
_ZNK2al30AudioGeneralPurposeAreaChecker20getFloatArgInCurAreaEPKc = 0x008df030
_ZN2al15CameraShaker_RSC1Ev = 0x00927380
_ZN2al15CameraShaker_RSC2Ev = 0x00927380
_ZNK2al8Resource11isExistBymlEPKc = 0x0089f2f0
_ZN22SingleModeDataFunction23getIslandActiveScenarioE22GameDataHolderAccessori = 0x0041f770
_ZN21CourseSelectPuppeteer16setupJumpPrepareEPKN2al9LiveActorE = 0x0008c040
_ZN15SingleModeScene23initPlacementRaidonSurfEPKN2al9StageInfoERKNS0_13ActorInitInfoE = 0x003ef7f0
_ZN2rc20isEnablePadUiMapZoomEi = 0x00427130
_ZN21SuperBowserLaserState18disableLaserSensorEv = 0x0004af20
_ZN3agl13ShaderProgram10initializeENS_22ResBinaryShaderProgramEPN4sead4HeapE = 0x007610d0
_ZN21CourseSelectPuppeteer10receiveMsgEPKN2al9SensorMsgEPNS0_9HitSensorES5_ = 0x0008b190
_ZN3agl3utl13ImageFilter2D19drawCubemapGaussianEPNS_11DrawContextERKNS_14TextureSamplerEjjNS1_8BlurTypeEf = 0x0076af20
_ZN20DemoSceneActorHolder22initPlacementDemoActorERKN2al13PlacementInfoERKNS0_13ActorInitInfoEP26PlayerRetargettingSelectorPKN4sead8Matrix34IfEEb = 0x000a4fd0
_ZN18RCSControlGuideBar17appearWithMessageENS_15GuideBarMsgTypeEi = 0x0018c7f0
_ZN21alCameraPoserFunction16calcPreCameraDirEPN4sead7Vector3IfEEPKN2al14CameraPoser_RSE = 0x0091d4f0
_ZN5Teren21receiveMsgScreenPointEPKN2al9SensorMsgEPNS0_13ScreenPointerEPNS0_17ScreenPointTargetE = 0x001293e0
_ZN2al18SeEffectController13appendEffectsEPKNS_12SeEffectInfoE = 0x009a4bb0
_ZN2rc29getPlayerCharacterMessageNameEPKN2al11LayoutActorEi = 0x0042a2b0
_ZN2al17getLinksActorInfoEPNS_13ActorInitInfoEPNS_13PlacementInfoERKS0_PKci = 0x00838a40
_ZN31CloudBonusLauncherBindPuppeteer17startBonusEndBindEPN2al9HitSensorES2_ = 0x001fbe90
_ZN10DarkBowser15calcPlayerSpawnERKN2al13ActorInitInfoE = 0x00011130
_ZN2al22SimpleLayoutAppearWaitC1EPKcS2_RKNS_14LayoutInitInfoES2_ = 0x00888740
_ZNK2al17DepthShadowDrawer28executeDrawEffectDepthShadowERKN4sead8Matrix34IfEERKNS1_8Matrix44IfEEff = 0x008c0590
_ZN2al13makeMtxUpSideEPN4sead8Matrix34IfEERKNS0_7Vector3IfEES7_ = 0x00976d70
_ZN13DisasterSpike13turnIntoCoinsEv = 0x00216ed0
_ZN15screenfilterCpu9SubNFrameEPjS0_ = 0x001cb660
_ZNK3agl3utl8Trimming7doDraw_EPNS_11DrawContextEPNS0_22MultiFilterDrawContextE = 0x00792c40
_ZN2al19MosaicPictureDrawer19initProjectResourceEPN2nn3g3d7ResFileE = 0x00994a90
_ZN21SuperBowserLaserState19effectsLaserHitPlayEv = 0x0004ed70
_ZN12FlowerRhythmC1EPKc = 0x002335b0
_ZN8RootTask4calcEv = 0x0041a930
_ZN10IllustItemC1EPKcb = 0x0025a970
_ZN2al17SimpleCameraInputC2Ei = 0x0092c100
_ZN2al17SimpleCameraInputC1Ei = 0x0092c100
_ZN16CourseSelectNode18openRoadToNextNodeEPS_b = 0x000856f0
_ZN22SingleModeDataFunction16isShardCollectedE22GameDataHolderAccessorii = 0x0041f660
_ZN4Coin4initERKN2al13ActorInitInfoE = 0x001fc310
_ZN16PlayerActionFunc12calcStickPowEf = 0x00324aa0
_ZN6Rabbit6cancelEv = 0x00312e30
_ZN2al15MeshDrawerTable6insertEPNS_10MeshDrawerE = 0x00876360
_ZN7GondolaC1EPKc = 0x00250d40
_ZNK7Trapeze17calcJumpPowerRateEb = 0x002d7a00
_ZNK18BlockRouletteState11getNextTypeEv = 0x001e1d00
_ZN6Vessel8Emulator7Virtual11PlatformHvc16CPlatformHvcUnit15ConfigureEntityERNS3_8_SEntityEPvPhPsPmPNS3_14_STitleElementEPNS3_17_SCustomParameterEPNS3_17_SSurveyParameterE = 0x001aebc0
_ZN2al3Bgm8startBgmEPKNS_15BgmResourceInfoERKNS_17BgmPlayingRequestEb = 0x008eba40
_ZN2al20isOnGroundNoVelocityEPKNS_9LiveActorEj = 0x0093d480
_ZN8LiftMike16exeUpReleaseHighEv = 0x0027cc60
_ZN6Vessel8Emulator7Virtual11PlatformHvc12CHvcMapper4514_SerializeCoreEPvb = 0x001b92f0
_ZN10NekoNormal4initERKN2al13ActorInitInfoEN4neko9ColorTypeEP15NpcTargetFinder = 0x00300de0
_ZN2al14getKeyPoseQuatEPN4sead4QuatIfEEPKNS_13KeyPoseKeeperEi = 0x0081a4b0
_ZN2al15faceToDirectionEPNS_9LiveActorERKN4sead7Vector3IfEE = 0x0083dd00
_ZN19DarkBowserShellSpin13calcTargetPosEv = 0x0001f850
_ZN3agl3utl22ContextParameterBufferINS_3pfx11FlareFilterENS2_20FlareFilterParameterEE32initializeContextParameterBufferEibPN4sead4HeapE = 0x00797a70
_ZN21alCameraPoserFunction22initSnapShotCameraCtrlEPN2al14CameraPoser_RSE = 0x0091ea10
_ZN16PressureDeathObj20isInsidePressureAreaEPKN2al9HitSensorE = 0x002a7410
_ZN14DarkBowserUtil13jointChainAimERNS_20ControlledJointChainERKN4sead7Vector3IfEEf = 0x00020d90
_ZN2al17PadRumbleDirector22checkIsAliveRumbleLoopEPKcPKN4sead7Vector3IfEEi = 0x009511c0
_ZN2al21JointSpringController17calcJointCallbackEiPN4sead8Matrix34IfEE = 0x00819640
_ZN2al9SSIIParam4initEv = 0x008302d0
_ZN3agl3utl13ParameterBase19genMessageParameterEPN4sead6hostio7ContextERKNS2_14SafeStringBaseIcEE = 0x0076d910
_ZN25PlayerActionGigaSquatJumpC2EP22PlayerActionAirMoveArgP13PlayerTriggerP23IUsePlayerCollisionSizePK21IUsePlayerSquatEnergyPK22IUsePlayerCeilingCheckPK11PlayerActor = 0x0032b230
_ZN25PlayerActionGigaSquatJumpC1EP22PlayerActionAirMoveArgP13PlayerTriggerP23IUsePlayerCollisionSizePK21IUsePlayerSquatEnergyPK22IUsePlayerCeilingCheckPK11PlayerActor = 0x0032b230
_ZNSt3__127__insertion_sort_incompleteIRPFbRKN15alCollisionUtil17SphereMoveHitInfoES4_EPS2_EEbT0_S9_T_ = 0x00941670
_ZN11ShadowMario19isDeathStartSuccessEb = 0x0013a380
_ZN3agl3utl14PrimitiveShape22setUpStreamHemisphere_EjjPN4sead4HeapE = 0x00775a20
_ZNK18PlayerAliveWatcher18isActivePlayerPortEi = 0x00370c50
_ZN4sead22BufferedSafeStringBaseIcE16appendWithFormatEPKcz = 0x00726ba0
_ZNK2al19BlockRailShapeCurve16calcNearestParamEPN4sead7Vector3IfEEPfRKS3_ = 0x008f5140
_ZN2al14ShadowMaskBaseC2EPKc = 0x008c2630
_ZN3agl3utl13ParameterBase13applyResourceENS0_12ResParameterE = 0x0076c1e0
_ZN2rc29forceDisappearGuideGameWindowEPKN2al18IUseSceneObjHolderE = 0x001727f0
_ZNK4sead7ExpHeap9isIncludeEPKv = 0x005a57c0
_ZN16alPlayerFunction21findPlayerHolderIndexEPKN2al9LiveActorE = 0x0088e210
_ZN24PlayerWaterSurfaceFinderC2EPKN2al11IUseAreaObjE = 0x003b6130
_ZN24PlayerWaterSurfaceFinderC1EPKN2al11IUseAreaObjE = 0x003b6130
_ZN10RaidonSurf14showGameWindowEb = 0x003c2a70
_ZN2al14RoughnessArrayD1Ev = 0x008b1230
_ZN2al14RoughnessArrayD2Ev = 0x008b1230
_ZN5Koura24isAttachableWithNokonokoEv = 0x00276410
_ZN21GoalPoleBindPuppeteer19exeCatchFailureWaitEv = 0x0024ef30
_ZN18KoopaFireBallGiant11checkGroundEv = 0x00270c60
_ZN10DarkBowser14setGigaBellPosEv = 0x00012220
_ZN6Mirror4initERKN2al13ActorInitInfoE = 0x00287570
_ZN6Teresa9exeShyEndEv = 0x0012ac30
_ZN13WindowMessageC1ERKN2al14LayoutInitInfoEPKcS5_S5_ = 0x001a0480
_ZN2al15PoseHistoryPath10addHistoryERKN4sead4QuatIfEERKNS1_7Vector3IfEEPKcf = 0x0087edb0
_ZN11SuperBowser15notifyPlayerHitEv = 0x00043920
_ZN21alCameraPoserFunction16calcTargetSpeedVEPKN2al14CameraPoser_RSE = 0x0091da50
_ZN4sead9WorkerMgrC1Ev = 0x00748c70
_ZN4sead9WorkerMgrC2Ev = 0x00748c70
_ZN2al14SimpleModelG3D10initializeEPN2nn3g3d8ResModelEiPN4sead4HeapEPNS_15GpuMemAllocatorE = 0x0087cff0
_ZN2al23isInAreaObjPlayerAnyOneEPKNS_9LiveActorEPKNS_12AreaObjGroupE = 0x008db630
_ZN3agl4cull18ViewFrustumCulling6updateERKN4sead8Matrix34IfEERKNS2_10ProjectionE = 0x00799ab0
_ZN16PlayerActionBindC1EP14PlayerPropertyP14IUsePlayerBindPK13PlayerTriggerPK28IUsePlayerDamageInvalidCheckP19IUsePlayerSubActionP21IUsePlayerFlagControl = 0x0031c0d0
_ZN16PlayerActionBindC2EP14PlayerPropertyP14IUsePlayerBindPK13PlayerTriggerPK28IUsePlayerDamageInvalidCheckP19IUsePlayerSubActionP21IUsePlayerFlagControl = 0x0031c0d0
_ZN2al20CameraParamMoveLimit16pauseInterpolateEPN4sead12LookAtCameraERNS1_7Vector3IfEE = 0x009205c0
_ZN2al27AudioRequestKeeperSyncedBgmC2Ev = 0x008df4d0
_ZN2al27AudioRequestKeeperSyncedBgmC1Ev = 0x008df4d0
_ZN2al14startOceanWaveEPNS_9LiveActorEPKc = 0x0097f8a0
_ZN3agl20ShaderProgramArchive16createWithOptionENS_22ResBinaryShaderArchiveENS_16ResShaderArchiveEjPN4sead4HeapE = 0x00789db0
_ZN15PlayerEntryMini23exePlayerEntryAllDecideEv = 0x00187be0
_ZN18BrosMoveStepKeeper5resetEv = 0x000c1980
_ZN11KuriboTower13setupChildrenEv = 0x000f1be0
_ZN2al9LiveActor14updateColliderEv = 0x0085d040
_ZN19AssistSlideMapParts11touchAssistEv = 0x001d03c0
_ZN2al12MemorySystemC2EPN4sead4HeapEmmm = 0x008729c0
_ZN2al12MemorySystemC1EPN4sead4HeapEmmm = 0x008729c0
_ZN2al15SoundItemHolderC1Ev = 0x00810310
_ZN2al15SoundItemHolderC2Ev = 0x00810310
_ZN15StockBlurEffect6updateEv = 0x0019cfc0
_ZNK2al13BgmRhythmCtrl13getCurrentBpmEv = 0x008ee1d0
_ZN14PlayerAnimator18startUpperBodyAnimERKN4sead14SafeStringBaseIcEE = 0x00375440
_ZN22BoomerangBrosBoomerang6attachEPKN4sead8Matrix34IfEERKNS0_7Vector3IfEES8_ = 0x000b9460
_ZN34CourseSelectPlayerActionGroundMove5setupEv = 0x00088cb0
_ZN16FireBallSafeAreaC1EPKc = 0x00000920
_ZN2al21initJointLocalRotatorEPKNS_9LiveActorEPN4sead7Vector3IfEEPKc = 0x00815d40
_ZN4sead9WorkerMgr4syncEv = 0x00749360
_ZN9BoxKiller14tryShiftRotateEf = 0x001e8fc0
_ZN3agl3utl14PrimitiveShapeC2Ev = 0x00772ba0
_ZN3agl3utl14PrimitiveShapeC1Ev = 0x00772ba0
_ZN4sead17NinFileDeviceBase16doReadDirectory_EPjPNS_15DirectoryHandleEPNS_14DirectoryEntryEj = 0x00710460
_ZNK3agl12RenderBuffer5clearEPN4sead11DrawContextEjRKNS1_7Color4fEfj = 0x0075e8b0
_ZN2al12ShaderHolder14createInstanceEPN4sead4HeapE = 0x009b7800
_ZN21SuperBowserLaserState23tryUpdateLaserEndEffectEv = 0x0004cdc0
_ZNK2al22LightIntensityDirector14getExposureExpEv = 0x0081fc50
_ZN2al16isSklAnimPlayingEPKNS_9LiveActorEPKci = 0x00833790
_ZN2al15normalizeOrZeroEPN4sead7Vector3IfEERKS2_ = 0x00869c50
_ZN3agl3env7CubeMap16bindRenderBufferEPNS_11DrawContextEPKNS_11TextureDataEjjS6_NS_14GPUMemVoidAddrEb = 0x007d1dd0
_ZN4sead14QuatCalcCommonIfE20applyAngularVelocityERNS_8BaseQuatIfEERKNS_8BaseVec3IfEEf = 0x002c9240
_ZNK2al18EffectCameraHolder20tryMakeYBillboardMtxEPN4sead8Matrix34IfEERKNS1_7Vector3IfEE = 0x0095f5a0
_ZN2al12CollisionObjC1ERKNS_13ActorInitInfoEPNS_8ResourceEPKcPNS_9HitSensorEPKN4sead8Matrix34IfEES7_ = 0x00885710
_ZNK15PlayerKeyConfig13calcLeftStickEPN4sead7Vector2IfEE = 0x00398f30
_ZN21PlayerActionSquatWalk10updateTurnEv = 0x00351600
_ZN2al8Sequence9initAudioERKNS_14GameSystemInfoEPKciiiS5_ = 0x008a9730
_ZN9TimerGate14setGateActionsEv = 0x002cc100
_ZN21PlayerActionSquatWalk10updateWalkEv = 0x003511c0
_ZN22DisasterModeController16tryIncrementFlowEv = 0x0020fa00
_ZN2al16RetroColorDrawer7endInitEv = 0x00998240
_ZNK11RabbitRoute21calcNearestPosOnRouteEPN4sead7Vector3IfEERKS2_ = 0x003155f0
_ZN13PlayerKoopaJr24checkWarpTargetCollisionEPN4sead7Vector3IfEE = 0x003a0ee0
_ZN2al17createTextureInfoERKN3agl11TextureDataEb = 0x0096f550
_ZN10NekoParent16updateDemoCameraEv = 0x0030b0b0
_ZN14DemoSceneActor18initDemoSceneActorERKN2al13ActorInitInfoES3_PKN4sead8Matrix34IfEE = 0x000a4660
_ZN2al7isInInkEPKNS_13IUseCollisionERN4sead7Vector3IfEES6_Pf = 0x0092ace0
_ZN2al17CameraPoseUpdater6updateEb = 0x00923a20
_ZN2al24rotateQuatAndTransDegreeEPN4sead4QuatIfEEPNS0_7Vector3IfEERKS2_RKS5_SA_SA_f = 0x0086ee50
_ZNK3agl13ShaderProgram15VariationBuffer24searchShaderProgramIndexEiPKPKcS5_i = 0x00762b60
_ZN3agl3utl12INamedObjMgr13constructListEv = 0x007ce210
_ZN2al13SwingMovementC2ERKNS_13ActorInitInfoE = 0x0087feb0
_ZN2al13SwingMovementC1ERKNS_13ActorInitInfoE = 0x0087feb0
_ZN12IslandHolder14addDemoActionsEPKc = 0x002e3e50
_ZN8GoalItem18playAppearRiseAnimEv = 0x002435c0
_ZN5Koura19disappearByNokonokoEPN2al9LiveActorE = 0x00276350
_ZN2al14getLinksMatrixEPN4sead8Matrix34IfEERKNS_13ActorInitInfoEPKc = 0x0088c260
_ZN19GateKeeperStateDemoC1EPN2al9LiveActorERKNS0_13ActorInitInfoEPK24GateKeeperStateDemoParamPNS0_12CameraTicketE = 0x00022f10
_ZN19GateKeeperStateDemoC2EPN2al9LiveActorERKNS0_13ActorInitInfoEPK24GateKeeperStateDemoParamPNS0_12CameraTicketE = 0x00022f10
_ZN2rc20killAllPlayersEffectEPN2al9LiveActorE = 0x00433990
_ZN15PlayLogFunction10startStageE20GameDataHolderWriteri = 0x0041a530
_ZN15StockBlurEffect4stopEb = 0x0019d170
_ZN2al8calcQuatEPN4sead4QuatIfEEPKNS_9LiveActorE = 0x0083f9a0
_ZN2al14tryGetByamlV4fEPN4sead7Vector4IfEERKNS_9ByamlIterEPKc = 0x008cf170
_ZNK2al13PlayerWatcher15getTopPlayerPosEv = 0x00917090
_ZN10TeresaWallC1EPKc = 0x0012b890
_ZN2rc33sendMsgNeedleRollerHitToCollitionEPN2al9LiveActorEPNS0_9HitSensorERKN4sead7Vector3IfEEf = 0x00436040
_ZN2al18getStartCameraAreaEPKNS_11IUseAreaObjERKN4sead7Vector3IfEEPNS_17CameraDirector_RSE = 0x008db270
_ZN9DashPanelC1EPKc = 0x0020af00
_ZN4sead11XmlDocument17parseXmlInstance_EPNS_10ReadStreamEPNS_4HeapE = 0x007423e0
_ZN2al19freeAllSequenceHeapEv = 0x008724a0
_ZN4sead16DirectProjectionC1ERKNS_8Matrix44IfEENS_8Graphics13DevicePostureE = 0x00738f70
_ZN4sead16DirectProjectionC2ERKNS_8Matrix44IfEENS_8Graphics13DevicePostureE = 0x00738f70
_ZNK23PlayerAliveWatcherGroup33isEnableOtherGroupBubbleWithInputEv = 0x00371de0
_ZN16PlayerActionDive5setupEv = 0x00322330
_ZN22SingleModeDataFunction16setHasSeenEndingE20GameDataHolderWriterb = 0x00420090
_ZN2al15isSensorPlessieEPKNS_9HitSensorE = 0x0084c870
_ZThn24_NK2nn3atk16SoundDataManager18GetFileAddressImplEj = 0x006664c0
_ZN2al17CollisionDirectorC2EPNS_15ExecuteDirectorEi = 0x009365b0
_ZN2al17CollisionDirectorC1EPNS_15ExecuteDirectorEi = 0x009365b0
_ZN18KarakuriCastleDoorC1EPKc = 0x00266540
_ZN2al10SeDirector8finalizeEv = 0x009a16f0
_ZN11ClimbHandle10receiveMsgEPKN2al9SensorMsgEPNS0_9HitSensorES5_ = 0x001f7e50
_ZN28EnemyStateBlowDownNoColliderC1EPN2al9LiveActorEPK23EnemyStateBlowDownParamPb = 0x000d22b0
_ZN28EnemyStateBlowDownNoColliderC2EPN2al9LiveActorEPK23EnemyStateBlowDownParamPb = 0x000d22b0
_ZN16PlayerSpinAttackC2EP18IUsePlayerAnimatorPK15IUsePlayerInputPK16PlayerConstParamPK19IUsePlayerCollisionP23IUsePlayerEventReceiverPK20PlayerFigureDirectorPK20IUsePlayerCharaQueryPK19PlayerGiantDirector = 0x003b29b0
_ZN16PlayerSpinAttackC1EP18IUsePlayerAnimatorPK15IUsePlayerInputPK16PlayerConstParamPK19IUsePlayerCollisionP23IUsePlayerEventReceiverPK20PlayerFigureDirectorPK20IUsePlayerCharaQueryPK19PlayerGiantDirector = 0x003b29b0
_ZN8GigaBell18getPlessieChasePosEv = 0x0023b4c0
_ZN2rc16addScoreBySystemEPKN2al9LiveActorEPNS0_9HitSensorEPKci = 0x00443f60
_ZN2al19FlareFilterDirectorC1EiPNS_18GraphicsSystemInfoE = 0x0088fa20
_ZN2al19FlareFilterDirectorC2EiPNS_18GraphicsSystemInfoE = 0x0088fa20
_ZN18PlayerAliveWatcherC1ERKN2al13ActorInitInfoEPNS0_12PlayerHolderEbbb = 0x0036fc90
_ZN18PlayerAliveWatcherC2ERKN2al13ActorInitInfoEPNS0_12PlayerHolderEbbb = 0x0036fc90
_ZN2al11ModelDrawerC2EPKc = 0x008763c0
_ZN6Takobo5shootEv = 0x00124d10
_ZN17ButtonCursorParts9setAppearEPKN2al10IUseLayoutE = 0x0015f970
_ZN2al17StageSwitchKeeper4initEPNS_19StageSwitchDirectorERKNS_13PlacementInfoE = 0x008cbc40
_ZN22BoomerangBrosBoomerang21receiveMsgScreenPointEPKN2al9SensorMsgEPNS0_13ScreenPointerEPNS0_17ScreenPointTargetE = 0x000b9340
_ZN10DarkBowser4initERKN2al13ActorInitInfoE = 0x00010820
_ZN21SuperBowserLaserState18doRayToSensorCheckEiPN2al9HitSensorE = 0x000505a0
_ZN5BonzeC1EPKc = 0x000b6530
_ZN2al27setSklAnimBlendFrameRateAllEPNS_9LiveActorEfb = 0x00833e90
_ZN2al22calcSphereMargeSpheresEPN4sead7Vector3IfEEPfRKS2_fS6_f = 0x0086fca0
_ZNK2al9ByamlIter27tryGetIterAndKeyNameByIndexEPS0_PPKci = 0x008cdff0
_ZN2al10calcHeightEPKNS_9LiveActorES2_ = 0x0083cfd0
_ZN2al23ActorPrePassLightKeeper13LightBaseInfo6setPtrEv = 0x008207d0
_ZN2al13BlockRailLinkC2Ei = 0x008f2890
_ZN2al13BlockRailLinkC1Ei = 0x008f2890
_ZN3agl6detail20GPUMemBlockMgrHeapExD2Ev = 0x00758e10
_ZN3agl6detail20GPUMemBlockMgrHeapExD1Ev = 0x00758e10
_ZN2al15ModelLightParamC1EPKc = 0x008ae130
_ZN2al15ModelLightParamC2EPKc = 0x008ae130
_ZN2al10SePlayInfo10createInfoERKNS_9ByamlIterE = 0x009b3b10
_ZN3agl3utl19ResParameterArchiveC1EPKv = 0x0077d490
_ZN3agl3utl19ResParameterArchiveC2EPKv = 0x0077d490
_ZN13BoomerangBros7exeJumpEv = 0x000b8540
_ZN11PlayerActor13cancelForDemoEv = 0x00366640
_ZN2al19AnimScaleController12stopAndResetEv = 0x0087e020
_ZN8GoalItem18setCameraDirectionEv = 0x00244560
_ZNK3agl12RenderBuffer5bind_EPNS_11DrawContextEt = 0x0075e3a0
_ZN2al13isMoveSignKeyEPKNS_13KeyPoseKeeperE = 0x0081a600
_ZN2al24rotateQuatLocalDirDegreeEPN4sead4QuatIfEERKS2_if = 0x0086d640
_ZN16PlayerActionJump6updateEv = 0x00342ab0
_ZN14TerritoryMoverC2Ef = 0x0012bf50
_ZN14TerritoryMoverC1Ef = 0x0012bf50
_ZN2rc13StampDirector14decrementStampEv = 0x002c0690
_ZN15RaidonWaitState19trySetReactionNerveEPKN2al9SensorMsgE = 0x003cc290
_ZN17DisasterSpikeArea10initSpikesERKN2al13ActorInitInfoEP21DisasterSpikeDirector = 0x00000570
_ZN3agl3utl14PrimitiveShape25setupIdxStreamHemisphere_ItEEvPNS_11IndexStreamENS_10GPUMemAddrIT_EEjjNS1_8DrawTypeENS1_7QualityE = 0x00779b20
_ZN8GoalItem18handleDisasterModeEv = 0x00245140
_ZN14MarchGenerator24updateBgmBeatRateTriggerEv = 0x000fa530
_ZN3fix15TextBoxTextInfo10setTextBoxEPN2nn4ui2d6LayoutEPKci = 0x001778c0
_ZN15alModelFunction23getMaterialDrawPriorityEPKN2nn3g3d11ResMaterialE = 0x00879730
_ZN20TrapezeBindPuppeteer10updatePoseEf = 0x002d8090
_ZN8Pukupuku21receiveMsgScreenPointEPKN2al9SensorMsgEPNS0_13ScreenPointerEPNS0_17ScreenPointTargetE = 0x00110430
_ZN4sead10TextWriter10printImpl_EPKDsibPNS_9BoundBox2IfEE = 0x0073a470
_ZN2al15RailKeeperGroup4initERKNS_13PlacementInfoEPKc = 0x0089c7a0
_ZN23PlayerWallJumpDirectionC1EPK14PlayerPropertyPK22IUsePlayerSnapWallInfoPK19IUsePlayerCollisionPK16PlayerConstParam = 0x003b54e0
_ZN23PlayerWallJumpDirectionC2EPK14PlayerPropertyPK22IUsePlayerSnapWallInfoPK19IUsePlayerCollisionPK16PlayerConstParam = 0x003b54e0
_ZN12TargetFinder6updateEv = 0x00125ec0
_ZN15alCollisionUtil19getFirstPolyOnArrowEPKN2al13IUseCollisionEPN4sead7Vector3IfEEPNS0_8TriangleERKS6_SB_PKc = 0x0093e260
_ZN2al3Bgm12attachSuffixEPKNS_17BgmSuffixProcInfoEb = 0x008ec330
_ZN14PlayerAnimator6updateEb = 0x003741c0
_ZN2al13RequestInterpINS_8FogParamEE12requestParamEiiRKS1_ = 0x00812210
_ZNK26DemoPlayerControllerHolder24getDemoPlayerByCharacterEi = 0x000a3c50
_ZN20DisasterSpikeTorpedo14appearRecklessEP11SuperBowserN4sead7Vector3IfEE = 0x00156270
_ZN5Koura18receivedBindCancelEP18KouraBindPuppeteerPN2al9HitSensorEb = 0x002764b0
_ZN7Gondola9exeAppearEv = 0x00251250
_ZN2al9normalizeEPN4sead7Vector3IfEERKS2_ = 0x008698f0
_ZN2al12JointAimInfoC2Ev = 0x008157d0
_ZN2al12JointAimInfoC1Ev = 0x008157d0
_ZN2al13turnToRailDirEPNS_9LiveActorEf = 0x0089e140
_ZN2al14ActionFlagCtrl9tryCreateEPNS_9LiveActorEPKc = 0x008d33b0
_ZNK3agl3sdw13ShadowPrePass7releaseEi = 0x007de9e0
_ZN17MessageAppearBase31exeWaitDisplayLighthouseMessageEv = 0x002b7ea0
_ZN16RabbitRouteRider11updatePointEPK20IUseRabbitRoutePointS2_ = 0x00315c20
_ZThn192_N2nn3atk6detail6driver23AdvancedWaveSoundPlayer47OnUpdateFrameSoundThreadWithAudioFrameFrequencyEi = 0x0065f170
_ZN2al22SupportFreezeSyncGroupC2Ev = 0x00867100
_ZN2al22SupportFreezeSyncGroupC1Ev = 0x00867100
_ZN2al21changeEnvTextureStampEPNS_9LiveActorE = 0x0083ad10
_ZN2al14ResourceSystem14createResourceERKN4sead14SafeStringBaseIcEEPNS0_16ResourceCategoryEPKc = 0x008a13f0
_ZN11ButtonGroup14setDestinationEPKcS1_S1_S1_S1_ = 0x00160f10
_ZN10BossWackun19setRotateAxisAndPosERKN4sead7Vector3IfEEb = 0x00007a70
_ZN5erepo5ArrayC2Ev = 0x009bfe40
_ZN5erepo5ArrayC1Ev = 0x009bfe40
_ZN2al8moveRailEPKNS_9LiveActorEf = 0x0089dd20
_ZN2rc17acquireIllustItemEPKN2al9LiveActorE = 0x0025b350
_ZN6Vessel8Emulator7Virtual11PlatformHvc7CHvcCpu14_SerializeCoreEPvb = 0x001b1180
_ZN2al14DirectionParam9initByArgERKNS_13ActorInitInfoE = 0x0081e6b0
_ZN2al22tryStartSklAnimIfExistEPNS_9LiveActorEPKc = 0x00833660
_ZN19RaidonSurfAnimState7endMoveEv = 0x003c7fd0
_ZN6Rabbit10receiveMsgEPKN2al9SensorMsgEPNS0_9HitSensorES5_ = 0x00312f20
_ZN13DisasterSpikeC1EPKc = 0x00211f30
_ZN16PlayerTailAttack6updateEv = 0x003b3830
_ZN13PlayerStockerC2Ei = 0x003d79a0
_ZN13PlayerStockerC1Ei = 0x003d79a0
_ZN2al28SupportFreezeSyncGroupHolder26initAfterPlacementSceneObjERKNS_13ActorInitInfoE = 0x00866ee0
_ZN2al15calcTanFovyHalfEPN4sead7Vector2IfEES3_ffRKS2_ = 0x008b0420
_ZN2rc15createStampListEv = 0x0017d160
_ZN2al16RetroColorDrawerD1Ev = 0x009981d0
_ZN2al16RetroColorDrawerD2Ev = 0x009981d0
_ZN2al17moveSyncRailPauseEPNS_9LiveActorEf = 0x0089e470
_ZN19RaidonSurfWaitStateC2EPKcP10RaidonSurfP23ActorStateSupportStroke = 0x003cb950
_ZN19RaidonSurfWaitStateC1EPKcP10RaidonSurfP23ActorStateSupportStroke = 0x003cb950
_ZN20ItemBubbleSingleModeC1EPKc = 0x0025ebe0
_ZN7WoodBoxC1EPKc = 0x002e28b0
_ZN18IntroFlyOverCamera12startFlyOverEi = 0x00070c70
_ZN4sead19AudioFxReverbStdNinC1Ev = 0x00753d80
_ZN4sead19AudioFxReverbStdNinC2Ev = 0x00753d80
_ZN2rc21setPlayerUseOldParamsEPN2al12PlayerHolderEb = 0x00433cd0
_ZN4sead6BufferIN3agl17ShaderProgramEditEE14tryAllocBufferEiPNS_4HeapEi = 0x0078b4c0
_ZN21PlayerActionStandSwim14updateVelocityEv = 0x00351cb0
_ZN2al17HitSensorDirector9initGroupEPNS_9HitSensorE = 0x00832280
_ZN22PlayerActionGroundMove17updateBlendWeightEfb = 0x0033f240
_ZN2al15FootPrintHolder16createActionListEv = 0x00884340
_ZN2al10HdrCompose8movementEb = 0x00893e10
_ZN6Vessel8Emulator7Virtual11PlatformHvc7CHvcSpu7_SDelta5SetupEhhPNS2_16CPlatformHvcUnit8_SEntityE = 0x001c3d50
_ZN4sead23ParallelSZSDecompressorC2EjiPNS_4HeapEPhRKNS_10CoreIdMaskE = 0x0074a9e0
_ZN4sead23ParallelSZSDecompressorC1EjiPNS_4HeapEPhRKNS_10CoreIdMaskE = 0x0074a9e0
_ZN19TentackTentacleStep20switchCollisionPartsEb = 0x00062a80
_ZN16SuperBowserShell16exeGrowOverTime1Ev = 0x00053d20
_ZN16BossBunretsuChipC1EP12BossBunretsuiPKc = 0x000bc0a0
_ZN23PlayerAliveWatcherGroup10onGameOverEv = 0x00371810
_ZN9RaidonNpcC1EPKc = 0x00316a20
_ZN8GoalItem16makeActorDeadAllEv = 0x00242b30
_ZN3eui15ApplyCaptureUseEPN2nn4ui2d4PaneEPNS_8LayoutExE = 0x007e1770
_ZN18FireworksEffectObjC1EPKc = 0x0022bf40
_ZN2al12EffectKeeper13tryEmitEffectEPKcPKN4sead7Vector3IfEE = 0x00961350
_ZN4sead22AudioResourceLoaderNinC1Ev = 0x00750910
_ZN4sead22AudioResourceLoaderNinC2Ev = 0x00750910
_ZN2al18isEqualPlacementIDERKNS_13PlacementInfoES2_ = 0x0088b930
_ZN17BlockStateCoinTenC1EPN2al9LiveActorERKNS0_13ActorInitInfoEb = 0x001e2cb0
_ZN17BlockStateCoinTenC2EPN2al9LiveActorERKNS0_13ActorInitInfoEb = 0x001e2cb0
_ZN2al14isPadConnectedEi = 0x0094b840
_ZN2al15RenderVariablesC2EPNS_18GraphicsSystemInfoEPNS_12LiveActorKitEPKNS_14SimpleModelEnvEiiibb = 0x0095c700
_ZN2al15RenderVariablesC1EPNS_18GraphicsSystemInfoEPNS_12LiveActorKitEPKNS_14SimpleModelEnvEiiibb = 0x0095c700
_ZN2al18JointDirectionInfoC2Ev = 0x00817100
_ZN2al18JointDirectionInfoC1Ev = 0x00817100
_ZN2al22addTransOffsetLocalDirEPNS_9LiveActorEfi = 0x0083d230
_ZN2rc26trySetPlayerForwardToInputEPN2al9HitSensorE = 0x0042ff50
_ZN2al32createSimpleCollisionPartsKeeperEv = 0x0093a2c0
_ZN3agl2fx17OccludedEffectMgr12setEnableAllEb = 0x007be8a0
_ZN2al15BgmResourceInfo10createInfoERKNS_9ByamlIterE = 0x008e4d90
_ZN18ChameleonStateUtil36tryRequestGiantPlayerAppearChameleonEPKN2al9SensorMsgEPNS0_9HitSensorEP25ChameleonStateGiantPlayer = 0x001f2580
_ZN19PlayerActionAirMove33controlDirectionForFlightDurationEv = 0x0031bbb0
_ZN15GigaBellManager22tryQueueReturnCutsceneEbbb = 0x0023d060
_ZN14PlayerAnimator13copyAnimLocalERKN4sead14SafeStringBaseIcEE = 0x003759a0
_ZN2al14DirectionParam17syncFromRPYDegreeERKN4sead7Vector3IfEE = 0x0081ea90
_ZN2al10SeDataBase33setResourceSpecInfoToResourceInfoEv = 0x0099fb30
_ZN13BreakMapPartsC1EPKc = 0x001ed9e0
_ZN3agl3pfx12AutoExposure12ResultBuffer4BindEPNS_11DrawContextE = 0x007b9e60
_ZN17StepScrollWatcher7controlEv = 0x002c15d0
_ZN2al19initObjectMapCameraEPKNS_10IUseCameraERKNS_13ActorInitInfoEPKc = 0x00914820
_ZNK2al12MtxPtrHolder13tryFindMtxPtrEPKc = 0x00976840
_ZN10TeresaWall11isStartMoveEv = 0x0012bbb0
_ZN15SuperSkateShoesC1EPKc = 0x003ce960
_ZN26WalkerStateFindPlayerParamC2EifbPKc = 0x00133970
_ZN26WalkerStateFindPlayerParamC1EifbPKc = 0x00133970
_ZN4sead4TaskC2ERKNS_16TaskConstructArgEPKc = 0x00715730
_ZN4sead4TaskC1ERKNS_16TaskConstructArgEPKc = 0x00715730
_ZN2al9getRandomEii = 0x0086b4c0
_ZN20DestructableMapPartsC1EPKc = 0x0020b6a0
_ZN2al16tryGetByamlBox3fEPN4sead9BoundBox3IfEERKNS_9ByamlIterE = 0x008ceea0
_ZN18BlockRouletteState21receiveMsgScreenPointEPKN2al9SensorMsgEPNS0_13ScreenPointerEPNS0_17ScreenPointTargetE = 0x001e2030
_ZNK3agl3pfx8FilterAA8ReduceAAEPNS_11DrawContextEjRKNS_12RenderBufferERKN4sead8ViewportEPKNS_14TextureSamplerE = 0x0079cc00
_ZN6Vessel8Emulator7Virtual11PlatformHvc7CHvcSpu7_SWavwT5SetupEhhPNS2_16CPlatformHvcUnit8_SEntityE = 0x001c21f0
_ZN2al19WaveVibrationPlayer6updateEv = 0x00955640
_ZNK15TentackTentacle8isAppearEv = 0x000619a0
_ZN2al25ActorSensorControllerList9addSensorEPNS_9LiveActorEPKc = 0x00840eb0
_ZN3agl3utl22ContextParameterBufferINS_3pfx5BloomENS2_14BloomParameterEED2Ev = 0x007a16b0
_ZN13BindPuppeteer9startBindEPN2al9HitSensorES2_ = 0x001d9bf0
_ZN10ManekinekoC1ERKN2al13ActorInitInfoEPKcPK17PlayerModelHolderPK19IUsePlayerCollisionPKNS0_9HitSensorE = 0x00318660
_ZN8GoalItem33lighthouseSequenceCompletelyEndedEb = 0x00246cb0
_ZN15PackunStateHoldC1EPN2al9LiveActorEPP16PackunFlowerHead = 0x00108670
_ZN15PackunStateHoldC2EPN2al9LiveActorEPP16PackunFlowerHead = 0x00108670
_ZN22CameraPoserFollowLimit17setLowDegreeLimitEf = 0x0006fae0
_ZN11PlayerModel19createSkirtDynamicsEv = 0x003aace0
_ZN5Koura9startKillEv = 0x00275a10
_ZN2rc23convertPlayerLifeToTextEPN4sead22BufferedSafeStringBaseIDsEEi = 0x00429a30
_ZN10KuriboMiniC1EPKc = 0x000ecc70
_ZN21alActorSystemFunction22removeFromExecutorDrawEPN2al9LiveActorEPN4sead8PtrArrayINS0_15ModelDrawerBaseEEE = 0x0080b5f0
_ZN2al28validZoomCameraControlByPortEPKNS_10IUseCameraEi = 0x009153d0
_ZN2rc16addScoreByFactorEPKN2al9LiveActorEPNS0_13ScreenPointerEPKcfi = 0x00443e60
_ZN2al28isCollidedGroundEdgeOrCornerEPKNS_9LiveActorE = 0x0093d440
_ZN2al25ModelDrawerDeferredPlayerC2EPKcbb = 0x00876ce0
_ZN2al25ModelDrawerDeferredPlayerC1EPKcbb = 0x00876ce0
_ZN16BasicActionGuide7exeWaitEv = 0x0013e020
_ZN16RabbitRouteRider28updateNextPointReversePlayerEPK20IUseRabbitRoutePoint = 0x00315e60
_ZNK2al15LayoutPaneGroup13isAnimOneTimeEv = 0x00971fe0
_ZN21PlayerActionStandSwimC1EPK15PlayerActionArgPK13PlayerTriggerPK24IUsePlayerWaterFlowFieldP21IUsePlayerForwardBentP21IUsePlayerFlagControlPK19IUsePlayerCheckArea = 0x00351a30
_ZN21PlayerActionStandSwimC2EPK15PlayerActionArgPK13PlayerTriggerPK24IUsePlayerWaterFlowFieldP21IUsePlayerForwardBentP21IUsePlayerFlagControlPK19IUsePlayerCheckArea = 0x00351a30
_ZNK3agl6driver6NVNMgr7isEqualEjRK10NVNsampler = 0x0075ac70
_ZN8GoalPole9fixCameraERKN4sead7Vector3IfEE = 0x0024b260
_ZN2al25AreaObjMtxConnecterHolder10tryAddAreaEPNS_7AreaObjERKNS_13PlacementInfoE = 0x008dadf0
_ZThn208_N2nn3atk12Sound3DActorD1Ev = 0x0067bbb0
_ZN21DisasterSpikeDirector16loadTorpedoParamEPNS_17TorpedoSpikeParamEPKcb = 0x001514d0
_ZNK2al16VignettingDrawer8drawBlurEPN3agl11DrawContextEPNS1_11TextureDataERKS4_PKNS_15VignettingParamE = 0x0099ca20
_ZN3agl10InitializeERKNS_7InitArgE = 0x0075d740
_ZN2al27calcRollingCubeClippingInfoEPN4sead7Vector3IfEEPfPKNS_21RollingCubePoseKeeperEf = 0x0081c1c0
_ZN21alAudioKeeperFunction24createAndInitAudioKeeperEPKN2al13AudioDirectorEb = 0x008df450
_ZN25CoinChameleonCourseSelect7controlEv = 0x00079620
_ZN16DisasterAnimPartC2Ev = 0x0014ef50
_ZN19GhostPlayerFunction26isExistGhostPlayerDirectorEPKN2al18IUseSceneObjHolderE = 0x002e7410
_ZN2al9LiveActor19setGlobalYOffsetRefEPf = 0x0085c990
_ZN2al8blendMtxEPN4sead8Matrix34IfEERKS2_S5_f = 0x009782c0
_ZN18DarkBowserRingBeam10exeFadeOutEv = 0x000ccc10
_ZN37SuperBowserPlessieChaseFireFlameState24tryUpdateSoundObjectStopEv = 0x00052250
_ZN9SuperStarC1EPKcP10ItemBubble = 0x002c4d60
_ZNK20CourseSelectDirector17tryFindCasinoRoomEi = 0x0007bdd0
_ZN10NeedleTrap4initERKN2al13ActorInitInfoE = 0x0028dbf0
_ZN2al17CameraPlayingInfoC1Ei = 0x00928370
_ZN2al17CameraPlayingInfoC2Ei = 0x00928370
_ZN2al7BgmLine12detachSuffixEPKNS_11BgmProcInfoE = 0x008ea7f0
_ZN3eui21ScalableFontTextBoxEx24registerGlyphsAndGetNextEPNS_15ScalableFontMgrE = 0x007e7460
_ZN2al19CameraPoserTower_RS6updateEv = 0x008ff510
_ZN2al16EuiScreenFactory10initializeEPN4sead4HeapEi = 0x00975f00
_ZN27PlayerAliveWatcherCharacter10deadPlayerEv = 0x00370de0
_ZN22RouteDokanBazookaRider16updatePuppetPoseEv = 0x002adc70
_ZN15alModelFunction53createMeshDrawerTableDisplayListRenderStateInvalidateEPKN2al15MeshDrawerTableEPK11alModelCafeb = 0x008792b0
_ZN2al30calcFittingBoxPoseEqualAxisAllEPN4sead4QuatIfEERKS2_S5_ = 0x00871020
_ZN4neko15scaleHitSensorsEPN2al9LiveActorEf = 0x002fbe80
_ZN13PlayerKoopaJr10tryHipDropEv = 0x003a1730
_ZN2al10BlurFilter4drawEPN3agl11DrawContextERKNS1_12RenderBufferERNS1_14TextureSamplerE = 0x00984860
_ZN4sead7ExpHeapC2ERKNS_14SafeStringBaseIcEEPNS_4HeapEPvmNS5_13HeapDirectionEb = 0x0071d6d0
_ZN4sead7ExpHeapC1ERKNS_14SafeStringBaseIcEEPNS_4HeapEPvmNS5_13HeapDirectionEb = 0x0071d6d0
_ZNK3agl3pfx5Bloom13drawGaussian_EPNS_11DrawContextEiif = 0x007a3cb0
_ZN2al23ActorPrePassLightKeeper6appearEb = 0x00821ea0
_ZN6Vessel8Emulator7Virtual11PlatformHvc9CHvcVrc2b13_AdjustBusMapEv = 0x001bb560
_ZN3eui17LetterAnimControl10initializeEPN4sead4HeapEPNS_9TextBoxExEPNS_8LayoutExE = 0x007e9c50
_ZNK3agl2fx17OccludedEffectMgr9CreateArg21searchPresetTypeIndexEPKNS0_7OfxBase10PresetBaseEi = 0x007c5f10
_ZN14NokonokoNormalC1EPKcP8Nokonoko = 0x00100940
_ZNK2al17AreaShapeCylinder10isInVolumeERKN4sead7Vector3IfEE = 0x008dd150
_ZN2al19CameraPoserParallel24updateCourseSelectCameraEv = 0x009082a0
_ZN2rc5Stamp8exeEraseEv = 0x002bec80
_ZNK3agl12RenderBuffer9fastClearEPNS_11DrawContextEjjRKN4sead7Color4fEfjRKNS3_8ViewportEb = 0x0075ea90
_ZN2al13calcDistanceHEPKNS_9LiveActorES2_ = 0x0083ce10
_ZN30CourseSelectRouteDokanEntrance13appearStopperEb = 0x00093740
_ZN2al20CameraPoserRailTowerC2ERKNS_25CameraPoserRailTowerParamEPKNS_11PlacementIdE = 0x0090f6b0
_ZN2al20CameraPoserRailTowerC1ERKNS_25CameraPoserRailTowerParamEPKNS_11PlacementIdE = 0x0090f6b0
_ZNK2al12ViewRenderer10drawMirrorEiPNS_15RenderVariablesEbN3agl10ShaderModeE = 0x00959260
_ZN2al18getNextMessagePageEPKNS_17IUseMessageSystemEPKDs = 0x0097bbd0
_ZN2al15isActionPlayingEPKNS_16IUseLayoutActionEPKcS4_ = 0x0096d290
_ZN4sead7EnvUtil17getRegionLanguageEv = 0x00724bd0
_ZN3agl3utl14PrimitiveShape19setupIdxStreamCone_ItEEvPNS_11IndexStreamENS_10GPUMemAddrIT_EEjjNS1_8DrawTypeENS1_7QualityE = 0x0077b320
_ZN4Neko17startAppearNormalEv = 0x002fcdd0
_ZN18RouteDokanLauncher4initERKN2al13ActorInitInfoE = 0x002affe0
_ZN16DisasterModeArea4initERKN2al12AreaInitInfoEPKNS0_14SceneObjHolderE = 0x00000450
_ZN23ActorStateSupportFreeze13setTouchActorEPN2al13ScreenPointerE = 0x000b09f0
_ZN21alCameraPoserFunction30checkFirstCameraCollisionArrowEPNS_24CameraCollisionHitResultEPKN2al13IUseCollisionERKN4sead7Vector3IfEESA_ = 0x0091ee60
_ZN2al16CameraRailHolderC2Ev = 0x00912f60
_ZN2al16CameraRailHolderC1Ev = 0x00912f60
_ZN2rc13isInDeathAreaEPKN2al11IUseAreaObjERKN4sead7Vector3IfEE = 0x00423950
_ZN14DarkBowserUtil18updateLaserEffectsEPN2al9LiveActorEPNS_10LaserParamE = 0x00021890
_ZN2al12LayoutSystem4initEb = 0x00973c00
_ZN2al7stopBgmEPKNS_15IUseAudioKeeperERKNS_17BgmPlayingRequestE = 0x008efd40
_ZNK23CameraAngleVerticalCtrl12isFixInRangeEv = 0x000651a0
_ZN16PlayerConstParamC2ERKN2al9ByamlIterE = 0x00388210
_ZN16PlayerConstParamC1ERKN2al9ByamlIterE = 0x00388210
_ZN16alPlayerFunction13isPlayerActorEPKN2al9HitSensorE = 0x0088e380
_ZN14DarkBowserUtil11setSkyToDayEPN2al9LiveActorEPNS0_13SkyProjectionES4_b = 0x0001fee0
_ZN20PlayerActionPlayAnim5setupEv = 0x003476e0
_ZN2al15CameraStopJudge6updateERKN4sead7Vector3IfEE = 0x00927de0
_ZN21LuckyIslandControllerC1EPKc = 0x00286a80
_ZN14PlayerFireBall9boundWallERKN4sead7Vector3IfEES4_ = 0x003931a0
_ZN14PhaseBossScene20initPlacementBossLODEPKN2al9StageInfoERKNS0_13ActorInitInfoEPKc = 0x003d6c30
_ZN19ChallengeTimerPartsC1ERKN2al14LayoutInitInfoEPKcS5_PNS0_11LayoutActorE = 0x00140000
_ZN2al18SeEffectController9setFxSendEv = 0x009a4cc0
_ZN2rc15set2PAssistModeEbb = 0x00427720
_ZN2al19FullScreenQuadModelC2Ev = 0x008aca40
_ZN2al19FullScreenQuadModelC1Ev = 0x008aca40
_ZN2al14initAnimCameraEPKNS_9LiveActorERKNS_13ActorInitInfoE = 0x00914760
_ZN3eui9ScreenMgr10initializeERKNS0_13InitializeArgE = 0x007f6e40
_ZNK2al13EffectEmitter12isEnableEmitEv = 0x0095fd50
_ZN20PlayerGlideInhibitor6updateEPK13PlayerTrigger = 0x00394a70
_ZN30CourseSelectInfoLayoutFunction18setPaneClearPlayerEP20CourseSelectInfoBaseb = 0x0016c6d0
_ZN18DemoActorGroupUtil18initDemoActorGroupEPN2al9LiveActorERKNS0_13ActorInitInfoERKNS0_13PlacementInfoE = 0x004265c0
_ZN6Skatis7exeWaitEv = 0x00119250
_ZN3agl3utl13ImageFilter2D11drawTextureEPNS_11DrawContextERKNS_14TextureSamplerERKN4sead8ViewportERKNS7_7Vector2IfEESE_ = 0x00769f60
_ZN17CourseSelectScene13initPlacementERKN2al13ActorInitInfoE = 0x00094e70
_ZN2al19MosaicPictureDrawerC2EPNS_12ShaderHolderEPNS_12UniformBlockEPNS_18NoiseTextureKeeperE = 0x00994960
_ZN2al19MosaicPictureDrawerC1EPNS_12ShaderHolderEPNS_12UniformBlockEPNS_18NoiseTextureKeeperE = 0x00994960
_ZN11ButtonGroup6updateEv = 0x0015ff00
_ZN2al19ModelAdditionalInfo25activateModelLightTextureEiPKNS_14SimpleModelG3DE = 0x0087cc90
_ZNK2al19ShaderCubeMapKeeper22findCubeMapIndexByNameEPKc = 0x008b1710
_ZN2al32GraphicsParamRequestInterpKeeperINS_16LightStreakParamEEC2EPNS_18GraphicsSystemInfoEiPKcS6_S6_ = 0x00897a90
_ZN2al17CameraPoseUpdater15trySwitchCameraEv = 0x00923c90
_Z27localStartMaterialAnimationPN2al9LiveActorEP18IUsePlayerAnimatorPKc = 0x003a9a70
_ZN10CheckPoint17collectCheckpointEPN2al9HitSensorES2_ = 0x001f3c30
_ZN13TuccondorBase14initNerveStateEv = 0x0012f5c0
_ZN3agl3sdw13ShadowPrePass7ContextD2Ev = 0x007dff10
_ZNK14ListStampParts11isDecideEndEv = 0x0017b460
_ZN2al20CameraParamMoveLimit4loadERKNS_9ByamlIterE = 0x00920420
_ZNK3eui11ButtonGroup20IsExistExcludingDownEv = 0x007f3e70
_ZN11PlayerActor10receiveMsgEPKN2al9SensorMsgEPNS0_9HitSensorES5_ = 0x003630a0
_ZN2al19EffectLightDirector6updateEPNS_18PrePassLightKeeperE = 0x00967870
_ZN7FireBarC1EPKcRKN4sead8Matrix34IfEES6_ = 0x00229c50
_ZN22BunbunStateShellAttackC2EPN2al9LiveActorERKNS0_13ActorInitInfoE = 0x0000e340
_ZN22BunbunStateShellAttackC1EPN2al9LiveActorERKNS0_13ActorInitInfoE = 0x0000e340
_ZN4sead8DateTime6setNowEv = 0x0073cd90
_ZN22DisasterModeController12calcHardModeEv = 0x0020d750
_ZN13TrampleSwitchC1EPKc = 0x002d1cf0
_ZN8BallYarn4initERKN2al13ActorInitInfoE = 0x00148a30
_ZN19KoopaLastPartsModel12initPartsMtxEPN2al9LiveActorERKNS0_13ActorInitInfoEPKcPKN4sead8Matrix34IfEES7_ = 0x0002fd10
_ZN7CoinRed21receiveMsgScreenPointEPKN2al9SensorMsgEPNS0_13ScreenPointerEPNS0_17ScreenPointTargetE = 0x00205d60
_ZN2al18SimpleLayoutAppearC1EPKcS2_RKNS_14LayoutInitInfoES2_ = 0x00888660
_ZN22DisasterModeController26forceDisasterForeshadowOffEbi = 0x0020e440
_ZN2al10SeDataBase32createResourceSespecificInfoListEPKNS_8ResourceEPNS_15SeadAudioPlayerE = 0x0099f9e0
_ZN2rc5Stamp9startGrabEb = 0x002be410
_ZN2al9RailRider8setCoordEf = 0x0089d980
_ZN9JumpPanel14movementPausedEb = 0x00265dd0
_ZN2al21BlockRailShapeFactoryC2Ev = 0x008f43a0
_ZN2al21BlockRailShapeFactoryC1Ev = 0x008f43a0
_ZN2al12EffectKeeper13onCalcAndDrawEv = 0x00961720
_ZN20PlayerWallClimbInput12updateRetainEv = 0x003b4db0
_ZN6GamaneC1EPKc = 0x000d77e0
_ZN2rc14tryFindAreaObjEPKN2al11IUseAreaObjENS_11AreaObjTypeERKN4sead7Vector3IfEE = 0x004236b0
_ZN2al20ActorPoseKeeperTRMSV16updatePoseRotateERKN4sead7Vector3IfEE = 0x0083eab0
_ZN10NekoNormalC1EP4Neko = 0x00300c00
_ZN15SplatterPlotterC1EPKc = 0x002bc9f0
_ZN21GameOverGraphicsStateC2EPN2al5SceneE = 0x003f00f0
_ZNK3agl11TextureData11compressTo_EPNS_11DrawContextERKNS0_14CompressToWorkEb = 0x00763ed0
_ZN21PlayerActionSquatWalk12controlStateEv = 0x00350c10
_ZN3agl3pfx12AutoExposure12ResultBuffer6CreateEPN4sead4HeapEiiNS_13TextureFormatE = 0x007b9c10
_ZN3agl3utl12ChangeFormatC2Ei = 0x00791ff0
_ZN3agl3utl12ChangeFormatC1Ei = 0x00791ff0
_ZNK3agl3utl11MultiFilter17freeResultTextureEv = 0x0078f440
_ZN4sead21PerspectiveProjection3setEffff = 0x00738620
_ZN5Koura7controlEv = 0x00275dc0
_ZN2al21isRailReachedNearGoalEPKNS_9LiveActorEff = 0x0089e6e0
_ZN26CourseSelectStateClearDemoC1EP17CourseSelectScenePKN2al12PlayerHolderEPNS2_15SceneCameraInfoERKNS2_14LayoutInitInfoE = 0x00099fb0
_ZN26CourseSelectStateClearDemoC2EP17CourseSelectScenePKN2al12PlayerHolderEPNS2_15SceneCameraInfoERKNS2_14LayoutInitInfoE = 0x00099fb0
_ZN25WalkerStateRouteDokanMove8tryStartEPN2al9HitSensorES2_ = 0x00135690
_ZN20ButtonItemStockParts10updateIconEv = 0x001620e0
_ZN16GameDataFunction12isAllNewFileE22GameDataHolderAccessor = 0x00416df0
_ZN2al13isInWaterAreaEPKNS_9LiveActorE = 0x008dbb30
_ZN15StageWipeKeeper15appearStartWipeEPK14GameDataHolder = 0x004053a0
_ZN2al11startActionEPNS_9LiveActorEPKc = 0x008326c0
_ZN2al18SwitchAreaDirector14internalUpdateEv = 0x008dd500
_ZN12BossBunretsu7exeDemoEv = 0x000bb230
_ZN2rc21getCoinRotateYByFrameEPKN2al9LiveActorE = 0x00207340
_ZN3eui14ConstantBufferC1Ev = 0x007e0ba0
_ZN3eui14ConstantBufferC2Ev = 0x007e0ba0
_ZN17MessageAppearBase12exeNoDisplayEv = 0x002b7c90
_ZN15NpcTargetFinder21setTargetTypePriorityERKN3npc17NpcFindTargetTypeERKh = 0x00310e70
_ZN3agl2fx17OcclusionRendererC1Ev = 0x007c6a70
_ZN3agl2fx17OcclusionRendererC2Ev = 0x007c6a70
_ZN2al17MetalReliefDrawerD1Ev = 0x00992a20
_ZN2al17MetalReliefDrawerD2Ev = 0x00992a20
_ZN3agl11TextureData10setCompSelENS_14TextureCompSelES1_S1_S1_ = 0x007646e0
_ZN2al12PadGyroAddon19tryUpdateGyroStatusEv = 0x0094de30
_ZN2al16LightStreakParam4initEv = 0x00897450
_ZN2al18EffectShaderHolder17updateShaderParamERKN4sead8Matrix34IfEERKNS1_7Vector2IfEE = 0x00962170
_ZN2al17DeferredRendering11drawPrePassEPNS_12LiveActorKitEPNS_12GBufferArrayEiRKN3agl12RenderBufferERKNS5_17RenderTargetDepthENS5_10ShaderModeE = 0x0095a0b0
_ZN2rc19isInWaterAreaNoSinkEPKN2al9LiveActorE = 0x00423f70
_ZN11PlayerInput21setActorForAreaSearchEPN2al9LiveActorE = 0x00396730
_ZN2rc27releaseTouchPointerHoldItemEPKN2al9LiveActorES3_ = 0x00222c80
_ZN2al10LutTextureD2Ev = 0x008b80d0
_ZN2al10LutTextureD1Ev = 0x008b80d0
_ZN17StepScrollWatcherC1EPKc = 0x002c0f70
_ZN26PlayerKoopaJrStateGraffiti16tryStartGraffitiEPN2al9HitSensorE = 0x003a8770
_ZNK17BlockStateCoinTen17isValidUpperPunchEi = 0x001e2f10
_ZN21DisasterSpikeDirectorC2EP22DisasterModeControllerRKN2al13ActorInitInfoE = 0x00150280
_ZN21DisasterSpikeDirectorC1EP22DisasterModeControllerRKN2al13ActorInitInfoE = 0x00150280
_ZN4sead17NinFileDeviceBaseC2ERKNS_14SafeStringBaseIcEES4_ = 0x0070f8b0
_ZN4sead17NinFileDeviceBaseC1ERKNS_14SafeStringBaseIcEES4_ = 0x0070f8b0
_ZN14IslandDataListC2Ev = 0x00418d10
_ZN14IslandDataListC1Ev = 0x00418d10
_ZN6Tenten21moveSyncRailAddOffsetEf = 0x00126c30
_ZN2al14GodRayDirectorC2EPNS_18GraphicsSystemInfoE = 0x00890330
_ZN2al14GodRayDirectorC1EPNS_18GraphicsSystemInfoE = 0x00890330
_ZN14GameDataHolder19updatePlayerFiguresEi = 0x00417590
_ZN13KoopaGraffiti5resetEv = 0x00271f00
_ZN10Lighthouse21exeCameraShowInkPatchEv = 0x00281550
_ZN23ItemStateCheckCollision10receiveMsgEPKN2al9SensorMsgEPNS0_9HitSensorES5_ = 0x00261420
_ZN4sead12PtrArrayImpl10freeBufferEv = 0x0070c160
_ZN2al23tryGetActorInitFileNameEPN4sead22BufferedSafeStringBaseIcEEPKNS_9LiveActorEPKcS8_ = 0x00840a80
_ZN20CourseSelectInfoBaseC2ERKN2al14LayoutInitInfoEPKcP20CourseSelectDirector = 0x0016bbc0
_ZN2al20GraphicsAreaDirector6updateEv = 0x00800a70
_ZN20SingleModeCheckpoint10receiveMsgEPKN2al9SensorMsgEPNS0_9HitSensorES5_ = 0x002b73e0
_ZN19KoopaChaseStateJump9startJumpERKN4sead7Vector3IfEE = 0x000293c0
_ZN2al14getRailPointNoEPKNS_9LiveActorE = 0x0089e580
_ZN3aal20AudioFrameProcessMgrC2Ev = 0x009ba2b0
_ZN3aal20AudioFrameProcessMgrC1Ev = 0x009ba2b0
_ZN2rc18getPlayerCharaTypeEPKN2al9HitSensorE = 0x0042e010
_ZN2al24tryCreateRailKeeperGroupERKNS_13PlacementInfoEPKc = 0x0089c870
_ZN15DrcTouchPointer7controlEv = 0x00223ad0
_ZNK2al14CameraPoser_RS20makeLookAtCameraPrevEPN4sead12LookAtCameraE = 0x00923170
_ZNK23PlayerAliveWatcherGroup19calcNoKillPlayerNumEv = 0x00371ca0
_ZN20DisasterSpikeTorpedoC1EPKc = 0x00155ce0
_ZN21TouchReactionMapParts10receiveMsgEPKN2al9SensorMsgEPNS0_9HitSensorES5_ = 0x002ceff0
_ZN22inputdevice_controller9getButtonEj = 0x001c87f0
_ZN2al18EffectShaderHolderC1EPNS_10PtclSystemEPN3agl11DrawContextEPNS_14EffectEnvParamE = 0x00961b20
_ZN2al18EffectShaderHolderC2EPNS_10PtclSystemEPN3agl11DrawContextEPNS_14EffectEnvParamE = 0x00961b20
_ZN7Gondola10exeRailRunEv = 0x002513f0
_ZN3agl3utl10BlurFilterC1Ei = 0x00791480
_ZN3agl3utl10BlurFilterC2Ei = 0x00791480
_ZN21CourseSelectPuppeteer14setupJumpEnterEPKN2al9LiveActorEf = 0x0008c3a0
_ZN3eui18DynamicCapturePane18freeDynamicTextureEv = 0x007e5330
_ZN2al18NoiseTextureKeeperD2Ev = 0x00981380
_ZN2al18NoiseTextureKeeperD1Ev = 0x00981380
_ZN10Lighthouse18exeLighthouseLightEv = 0x002809b0
_ZNK6Bunbun14isEnableAttackEv = 0x0000c200
_ZN2al17ConveyerKeyKeeper4initERKNS_13ActorInitInfoE = 0x0085f110
_ZN15alModelFunction57prepareModelShapeDrawDeferredGraphicsContextByRenderStateEPN3agl11DrawContextEPKN2al14SimpleModelG3DEi = 0x00878ed0
_ZN2al32SeListenerPoserViewPosOffsetFovyC2ERKN4sead14SafeStringBaseIcEES5_ = 0x009abcb0
_ZN2al32SeListenerPoserViewPosOffsetFovyC1ERKN4sead14SafeStringBaseIcEES5_ = 0x009abcb0
_ZN2al21setDisableDepthShadowEPNS_9LiveActorEbb = 0x0083a860
_ZN23PlayerSubAttackOnGround8forceEndEv = 0x003b3640
_ZN15GigaBellManagerC1EPKc = 0x0023b940
_ZN2rc21validatePlayerGetItemEPN2al9HitSensorE = 0x00430c60
_ZN18DarkBowserFirebomb13exeFaceTargetEv = 0x0001b0d0
_ZN5Koura18appearFromNokonokoEPN2al9LiveActorEb = 0x002762b0
_ZNK2al18KaleidoscopeDrawer4drawEPN3agl11DrawContextERKNS1_12RenderBufferE = 0x00990d90
_ZN3agl14GPUMemAddrBaseC2ERKNS_15GPUMemBlockBaseEm = 0x00758210
_ZN3agl14GPUMemAddrBaseC1ERKNS_15GPUMemBlockBaseEm = 0x00758210
_ZN2al27tryCreateUniformBlockAssignEPNS_14SimpleModelG3DEPKcPKNS_18UniformBlockLayoutEi = 0x008aeea0
_ZN11PlayerActor16initCollisionMsgEv = 0x00361a40
_ZN6Bubble10receiveMsgEPKN2al9SensorMsgEPNS0_9HitSensorES5_ = 0x000c3960
_ZN11TentackHead18turnToTargetGentlyERKN4sead7Vector3IfEEf = 0x00057fb0
_ZN15CounterWarpCubeC1ERKN2al14LayoutInitInfoEP8WarpCubei = 0x0016afb0
_ZN15SingleModeScene15checkDemoChangeEv = 0x003ea090
_ZNK8Donketsu12isFallOrDeadEv = 0x000cd190
_ZN28PlayerHorizontalSpeedAverage6updateEv = 0x00396390
_ZN10NekoParent17tryStartDemoIntroEv = 0x0030aa30
_ZN23CameraPoserBowserBattleC2EPKc = 0x00066790
_ZN23CameraPoserBowserBattleC1EPKc = 0x00066790
_ZN2al28CameraPoserKinopioBrigade_RSC1EPKc = 0x008fbef0
_ZN2al28CameraPoserKinopioBrigade_RSC2EPKc = 0x008fbef0
_ZN2al20ActorPoseKeeperTFGSV14updatePoseQuatERKN4sead4QuatIfEE = 0x0083f130
_ZN2al11LayoutActor16initActionKeeperEv = 0x0096de30
_ZN3agl6detail14MemoryPoolHeap10freeToHeapEPNS_15GPUMemBlockBaseE = 0x00758bb0
_ZN22CameraPoserFollowLimitC1EPKc = 0x0006a330
_ZN22CameraPoserFollowLimitC2EPKc = 0x0006a330
_ZN6Vessel8Emulator7Virtual11PlatformHvc8CHvcVrc414_SerializeCoreEPvb = 0x001bcaa0
_ZN24ItemStatePopUpFrontParamC2ERKN4sead7Vector3IfEEffifbPKcbPN2al9HitSensorE = 0x00263290
_ZN24ItemStatePopUpFrontParamC1ERKN4sead7Vector3IfEEffifbPKcbPN2al9HitSensorE = 0x00263290
_ZN2al16tryGetByamlScaleEPN4sead7Vector3IfEERKNS_9ByamlIterEPKc = 0x008cf250
_ZN4sead8JobQueue22setCoreMaskAndWaitTypeENS_10CoreIdMaskENS_8SyncTypeE = 0x007461d0
_ZNK4sead15GraphicsContext14applyColorMaskEPNS_11DrawContextE = 0x00737a00
_ZN14GameDataHolder21writeToSaveDataBufferEb = 0x00417e60
_ZN19PlayerActionAirMove6updateEv = 0x0031a4c0
_ZN11SuperBowser16damageDarkBowserEi = 0x00043d40
_ZN2al18PrePassLightKeeper16requestSpotLightERKN4sead7Vector3IfEES5_ffRKNS1_7Color4fEfffbbS8_ = 0x00825f00
_ZNK2al14CollisionParts16checkStrikeArrowEPNS_20ArrowHitResultBufferERKN4sead7Vector3IfEES7_PKNS_18TriangleFilterBaseE = 0x00938b50
_ZN2al22LightIntensityDirector21initGraphicsAreaParamEPNS_20GraphicsAreaDirectorEPKc = 0x0081f2c0
_ZN3agl2fx10RadialBlur13BlurParameterC1Ev = 0x007cf2b0
_ZN3agl2fx10RadialBlur13BlurParameterC2Ev = 0x007cf2b0
_ZN8CoinRing12exeDisappearEv = 0x00206e90
_ZN12BoxPropeller7controlEv = 0x001eca20
_ZN2al25SeReverbStdEffectProcInfo10createInfoERKNS_9ByamlIterEPKc = 0x009a6910
_ZN3agl6driver6NVNMgr15registerTextureEPK10NVNtexturePK14NVNtextureViewPKc = 0x0075acf0
_ZN22DisasterModeController22tryJumpToRainWithFlashEv = 0x00211ac0
_ZN2al17BgmRhythmDetector6updateEi = 0x008ee7a0
_ZN18EnemyStateBlowDown10setBlowDirERKN4sead7Vector3IfEE = 0x000d1e60
_ZN3agl3sdw13ShadowPrePassD2Ev = 0x007dd930
_ZN3agl3sdw13ShadowPrePassD1Ev = 0x007dd930
_ZN2al21initCameraDirector_RSEPKNS_5SceneEPKcPKNS_21CameraPoserFactory_RSEPNS_15SceneCameraInfoE = 0x008a59a0
_ZN2al17ActorActionKeeper18updateSeActionCtrlEv = 0x008d29f0
_ZN2al29setBlockRailRiderToNearestPosEPNS_14BlockRailRiderEPKNS_19BlockRailPartsGroupERKN4sead7Vector3IfEE = 0x008f56c0
_ZN2al20calcRailToGoalLengthEPKNS_9LiveActorE = 0x0089e510
_ZN11ShadowMario13setAttackRaceERKN2al14LayoutInitInfoE = 0x001370d0
_ZN22KoopaLastWallClimbDownC1EPKc = 0x00032320
_ZN10KinokoGigaC1EPKc = 0x002683c0
_ZN21ButtonSquareIconPartsC2ERKN2al14LayoutInitInfoEPKcS5_PNS0_11LayoutActorEb = 0x001634d0
_ZN14ListStampPartsC1ERKN2al14LayoutInitInfoEPKcS5_PNS0_11LayoutActorEPK14GameDataHolder = 0x0017b0b0
_ZNK2al16ShadowMaskKeeper18getShadowIntensityEi = 0x008c64d0
_ZN2al18calcDirVerticalAnyEPN4sead7Vector3IfEERKS2_ = 0x0086bf30
_ZN19PackunFlowerWithPot12startRespawnEv = 0x00106a20
_ZN4sead9WorkerMgr3runEv = 0x007491c0
_ZN3agl3sdw13ShadowPrePass7ContextC2Ev = 0x007e0060
_ZN2al14LiveActorGroupD2Ev = 0x00831640
_ZN2al14LiveActorGroupD1Ev = 0x00831640
_ZN2rc21tryInitItemByHostInfoEPN2al9LiveActorERKNS0_13ActorInitInfoEi = 0x00427ed0
_ZN8WaveGrid11DisplayTierERKNS_4DataEjj = 0x00291500
_ZN9InkPuddle5startERKN4sead7Vector3IfEE = 0x000e3700
_ZN23CourseSelectPlayerActor12createBubbleERKN2al13ActorInitInfoE = 0x0008a210
_ZN6RunnerC1EPKc = 0x001120d0
_ZN2al21ReducedBufferRenderer19activateAdjustParamEPKN3agl13ShaderProgramEPKNS1_11TextureDataES7_ = 0x0095bcf0
_ZN8InkPatch21isSpecialInkPatchDoneEv = 0x0015cb30
_ZN3agl3pfx10BlurFilterD1Ev = 0x007e0a50
_ZN3agl3pfx10BlurFilterD2Ev = 0x007e0a50
_ZN10NekoParentC1EP4Neko = 0x00308ee0
_ZN3eui8WindowExC2EPKN2nn4ui2d9ResWindowES5_RKNS2_11BuildArgSetE = 0x007e6f80
_ZN3eui8WindowExC1EPKN2nn4ui2d9ResWindowES5_RKNS2_11BuildArgSetE = 0x007e6f80
_ZN11PlayerActor17makeActorAppearedEv = 0x003663b0
_ZN18RCSControlGuideBar8endTitleEb = 0x0018cf60
_ZN23RouteDokanEntranceGroup4initEPN2al19BlockRailPartsGroupERKNS0_13ActorInitInfoEb = 0x002af7c0
_ZN15SinkSandControl6updateERKN4sead7Vector3IfEE = 0x003b6710
_ZN24SpotLightPatrollerHolderC1Ev = 0x002bc2f0
_ZN12CoinRailCoin12moveCoinRailEv = 0x00205650
_ZN30CameraPoserFollowLimitFunction21calcRotateSpeedDegreeEi = 0x0006fbc0
_ZN8DoorLock10receiveMsgEPKN2al9SensorMsgEPNS0_9HitSensorES5_ = 0x0021f540
_ZN8GigaBell19startUnlockCutsceneEv = 0x0023b230
_ZN20LightPrePassFunction17requestPointLightEPKN2al9LiveActorERKN4sead7Vector3IfEEfRKNS4_7Color4fEffbbSB_i = 0x0082a8f0
_ZN2al14CollisionParts16validateBySystemEv = 0x00937cc0
_ZN10SinkedItemC1EPKc = 0x002b9110
_ZN2al13ScreenPointerC2ERKNS_13ActorInitInfoEPKNS_9LiveActorEPKN4sead7Vector3IfEE = 0x008a7280
_ZN2al13ScreenPointerC1ERKNS_13ActorInitInfoEPKNS_9LiveActorEPKN4sead7Vector3IfEE = 0x008a7280
_ZNK2al14BlockRailRider13calcPosAndDirEPN4sead7Vector3IfEES4_ = 0x008f4020
_ZN26CourseSelectPlayerFunction19tryFindFollowPlayerEPN2al9LiveActorE = 0x0008abd0
_ZN2al10PlaneParam10initializeERKN4sead7Vector3IfEEPN3agl3utl12ParameterObjEPKc = 0x0081ec20
_ZN4sead11XmlDocument9parseXml_EPNS_10ReadStreamEPNS_4HeapEb = 0x00741830
_ZN7BombHeiC1EPKc = 0x000b4130
_ZN4sead13CalculateTaskC2ERKNS_16TaskConstructArgEPKc = 0x00725fa0
_ZN4sead13CalculateTaskC1ERKNS_16TaskConstructArgEPKc = 0x00725fa0
_ZN21CourseSelectMiniature18exeClearGateKeeperEv = 0x00082cb0
_ZN2al14BlockRailPartsC2EPKc = 0x008f3000
_ZN34PlayerActionRollingVelocityControlC2EP14PlayerProperty = 0x0034b800
_ZN34PlayerActionRollingVelocityControlC1EP14PlayerProperty = 0x0034b800
_ZN23PlayerEquipmentDirector21releaseEquipmentForceE30PlayerReleaseEquipmentGoalType = 0x00391d20
_ZN21CourseSelectPuppeteerC2EP26CourseSelectPuppeteerGroupRKN2al13ActorInitInfoEi = 0x0008acf0
_ZN21CourseSelectPuppeteerC1EP26CourseSelectPuppeteerGroupRKN2al13ActorInitInfoEi = 0x0008acf0
_ZN3agl3sdw13ShadowPrePassC2Ev = 0x007dcfd0
_ZN3agl3sdw13ShadowPrePassC1Ev = 0x007dcfd0
_ZN30PlayerActionStandSwimAfterBindC2EPK15PlayerActionArgPK13PlayerTriggerPK24IUsePlayerWaterFlowFieldP21IUsePlayerForwardBentP21IUsePlayerFlagControlPK28IUsePlayerBindEndParamGetterPK19IUsePlayerCheckArea = 0x003529a0
_ZN30PlayerActionStandSwimAfterBindC1EPK15PlayerActionArgPK13PlayerTriggerPK24IUsePlayerWaterFlowFieldP21IUsePlayerForwardBentP21IUsePlayerFlagControlPK28IUsePlayerBindEndParamGetterPK19IUsePlayerCheckArea = 0x003529a0
_ZN2rc33tryChangeHoldedPlayerToSuperMarioEPKN2al9HitSensorE = 0x0042e410
_ZN3agl2fx17OccludedEffectMgr6getOfxINS0_19OfxLensFlareDynamicEEEPT_i = 0x0089a820
_ZN3eui10DragButtonC1Ev = 0x007f7d60
_ZN3eui10DragButtonC2Ev = 0x007f7d60
_ZN12NeedleRollerC1EPKc = 0x0028acd0
_ZN15KoopaChaseKoopaC1EPN2al9LiveActorE = 0x00026c30
_ZN2al16initObjectCameraEPKNS_10IUseCameraERKNS_13ActorInitInfoEPKc = 0x00914190
_ZN2al21updateSyncHostVisibleEPbPNS_9LiveActorEPKS1_b = 0x00885620
_ZN2al17initAnimCamera_RSEPKNS_9LiveActorERKNS_13ActorInitInfoEPKc = 0x0092a770
_ZN22DisasterModeController28exeDisasterTransitionInstantEv = 0x00210a00
_ZN2al18loadArchiveWithExtERKN4sead14SafeStringBaseIcEEPKc = 0x0080f2e0
_ZN4sead7TaskMgr12destroyable_EPNS_8TaskBaseE = 0x007178c0
_ZN2al14WobbleMapPartsC1EPKc = 0x00868b70
_ZN2al16InitializeThread14threadFunctionEPN4sead6ThreadEl = 0x008cd7a0
_ZN8InkPatchC1EPKc = 0x0015c6e0
_ZNK18BindPuppeteerGroup12getPuppeteerEPKN2al9HitSensorE = 0x001d9fc0
_ZNK20CourseSelectDirector24tryFindFirstCrossingNodeEPK16CourseSelectNodei = 0x0007c290
_ZN3agl11TextureData11initialize_ENS_11TextureTypeENS_13TextureFormatEjjjjNS_16TextureAttributeENS_15MultiSampleTypeEb = 0x00763650
_ZN21SingleModeSceneLayout10startPauseEb = 0x00198800
_ZN2al20ActorCameraSubTargetC2EPKNS_9LiveActorE = 0x0092b1f0
_ZN2al20ActorCameraSubTargetC1EPKNS_9LiveActorE = 0x0092b1f0
_ZN3agl2fx10RadialBlur7ContextD2Ev = 0x007d0d80
_ZN3agl2fx10RadialBlur7ContextD1Ev = 0x007d0d80
_ZN4sead7TaskMgr8finalizeEv = 0x00716b90
_ZN3agl3pfx12AutoExposure7ContextC2Ev = 0x007bb390
_ZN11BowserSpike8delaunchEv = 0x000c0a40
_ZN4neko15setOnGroundFlagEPKN2al9LiveActorERb = 0x002fc660
_ZN11ShadowMario12startRunningEv = 0x00137b80
_ZNK3agl3utl16ResParameterList4dumpEiPKN4sead7TreeMapIjPKcEE = 0x0077cdf0
_ZN22BlockQuestionChameleonC1Ev = 0x001e0000
_ZN2al13RequestInterpINS_9YFogParamEE12updateInterpEv = 0x00812820
_ZN3agl3utl22TextureMemoryAllocator4freeEPNS1_11MemoryBlockEb = 0x0077de30
_ZNK3agl4lght12LightPrePass18createLightBuffer_EPNS_11DrawContextEijjbb = 0x007a6870
_ZN14CameraObserverC2EPN2al12PlayerHolderEPbS3_PiS3_S3_RKNS0_14LayoutInitInfoE = 0x00064030
_ZN14CameraObserverC1EPN2al12PlayerHolderEPbS3_PiS3_S3_RKNS0_14LayoutInitInfoE = 0x00064030
_ZN3eui8Animator17SetupWithGroupAllERKN2nn4ui2d12AnimResourceEPNS_8LayoutExEPNS2_14GroupContainerEb = 0x007f0af0
_ZN2al12turnToTargetEPNS_9LiveActorEPKS0_f = 0x0083dcc0
_ZN21alCameraPoserFunction31isTargetEnableEndAfterInterpoleEPKN2al14CameraPoser_RSE = 0x0091e950
_ZN36PlayerActionKinopioBrigadeGroundMoveC1EP15PlayerActionArgPK26IUsePlayerDoubleMarioSpeedPK24IUsePlayerInvincibleDashPK25IUsePlayerMoveSpeedScalerPK20PlayerFigureDirectorPK19IUsePlayerCheckAreaPK14IUsePlayerFlagSJ_SJ_ = 0x00343810
_ZN36PlayerActionKinopioBrigadeGroundMoveC2EP15PlayerActionArgPK26IUsePlayerDoubleMarioSpeedPK24IUsePlayerInvincibleDashPK25IUsePlayerMoveSpeedScalerPK20PlayerFigureDirectorPK19IUsePlayerCheckAreaPK14IUsePlayerFlagSJ_SJ_ = 0x00343810
_ZN6Player6updateEv = 0x00319220
_ZN6Raidon10updateRideEv = 0x003bb340
_ZN17KoopaLastBlockPowC1EPKc = 0x0002b9f0
_ZN18CounterRecordParts17setPaneStringTimeEi = 0x0016aa70
_ZN2al14convergeDegreeEfff = 0x0086b050
_ZN16BossBunretsuCore12startBreakupEv = 0x000be040
_ZN2al16getConstantColorEPN4sead7Color4fEPKN2nn3g3d11MaterialObjE = 0x00806fd0
_ZN2al10LutTexture11initTexDataEv = 0x008b8270
_ZN2al17CameraDirector_RS20findCameraAreaTicketEPNS_7AreaObjE = 0x0091b710
_ZN2rc13StampDirectorC2ERKN2al13ActorInitInfoEPKcPK18DrcTouchAssistInfoii = 0x002bf520
_ZN2rc13StampDirectorC1ERKN2al13ActorInitInfoEPKcPK18DrcTouchAssistInfoii = 0x002bf520
_ZN28CourseSelectPlayerActionWait5setupEv = 0x00089d30
_ZN2al21ParabolicPathMovement5startERKN4sead7Vector3IfEEff = 0x0087ea90
_ZN2al18invalidateClippingEPNS_9LiveActorE = 0x00835480
_ZN18RCSControlGuideBar9showTitleEv = 0x0018cf00
_ZN19PlayerActionAirMoveC2EP22PlayerActionAirMoveArgP13PlayerTriggerPK19IUsePlayerCheckAreaP16IUsePlayerHoldedb = 0x0031a3f0
_ZN19PlayerActionAirMoveC1EP22PlayerActionAirMoveArgP13PlayerTriggerPK19IUsePlayerCheckAreaP16IUsePlayerHoldedb = 0x0031a3f0
_ZN4sead9HashCRC3225calcStringHashWithContextEPNS0_7ContextEPKc = 0x0073e400
_ZN9CoinFalls14updateShapeUboEv = 0x002039a0
_ZN2al15tryGetLinksInfoEPNS_13PlacementInfoERKS0_PKc = 0x0088ba00
_ZN2al15GodRayRequesterC1EPKc = 0x00892530
_ZN2al18CustomTagProcessorC2EPN3eui10MessageMgrEPNS1_7FontMgrEPKNS_13MessageSystemE = 0x00978530
_ZN2al18CustomTagProcessorC1EPN3eui10MessageMgrEPNS1_7FontMgrEPKNS_13MessageSystemE = 0x00978530
_ZN16SuperBowserShellC1EPKc = 0x00053140
_ZNK3agl2fx10RadialBlur7Context19drawToRenderBuffer_EPNS_11DrawContextEiRKNS1_13BlurParameterERKNS1_10SharedDataERKNS2_15ScreenParameterE = 0x007d1310
_ZN2rc28requestHitReactionToAttackerEPKcPKN2al9HitSensorES5_ = 0x0043b5e0
_ZN20GoalObjStateGoalDemoC1EPN2al9LiveActorERKNS0_13ActorInitInfoEbPK25GoalObjStateGoalDemoParam = 0x00248380
_ZN20GoalObjStateGoalDemoC2EPN2al9LiveActorERKNS0_13ActorInitInfoEbPK25GoalObjStateGoalDemoParam = 0x00248380
_ZNK3agl3sdw13ShadowPrePass18createShadowBufferEPNS_11DrawContextEijj = 0x007df0b0
_ZN4sead12PtrArrayImpl14tryAllocBufferEiPNS_4HeapEi = 0x0070c0f0
_ZN21BunbunStateSpinAttack25setInvalidateClippingFlagEv = 0x000100e0
_ZN2al13CameraCreator20tryCreateStartCameraEb = 0x00903310
_ZN2al20RenderBufferAttacherD1Ev = 0x008081b0
_ZN2al20RenderBufferAttacherD2Ev = 0x008081b0
_ZN12IslandKeeper17setIslandStartPosEPKN2al17StageResourceListERKNS0_13ActorInitInfoE = 0x0025d3f0
_ZN3agl11TextureDataC1Ev = 0x007635f0
_ZN3agl11TextureDataC2Ev = 0x007635f0
_ZN2rc23isPadTriggerUiMapByPortEi = 0x00426ff0
_ZNK4sead7HeapMgr14getCurrentHeapEv = 0x00722ae0
_ZN20LightPrePassFunction16requestSpotLightEPKN2al9LiveActorERKN4sead7Vector3IfEES8_ffRKNS4_7Color4fEfffbbSB_ = 0x0082aa80
_ZN8BallYarn14updateColliderEv = 0x0014a310
_ZN22DisasterModeController8setStateEibib = 0x0020dcf0
_ZN11PlayerActor16trampleIfInWaterEv = 0x0036d920
_ZN15StepScrollParts6scrollERKN4sead7Vector3IfEEf = 0x002c0eb0
_ZN20DemoCutsceneSequenceC1EPKcN12alSeFunction8DemoTypeE = 0x000a1380
_ZN14DarkBowserJump16calcJumpPositionEv = 0x000153a0
_ZN24ActorStateRouteDokanMoveC1EPN2al9LiveActorERKNS0_13ActorInitInfoE = 0x001cef80
_ZN24ActorStateRouteDokanMoveC2EPN2al9LiveActorERKNS0_13ActorInitInfoE = 0x001cef80
_ZN15PlayerSubAction6updateEv = 0x003b2ee0
_ZN2al15ModelAnimInterpC2EPN2nn3g3d11SkeletonObjE = 0x008d8420
_ZN2al15ModelAnimInterpC1EPN2nn3g3d11SkeletonObjE = 0x008d8420
_ZN16DisasterModeAreaC1EPKc = 0x000003f0
_ZN2al15calcAngleDegreeERKN4sead7Vector3IfEES4_ = 0x008693f0
_ZN2al19CameraPoserEntrance9loadParamEPKNS_9ByamlIterE = 0x00906890
_ZN2al17ClippingActorInfo14updateClippingEPKNS_13ClippingJudgeE = 0x009320b0
_ZN22ChikaChikaBlockWatcherC1EPKc = 0x001f72e0
_ZN4CrabC1EPKc = 0x0020a3c0
_ZNK2al14CameraPoser_RS13getFovyDegreeEv = 0x009226b0
_ZN15DemoScenePlayerC1EPKcP20DemoSceneActorHolderP26PlayerRetargettingSelector = 0x000a7140
_ZN3agl3utl14INamedObjIndexC2Ev = 0x007c9fe0
_ZN6Player19updateCollisionSizeEv = 0x00319580
_ZN15DarkBowserWheel23trySendMsgCollidedPartsEv = 0x00022450
_ZN22ProductStateSingleMode28createAndStartInitStageSceneEv = 0x00401050
_ZN2al14ResourceSystem11addCategoryERKN4sead14SafeStringBaseIcEEiPNS1_4HeapE = 0x008a0920
_ZN14PlayerAnimator14setSubAnimRateEf = 0x00374a90
_ZN2al18CameraInterpole_RSC2Ev = 0x009247c0
_ZN2al18CameraInterpole_RSC1Ev = 0x009247c0
_ZN8WarpDoor9startWarpEv = 0x002e0310
_ZN12GeneratorBox11appendChildEv = 0x00235830
_ZN2al23ActorPrePassLightKeeper11requestKillEv = 0x00821ef0
_ZN3agl11DisplayList14endDisplayListEv = 0x0075d330
_ZN11ScoreNumber13startPlayerUpEiRKN4sead7Vector3IfEEi = 0x00197460
_ZN23CameraAngleVerticalCtrl11exeUserCtrlEv = 0x00065450
_ZN11SuperBowser19endBowserExitCameraEb = 0x0003e060
_ZN3agl3sdw4SSAOD1Ev = 0x0079d9d0
_ZN3agl3sdw4SSAOD2Ev = 0x0079d9d0
_ZN20CourseSelectDirector23initPlayerPositionStageEi = 0x0007d770
_ZN21alAudioSystemFunction34loadResourceFromUserManagementFileEPKcPN2al15SeadAudioPlayerEb = 0x008e2620
_ZN4sead14MathCalcCommonIfE8atanIdx_Ef = 0x00735b30
_ZN2al8Triangle8fillDataERKNS_14CollisionPartsEPNS_11KCPrismDataEPKNS_13KCPrismHeaderE = 0x00941d00
_ZN3agl25TextureDataInitializerTGA7TGAData4copyEPhPKhiiibi = 0x00781300
_ZN2rc18getBlockSuffixNameERKN2al13ActorInitInfoEb = 0x00428a50
_ZN17CloudBonusWatcher29tryRegisterCloudBonusLauncherEPN2al9LiveActorEN4sead7Vector3IfEE = 0x0014ccd0
_ZN19BlockAssistFunction26isBlockAssistSetCheckPointEPK15BlockAssistLeaf = 0x001db7a0
_ZN13PlayerKoopaJr12doIslandWarpEv = 0x003a0600
_ZN11CollectItem5doGetEPN2al9HitSensorES2_ = 0x00208c60
_ZN20GameDataFlagFunction26isLeaveCastleFairyPrincessE22GameDataHolderAccessor = 0x00414e40
_ZN15StageWipeKeeper27closeRetryWipeMysteryTimeUpEv = 0x00405530
_ZN11ShadowRacerC1EPKciP17ShadowMarioPlayerP8GoalItem = 0x0013c080
_ZN2al31tryExpandClippingByShadowLengthEPNS_9LiveActorEPN4sead7Vector3IfEE = 0x00835390
_ZN2rc24appearCameraChangeLayoutEPKN2al18IUseSceneObjHolderE = 0x00165d20
_ZN21CourseSelectPuppeteer14startDokanWarpEv = 0x0008bdf0
_ZN2al18createMtxConnectorEPKNS_9LiveActorE = 0x007fe7d0
_ZN3agl3pfx15ColorCorrection13updateCurves_Ev = 0x00794e90
_ZN18BindPuppeteerGroup13tryCancelBindEPKN2al9HitSensorE = 0x001da060
_ZN21alActorSystemFunction21addBackToExecutorDrawEPN2al9LiveActorEPN4sead8PtrArrayINS0_15ModelDrawerBaseEEE = 0x0080b560
_ZN11BossGorobon21createBossGorobonRockEv = 0x000059a0
_ZN2al14SimpleModelG3D13swapGPUBufferEv = 0x0087d860
_ZN21SuperBowserLaserState22checkPlayerLineSegmentEb = 0x0004cc70
_ZN2al12ActionSeCtrl11startActionEPKc = 0x008d1d60
_ZN4Ball4initERKN2al13ActorInitInfoE = 0x001d2560
_ZN15KuriboTowerNode23restrictToTowerPositionEv = 0x000f5d00
_ZN13ItemStateLeaf10exeTakeOutEv = 0x002622b0
_ZN3agl6detail15PrivateResourceD0Ev = 0x00780fd0
_ZNK3eui8LayoutEx13isAnimOpenEndEb = 0x007edf40
_ZN22RouteDokanBazookaRiderC1EP17RouteDokanBazookaPKcif = 0x002ad190
_ZN2al15CameraPoserRail8initRailEPKNS_13PlacementInfoE = 0x0090edc0
_ZN12PackunFlowerC1EPKc = 0x00103720
_ZN2al15ExecuteDirectorD2Ev = 0x00808970
_ZN2al15ExecuteDirectorD1Ev = 0x00808970
_ZN3agl3utl14PrimitiveShape21setupIdxStreamSphere_ItEEvPNS_11IndexStreamENS_10GPUMemAddrIT_EEjjNS1_8DrawTypeENS1_7QualityE = 0x00779300
_ZN22SaveDataAccessSequence12exeWriteGameEv = 0x0041b210
_ZN2al22ShaderEnvTextureKeeperD2Ev = 0x008b2390
_ZN2al22ShaderEnvTextureKeeperD1Ev = 0x008b2390
_ZN3eui11HoverButton17CreateHoverButtonEPN2nn4ui2d4PaneEPNS_8LayoutExEPNS_11ButtonGroupE = 0x007f58e0
_ZN10MeraWanwan14updateVelocityEv = 0x000fbf30
_ZNK21DisasterSpikeDirector28getRecklessTorpedoSpawnPointEi = 0x00153ab0
_ZN16HammerBrosHammerC1EPKc = 0x000e12c0
_ZNK2al15ExecuteDirector7executeEv = 0x00809100
_ZN2al16CameraPoserTowerC1ERKNS_21CameraPoserTowerParamEPKN4sead21PerspectiveProjectionEPKNS_13PlayerWatcherEPKNS_11PlacementIdE = 0x0090fc10
_ZN2al16CameraPoserTowerC2ERKNS_21CameraPoserTowerParamEPKN4sead21PerspectiveProjectionEPKNS_13PlayerWatcherEPKNS_11PlacementIdE = 0x0090fc10
_ZN11SuperBowser33plessieChaseTryTorpedoSpikeAttackEv = 0x00044030
_ZN23PlayerBoomerangLauncherC1EPKN2al9LiveActorES3_RKNS0_13ActorInitInfoEPK14PlayerProperty12EPlayerCharaPK15IUsePlayerInput = 0x0037c6a0
_ZN23PlayerBoomerangLauncherC2EPKN2al9LiveActorES3_RKNS0_13ActorInitInfoEPK14PlayerProperty12EPlayerCharaPK15IUsePlayerInput = 0x0037c6a0
_ZN2al20initShaderKeyDynamicEPN2nn3g3d14ShaderSelectorEPKNS1_15ResShaderAssignEPKNS1_8ModelObjEPKNS1_8ShapeObjE = 0x008af620
_ZN10Lighthouse13setPhaseColorEv = 0x0027fba0
_ZN2al18NoiseTextureKeeper29declareUsingCaustics3DTextureEv = 0x00981f30
_ZN2al19ModelDrawerDeferredC2EPKcbb = 0x00876660
_ZN2al19ModelDrawerDeferredC1EPKcbb = 0x00876660
_ZN2al14getChildLinkTREPN4sead7Vector3IfEES3_RKNS_13ActorInitInfoEPKci = 0x0088c690
_ZN14BossWackunHand9startMoveEi = 0x0000b870
_ZN23CameraAngleVerticalCtrl26chaseToTargetDegreeBySpeedEff = 0x00065080
_ZN2al14isInSuperbAreaEPKNS_10IUseCameraE = 0x009155f0
_ZN14EnemyStateUtil42tryKillByAreaOrMaterialCodeWithHitReactionEPN2al9LiveActorE = 0x000d2bf0
_ZNK2al11BezierCurve14calcCurveParamEf = 0x0089d220
_ZN26TentackStateAttackTentacleC2EP7TentackRKN2al13ActorInitInfoEPK31TentackStateAttackTentacleParam = 0x0005e200
_ZN26TentackStateAttackTentacleC1EP7TentackRKN2al13ActorInitInfoEPK31TentackStateAttackTentacleParam = 0x0005e200
_ZN15ListStampResultC1ERKN2al14LayoutInitInfoEPK14GameDataHolder = 0x0017b740
_ZN19WarpCubeLockedPiece13exeAppearRiseEv = 0x002df610
_ZN2al13ActionBgmCtrl6updateEff = 0x008d3060
_ZN23CourseSelectDokanHolder26initAfterPlacementSceneObjERKN2al13ActorInitInfoE = 0x0007ede0
_ZN20DisasterSpikeTorpedo33checkTorpedoSpikeRestrictionAreasEbb = 0x00156f30
_ZN16NpcStateFunction14isWallNextMoveEPKN2al9LiveActorEff = 0x0030d1f0
_ZN13CoinStackBaseC1EPKcb = 0x002078d0
_ZN10DarkBowser16requestSmallBlurEPKN4sead7Vector3IfEE = 0x000129b0
_ZN25PlayerCollisionYPlaneAreaC1EPKc = 0x00000e30
_ZN3agl2fx17OcclusionRenderer13OcclVtxStream6createEiif = 0x007c76d0
_ZN2al22isFaceToTargetDegreeHVEPKNS_9LiveActorERKN4sead7Vector3IfEES7_ff = 0x0083d560
_ZN15DrcTouchPointer11startAppearEb = 0x00224b20
_ZN2al8HdrParam4initEv = 0x008927d0
_ZN18CourseInfoFunction14isClearFlagTopE22GameDataHolderAccessori = 0x0040ed30
_ZN11TentackHead7controlEv = 0x00057840
_ZN2al21ClippingAreaActorInfo20updateShadowClippingERKN4sead7Vector3IfEE = 0x0092d9e0
_ZN18BlockStateHeadgear10receiveMsgEPKN2al9SensorMsgEPNS0_9HitSensorE = 0x001e32c0
_ZN24alEffectDataBaseFunction20createEffectUserInfoEPKN2al14EffectDataBaseEPKNS0_8ResourceERKN4sead14SafeStringBaseIcEE = 0x00965670
_ZN10CoinHolder9scoopCoinEv = 0x00203d50
_ZN2al15initNerveActionEPNS_9LiveActorEPKcPN15alNerveFunction20NerveActionCollectorEi = 0x00839060
_ZNK4sead15GraphicsContext18applyBlendAndFastZEPNS_11DrawContextE = 0x00737b70
_ZN2al19CameraPoserEntranceC2ERKNS_24CameraPoserEntranceParamEPKNS_13PlayerWatcherEPNS_14CameraSwitcherEPKNS_11PlacementIdE = 0x00906140
_ZN2al19CameraPoserEntranceC1ERKNS_24CameraPoserEntranceParamEPKNS_13PlayerWatcherEPNS_14CameraSwitcherEPKNS_11PlacementIdE = 0x00906140
_ZN2al24isCurSeMaterialNameEqualEPKNS_15IUseAudioKeeperEPKc = 0x009b6250
_ZN13JumpFlipPanel4initERKN2al13ActorInitInfoE = 0x00264880
_ZN2rc15getActivePlayerEPKN2al9LiveActorE = 0x0042dd00
_ZN3eui9AlignPane21getAlignInfoVertical_EPN2nn4ui2d4PaneEPfS5_S5_ = 0x007fcf40
_ZN2al17DepthShadowDrawerC2Ev = 0x008c00c0
_ZN2al17DepthShadowDrawerC1Ev = 0x008c00c0
_ZN4sead13FaderTaskBaseC2ERKNS_16TaskConstructArgEPKc = 0x007181e0
_ZN2al17setShadowMaskSizeEPNS_9LiveActorEPKcfff = 0x008bc020
_ZN2al9normalizeEPN4sead7Vector2IfEE = 0x0086a1e0
_ZN2al23CategoryLightInfoHolderC1EPKcf = 0x0087c740
_ZN2al23CategoryLightInfoHolderC2EPKcf = 0x0087c740
_ZN22SingleModeDataFunction28isValidPlessieChasePlacementE22GameDataHolderAccessorRKN2al13ActorInitInfoE = 0x0041eb30
_ZN20TentackTentacleGroupC2Ei = 0x00061fd0
_ZN20TentackTentacleGroupC1Ei = 0x00061fd0
_ZN2al18isPadTypeJoySingleEi = 0x0094b9f0
_ZN2al19getReplayControllerEj = 0x0094e360
_ZN18KoopaFireBallGiant7exeMoveEv = 0x0026f9f0
_ZN2al18isContainPointPaneEPKNS_10IUseLayoutEPKcRKN4sead7Vector2IfEE = 0x0096eb60
_ZN12IslandHolder15initDemoActionsEv = 0x002e3db0
_ZN14DarkBowserUtil23isFacingWithinThresholdERKN4sead7Vector3IfEES4_f = 0x00020f30
_ZN18ChameleonStateUtil32tryRequestHipDropAppearChameleonEPKN2al9SensorMsgEPNS0_9HitSensorEP21ChameleonStateHipDrop = 0x001f2600
_ZNK8Donketsu13isEnableSlideEPKN2al9SensorMsgEPNS0_9HitSensorES5_ = 0x000cda20
_ZN10PlayReport11getInstanceEv = 0x003b6c50
_ZN2al9SeRequest25stopIfEqualIdOrOriginalIdEjPNS_8SeSourceEi = 0x009aef20
_ZN19alPlacementFunction18getClippingGroupIdEPN2al11PlacementIdERKNS0_13ActorInitInfoE = 0x0088cf10
_ZN2al21setVelocitySeparateHVEPNS_9LiveActorERKN4sead7Vector3IfEEff = 0x0083c740
_ZN12TopMenuSceneC2EP15StageWipeKeeper = 0x003faad0
_ZN12TopMenuSceneC1EP15StageWipeKeeper = 0x003faad0
_ZN2al19NfpControllerThread19executeCommandMountEv = 0x0097daa0
_ZN2al14createInfoListINS_22BgmEnableSituationInfoEEEPNS_13AudioInfoListIT_EERKNS_9ByamlIterE = 0x008e50e0
_ZN16NeedleRollerFallC1EPKc = 0x0028b880
_ZN4sead12CalendarTimeC1ERKNS0_4YearERKNS0_5MonthERKNS0_3DayERKNS0_4HourERKNS0_6MinuteERKNS0_6SecondE = 0x0073c8d0
_ZN4sead12CalendarTimeC2ERKNS0_4YearERKNS0_5MonthERKNS0_3DayERKNS0_4HourERKNS0_6MinuteERKNS0_6SecondE = 0x0073c8d0
_ZN16FlyerStateWanderC2EPN2al9LiveActorEPN4sead7Vector3IfEEP12TargetFinderPK15FlyerStateParamPK21FlyerStateWanderParam = 0x000d5ac0
_ZN16FlyerStateWanderC1EPN2al9LiveActorEPN4sead7Vector3IfEEP12TargetFinderPK15FlyerStateParamPK21FlyerStateWanderParam = 0x000d5ac0
_ZN4sead10XmlElementC1Ev = 0x0073e600
_ZN4sead10XmlElementC2Ev = 0x0073e600
_ZNK3agl4lght12LightPrePass12ProjLightMgr14drawDebugImpl_EPNS_11DrawContextERKNS1_9ProjLightEiRKNS1_7ContextE = 0x007aab60
_ZN2rc8addScoreEPKN2al9LiveActorEPNS0_9HitSensorEfi = 0x00443740
_ZN2al9LiveActor14initItemKeeperEi = 0x0085cf60
_ZN13PlayerKoopaJr9tryAttackEv = 0x003a1940
_ZN21WarpCubeBindPuppeteer14startBindForceEPN2al9HitSensorES2_RKN4sead7Vector3IfEE = 0x002deed0
_ZNK3agl2fx17OcclusionRenderer4drawEPNS_11DrawContextEiRKNS_17RenderTargetDepthE = 0x007c8880
_ZN2al16calcKeyMoveSpeedEPKNS_13KeyPoseKeeperE = 0x0081a7d0
_ZN10Lighthouse18initAfterPlacementEv = 0x0027f8e0
_ZN2al10SeDirector4stopEjPNS_8SeSourceEjPKc = 0x009a1c90
_ZN2al18pushAndAddVelocityEPNS_9LiveActorEPKNS_9HitSensorES4_f = 0x0084cb90
_ZN7BombHei12killBySwitchEv = 0x000b45e0
_ZN13PlayerKoopaJr26resetTransformPostCutsceneERKN4sead7Vector3IfEES4_ = 0x003a0390
_ZN11ShadowMario7controlEv = 0x00137a70
_ZN2al10SSIIKeeper13updateViewGPUEiPKN4sead6CameraEPKNS1_10ProjectionE = 0x00830df0
_ZN3agl3env9EnvObjMgr9removeObjEPNS0_6EnvObjE = 0x007cad40
_ZN4sead8ViewportC1Ev = 0x0073a5d0
_ZN4sead8ViewportC2Ev = 0x0073a5d0
_ZN12NekoDisasterC1EP4Neko = 0x002fe910
_ZN4sead8TaskBase16SystemMgrTaskArgC2ERKNS_11TaskClassIDE = 0x00716050
_ZN4sead8TaskBase16SystemMgrTaskArgC1ERKNS_11TaskClassIDE = 0x00716050
_ZN13LuigiBrosUtil13initLuigiBrosEv = 0x0042a180
_ZN3agl11TextureData14CompressToWorkC2ERKS0_ = 0x00763e10
_ZN6Player14reflectCeilingEf = 0x00319e70
_ZN2rc15getNonBossPhaseEib = 0x00420890
_ZN2al14isHitBoxSensorEPKNS_9HitSensorERKN4sead8Matrix34IfEERKNS3_9BoundBox3IfEE = 0x00841ae0
_ZN15PlayerThrowBaseC2EPKNS_15PlayerThrowInfoEP18IUsePlayerAnimatorPK15IUsePlayerInputP26IUsePlayerFireBallLauncherPK20PlayerFigureDirectorPK22IUsePlayerCeilingCheckP15IUsePlayerAudioP11PlayerActor = 0x003b3c10
_ZN15PlayerThrowBaseC1EPKNS_15PlayerThrowInfoEP18IUsePlayerAnimatorPK15IUsePlayerInputP26IUsePlayerFireBallLauncherPK20PlayerFigureDirectorPK22IUsePlayerCeilingCheckP15IUsePlayerAudioP11PlayerActor = 0x003b3c10
_ZN2al5Scene13initLayoutKitERKNS_13SceneInitInfoE = 0x008a4550
_ZN2al26tryInitFixedModelGpuBufferEPNS_9LiveActorE = 0x0083aab0
_ZN5Koura9startBlowEPKN2al9HitSensorES3_ = 0x002745e0
_ZN11ShadowMario22exeWaitStartAttackRaceEv = 0x00138f00
_ZN4sead9WorkerMgr13InitializeArgC1Ev = 0x00748d50
_ZN4sead9WorkerMgr13InitializeArgC2Ev = 0x00748d50
_ZN18CourseSelectRocket4initERKN2al13ActorInitInfoE = 0x00091410
_ZN2al21JointLocalQuatRotatorC1EPKNS_9LiveActorEPKcPKN4sead4QuatIfEE = 0x008177e0
_ZN2al21JointLocalQuatRotatorC2EPKNS_9LiveActorEPKcPKN4sead4QuatIfEE = 0x008177e0
_ZN2al20UserCameraController6updateEPN4sead12LookAtCameraEPKNS_11CameraPoserEPNS_17ControlAngleParamEbb = 0x00917700
_ZN9NeedleBarC1EPKc = 0x0028a0a0
_ZN4sead14AudioFxBaseNin17ReleaseWorkBufferEv = 0x00752db0
_ZN13PlayerKoopaJr31checkWithinRangeOfGroundOrWaterEffPfPN4sead7Vector3IfEE = 0x003a2690
_ZN2al12AtmosScatterC2EPNS_18GraphicsSystemInfoEif = 0x008a9d20
_ZN2al12AtmosScatterC1EPNS_18GraphicsSystemInfoEif = 0x008a9d20
_ZN7Skipper7exeFlipEv = 0x0011b0b0
_ZN2al13CameraCreator17setCameraResourceEPKNS_8ResourceEi = 0x00902bf0
_ZN14PipePackunBodyC1EP10PipePackunPKc = 0x0010d2b0
_ZN19DarkBowserShellDive4killEv = 0x0001d830
_ZN4sead6Thread11setAffinityERKNS_10CoreIdMaskE = 0x00734450
_ZN3agl11TextureData17setCompSelDefaultEv = 0x007647d0
_ZN2rc35isFlagShakeAfterGhostPlayerRecorderEPKN2al18IUseSceneObjHolderE = 0x002e9650
_ZNK2al17DepthShadowDrawer17drawToDepthShadowEN3agl10ShaderModeE = 0x008c08b0
_ZN6Vessel8Emulator7Virtual11PlatformHvc12CHvcMapper4513_AdjustBusMapEv = 0x001b8fd0
_ZN12BoxPropeller11startActionEPKc = 0x001ecd10
_ZN18OceanWaterIndirect16initModeFromYamlEPKcR9OceanDataRKN2al9ByamlIterE = 0x0029b9a0
_ZNK11EchoEmitter7getLifeEv = 0x00227c60
_ZN2al12ActionSeCtrl10stopActionEv = 0x008d1f30
_ZN14BossWackunBody9startDemoEv = 0x00009d80
_ZN26TentackStateAttackTentacle27placementTentacleHalfCircleEv = 0x0005e770
_ZNK6Dossun18isEnableDealDamageEPKN2al9HitSensorE = 0x000cf340
_ZN2rc36waitAppearGuideGameWindowWithConfirmEPKN2al18IUseSceneObjHolderE = 0x00172660
_ZN2rc28findPlayerActorFirstByUserIdEPKN2al9LiveActorEi = 0x0042e360
_ZN2al14SkyboxDirector17initStageResourceEPKNS_8ResourceEPKc = 0x009b8f80
_ZN12ChorobonNode12setRailCoordEf = 0x000c8de0
_ZN2rc21forceControllerAppletEv = 0x004276f0
_ZN15SplatterPlotter8initYamlEv = 0x002bcd10
_ZN20DemoSceneActorHolder13killAllEffectEv = 0x000a5690
_ZN2al21AreaCameraSwitcher_RS6updateERKN4sead7Vector3IfEEbbb = 0x0091bd30
_ZNK3eui10AnimButton17IsPlayDisableAnimEv = 0x007f4410
_ZN2al21isJudgedToClipFrustumEPKNS_9LiveActorEff = 0x0083b990
_ZN2al17PadRumbleDirector19stopPadRumbleDirectEi = 0x00950670
_ZN22PlayerFireBallLauncherC1EjP25IUsePlayerFireBallCreator = 0x00393a70
_ZN22PlayerFireBallLauncherC2EjP25IUsePlayerFireBallCreator = 0x00393a70
_ZN15DrcTouchPointer17startSnapshotModeEv = 0x002250a0
_ZN21GoalItemBindPuppeteerC1EPKcP8GoalItem = 0x00247770
_ZN21GoalItemBindPuppeteerC2EPKcP8GoalItem = 0x00247770
_ZN2al12SeVolumeCtrl6updateEb = 0x009b6970
_ZN2al18CameraPoserAnim_RS7setAnimEPKciii = 0x008f7650
_ZN3agl2fx7OfxBase16loadPresetByNameERKN4sead14SafeStringBaseIcEEb = 0x007c1220
_ZN2al39setShadowDropLengthEvenWithDrawCategoryEPNS_9LiveActorENS_22ShadowMaskDrawCategoryEPKS0_PKc = 0x008bc3c0
_ZN2al20ShaderMirrorDirector8movementEv = 0x008b6660
_ZN3agl3env6EnvObj11initialize_EiiPNS0_9EnvObjMgrEPN4sead4HeapE = 0x007c9990
_ZN4sead14AudioFxBaseNin16AssignWorkBufferEPvj = 0x00752d00
_ZN19FairyNpcWithGlasses4initERKN2al13ActorInitInfoE = 0x002f7c90
_ZN2al17initAnimCamera_RSEPKNS_13IUseCamera_RSERKNS_13ActorInitInfoEPKNS_8ResourceEPKN4sead8Matrix34IfEEPKcb = 0x0092a5d0
_ZN13KoopaFireBall11checkGroundEv = 0x0026d590
_ZN2rc18acquireGreenStarIdEPKN2al9LiveActorEi = 0x00258160
_ZN2al21JointLookAtController21appendJointLocalJudgeEifRKN4sead7Vector2IfEES5_RKNS1_7Vector3IfEES9_PKNS1_8Matrix34IfEES9_S9_b = 0x00818820
_ZN17CourseSelectDokan11setDstDokanEPS_ = 0x0007e5a0
_ZN2al16DepthShadowParam4initEv = 0x008bc730
_ZN3agl3utl8DevTools11drawAxisImmEPNS_11DrawContextERKN4sead8Matrix34IfEEfff = 0x00782e60
_ZN2al19WaveVibrationHolder8loadDataEv = 0x00953a20
_ZNK3agl6detail7Surface22setupNVNtextureBuilderEP17NVNtextureBuilder = 0x00764cb0
_ZN17BallStateFunction17calcFrontVelocityEPN4sead7Vector3IfEEPN2al9LiveActorE = 0x001d7f10
_ZN11ErrorViewer4MainEv = 0x001c79a0
_ZN2al22LayoutPartsActorKeeperC1Ei = 0x00973380
_ZN2al22LayoutPartsActorKeeperC2Ei = 0x00973380
_ZN20ButtonItemStockPartsC1ERKN2al14LayoutInitInfoEPKcS5_PNS0_11LayoutActorEP19ProjectItemDirectorb = 0x00161df0
_ZN18CourseSelectLayout4initERKN2al14LayoutInitInfoEP14GameDataHolderPNS0_12PlayerHolderEP20CourseSelectDirectorPNS0_13NetworkSystemEPNS0_11ErrorViewerEPNS0_10HomeButtonE = 0x0016d640
_ZN2al11NfpDirector25executeCommandListDevicesEv = 0x00882850
_ZN13DisasterSpike22isPositionInCameraViewEN4sead7Vector3IfEE = 0x002148f0
_ZN2al13EffectEmitterC2EPKNS_16EffectSystemInfoEPNS_18EffectResourceInfoEi = 0x0095f780
_ZN2al13EffectEmitterC1EPKNS_16EffectSystemInfoEPNS_18EffectResourceInfoEi = 0x0095f780
_ZN20CatShineCounterPartsC1ERKN2al14LayoutInitInfoEPKcS5_PNS0_11LayoutActorE = 0x0013ea30
_ZN17ShardCounterPartsC1ERKN2al14LayoutInitInfoEPKcS5_PNS0_11LayoutActorE = 0x00146b70
_ZN23CourseSelectPlayerActor22initCourseSelectPlayerERKN2al14LayoutInitInfoEb = 0x0008a0c0
_ZN19LightningControllerC1EPKc = 0x00284280
_ZN3agl6detail12ShaderHolderD1Ev = 0x00785020
_ZN3agl6detail12ShaderHolderD2Ev = 0x00785020
_ZN4sead11XmlDocument6createEPNS_10ReadStreamEPNS_4HeapEbj = 0x007449d0
_ZN13PlayerKoopaJr7tryWarpEv = 0x003a1640
_ZN14BossWackunBody9startLandEi = 0x0000a080
_ZNK11TentackHead12isBackOrPushEv = 0x00058830
_ZN19CounterLockGigaBell6exeEndEv = 0x00140f10
_ZN2al12isInSightFanEPKNS_9LiveActorERKN4sead7Vector3IfEES7_fff = 0x0083d6b0
_ZN30CourseSelectBgmEventControllerC1EPKc = 0x0007af50
_ZNK3agl3utl12IParameterIO4saveERKN4sead14SafeStringBaseIcEEj = 0x0078cf10
_ZN20GoalPoleStateRunaway7exeMoveEv = 0x00250780
_ZN3eui15ScalableFontMgr10initializeERKNS0_13InitializeArgE = 0x007e7bb0
_ZN3agl11DrawContextD1Ev = 0x00757e50
_ZN3agl11DrawContextD2Ev = 0x00757e50
_ZN2al16ScreenBlurDrawer6updateEv = 0x0099a1a0
_ZN2al12EffectSystem10startSceneEPNS_15ExecuteDirectorE = 0x00964a60
_ZN2al14SimpleModelG3D18tryInitFixedMatUboEv = 0x0087ce50
_ZN5erepo7Manager7startUpERKNS0_10StartupArgE = 0x009bab00
_ZN2rc25tryGetStampNameByCourseIdEP9StampListi = 0x0017d3e0
_ZN6Vessel8Emulator7Virtual11PlatformHvc8CHvcVrc613_AdjustBusMapEv = 0x001bd3c0
_ZN2rc28pauseAllPlayerAmiiboDirectorEPN2al12PlayerHolderEb = 0x00432bf0
_ZN3agl3pfx12DepthOfFieldD2Ev = 0x007b58b0
_ZN3agl3pfx12DepthOfFieldD1Ev = 0x007b58b0
_ZNK2al25CameraPoserParallelOnRail20calcDirAngleTypeRailEPN4sead7Vector3IfEE = 0x0090e0b0
_ZN2al17ContoursDrawParamC2Ev = 0x0098ec30
_ZN2al17ContoursDrawParamC1Ev = 0x0098ec30
_ZN7Gorobon10forceBreakEv = 0x000dd500
_ZN3agl13ShaderProgram19initializeVariationERKN4sead14SafeStringBaseIcEEiPNS1_4HeapE = 0x007608c0
_ZN16StageSceneLayoutC1ERKN2al14LayoutInitInfoEP14GameDataHolderPKcPK15GreenStarKeeperPK16IllustItemKeeperPKNS0_12PlayerHolderEPK18PlayerAliveWatcherP19ProjectItemDirector = 0x0019b1b0
_ZN3agl22ResBinaryShaderArchive7cleanUpEv = 0x0078bea0
_ZN14CheckpointFlagC1EPKc = 0x001f4640
_ZN17CourseSelectFairy17exeWorldStartDemoEv = 0x0007f520
_ZN2al24tryInitPlacementCategoryEPNS_5SceneERKNS_13ActorInitInfoEiPKcRKNS_12ActorFactoryEPPNS_9LiveActorEi = 0x008a5640
_ZN21PlayerActionNormalDie5setupEv = 0x00346600
_ZN13DemoEffectObj18initDemoSceneActorERKN2al13ActorInitInfoES3_PKN4sead8Matrix34IfEE = 0x000a1bf0
_ZN14EnemyGenerator9exeLaunchEv = 0x000d1690
_ZN4sead6WorkerC2EPNS_9WorkerMgrEjiiRKNS_14SafeStringBaseIcEE = 0x00749750
_ZN4sead6WorkerC1EPNS_9WorkerMgrEjiiRKNS_14SafeStringBaseIcEE = 0x00749750
_ZN2al27SeReverbI3Dl2EffectProcInfo10createInfoERKNS_9ByamlIterEPKc = 0x009a6fc0
_ZN3agl3pfx5Bloom7ContextD2Ev = 0x007a5340
_ZN13PlayerKoopaJr23isWaitingForOptionsMenuEv = 0x003a09d0
_ZN17TreeBindPuppeteer15exeHandStandEndEv = 0x002dbc60
_ZN6Bottle4initERKN2al13ActorInitInfoE = 0x002f6a90
_ZNK11PlayerActor9isInKouraEv = 0x0036b500
_ZN2al17MetalReliefDrawer19initProjectResourceEPN2nn3g3d7ResFileE = 0x00992a60
_ZN3eui14ConstantBuffer3mapEv = 0x007e0d90
_ZN6Takobo15turnToTargetPosERKN4sead7Vector3IfEEf = 0x00124a50
_ZN29PlayerActionRollingCancelJumpC1EP22PlayerActionAirMoveArgP20PlayerContinuousJumpPK32IUsePlayerHorizontalSpeedAveragePK20IUsePlayerActualMovePK14IUsePlayerFlagSC_P13PlayerTriggerPK19IUsePlayerCheckArea = 0x0034b040
_ZN29PlayerActionRollingCancelJumpC2EP22PlayerActionAirMoveArgP20PlayerContinuousJumpPK32IUsePlayerHorizontalSpeedAveragePK20IUsePlayerActualMovePK14IUsePlayerFlagSC_P13PlayerTriggerPK19IUsePlayerCheckArea = 0x0034b040
_ZN21CourseSelectPuppeteer15startRouteDokanEP28ICourseSelectActorController = 0x0008b030
_ZN8WaveGrid10RenderDataC2Ev = 0x00297ee0
_ZN2al19StageSwitchDirectorC2EPNS_15ExecuteDirectorEb = 0x008cb910
_ZN2al19StageSwitchDirectorC1EPNS_15ExecuteDirectorEb = 0x008cb910
_ZNK4sead15SharcArchiveRes25convertPathToEntryIDImpl_ERKNS_14SafeStringBaseIcEE = 0x00746be0
_ZN14BlockStateItem13exeAppearItemEv = 0x001e4cc0
_ZN2al11TextureUnit8finalizeEv = 0x009b9c90
_ZN2al13calcDistanceHEPKNS_9LiveActorERKN4sead7Vector3IfEE = 0x0083ceb0
_ZN4sead8TaskBaseC2ERKNS_16TaskConstructArgEPKc = 0x00716190
_ZN4BushC1EPKc = 0x001ee1a0
_ZN2al20MultiCoreQueueThreadD2Ev = 0x0096ad90
_ZN2al20MultiCoreQueueThreadD1Ev = 0x0096ad90
_ZN8InkPatch11startCameraEv = 0x0015ca80
_ZN2al12ShaderHolder19setupShaderArchivesEv = 0x009b8560
_ZN19ItemStatePlayerHold18tryStartCarryFrontEPKN2al9SensorMsgEPNS0_9HitSensorEb = 0x00262b00
_ZN9IslandMap19updatePlayerTrackerEb = 0x001772d0
_ZN4sead14MessageSetBase10initializeEPvPNS_4HeapE = 0x00747d90
_ZN6Vessel8Emulator7Virtual11PlatformHvc4CHvc11ContentLoadEmPKhm = 0x001a8cb0
_ZN2al20EdgeDrawerPostEffectC1EPNS_12ShaderHolderEi = 0x00996020
_ZN2al20EdgeDrawerPostEffectC2EPNS_12ShaderHolderEi = 0x00996020
_ZN17CourseSelectFairy17forceBackToCastleEv = 0x0007f9b0
_ZN2al20updateCollisionPartsEPNS_14CollisionPartsE = 0x0093a1e0
_ZNK3agl3sdw15DepthShadowUnit39convBoundingToLightSpaceNotDirectional_EPN4sead9BoundBox3IfEERKS4_ = 0x007d6800
_ZNK10DarkBowser15getDeadRingBeamEv = 0x00012d10
_ZN17KoopaLastFunction24initActorKoopaLastCommonEPN2al9LiveActorERKNS0_13ActorInitInfoEPKcPN4sead8PtrArrayINS0_21JointSpringControllerEEE = 0x0002f680
_ZN2al18ModelDrawerForwardC1EPKcbbbb = 0x00877e90
_ZN2al18ModelDrawerForwardC2EPKcbbbb = 0x00877e90
_ZN2al12FogRequesterC1EPKc = 0x00812ab0
_ZN21PlayerActionSquatWalkC2EPK15PlayerActionArgPK22IUsePlayerCeilingCheckP23IUsePlayerCollisionSize = 0x00350a00
_ZN21PlayerActionSquatWalkC1EPK15PlayerActionArgPK22IUsePlayerCeilingCheckP23IUsePlayerCollisionSize = 0x00350a00
_ZN2rc33tryFindNearestPlayerActorByUserIdEPKN2al9LiveActorEif = 0x00432190
_ZN2al15AreaObjDirectorC2Eb = 0x008d9c40
_ZN2al15AreaObjDirectorC1Eb = 0x008d9c40
_ZN2al26isEffectSnapshotCameraModeEPNS_16IUseEffectKeeperEPKc = 0x00968df0
_ZN4sead14AudioSystemNinC1Ev = 0x0074f570
_ZN4sead14AudioSystemNinC2Ev = 0x0074f570
_ZN2al18EffectShaderHolder40CustomShaderRenderStateSetCallbackCommonERN2nn3vfx17RenderStateSetArgE = 0x009630b0
_ZN8Pukupuku12exeSwimBrakeEv = 0x0010fe70
_ZN11PlayerActor17checkCollisionMsgEv = 0x00366c50
_ZN2al32reboundVelocityFromEachCollisionEPNS_9LiveActorEffff = 0x0083c3a0
_ZN2al10MeshDrawerC2EPKcPKN2nn3g3d8ModelObjEPKNS4_8ShapeObjEPKNS4_14ShaderSelectorEi = 0x00874d20
_ZN2al10MeshDrawerC1EPKcPKN2nn3g3d8ModelObjEPKNS4_8ShapeObjEPKNS4_14ShaderSelectorEi = 0x00874d20
_ZN21CourseSelectMiniature4initERKN2al13ActorInitInfoE = 0x00080d50
_ZN10TentackLv312exeDemoStartEv = 0x0005a7d0
_ZN3agl6driver6NVNMgrC2Ev = 0x00759dc0
_ZN3agl6driver6NVNMgrC1Ev = 0x00759dc0
_ZN2al21JointControllerKeeperC2Ei = 0x00816dc0
_ZN2al21JointControllerKeeperC1Ei = 0x00816dc0
_ZN9WaterUtil19getOceanWaterHeightEPKN2al18IUseSceneObjHolderERKN4sead7Vector3IfEEb = 0x003b6ba0
_ZN2al32GraphicsParamRequestInterpKeeperINS_9YFogParamEE10NamedParamC2Ev = 0x00811db0
_ZN3agl3utl13ImageFilter2D19drawTextureMipLevelEPNS_11DrawContextERKNS_14TextureSamplerERKN4sead8ViewportEfRKNS7_7Vector2IfEESE_ = 0x0076a4f0
_ZN2al19CameraAngleCtrlInfo19createWithRelativeHEv = 0x00919120
_ZN2al22addToHostActorClippingEPNS_9LiveActorEPKS0_ = 0x00834ef0
_ZN19SwitchRotateWatcher17calcClippingRangeEv = 0x002c6e10
_ZN10MeraWanwanC1EPKc = 0x000faa30
_ZN4sead6Random4initEv = 0x0073ae80
_ZN15alModelFunction52prepareModelShapeDrawDeferredGraphicsContextByCustomEPN3agl11DrawContextEPKN2al14SimpleModelG3DEiNS3_9BlendTypeE = 0x00878f50
_ZN2rc14calcPuppetQuatEPN4sead4QuatIfEEPK16IUsePlayerPuppet = 0x0042a8b0
_ZN17HeadgearStateBlow8tryStartEPKN2al9SensorMsgEPNS0_9HitSensorE = 0x0025a1e0
_ZN21TouchReactionMapPartsC1EPKc = 0x002ce970
_ZN10CheckPoint8resetAllEb = 0x001f3000
_ZNK9IslandMap5isEndEv = 0x00177240
_ZN3eui32SetupTextureInfoByAglTextureDataEPN2nn4ui2d11TextureInfoERKN3agl11TextureDataEPKNS4_14TextureCompSelE = 0x007e0f40
_ZN11LppFunction12initLppActorEPN2al9LiveActorEPNS0_16PrePassLightBaseEPN4sead8Matrix34IfEERKNS0_13ActorInitInfoE = 0x00823b30
_ZN19BlockBrickBreakable7doBreakEb = 0x001dce70
_ZN3agl3env7CubeMap8postDrawEPNS_11DrawContextEb = 0x007d20c0
_ZN2al19rotateVectorDegreeYEPN4sead7Vector3IfEEf = 0x0086f9b0
_ZN20DemoSceneActorHolder4killEv = 0x000a5770
_ZN21CourseSelectPuppeteer7endDemoEv = 0x0008b0d0
_ZN10PlayReport4SaveEv = 0x003b6bf0
_ZN19KoopaChaseBattleLv214updateRunSpeedEv = 0x00025dd0
_ZN13DisasterSpike12setTransformEN4sead7Vector3IfEENS0_4QuatIfEE = 0x002155f0
_ZN2al12FallMapPartsC1EPKc = 0x00860840
_ZN21ButtonSquareIconPartsC1ERKN2al14LayoutInitInfoEPKcS5_PNS0_11LayoutActorEb = 0x00163570
_ZN16TimerClockNumber18appearWithWorldPosERKN4sead7Vector3IfEE = 0x0019d8a0
_ZN11Application4initEiPPc = 0x0040b690
_ZN19PlayerAnimFrameCtrl16changeActionNameEPN2al9LiveActorERKN4sead14SafeStringBaseIcEE = 0x003765c0
_ZN5erepo12SendDataBase11requestSaveEv = 0x009c15e0
_ZN34PlayerRetargettingSelectorSceneObjC2Ev = 0x003b1740
_ZN34PlayerRetargettingSelectorSceneObjC1Ev = 0x003b1740
_ZN2al14DirectionParam13initializeDirERKN4sead7Vector3IfEEPN3agl3utl12ParameterObjEPKcSB_ = 0x0081e8a0
_ZN2al14MangaDrawParamC1Ev = 0x00989180
_ZN2al14MangaDrawParamC2Ev = 0x00989180
_ZN11PlayerActor13endDiveCameraEv = 0x0036b8c0
_ZN13KoopaFireBall12appearAttackERKN4sead7Vector3IfEES4_f = 0x0026cef0
_ZN2al23CameraPoserFollowSimple6updateEv = 0x008fbcb0
_ZN31CloudBonusLauncherBindPuppeteer19startBonusStartWarpERKN4sead8Matrix34IfEEii = 0x001fbc90
_ZN15PlayerEntryItem12startShuffleEv = 0x001840f0
_ZN11PlayLogDataC2EP14GameDataHolder = 0x00419f60
_ZN11PlayLogDataC1EP14GameDataHolder = 0x00419f60
_ZN2al3Bgm23tryGetCurSamplePositionEPi = 0x008ebe00
_ZN4sead16NinJoyNpadDeviceD0Ev = 0x0070c630
_ZN2al18SnapShotCameraCtrl6updateERKN4sead12LookAtCameraEPKNS_13IUseCollisionEPKNS_12ICameraInputE = 0x0092c590
_ZN18BossStateDemoStartC1EPN2al9LiveActorERKNS0_13ActorInitInfoEP17BossDemoStartInfo = 0x00006820
_ZN18BossStateDemoStartC2EPN2al9LiveActorERKNS0_13ActorInitInfoEP17BossDemoStartInfo = 0x00006820
_ZN19PlayerActionHipDrop8exeStartEv = 0x00341590
_ZN3agl3pfx21DepthOfFieldParameter20VignettingShapeParam10initializeERKN4sead14SafeStringBaseIcEEPNS_3utl13IParameterObjEPNS3_4HeapE = 0x007b5530
_ZN2al20findNearestPlayerPosEPKNS_9LiveActorE = 0x0088de30
_ZN6DossunC1EPKc = 0x000cec20
_ZN2al16tryGetByamlBox3fEPN4sead9BoundBox3IfEERKNS_9ByamlIterEPKc = 0x008cf320
_ZN2al14CameraFunction28calcCameraPosByRotateAngleHVEPN4sead7Vector3IfEERKNS1_12LookAtCameraEff = 0x00903d80
_ZN18alSubActorFunction20trySyncClippingStartEPN2al14SubActorKeeperE = 0x0085d450
_ZN4sead17NinSaveFileDevice9tryCommitEv = 0x00748a10
_ZN15NpcTargetFinder16clearPriorityMapEv = 0x00310f90
_ZN13PlayerKoopaJr25checkPlayerDamageReactionEv = 0x0039b9e0
_ZNK3agl6driver11NVNtexture_13setReference_Ev = 0x0075be60
_ZN22DisasterModeController27setIsFirstDisappearCutsceneEb = 0x0020f7e0
_ZN13DisasterSpike12hideChildrenEv = 0x002133d0
_ZN2al19tryGetPlacementInfoEPNS_13PlacementInfoEPKNS_9StageInfoEPKc = 0x008a5850
_ZN2al28invalidateShadowIntensityAllEPNS_9LiveActorE = 0x008bbb20
_ZN17NpcHeadController6updateEv = 0x0030c100
_ZN3agl2fx10RadialBlur11initVertex_EiiPN4sead4HeapE = 0x007cf9a0
_ZN4sead21AudioFxI3DL2ReverbNin16AssignWorkBufferEPvj = 0x00756fe0
_ZN14NpcStateWanderC2EPN2al9LiveActorEPN4sead7Vector3IfEEPK13NpcStateParamPK19NpcStateWanderParam = 0x0030f600
_ZN14NpcStateWanderC1EPN2al9LiveActorEPN4sead7Vector3IfEEPK13NpcStateParamPK19NpcStateWanderParam = 0x0030f600
_ZN20GameDataFlagFunction36isEnableDemoLeaveCastleFairyPrincessE22GameDataHolderAccessori = 0x00414ed0
_ZN3eui17CenteringPanePairEPN2nn4ui2d4PaneE = 0x007e1530
_ZN18BlockHardLaserOnly10isBreakingEb = 0x0014c4d0
_ZN2al15SeSourceAmbientC2EPNS_15AudioSystemInfoE = 0x009b1760
_ZN2al15SeSourceAmbientC1EPNS_15AudioSystemInfoE = 0x009b1760
_ZN22DisasterModeControllerC1EPKc = 0x0020bec0
_ZN2al21tryGetPadAccelerationEPN4sead7Vector3IfEEii = 0x0094b6c0
_ZN27PlayerAmiiboDirectorWatcher10getNfpInfoEPKN2al9LiveActorE = 0x003735e0
_ZNK17DemoPlayerLocator22getPlayerLocatorMtxPtrEi = 0x000a4120
_ZN20DemoPlayerController12tryStartDemoEv = 0x000a3470
_ZN24CourseSelectNodeFunction16calcRoundOffDirHEPN4sead7Vector3IfEERKS2_S5_ = 0x00084d00
_ZN7Crawler9startWalkEv = 0x000c9f30
_ZN16CourseSelectWallC1EPKc = 0x0009d740
_ZN18EnemyStateBlowDownC1EPKcPN2al9LiveActorEPK23EnemyStateBlowDownParam = 0x000d1b60
_ZN18EnemyStateBlowDownC2EPKcPN2al9LiveActorEPK23EnemyStateBlowDownParam = 0x000d1b60
_ZN14BindWarpEffect5startEPKN2al9HitSensorERKN4sead7Vector3IfEEb = 0x001da590
_ZN2rc33isAllPlayerOnGroundOrWaterOrKouraEPKN2al9LiveActorE = 0x0042ccc0
_ZN14PunpunShuriken5shootERKN4sead7Vector3IfEEb = 0x000398d0
_ZN8WarpCubeC1EPKc = 0x002dcef0
_ZN28PlayerCollisionMsgUpperPunch10trySendingEP22IUsePlayerCollisionMsg = 0x00385ec0
_ZN2al19invalidatePadReplayEj = 0x0094e8b0
_ZN2al9calcSpeedEPKNS_9LiveActorE = 0x0083c360
_ZN28SuperBowserRainFireballStateC2EP11SuperBowserRKN2al13ActorInitInfoE = 0x00052510
_ZN28SuperBowserRainFireballStateC1EP11SuperBowserRKN2al13ActorInitInfoE = 0x00052510
_ZN10NeedleTrap7controlEv = 0x0028dd60
_ZN2al16DepthShadowParam6interpERKS0_S2_f = 0x008bd960
_ZN13LiftMikeSlide10updateMoveEv = 0x0027e7b0
_ZN2al22calcLinkCountClassNameERKNS_13PlacementInfoEPKc = 0x0088c9c0
_ZN19PlayerActionAirMove23controlVerticalVelocityEPfRKN4sead7Vector3IfEE = 0x0031af90
_ZN20CoinConcentricCircle4killEv = 0x00201050
_ZN2al14CameraPoser_RSC2EPKc = 0x009224d0
_ZN2al14CameraPoser_RSC1EPKc = 0x009224d0
_ZN3eui14FindPaneByPathEPKcPNS_8LayoutExEPS3_ = 0x007e1980
_ZN21PlayerInvincibleState6resumeEb = 0x00397fc0
_ZN21ItemStateAssistRotateC2EPN2al9LiveActorEPK21ItemAssistRotateParam = 0x00260f20
_ZN21ItemStateAssistRotateC1EPN2al9LiveActorEPK21ItemAssistRotateParam = 0x00260f20
_ZN2al26isExistMessageTagPadSwitchEPKNS_17IUseMessageSystemEPKDs = 0x0097b160
_ZN10NekoNormal9tryBounceEf = 0x00301990
_ZN2rc29requestBindAllPlayerButBubbleEPKN2al9LiveActorEPNS0_9HitSensorE = 0x0042bb30
_ZN24KoopaLastDefendeBlockPow4initERKN2al13ActorInitInfoE = 0x0002d960
_ZN15PlayerBoomerang12exeMoveBrakeEv = 0x0037be30
_ZN2al22rotateQuatMomentDegreeEPN4sead4QuatIfEERKS2_RKNS0_7Vector3IfEE = 0x0086d930
_ZN15BossGorobonRock4initERKN2al13ActorInitInfoE = 0x00006390
_ZN22SingleModeDataFunction25getFirstAvailableScenarioE22GameDataHolderAccessori = 0x0041f510
_ZN3eui21ScalableFontTextBoxExC1EPKN2nn4ui2d10ResTextBoxES5_RKNS2_11BuildArgSetEPNS2_7TextBox21InitializeStringParamE = 0x007e7410
_ZN3eui21ScalableFontTextBoxExC2EPKN2nn4ui2d10ResTextBoxES5_RKNS2_11BuildArgSetEPNS2_7TextBox21InitializeStringParamE = 0x007e7410
_ZN20PlayerActionWallFallC2EP22PlayerActionAirMoveArgP18PlayerWallJumpInfoP21IUsePlayerFlagControlP13PlayerTriggerPK19IUsePlayerCheckArea = 0x0035e2b0
_ZN20PlayerActionWallFallC1EP22PlayerActionAirMoveArgP18PlayerWallJumpInfoP21IUsePlayerFlagControlP13PlayerTriggerPK19IUsePlayerCheckArea = 0x0035e2b0
_ZN3eui24MultiArcResourceAccessor11AcquireFontEPN2nn3gfx7TDeviceINS2_12ApiVariationINS2_7ApiTypeILi4EEENS2_10ApiVersionILi8EEEEEEEPKc = 0x007efea0
_ZN23ItemStateCheckCollision23connectToCollisionPartsEv = 0x00261310
_ZN6Tenten18startSupportFreezeEPKN2al9LiveActorE = 0x00126d70
_ZN3agl3utl16PrimitiveTexture10initializeEPN4sead4HeapE = 0x0077c0e0
_ZN8PukupukuC1EPKc = 0x0010f900
_ZN18CounterPlayerParts8showMissEPK22GameDataHolderAccessor = 0x0016a540
_ZN17PlayerModelHolder17assignGlobalAlphaEPf = 0x003acaf0
_ZN19ItemStatePopUpFront20setParamDefaultAboveEv = 0x002639e0
_ZN10TitleScene19initPlacementPlayerEPKN2al9StageInfoERKNS0_13ActorInitInfoEP26PlayerRetargettingSelector = 0x003fa3b0
_ZN24SpotLightPatrollerHolder8movementEv = 0x002bc480
_ZN2al11JointMasher6appendEPKcf = 0x00818d70
_ZN11BlockSwitch10receiveMsgEPKN2al9SensorMsgEPNS0_9HitSensorES5_ = 0x001e5220
_ZN11PlayerActor17setFigureTypeToSeEi = 0x00368a70
_ZN7InkBombC1EPKcPKN2al9LiveActorE = 0x000171b0
_ZNK21GoalPoleBindPuppeteer18isEnableAppearFlagEv = 0x0024de00
_ZN17CollectRingHolder9noticeGetEP11CollectRing = 0x00209cd0
_ZN4sead21PerspectiveProjection8setFovy_Ef = 0x007384e0
_ZN25DemoSingleModeEndingScene13initPlacementERKN2al13ActorInitInfoE = 0x003d4510
_ZN6Kuribo11exeBlowDownEv = 0x000ea550
_ZN6Takobo4initERKN2al13ActorInitInfoE = 0x001240f0
_ZN2al13RequestInterpINS_13DirLightParamEE12updateInterpEv = 0x0081dcb0
_ZN16WipeCurtainStart16appearStageStartEPK14GameDataHolderPN2al13NetworkSystemE = 0x001a4130
_ZNK21GoalPoleBindPuppeteer14isEndCatchMoveEv = 0x0024da20
_ZN19GhostPlayerFunction26isCurrentCourseGhostPlayerE22GameDataHolderAccessor = 0x002e7510
_ZN3agl11TextureData24initializeFromNVNtextureERK10NVNtexture = 0x007648c0
_ZN4sead18AudioFxReverbHiNin16AssignWorkBufferEPvj = 0x00753a10
_ZN3agl4lght4SSII12ReduceBufferD2Ev = 0x007af5a0
_ZN3agl4lght4SSII12ReduceBufferD1Ev = 0x007af5a0
_ZN3eui17LetterAnimControlC1Ev = 0x007e9bf0
_ZN3eui17LetterAnimControlC2Ev = 0x007e9bf0
_ZN2al16MessageSyncPartsC1EPKcPNS_9LiveActorE = 0x00885210
_ZN2al11MangaDrawerC1EPNS_12ShaderHolderE = 0x0098ab30
_ZN2al11MangaDrawerC2EPNS_12ShaderHolderE = 0x0098ab30
_ZN14DemoSkipLayout3endEv = 0x001419f0
_ZN2al14SoundItemEntryC2Ev = 0x00810210
_ZN2al14SoundItemEntryC1Ev = 0x00810210
_ZN11ScoreNumber10startScoreEijRKN4sead7Vector3IfEEi = 0x00197120
_ZN2al21getLinksMatrixByIndexEPN4sead8Matrix34IfEERKNS_13ActorInitInfoEPKci = 0x0088c2c0
_ZN21SingleModeSceneLayout7endDemoEbb = 0x00198690
_ZN2rc28tryFindRelativeControlUserIdEPN2al9HitSensorE = 0x00426410
_ZN11BallGimmickC1EPKc = 0x001d4920
_ZN3agl3env9EnvObjSet11allocBufferERKNS0_12EnvObjBuffer11AllocateArgEPN4sead4HeapE = 0x007ccb20
_ZN4sead8TaskBase31adjustHeapWithSlackWithoutLock_Eij = 0x007163f0
_ZN19PackunFlowerWithPot10exeDieDownEv = 0x00107e70
_ZN2al14emitRadialBlurEPKNS_9LiveActorEPKN4sead7Vector3IfEEffii = 0x0089b680
_ZN2al22SaveDataSequenceFormatC2Ev = 0x008a33c0
_ZN2al22SaveDataSequenceFormatC1Ev = 0x008a33c0
_ZN20CourseSelectDirector7endDemoEb = 0x0007cab0
_ZNK2al17ConveyerKeyKeeper18calcClippingSphereEPN4sead7Vector3IfEEPff = 0x0085f730
_ZN3agl3sdw11DepthShadow17updateSceneMatrixERKN4sead8Matrix34IfEERKNS2_8Matrix44IfEE = 0x007d3c40
_ZN2al20AudioEventController6updateEv = 0x008de3e0
_ZN16KuriboTowerChild8reappearEv = 0x000f3380
_ZN11TentackHead21turnToDirectionGentlyERKN4sead7Vector3IfEEf = 0x00058360
_ZN2al19isExistResourceYamlEPKNS_8ResourceEPKcS4_ = 0x008a0330
_ZN21alCameraPoserFunction30checkCameraCollisionMoveSphereEPN4sead7Vector3IfEEPKN2al13IUseCollisionERKS2_S9_f = 0x0091efd0
_ZN2al19diffNearAngleDegreeEff = 0x0086b190
_ZN20SingleModeCheckpoint13setStateAfterEv = 0x002b7800
_ZN3agl3env7CubeMapC2Ev = 0x007d16b0
_ZN3agl3env7CubeMapC1Ev = 0x007d16b0
_ZN23WipeCurtainRankingPartsC1ERKN2al14LayoutInitInfoEPKcS5_iP18WipeCurtainRanking = 0x001a2800
_ZN10SuperKoura6doFallEff = 0x00408350
_ZN4neko6TargetC2ERKN2al13PlacementInfoEiiPKNS1_9LiveActorE = 0x002fbdf0
_ZN4neko6TargetC1ERKN2al13PlacementInfoEiiPKNS1_9LiveActorE = 0x002fbdf0
_ZN11KuriboTower18updateClippingInfoEv = 0x000f1d30
_ZN25PlayerCollisionCheckArrowC1EPN2al9LiveActorE = 0x00383b10
_ZN25PlayerCollisionCheckArrowC2EPN2al9LiveActorE = 0x00383b10
_ZN2rc21setPaneDecideIconFontEPN2al10IUseLayoutEPKci = 0x00429ff0
_ZN10MeraWanwan9forceDeadEv = 0x000fba90
_ZN3agl3utl13TextureDataEx10initializeENS_13TextureFormatENS_11TextureTypeEjjjNS_15MultiSampleTypeEjPNS_14GPUMemVoidAddrEj = 0x00769890
_ZN15alModelFunction17isShaderAssignXluEPKN2nn3g3d8ModelObjEi = 0x00879c80
_ZNK14PlayerCollider23findNearestLegCollisionERKN4sead7Vector3IfEE = 0x00382470
_ZN20TuccondorGlassBlowerC1EPN2al9LiveActorEP14TuccondorGlass = 0x0012fe60
_ZN20TuccondorGlassBlowerC2EPN2al9LiveActorEP14TuccondorGlass = 0x0012fe60
_ZNK7MapMenu14isInTransitionEv = 0x0017c300
_ZN2al19NfpControllerThread23executeCommandTagDetectEv = 0x0097d8f0
_ZN15NpcTargetFinder12updateTargetEv = 0x00310ad0
_ZN14GameDataHolder26setSingleModePlayingFileIDEib = 0x00417400
_ZN2al9SystemKit18createMemorySystemEPN4sead4HeapEmmm = 0x008ccfb0
_ZN2al3SSRC2EPNS_18GraphicsSystemInfoEi = 0x009b9060
_ZN2al3SSRC1EPNS_18GraphicsSystemInfoEi = 0x009b9060
_ZN2al21ActorSensorControllerC1EPNS_9LiveActorEPKc = 0x00840d80
_ZN2al21ActorSensorControllerC2EPNS_9LiveActorEPKc = 0x00840d80
_ZN21ControlUserDataHolder15recoverGameOverEv = 0x0040d8a0
_ZN2al23setSyncRailToNearestPosEPNS_9LiveActorE = 0x0089dca0
_ZN2al19ActorPoseKeeperTRSVC1Ev = 0x0083e750
_ZN2al19ActorPoseKeeperTRSVC2Ev = 0x0083e750
_ZNK2al20CameraResourceHolder20tryFindParamResourceEPNS_9ByamlIterEPKNS_14CameraTicketIdEii = 0x00926ca0
_ZN21DisasterBlockDirector28averageDisasterBlockPositionERN4sead7Vector3IfEEib = 0x0014ecb0
_ZNK2al19CameraPoserParallel26calcMoveLimitValueForMultiEPN4sead7Vector3IfEES4_ = 0x0090bd00
_ZN11BowserSpike6exeDieEv = 0x000c0730
_ZN18BlockStateHeadgear5resetEv = 0x001e3240
_ZN16CourseSelectNode16initAfterConnectERKN2al13ActorInitInfoE = 0x00084e10
_ZN2al23GraphicsParamKeeperImpl13updateRequestEv = 0x008035a0
_ZN13BallStateFallC2EPN2al9LiveActorEPK18BallStateFallParam = 0x001d7bf0
_ZN13BallStateFallC1EPN2al9LiveActorEPK18BallStateFallParam = 0x001d7bf0
_ZN15SuperSkateShoes13tryWallHitEndEv = 0x003cf6b0
_ZN3agl3utl15PrimitiveVertex10initializeEPN4sead4HeapE = 0x0077c9c0
_ZN20PlayerActionLongJump5setupEv = 0x00345290
_ZN2al19MosaicPictureDrawerD2Ev = 0x00994a20
_ZN2al19MosaicPictureDrawerD1Ev = 0x00994a20
_ZN4sead6Worker5proc_Ev = 0x007499b0
_ZN2rc32isMsgJumpPanelActionAndSuperJumpEPKN2al9SensorMsgE = 0x0043b990
_ZN10RaidonSurf27isMsgNpcAttackerHitReactionEPKN2al9SensorMsgE = 0x003c2150
_ZN13LoadingLayout16selectRandomIconEv = 0x00073e90
_ZN10KoopaChase10receiveMsgEPKN2al9SensorMsgEPNS0_9HitSensorES5_ = 0x000240a0
_ZN10SkateShoes8calcAnimEv = 0x003cd370
_ZNK3agl3utl11MultiFilter4drawEPNS_11DrawContextERKNS_11TextureDataE = 0x0078f7e0
_ZN14DemoActionListC1ERKN2al13ActorInitInfoEPKc = 0x0009f8b0
_ZN14DemoActionListC2ERKN2al13ActorInitInfoEPKc = 0x0009f8b0
_ZN17DrcAssistDirector34tryCalcTouchPointerSlideDirOnWorldEPN4sead7Vector3IfEEPKN2al10IUseCameraE = 0x00221ec0
_ZN2al14createInfoListINS_25OceanWavePlayInfoInActionEEEPNS_13AudioInfoListIT_EERKNS_9ByamlIterE = 0x0097f380
_ZN2al15freeTextureInfoEPNS_11TextureInfoE = 0x008b7fb0
_ZN19ProjectItemDirector12useStockItemEii = 0x003e59f0
_ZN2al17ActorCameraTargetC2EPKNS_9LiveActorEfPKN4sead7Vector3IfEE = 0x008f5990
_ZN2al17ActorCameraTargetC1EPKNS_9LiveActorEfPKN4sead7Vector3IfEE = 0x008f5990
_ZN15KillerGenerator18tryStartHostActionEPKc = 0x000e8060
_ZN14AllDeadWatcherC1EPKc = 0x000b1000
_ZN15alSoundNameUtil15isExistItemNameEPKcb = 0x008e38a0
_ZN10Lighthouse17setInkPatchOrNextEv = 0x0027ff70
_ZNK2al15DepthShadowClip14applyClipPlaneEPN3agl3sdw11DepthShadowE = 0x008be430
_ZN4sead16NinJoyNpadDeviceC2EPNS_13ControllerMgrEPNS_4HeapE = 0x0070c330
_ZN4sead16NinJoyNpadDeviceC1EPNS_13ControllerMgrEPNS_4HeapE = 0x0070c330
_ZN8RootTaskC2ERKN4sead16TaskConstructArgE = 0x0041a650
_ZN8RootTaskC1ERKN4sead16TaskConstructArgE = 0x0041a650
_ZN3agl3g3d13ShaderUtilG3D4loadEPNS_11DrawContextERKNS_14ShaderLocationERKN2nn3gfx7TBufferINS8_12ApiVariationINS8_7ApiTypeILi4EEENS8_10ApiVersionILi8EEEEEEEmi = 0x0075ca90
_ZN22TentackStateAttackShot16registerTentacleEP15TentackTentacle = 0x0005dc70
_ZN2al22AudioSituationDirector14startSituationEiPKc = 0x008e03d0
_ZN2al20CameraPoserRailTower8initRailEPKNS_13PlacementInfoE = 0x0090f760
_ZN13SyumockRotateC1EPKc = 0x00123140
_ZN22DisasterModeController25tryStartAnticipationMusicEbb = 0x0020d280
_ZN3agl24TextureDataImageAccessorC2Ev = 0x00765020
_ZN3agl24TextureDataImageAccessorC1Ev = 0x00765020
_ZN6Shards10sharedInitERKN2al13ActorInitInfoE = 0x002b3b70
_ZN18CourseSelectLayout9startDemoEb = 0x0016d770
_ZN10Lighthouse20setExitAngleSettingsEbffffbifi = 0x00282ba0
_ZN20PlayerActionPlayAnim6updateEv = 0x003475e0
_ZN13FlyOverCamera15tryStartFlyOverEv = 0x00070500
_ZN2al36sendMsgEnemyAttackForCrossoverSensorEPNS_9HitSensorES1_ = 0x0084c510
_ZN2al14RotateMapParts4initERKNS_13ActorInitInfoE = 0x00865840
_ZN11RaidonActor4initERKN2al13ActorInitInfoEPKc = 0x003bb9d0
_ZN16PlayerActionFallC2EP22PlayerActionAirMoveArgP13PlayerTriggerP16IUsePlayerHoldedPK19IUsePlayerCheckArea = 0x00322960
_ZN16PlayerActionFallC1EP22PlayerActionAirMoveArgP13PlayerTriggerP16IUsePlayerHoldedPK19IUsePlayerCheckArea = 0x00322960
_ZN2al21turnDirectionToTargetEPKNS_9LiveActorEPN4sead7Vector3IfEERKS5_f = 0x0083d800
_ZN2al26getPrePassPointLightRadiusEPKNS_9LiveActorEPKc = 0x008200c0
_ZN13ShardsWatcher4initERKN2al13ActorInitInfoE = 0x002b5c00
_ZN9KouraGoldC1EPKc = 0x0027a2a0
_ZN3eui22FrameBufferMultiFilter33applyTextureDataToPictureMaterialEPNS_9PictureExEPN2nn4ui2d11TextureInfoEPKN3agl11TextureDataERKNS_10DrawInfoExE = 0x007e6e40
_ZNK2al14CameraPoser_RS20makeLookAtCameraLastEPN4sead12LookAtCameraE = 0x00923400
_ZN2rc50checkAllPlayerBindedOrBubbleAndDisableReviveBubbleEPKN2al9LiveActorEPNS0_9HitSensorE = 0x0042c220
_ZN20PlayerActionObserverC1EPK6PlayerP17PlayerActionGraphP19IUsePlayerCollisionPK22IUsePlayerModelChangerPK19IUsePlayerSubActionPK21IUsePlayerLifeControl = 0x00346940
_ZN20PlayerActionObserverC2EPK6PlayerP17PlayerActionGraphP19IUsePlayerCollisionPK22IUsePlayerModelChangerPK19IUsePlayerSubActionPK21IUsePlayerLifeControl = 0x00346940
_ZN9CoinStack4initERKN2al13ActorInitInfoE = 0x00207440
_ZN2al14LiveActorGroupC1EPKci = 0x008315f0
_ZN2al14LiveActorGroupC2EPKci = 0x008315f0
_ZN9WaterUtil17checkWaterSurfaceEPKN2al11IUseAreaObjEPN4sead7Vector3IfEERKS6_fPKNS0_7AreaObjE = 0x003b6910
_ZN4sead22BufferedSafeStringBaseIDsE7formatVEPKDsSt9__va_list = 0x007269d0
_ZN3agl3sdw15DepthShadowUnitC2Ev = 0x007d5220
_ZN3agl3sdw15DepthShadowUnitC1Ev = 0x007d5220
_ZNK2al23ActorPrePassLightKeeper31setupPrePassProjOrthoLightParamEPNS_12LppProjOrthoE = 0x00820ff0
_ZN21GigaBellBindPuppeteer9startBindEPN2al9HitSensorES2_ = 0x0015bae0
_ZN19KoopaChaseStateDemoC2EPKcPN2al9LiveActorERKNS2_13ActorInitInfoEP18KoopaChaseDemoInfo = 0x00027f10
_ZN19KoopaChaseStateDemoC1EPKcPN2al9LiveActorERKNS2_13ActorInitInfoEP18KoopaChaseDemoInfo = 0x00027f10
_ZN17EchoEmitterHolderC2ERKN2al13ActorInitInfoE = 0x00227db0
_ZN17EchoEmitterHolderC1ERKN2al13ActorInitInfoE = 0x00227db0
_ZN6PlayerC2EP28IUsePlayerActionGraphBuilderP15IUsePlayerInputP23IUsePlayerInputArrangerP18IUsePlayerAnimatorP16IUsePlayerEffectP15IUsePlayerAudioP14IUsePlayerBindP19IUsePlayerCheckAreaP19IUsePlayerCollisionP29IUsePlayerCollisionPartsArrayP22IUsePlayerSnapWallInfoP30IUsePlayerCollisionCheckSphereP34IUsePlayerCollisionCheckSphereMoveP29IUsePlayerCollisionCheckArrowP26IUsePlayerFireBallLauncherST_P16IUsePlayerAttackP16IUsePlayerGetPosP28IUsePlayerBindEndParamGetterP21IUseCollisionPartsMtxP24IUsePlayerWaterFlowFieldP18IUsePlayerReactionPK26IUsePlayerWaterSurfaceInfoP21IUsePlayerStoneStatueP25IUsePlayerHipDropObserverP23IUsePlayerEventReceiverPK20IUsePlayerCharaQueryP16IUsePlayerHoldedPK23IUsePlayerWallClimbInfoPK14IUsePlayerFlagS1P_S1P_S1P_P24IUsePlayerWallClimbInputPK16IUsePlayerPushedPK26IUsePlayerDoubleMarioSpeedPK26IUsePlayerDoubleMarioCheckP23IUsePlayerSensorControlS1P_S1P_P21IUsePlayerFlagControlPK25IUsePlayerMoveSpeedScalerS1P_S1P_PKSW_PK23IUsePlayerClimbJumpInfoPK16PlayerConstParambP11PlayerActor = 0x00318940
_ZN6PlayerC1EP28IUsePlayerActionGraphBuilderP15IUsePlayerInputP23IUsePlayerInputArrangerP18IUsePlayerAnimatorP16IUsePlayerEffectP15IUsePlayerAudioP14IUsePlayerBindP19IUsePlayerCheckAreaP19IUsePlayerCollisionP29IUsePlayerCollisionPartsArrayP22IUsePlayerSnapWallInfoP30IUsePlayerCollisionCheckSphereP34IUsePlayerCollisionCheckSphereMoveP29IUsePlayerCollisionCheckArrowP26IUsePlayerFireBallLauncherST_P16IUsePlayerAttackP16IUsePlayerGetPosP28IUsePlayerBindEndParamGetterP21IUseCollisionPartsMtxP24IUsePlayerWaterFlowFieldP18IUsePlayerReactionPK26IUsePlayerWaterSurfaceInfoP21IUsePlayerStoneStatueP25IUsePlayerHipDropObserverP23IUsePlayerEventReceiverPK20IUsePlayerCharaQueryP16IUsePlayerHoldedPK23IUsePlayerWallClimbInfoPK14IUsePlayerFlagS1P_S1P_S1P_P24IUsePlayerWallClimbInputPK16IUsePlayerPushedPK26IUsePlayerDoubleMarioSpeedPK26IUsePlayerDoubleMarioCheckP23IUsePlayerSensorControlS1P_S1P_P21IUsePlayerFlagControlPK25IUsePlayerMoveSpeedScalerS1P_S1P_PKSW_PK23IUsePlayerClimbJumpInfoPK16PlayerConstParambP11PlayerActor = 0x00318940
_ZN2al16DepthShadowParamaSERKS0_ = 0x008bd700
_ZN2al17initLayoutMessageEPNS_12LayoutKeeperERKNS_14LayoutInitInfoEPKNS_8ResourceE = 0x0096fe70
_ZNK2al20ByamlStringTableIter15findStringIndexEPKc = 0x008ce720
_ZN11SuperBowserC1EPKc = 0x00039c20
_ZN16SuperBowserShell19syncToDisasterTimerEv = 0x000551d0
_ZNK10OceanWater15drawReflectionsEv = 0x00295210
_ZN2al22getLinksActorClassNameERKNS_13ActorInitInfoEPKci = 0x00838bb0
_ZN8Donketsu31trySendMsgDonketsuAttackCollideEv = 0x000cde50
_ZN2al15AreaObjDirector9placementEPKNS_12AreaInitInfoEiPKNS_14SceneObjHolderEPNS_5SceneE = 0x008d9dd0
_ZN2al13RequestInterpINS_8HdrParamEE12requestParamEiiRKS1_ = 0x00896cd0
_ZN9DashPanel12attackSensorEPN2al9HitSensorES2_ = 0x0020b210
_ZN12GuideBalloonC1EPKcRKN2al14LayoutInitInfoEPKN4sead7Vector3IfEERS9_bPNS2_12DemoDirectorE = 0x00170620
_ZN15TuccondorAround7controlEv = 0x0012ed60
_ZN17KoopaLastFunction16receiveMsgCommonEPKN2al9SensorMsgEPNS0_9HitSensorES5_ = 0x0002fb80
_ZNK2al23ActorPrePassLightKeeper13findUserColorEPKc = 0x00822060
_ZN10PipePackunC1EPKc = 0x0010b920
_ZN8GigaBell16deactivateCameraEv = 0x00239440
_ZN20DarkBowserShellSpikeC1EP10DarkBowserRKN2al13ActorInitInfoE = 0x0001e9e0
_ZN20DarkBowserShellSpikeC2EP10DarkBowserRKN2al13ActorInitInfoE = 0x0001e9e0
_ZN2al9LiveActor12initColliderEffj = 0x0085ce90
_ZN2al7BgmLine16stopAllBgmPlayerEi = 0x008ea6b0
_ZN9JumpPanel12attackSensorEPN2al9HitSensorES2_ = 0x00265900
_ZN4neko26isMsgMeraWanwanTrackAttackEPK17IUseNekoModeActorPKN2al9SensorMsgEPKNS3_9HitSensorES9_ = 0x002fc1d0
_ZN2al13ClockMapParts10receiveMsgEPKNS_9SensorMsgEPNS_9HitSensorES5_ = 0x0085e650
_ZN15screenfilterCpu14CheckKidoFlashEPj = 0x001cac40
_ZN21CourseSelectPuppeteer13setupJumpExitEPKN2al9LiveActorEf = 0x0008c740
_ZN3agl3pfx5Bloom3MRT4freeEPNS_3utl19DynamicTextureCacheE = 0x007a4e80
_ZN2al5Scene8movementEv = 0x008a41d0
_ZN23ActorStateSupportStrokeC2EPN2al9LiveActorE = 0x002f6530
_ZN23ActorStateSupportStrokeC1EPN2al9LiveActorE = 0x002f6530
_ZN3agl3utl14PrimitiveShape22setupVtxBufferCylinderEPNS_12VertexBufferENS_10GPUMemAddrINS1_6VertexEEEjj = 0x00779ed0
_ZN11DemoObjBaseC2EPKc = 0x000a29f0
_ZN2rc5Stamp7exeHeldEv = 0x002be920
_ZN2al27GraphicsObjShadowMaskSphereC1EPKc = 0x00254c50
_ZN8GoalItem13appearCollectEb = 0x002429b0
_ZN4sead4Heap9destruct_Ev = 0x00721610
_ZN10ItemBubble9initActorERKN2al13ActorInitInfoEPKc = 0x0025dd40
_ZN4sead11XmlDocument23writeXmlInstanceAsText_EPNS_11WriteStreamEPNS_10XmlElementEijPNS_4HeapE = 0x00741210
_ZN24PuppetStickRouteSelecterC2Ei = 0x002a8040
_ZN24PuppetStickRouteSelecterC1Ei = 0x002a8040
_ZN10LavaGeyser15calcEffectTransEv = 0x0027c240
_ZNK2al12MtxConnector15calcConnectInfoEPN4sead7Vector3IfEEPNS1_4QuatIfEES4_RKS3_S9_ = 0x007ff720
_ZN21SingleModeSceneLayout18setDisableAreaNameEb = 0x00199770
_ZN2al22GraphicsStressDirector13setSingleModeEb = 0x008023e0
_ZN2rc32appearGuideGameWindowWithConfirmEPKN2al18IUseSceneObjHolderEPKcb = 0x001726a0
_ZN20PlayerWallClimbInputC1EPK15IUsePlayerInputPK22IUsePlayerSnapWallInfoPK16PlayerConstParam = 0x003b4cf0
_ZN20PlayerWallClimbInputC2EPK15IUsePlayerInputPK22IUsePlayerSnapWallInfoPK16PlayerConstParam = 0x003b4cf0
_ZN2al18tryInitStageSwitchEPNS_15IUseStageSwitchEPNS_19StageSwitchDirectorERKNS_13PlacementInfoE = 0x008cc1d0
_ZN2al9LiveActor9endFarLodEv = 0x0085cad0
_ZN2al23updateMaterialCodeWaterEPNS_9LiveActorE = 0x0083a190
_ZN2al22validateCollisionPartsEPNS_9LiveActorE = 0x0093cfa0
_ZN9DashPanel15initNoPlacementERKN2al13ActorInitInfoE = 0x0020b110
_ZN11TentackRockC1EPKc = 0x0005d360
_ZN2al15CameraPoserAnim17setAnimAndBaseMtxEPKcPKN4sead8Matrix34IfEE = 0x00905bc0
_ZN14CheckpointFlag10receiveMsgEPKN2al9SensorMsgEPNS0_9HitSensorES5_ = 0x001f4910
_ZN18CourseSelectLayout10startPauseEv = 0x0016d860
_ZN2al17ModelShaderAssign4bindEPKN2nn3g3d11ResMaterialEPKNS2_8ResShapeEPKNS2_15ResShadingModelEPKNS2_16ResShaderProgramE = 0x0097cd30
_ZN2al14CameraSwitcher32tryStartCameraFromPoolCameraListEv = 0x00913b00
_ZN21SuperBowserLaserState15tryDamagePlayerEPN2al9HitSensorES2_ = 0x0004cb20
_ZN2al15TextureReplacer5setupEPKN3agl11TextureDataE = 0x009b9a90
_ZN11TentackHead16cancelDemoAppearEv = 0x00058960
_ZN2al9LiveActor12startClippedEv = 0x0085c3c0
_ZN11SuperBowser11getJumpTimeEv = 0x00043390
_ZN12CoinRailCoinC1EPKciiff = 0x00205070
_ZN2al17CameraDirector_RSC1Ei = 0x00919920
_ZN2al17CameraDirector_RSC2Ei = 0x00919920
_ZN4sead9HashCRC1619calcHashWithContextEPNS0_7ContextEPKvj = 0x0073e1a0
_ZN15InkPatchSpecial22isLastUnlockerInkPatchEP8InkPatch = 0x0015cf10
_ZN2rc9IUseTimer19isPlayerNotInBoundsEPN2al9LiveActorEb = 0x002646f0
_ZN2rc46tryCalcTouchPointerSlideSpeedOnScreenByPointerEPKN2al9LiveActorE = 0x00223250
_ZN2al32initActorModelKeeperWithInitFileEPNS_9LiveActorERKNS_13ActorInitInfoERKNS_9ByamlIterEPKciS9_S9_ = 0x00836160
_ZN10CourseInfo17setClearCharacterEi = 0x0040e630
_ZN20GameDataFlagFunction34isEnableShowCourseSelectRocketRockE22GameDataHolderAccessor = 0x00414f30
_ZN2al15SceneHeapSetterC1Ev = 0x00872960
_ZN2al15SceneHeapSetterC2Ev = 0x00872960
_ZN12GameDataFile21read3DWorldFromStreamEPN4sead10ReadStreamE = 0x00412b00
_ZN3eui32SetupAglTextureDataByTextureInfoEPN3agl11TextureDataERKN2nn4ui2d11TextureInfoE = 0x007e1060
_ZN2al13BgmLineKeeper14stopAllBgmLineEi = 0x008edab0
_ZN2rc21isPlayerChangeDemoAnyEPKN2al12PlayerHolderE = 0x0042dd80
_ZN4Bull23trySendMsgAttackCollideEv = 0x000c5270
_ZN2al15KeyMoveMapParts4stopEv = 0x00862780
_ZN20FlyerStateReturnAreaC2EPN2al9LiveActorEPN4sead7Vector3IfEERKS5_PK15FlyerStateParamPK25FlyerStateReturnAreaParam = 0x000d57a0
_ZN20FlyerStateReturnAreaC1EPN2al9LiveActorEPN4sead7Vector3IfEERKS5_PK15FlyerStateParamPK25FlyerStateReturnAreaParam = 0x000d57a0
_ZN15alCollisionUtil25getHitPosAndNormalOnArrowEPKN2al13IUseCollisionEPN4sead7Vector3IfEES7_RKS6_S9_PKNS0_24CollisionPartsFilterBaseEPKNS0_18TriangleFilterBaseE = 0x0093e530
_ZN19RaidonRideAnimState16updateMoveEffectEv = 0x003bdbe0
_ZN3agl3utl14IParameterList23applyResParameterListB_EbNS0_16ResParameterListEf = 0x0078dda0
_ZN18KouraBindPuppeteer19endKouraBindWallHitERKN4sead7Vector3IfEE = 0x00279350
_ZN9BoxKuribo11appearPopUpERKN4sead7Vector3IfEE = 0x001ea960
_ZN16PackunFlowerHead5startEv = 0x001058e0
_ZN2al12stopSeByNameEPKNS_15IUseAudioKeeperERKN4sead14SafeStringBaseIcEE = 0x009b4ec0
_ZNK3agl11DisplayList10callDirectEPNS_11DrawContextE = 0x0075d540
_ZN15WalkerStateFallC2EPN2al9LiveActorEPK16WalkerStateParam = 0x001336c0
_ZN15WalkerStateFallC1EPN2al9LiveActorEPK16WalkerStateParam = 0x001336c0
_ZN14PlayerCollider21keepOutRestrictedAreaEv = 0x003800e0
_ZN22FloatingIslandRailPart4initERKN2al13ActorInitInfoE = 0x00159560
_ZN2al19CameraPoserParallel17updateMultiCameraEv = 0x00908f40
_ZN4Bush15exeReactionFireEv = 0x001eec40
_ZN2al16calcLinkChildNumERKNS_13PlacementInfoEPKc = 0x0088beb0
_ZN6Vessel8Emulator7Virtual11PlatformHvc7CHvcSpu7_SQdMfm9SerializeERN6Common9Serialize12LittleEndianE = 0x001c52b0
_ZNK2al19AnimScaleController13isHitReactionEi = 0x0087e2d0
_ZN2al19calcKeyMoveMoveTimeEPKNS_13KeyPoseKeeperE = 0x0081a8c0
_ZN2al13ActionBgmCtrl24tryPrepareActionFirstBgmEPKNS_13BgmActionInfoEbi = 0x008d2bd0
_ZN2rc14isPlayerBubbleEPKN2al9LiveActorE = 0x0042b9c0
_ZN3agl3utl12DebugTextureD2Ev = 0x00768200
_ZN3agl3utl12DebugTextureD1Ev = 0x00768200
_ZN13BoomerangBrosC1EPKc = 0x000b7730
_ZN13TractorBubble12updateShadowEv = 0x002cfef0
_ZN2al19EffectLightDirectorC1Ev = 0x00967530
_ZN2al19EffectLightDirectorC2Ev = 0x00967530
_ZN12GeneratorBox11exeReactionEv = 0x00236140
_ZNK3agl3pfx12AutoExposure17drawHistogramCalcEPNS_11DrawContextEiRKNS_12RenderBufferEPKNS_11TextureDataE = 0x007bace0
_ZN2al19ActorPoseKeeperTQSV16updatePoseRotateERKN4sead7Vector3IfEE = 0x0083f2a0
_ZN17PlayerClimbAttackC2EP18IUsePlayerAnimatorPK15IUsePlayerInputPK16PlayerConstParamPK19IUsePlayerCollisionP23IUsePlayerEventReceiverPK20PlayerFigureDirectorPK18PlayerGigaDirector = 0x0037ca00
_ZN17PlayerClimbAttackC1EP18IUsePlayerAnimatorPK15IUsePlayerInputPK16PlayerConstParamPK19IUsePlayerCollisionP23IUsePlayerEventReceiverPK20PlayerFigureDirectorPK18PlayerGigaDirector = 0x0037ca00
_ZN13KoopaFireBall13exeExtinguishEv = 0x0026e1d0
_ZN19KoopaChaseStateFire12exeFireStartEv = 0x00029050
_ZN11BossGorobon11chasePlayerEv = 0x00004fd0
_ZN2al15GameFrameworkNx10procFrame_Ev = 0x0096bd30
_ZNK16PlayerEntryParts9isDecidedEv = 0x00189030
_ZN3eui7FontMgr11setRubyFontERKN4sead14SafeStringBaseIcEE = 0x007e8c20
_ZN2al9SeRequest14updateSeSourceEv = 0x009af780
_ZN20PlayerThrowBoomerangC1EP18IUsePlayerAnimatorPK15IUsePlayerInputP26IUsePlayerFireBallLauncherPK20PlayerFigureDirectorPK22IUsePlayerCeilingCheckP16IUsePlayerEffectP15IUsePlayerAudioP11PlayerActor = 0x003b4020
_ZN20PlayerThrowBoomerangC2EP18IUsePlayerAnimatorPK15IUsePlayerInputP26IUsePlayerFireBallLauncherPK20PlayerFigureDirectorPK22IUsePlayerCeilingCheckP16IUsePlayerEffectP15IUsePlayerAudioP11PlayerActor = 0x003b4020
_ZN2al12JointRumblerC1EPKNS_9LiveActorEPKcffii = 0x00819100
_ZN2al12JointRumblerC2EPKNS_9LiveActorEPKcffii = 0x00819100
_ZN5March12startScatterERKN4sead7Vector3IfEE = 0x000f9280
_ZN2al14NpadController11gatherInputEv = 0x0094ce60
_ZN4sead15AudioFxDelayNin8SetParamERKNS_20AudioFxDelayParamNinE = 0x007526f0
_ZN22SingleModeDataFunction20allScenariosCompleteE22GameDataHolderAccessori = 0x0041f570
_ZN2al28SupportFreezeSyncGroupHolderC1Ev = 0x00866e20
_ZN2al21EffectShaderHolderNew14customFieldCpuEPN2nn4util4neon12Vector3fTypeES5_PfS6_PNS1_3vfx7EmitterEPKNS7_6detail16ParticlePropertyEPKNSA_14ResFieldCustomEi = 0x009684a0
_ZN13PlayerKoopaJr19checkTargetOnScreenEPKN4sead7Vector3IfEE = 0x0039bac0
_ZN17TentackRockFallerC1EPKcP11TentackHead = 0x0005d920
_ZN14DemoSceneActorC2EPKcP20DemoSceneActorHolder = 0x000a44a0
_ZN3agl17ShaderProgramEdit13updateRawTextEv = 0x0078b090
_ZNK2al9AreaShape12calcWorldPosEPN4sead7Vector3IfEERKS3_ = 0x008dc330
_ZN22PlayerBigBgmControllerC1EPN2al13AudioDirectorE = 0x00001820
_ZN22PlayerBigBgmControllerC2EPN2al13AudioDirectorE = 0x00001820
_ZN21DisasterSpikeDirector18updateLaunchSpikesEv = 0x00153050
_ZN2al8ResourceC1ERKN4sead14SafeStringBaseIcEEPNS1_10ArchiveResE = 0x0089f050
_ZN2al8ResourceC2ERKN4sead14SafeStringBaseIcEEPNS1_10ArchiveResE = 0x0089f050
_ZN4sead16TextStreamFormat13writeMemBlockEPNS_9StreamSrcEPKvj = 0x00733720
_ZN4sead19AudioFxReverbStdNin8SetParamERKNS_24AudioFxReverbStdParamNinE = 0x00754eb0
_ZN2al21JointLocalAxisRotatorC1EPfRKN4sead7Vector3IfEEb = 0x008171f0
_ZN2al21JointLocalAxisRotatorC2EPfRKN4sead7Vector3IfEEb = 0x008171f0
_ZN2al31setAdditionalCameraLookAtPosPtrEPKNS_10IUseCameraEPNS_9LiveActorEPKN4sead7Vector3IfEE = 0x00915230
_ZN2al22createReplayControllerEj = 0x0094e300
_ZN17CloudBonusWatcherC2Ev = 0x0014cb70
_ZN17CloudBonusWatcherC1Ev = 0x0014cb70
_ZN12GigaBellItemC1EPKc = 0x0015bc80
_ZNK2al14CollisionParts16checkStrikePointEPNS_7HitInfoERKN4sead7Vector3IfEEPKNS_18TriangleFilterBaseE = 0x00938370
_ZN22DisasterModeController15updateLightningEv = 0x002117e0
_ZN22DisasterModeController35needToPlayFirstDisasterModeCutsceneEv = 0x0020d9c0
_ZN2al30createAndStartInitializeThreadEPN4sead4HeapEiRKNS_11FunctorBaseE = 0x008cd640
_ZN13NokonokoNaked18isReceivableAttackEv = 0x000ff5a0
_ZN24ActorJointLookController22setLookAtNearestPlayerEf = 0x000afdb0
_ZN2al14SimpleModelG3D12initResourceEPNS_8ResourceEiPN4sead4HeapEPNS_15GpuMemAllocatorE = 0x0087cf80
_ZN18PlayerGigaDirector5startEPKN2al9LiveActorEbb = 0x00394840
_ZN2al27ClippingAreaActorViewHolder20moveToClippingSystemEPNS_9LiveActorE = 0x009305f0
_ZN2al15ExecuteDirector23createExecutorListTableEv = 0x008090b0
_ZN2al37makeLocalizedArchivePathByCountryCodeEPN4sead22BufferedSafeStringBaseIcEERKNS0_14SafeStringBaseIcEE = 0x0080f4d0
_ZN15PlayerEntryItem13startEntryEndEv = 0x00184180
_ZN2al17isHalfProbabilityEv = 0x0086b6d0
_ZN2rc33setExplosionComboCounterNextIndexEPKN2al9LiveActorE = 0x002298d0
_ZNK2al17SimpleCameraInput14calcInputStickEPN4sead7Vector2IfEE = 0x0092c1e0
_ZN2al13createAreaObjERKNS_13ActorInitInfoEPKc = 0x008db720
_ZN2al36tryGetPlacementInfoAndKeyNameByIndexEPNS_13PlacementInfoEPPKcRKS0_i = 0x0088b460
_ZN2al14CollisionParts9initPartsERKN4sead8Matrix34IfEE = 0x00937a20
_ZN2al14calcNerveValueEPKNS_9IUseNerveEiff = 0x00880fe0
_ZN2al17tryOffStageSwitchEPNS_15IUseStageSwitchEPKc = 0x008cc470
_ZN2al13LppPointParam10initByInfoERKNS_13ActorInitInfoE = 0x00823580
_ZN16DarkBowserDamageC1EP10DarkBowserRKN2al13ActorInitInfoE = 0x00018dc0
_ZN16DarkBowserDamageC2EP10DarkBowserRKN2al13ActorInitInfoE = 0x00018dc0
_ZN2al22LightIntensityDirector14updateExposureEv = 0x0081f730
_ZN2al24CameraTargetAreaLimitter9tryCreateERKNS_13PlacementInfoE = 0x009289b0
_ZN3agl6detail15TextureDataUtil20convFormatNNGfxToAGLEN2nn3gfx11ImageFormatE = 0x0078eae0
_ZNK3agl3sdw11LightMatrix14calcLightSpaceEPN4sead8Matrix34IfEEPNS2_8Matrix44IfEERKNS2_7Vector3IfEE = 0x007d50c0
_ZN2al18tryNormalizeOrDirZEPN4sead7Vector3IfEE = 0x0086a7d0
_ZN2rc14getCoinRotateYEPKN2al9LiveActorE = 0x002072e0
_ZN14PlayerAnimFunc20convertToRegularNameEPN4sead22BufferedSafeStringBaseIcEEP11PlayerModelRKNS0_14SafeStringBaseIcEE = 0x00376810
_ZN15RaidonPuppeteer9exeGetOffEv = 0x003bd230
_ZN3agl3pfx12AutoExposure10initializeEiPN4sead4HeapE = 0x007ba670
_ZN2al12ShadowKeeper4showEv = 0x008c1b50
_ZN2al16InitializeThreadC1ERKN4sead14SafeStringBaseIcEERKNS_11FunctorBaseEPNS1_4HeapEii = 0x008cd6d0
_ZN2al16InitializeThreadC2ERKN4sead14SafeStringBaseIcEERKNS_11FunctorBaseEPNS1_4HeapEii = 0x008cd6d0
_ZN2al16moveSyncRailTurnEPNS_9LiveActorEf = 0x0089e430
_ZN16BossBunretsuCore10receiveMsgEPKN2al9SensorMsgEPNS0_9HitSensorES5_ = 0x000bdaf0
_ZN3eui9AlignPane16doAlignVertical_Ev = 0x007fb7e0
_ZNK2al15AreaObjDirector15getAreaObjGroupEPKc = 0x008da360
_ZN11alModelCafe20createFromOtherModelEPS_ = 0x00874040
_ZN6Vessel8Emulator7Virtual11PlatformHvc7CHvcSpu14_SerializeCoreEPvb = 0x001c75e0
_ZNK8GoalPole24findUnderHeightPuppeteerEi = 0x0024c210
_ZN4sead15SharcArchiveResC2Ev = 0x00746750
_ZN4sead15SharcArchiveResC1Ev = 0x00746750
_ZN2al6isNearERKN4sead7Vector2IfEES4_f = 0x00869de0
_ZN2al22setVelocityToDirectionEPNS_9LiveActorERKN4sead7Vector3IfEEf = 0x0083bd00
_ZN25PlayerActionRollingAttack5setupEv = 0x0034aa10
_ZNK4sead6Camera15projectByMatrixEPNS_7Vector2IfEERKNS_7Vector3IfEERKNS_10ProjectionERKNS_8ViewportE = 0x00736480
_ZN13ItemStockTray9startDemoEv = 0x00143800
_ZN16CourseSelectFlag18startWaitClearDemoEv = 0x00080100
_ZN13FallingPillar4initERKN2al13ActorInitInfoE = 0x00158bd0
_ZN22BunbunStateShellAttack9exeAttackEv = 0x0000ea80
_ZN6KameckC1EPKc = 0x000e3c70
_ZN18PlayerWallJumpInfoC2Ev = 0x003b5780
_ZN18PlayerWallJumpInfoC1Ev = 0x003b5780
_ZN2rc20isPlayerOnSkateShoesEPKN2al9LiveActorE = 0x0042d2f0
_ZNSt3__127__insertion_sort_incompleteIRN2nn3vfx6detail26SortCompareLessIndexStableINS3_8SortDataEEEPS5_EEbT0_S9_T_ = 0x006e8990
_ZN4sead15PrimitiveDrawerC1EPNS_11DrawContextE = 0x0071c770
_ZN4sead15PrimitiveDrawerC2EPNS_11DrawContextE = 0x0071c770
_ZN2rc22getActiveInputPortListE22GameDataHolderAccessor = 0x00425aa0
_ZN15NpcTargetFinder6updateEv = 0x00310a30
_ZN2al13getActionNameEPKNS_9LiveActorE = 0x00832d10
_ZN3agl6detail14ShaderTextUtil13createRawTextERKN4sead14SafeStringBaseIcEEPKPKcSA_iPbPNS2_4HeapE = 0x0078e030
_ZN17BoxKillerLauncher7controlEv = 0x000c1290
_ZN21SuperBowserLaserState10lockTargetEv = 0x0004bcd0
_ZN17LuckyIslandHolder20queueLuckyIslandDemoEv = 0x00287350
_ZN19RaidonSurfWaitState16setReactionNerveEi = 0x003cb9c0
_ZN2al14GyroCameraCtrl5resetERKN4sead7Vector3IfEES5_S5_ = 0x0092bbc0
_ZNK3agl11TextureData9copyToAllEPNS_11DrawContextEPKS0_ = 0x00763ac0
_ZN2al13FileEntryBase12waitLoadDoneEv = 0x0080fe10
_ZN11ShadowMario21receiveMsgScreenPointEPKN2al9SensorMsgEPNS0_13ScreenPointerEPNS0_17ScreenPointTargetE = 0x0013ac40
_ZN2al17EffectGroupDrawerC1EPNS_12EffectSystemEPKcibbb = 0x00966750
_ZN2al17EffectGroupDrawerC2EPNS_12EffectSystemEPKcibbb = 0x00966750
_ZN2rc25getActiveControlUserFirstE22GameDataHolderAccessor = 0x00425ce0
_ZN18MapOceanShineParts11updateScaleERKN4sead7Vector2IfEE = 0x00074ce0
_ZN2al15searchSubStringEPKcS1_ = 0x008e4390
_ZN2al7AreaObjC2EPKc = 0x008d95d0
_ZNK2al18EffectCameraHolder25calcScreenPosFromWorldPosEPN4sead7Vector2IfEERKNS1_7Vector3IfEE = 0x0095f3d0
_ZN2al14initAnimCameraEPKNS_10IUseCameraERKNS_13ActorInitInfoEPKNS_8ResourceEPKcb = 0x009146a0
_ZN2rc19initItemForRingItemEPN2al9LiveActorERKNS0_13ActorInitInfoE = 0x00428ba0
_ZN2rc43tryCalcTouchPointerSlideDirOnWorldByPointerEPN4sead7Vector3IfEEPKN2al9LiveActorE = 0x002231b0
_ZN4sead10XmlElementD2Ev = 0x0073e700
_ZN4sead10XmlElementD1Ev = 0x0073e700
_ZN15FloatingTerrain7exeHideEv = 0x0015a020
_ZN2al5Scene7endInitERKNS_13ActorInitInfoEPNS_24IScenarioCompleteCheckerE = 0x008a47b0
_ZN17ShadowMarioPlayer10endClippedEv = 0x0013bdd0
_ZN11SuperBowser16updateJointStateEv = 0x0003f550
_ZN10StageTimer15tryStartHurryUpEv = 0x0019c420
_ZN3eui8LayoutEx20disableLoopAnimator_Eb = 0x007edec0
_ZN2al21calcPosBetweenSensorsEPN4sead7Vector3IfEEPKNS_9HitSensorES6_f = 0x00841710
_ZN11SuperBowser19trySetupLocationHopEv = 0x0003e2d0
_ZN2al19NfpControllerThreadD1Ev = 0x0097d3a0
_ZN2al19NfpControllerThreadD2Ev = 0x0097d3a0
_ZN16CourseSelectFlag9startShowEv = 0x00080020
_ZNK9BoxKiller18isEqualCarryPlayerEPKN2al9HitSensorE = 0x001e90f0
_ZN10TentackLv320updateHeadSinkCursorEv = 0x0005ad60
_ZN4sead17PrimitiveDrawUtil13setCubeVertexEPNS0_6VertexEPt = 0x0071cb10
_ZN29PlayerInvincibleBgmControllerC1EPN2al13AudioDirectorE = 0x000019f0
_ZN29PlayerInvincibleBgmControllerC2EPN2al13AudioDirectorE = 0x000019f0
_ZN2al14ModelDrawPartsC1EPKcPKNS_9LiveActorERKNS_13ActorInitInfoES2_ = 0x00885350
_ZN16GameDataFunction18calcOpenWorldIdMaxE22GameDataHolderAccessor = 0x00416310
_ZN2rc20initPlayerFigureTypeEPN2al9LiveActorEjb = 0x0042f2a0
_ZN2al18changeBgmSituationEPKNS_15IUseAudioKeeperEPKc = 0x008f0070
_ZN2rc18isPlayerEnableBindEPN2al9HitSensorEPKS1_ = 0x00430d90
_ZN2al24tryOffStageSwitchInstantEPNS_15IUseStageSwitchEPKc = 0x008cc5e0
_ZN6Vessel8Emulator7Virtual11PlatformHvc7CHvcCpu17_ResolveParameterERmS4_S4_PKNS3_14_S6502MnemonicEPNS3_14_S6502RegisterE = 0x001b0de0
_ZN2al22isShakePadAccelerationEfii = 0x0094b880
_ZN2al14tryGetByamlF32EPfRKNS_9ByamlIterEPKc = 0x008cedb0
_ZN16TeresaFakeObject4initERKN2al13ActorInitInfoE = 0x002c7910
_ZN11ClimbHandle6exeTopEv = 0x001f8550
_ZN17TreeBindPuppeteer14isGiantAtClimbEv = 0x002db230
_ZN2al27ClippingAreaActorViewHolder23finishInitActorClippingEPNS_9LiveActorERKNS_13ActorInitInfoEPNS_25ClippingAreaActorInfoNodeE = 0x00930340
_ZN14SingleModeData22clearAllCheckpointPassEv = 0x0041d000
_ZN3eui12TagProcessor10preProcessEPDsPjS2_jPKDsjijRKNS0_16PreProcessOptionEPv = 0x007ea810
_ZN2al14CameraFunction22isInCollisionCameraPosEPKNS_13IUseCollisionEPKNS_11IUseAreaObjERKN4sead12LookAtCameraEff = 0x00903f70
_ZN21DisasterSpikeDirector9isAllFallEv = 0x00152b90
_ZN24ControllerConnectCheckerC1EP14GameDataHolderPKN2al26ApplicationMessageReceiverEPNS2_13GamePadSystemE = 0x00424a00
_ZN24ControllerConnectCheckerC2EP14GameDataHolderPKN2al26ApplicationMessageReceiverEPNS2_13GamePadSystemE = 0x00424a00
_ZN11PlayerActor9knockDownEPN2al9HitSensorES2_ = 0x00364650
_ZN2al14ShadowDirector17initStageResourceEPKNS_8ResourceEPKc = 0x008bf7a0
_Z24OldPlayerDemoAdjustSpeedf = 0x003f7f00
_ZNK3agl3pfx12DepthOfField12drawCompose_EPNS_11DrawContextERKNS1_7DrawArgE = 0x007b8030
_ZN8GoalPoleC1EPKc = 0x00249950
_ZN15BoxKillerBullet9startFlyHEifb = 0x001ea2f0
_ZN15RouteDokanRider8exeStartEv = 0x002b1e80
_ZN22DisasterModeController26checkNoDisasterIslandAreasEv = 0x0020e240
_ZN10KoopaChase13stopEffectAllEv = 0x00023bc0
_ZN3agl15VertexAttribute6createEjPN4sead4HeapE = 0x007669b0
_ZN14PunpunShuriken10receiveMsgEPKN2al9SensorMsgEPNS0_9HitSensorES5_ = 0x00039810
_ZN2al25CameraPoserKinopioBrigadeC1EPKNS_11PlacementIdEPKbS5_PNS_15IUseAudioKeeperEPNS_13PlayerWatcherE = 0x009071d0
_ZN2al25CameraPoserKinopioBrigadeC2EPKNS_11PlacementIdEPKbS5_PNS_15IUseAudioKeeperEPNS_13PlayerWatcherE = 0x009071d0
_ZN14GameDataHolderC1EPN2al13NetworkSystemE = 0x00417190
_ZN14GameDataHolderC2EPN2al13NetworkSystemE = 0x00417190
_ZNK3agl12VertexBuffer13flushCPUCacheEjm = 0x00767340
_ZN21alAudioSystemFunction11pauseSystemEPKN2al13AudioDirectorEPKNS0_15IUseAudioKeeperEbj = 0x008e29a0
_ZN2rc21calcRawLayoutTouchPosEPN4sead7Vector2IfEEi = 0x004273d0
_ZNK6Runner11isGroundingEv = 0x00112c40
_ZN2al15EffectMtxSetter9setMtxPtrEPKN4sead8Matrix34IfEEPKc = 0x00860650
_ZN3agl3sdw9ShadowMap10initializeERKNS1_9CreateArgEPN4sead4HeapE = 0x007db9b0
_ZNK2al19FullScreenQuadModel8drawQuadEv = 0x008ace00
_ZN2al21ClippingAreaActorInfo9updateLodEPNS_27ClippingAreaActorViewHolderE = 0x0092e670
_ZN3agl13ShaderProgram22destroyLocationBuffersEv = 0x00760670
_ZN15ActorMicRumbler12stopAndResetEv = 0x000b0080
_ZN10RaidonSurf18updateFollowCameraEv = 0x003bf7a0
_ZN2al14restartKeyPoseEPNS_13KeyPoseKeeperEPN4sead7Vector3IfEEPNS2_4QuatIfEE = 0x0081a360
_ZN15RaidonPuppeteer13exeGetOffSurfEv = 0x003bd330
_ZN16GameDataFileBase18getTotalPlayTimePREb = 0x004135e0
_ZN4sead22BufferedSafeStringBaseIcE7formatVEPKcSt9__va_list = 0x00726970
_ZN2al16destroySceneHeapEb = 0x008727d0
_ZN2al20AudioEventControllerC2EPKNS_13AudioDirectorEPKc = 0x008de190
_ZN2al20AudioEventControllerC1EPKNS_13AudioDirectorEPKc = 0x008de190
_ZN21BunbunStateSpinAttack13exeAttackSignEv = 0x0000f490
_ZNK2al14CameraPoser_RS20makeLookAtCameraPostEPN4sead12LookAtCameraE = 0x009233b0
_ZN3eui10AnimButton15SelectStateAnimEi = 0x007f4530
_ZN2rc28findPlayerActorFirstByUserIdEPKN2al12PlayerHolderEi = 0x00432930
_ZN8CoinLineC1EPKc = 0x00203e40
_ZN7Lantern13tryStartSwingEiRKN4sead7Vector3IfEE = 0x0027af10
_ZN2al14RotateMapParts9exeRotateEv = 0x00865c30
_ZNK3agl4lght12LightPrePass13PointLightMgr9drawImpl_EPNS_11DrawContextERKNS1_10PointLightEiRKNS1_7ContextERNS1_11CallbackArgE = 0x007a8060
_ZN3agl4perf17GPUTimeStampArray11allocBufferEiPN4sead4HeapE = 0x00796460
_ZN4sead18AudioFxReverbHiNinC2Ev = 0x00752fa0
_ZN4sead18AudioFxReverbHiNinC1Ev = 0x00752fa0
_ZN4sead12LookAtCameraC1ERKNS_7Vector3IfEES4_S4_ = 0x00736520
_ZN4sead12LookAtCameraC2ERKNS_7Vector3IfEES4_S4_ = 0x00736520
_ZN2al17BlockRailDirectorC1Ev = 0x008f2650
_ZN2al17BlockRailDirectorC2Ev = 0x008f2650
_ZN13PlayerKoopaJr12initDynamicsEi = 0x00399c80
_ZN2al29CameraTargetCollideInfoHolderC2Ev = 0x00928cd0
_ZN2al29CameraTargetCollideInfoHolderC1Ev = 0x00928cd0
_ZN17PlayerActionGraph10checkShiftEv = 0x0032cf50
_ZN10DarkBowser13requestDamageEi = 0x00012ae0
_ZN18CounterPlayerParts16initShowMissDataEPK22GameDataHolderAccessor = 0x001699c0
_ZN17BallStateFunction25setColliderReturnedSlowlyEPN2al9LiveActorEii = 0x001d8830
_ZN25PlayerActionWaterDashMoveC2EP15PlayerActionArgPK26IUsePlayerDoubleMarioSpeedPK24IUsePlayerInvincibleDashPK25IUsePlayerMoveSpeedScalerPK20PlayerFigureDirectorPK26IUsePlayerWaterSurfaceInfoPK14IUsePlayerFlagSJ_SJ_PK13PlayerTrigger = 0x0035ef30
_ZN25PlayerActionWaterDashMoveC1EP15PlayerActionArgPK26IUsePlayerDoubleMarioSpeedPK24IUsePlayerInvincibleDashPK25IUsePlayerMoveSpeedScalerPK20PlayerFigureDirectorPK26IUsePlayerWaterSurfaceInfoPK14IUsePlayerFlagSJ_SJ_PK13PlayerTrigger = 0x0035ef30
_ZN15RunnerStateJumpC2EP6RunnerPK20RunnerStateJumpParam = 0x001145f0
_ZN15RunnerStateJumpC1EP6RunnerPK20RunnerStateJumpParam = 0x001145f0
_ZN2rc15tryDamagePuppetEP16IUsePlayerPuppet = 0x0042a9f0
_ZNK16PlayerTailAttack11isAttackingEv = 0x003b3aa0
_ZN7TentackC1EPKc = 0x00055820
_ZN11CounterLockC1ERKN2al14LayoutInitInfoEPK20CourseSelectDirector = 0x0007a160
_ZN19ProductStateTopMenu7exeWaitEv = 0x00404b90
_ZN17ButtonCursorParts4hideEv = 0x0015f8b0
_ZN2rc32tryGetCharacterCompleteStampNameEP9StampListi = 0x0017d4e0
_ZN11TouchEffect12setCharacterEi = 0x0019f790
_ZN9MagmaFishC1EPKc = 0x000f6e40
_ZN2al26initActorChangeModelSuffixEPNS_9LiveActorERKNS_13ActorInitInfoEPKc = 0x008382d0
_ZN3agl4lght4SSII7ContextD2Ev = 0x007b4a70
_ZN3agl6detail7Surface20calcSizeAndAlignmentEv = 0x00764bd0
_ZN2rc19hideAllDyingPlayersEPKN2al9LiveActorE = 0x0042c7a0
_ZNK19NpcGoalCameraTarget13calcSafeAngleERKN4sead7Vector3IfEES4_PKN2al9LiveActorEPS3_fPKf = 0x00071280
_ZN2al23getMapPartsResourceYamlERKNS_13ActorInitInfoEPKc = 0x008404b0
_ZN16GameDataFileBase14readFromStreamEPN4sead10ReadStreamE = 0x00413190
_ZN4sead11ResourceMgr17setDefaultFactoryEPNS_15ResourceFactoryE = 0x0072f000
_ZN17TreeBindPuppeteer8setParamERKN2al9ByamlIterE = 0x002dae70
_ZN2al21RollingCubePoseKeeper4initERKNS_13ActorInitInfoE = 0x0081ad20
_ZN11PlayerModel25createHairJointControllerEv = 0x003ab5e0
_ZN3agl3utl15MultiFilterUnit8activateEv = 0x00790710
_ZN19RaidonSurfAnimState13exeSurfaceEndEv = 0x003ca520
_ZN13DemoLayoutObj19initDemoSceneLayoutERKN2al13ActorInitInfoEPKc = 0x000a2740
_ZN3agl3utl22TextureMemoryAllocator12setupStorageEPN4sead6BufferINS1_7StorageEEENS_14GPUMemVoidAddrEmPNS2_4HeapE = 0x0077e260
_ZN22ChikaChikaBlockWatcher9isStopBgmEv = 0x001f7810
_ZN3agl3sdw13ShadowFrustum8PolytopeD2Ev = 0x007db0a0
_ZN3agl3sdw13ShadowFrustum8PolytopeD1Ev = 0x007db0a0
_ZN12DemoCutscene10receiveMsgEPKN2al9SensorMsgEPNS0_9HitSensorES5_ = 0x000a10d0
_ZN2al19WaveVibrationHolder6updateEv = 0x00953d60
_ZN6Killer12tryOnCollideEv = 0x000e7000
_ZN2al17OceanWavePlayInfo10createInfoERKNS_9ByamlIterE = 0x0097ed80
_ZN2al15KeyMoveMapParts7exeMoveEv = 0x00862e40
_ZN2al21setCustomRenderEnableEPNS_9LiveActorEb = 0x0083b420
_ZN14TerritoryMover19decideNextTargetPosEPKN2al9LiveActorE = 0x0012bf80
_ZN2al13AnimInfoTableC1Ei = 0x008d5780
_ZN2al13AnimInfoTableC2Ei = 0x008d5780
_ZN2al19addRotateAndRepeatYEPNS_9LiveActorEf = 0x0083d050
_ZN8GigaBell10startResetEv = 0x00237c70
_ZNK2al8Resource12getOtherFileERKN4sead14SafeStringBaseIcEEPj = 0x0089ff50
_ZN2al10PartsModelC2EPKc = 0x00885860
_ZN14DemoSkipLayoutC1ERKN2al14LayoutInitInfoEb = 0x00141920
_ZN10RaidonSurf8calcAnimEv = 0x003c2bf0
_ZN21GoalItemBindPuppeteer9startBindEPN2al9HitSensorES2_ = 0x002477f0
_ZN2al24tryListenStageSwitchKillEPNS_9LiveActorE = 0x008393a0
_ZN18ChorobonCubeHolderC1EPKc = 0x000c7bf0
_ZNK21CourseSelectMiniature15isNeedClearDemoEv = 0x00082540
_ZN21BunbunStateSpinAttackC2EPN2al9LiveActorERKNS0_13ActorInitInfoE = 0x0000f0e0
_ZN21BunbunStateSpinAttackC1EPN2al9LiveActorERKNS0_13ActorInitInfoE = 0x0000f0e0
_ZN3eui16BoxCursorControlC1Ev = 0x007f5cd0
_ZN3eui16BoxCursorControlC2Ev = 0x007f5cd0
_ZN2al29ModelDrawerDeferredSilhouetteC2EPKcNS_22SilhouetteDrawCategoryE = 0x00876f00
_ZN2al29ModelDrawerDeferredSilhouetteC1EPKcNS_22SilhouetteDrawCategoryE = 0x00876f00
_ZN12IslandHolder10tryAddAreaEPN2al7AreaObjE = 0x002e5d90
_ZN2al15AreaObjDirector18getInVolumeAreaObjEPKcRKN4sead7Vector3IfEES7_PS5_S8_ = 0x008da6b0
_ZN3agl6detail9FileIOMgr5closeEi = 0x00780d20
_ZN11PlayerActor27checkTriggerCollisionDamageEPN19IUsePlayerCollision4InfoEPKc = 0x003670b0
_ZN25PlayerActionWallClimbJumpC2EP22PlayerActionAirMoveArgP20PlayerContinuousJumpPK32IUsePlayerHorizontalSpeedAveragePK20IUsePlayerActualMovePK14IUsePlayerFlagSC_PK23IUsePlayerClimbJumpInfoP13PlayerTriggerPK19IUsePlayerCheckArea = 0x0035ce10
_ZN25PlayerActionWallClimbJumpC1EP22PlayerActionAirMoveArgP20PlayerContinuousJumpPK32IUsePlayerHorizontalSpeedAveragePK20IUsePlayerActualMovePK14IUsePlayerFlagSC_PK23IUsePlayerClimbJumpInfoP13PlayerTriggerPK19IUsePlayerCheckArea = 0x0035ce10
_ZN11ButtonGroupC1ERKN2al14LayoutInitInfoEPNS0_11LayoutActorEPKcS7_b = 0x0015fa30
_ZN11ButtonGroupC2ERKN2al14LayoutInitInfoEPNS0_11LayoutActorEPKcS7_b = 0x0015fa30
_ZN11LanternRingC1EPKc = 0x0027bad0
_ZN2al17getRandomOnCircleEPN4sead7Vector2IfEEf = 0x0086b600
_ZN5erepo5Array7addDataIiEEvRKT_ = 0x009bffa0
_ZN13WindowConfirm9forceExitEv = 0x0019ff40
_ZN2al20ModelDrawerDepthOnlyC2EPKcbb = 0x00877390
_ZN2al20ModelDrawerDepthOnlyC1EPKcbb = 0x00877390
_ZN2al18PrePassLightKeeper16requestLineLightERKN4sead7Vector3IfEES5_fRKNS1_7Color4fEfb = 0x008275a0
_ZN17KinopioBrigadeNpcC1EPKc = 0x002f8bb0
_ZN19GhostPlayerRecorderC1EPKN2al18IUseSceneObjHolderERKNS0_13SceneInitInfoEPK14GameDataHolderPNS0_12PlayerHolderE = 0x002e8740
_ZN19GhostPlayerRecorderC2EPKN2al18IUseSceneObjHolderERKNS0_13SceneInitInfoEPK14GameDataHolderPNS0_12PlayerHolderE = 0x002e8740
_ZN2al10PtclSystemC1ERKN4sead4ptcl6ConfigEPNS_12EffectSystemE = 0x00969980
_ZN2al10PtclSystemC2ERKN4sead4ptcl6ConfigEPNS_12EffectSystemE = 0x00969980
_ZN2rc17calcPlayerHoldMtxEPN4sead8Matrix34IfEEPKN2al9HitSensorE = 0x00430240
_ZN9IslandMap21getNearestFlagIconIdxEv = 0x001759f0
_ZN26CourseSelectPuppeteerGroup15startRouteDokanEP28ICourseSelectActorController = 0x0008fd70
_ZN2al16ShadowMaskKeeper4drawEiPKN3agl13ShaderProgramERKNS1_11TextureDataERKN4sead8Matrix34IfEERKNS8_8Matrix44IfEENS1_10ShaderModeEi = 0x008ca420
_ZNK18OceanWaterIndirect15drawReflectionsEv = 0x0029c790
_ZN3agl13ShaderProgramD2Ev = 0x007605a0
_ZN3agl13ShaderProgramD1Ev = 0x007605a0
_ZN2rc9HealthBar11startAppearEb = 0x00016de0
_ZN5KouraC2EPKc = 0x00273690
_ZN18OceanWaterIndirectD2Ev = 0x0029ab90
_ZNK9FlingPole15calcPuppetTransEPN4sead7Vector3IfEE = 0x0022f800
_ZN3agl3env12EnvObjBuffer11allocBufferERKNS1_11AllocateArgEPN4sead4HeapE = 0x007cc2b0
_ZN15PlayerBoomerangC1E12EPlayerCharaPK15IUsePlayerInput = 0x0037a870
_ZN5erepo12SaveDataInfoC1Ev = 0x009c0140
_ZN5erepo12SaveDataInfoC2Ev = 0x009c0140
_ZN3agl3sdw13ShadowFrustum13resetPolytopeEv = 0x007d9a60
_ZN16GameDataFunction18calcPlayingWorldIdE22GameDataHolderAccessor = 0x004160b0
_ZN25PlayerActionSkateJumpLoop6updateEv = 0x0034ceb0
_ZN2al14CameraPoserFix5startERKNS_15CameraStartInfoE = 0x008fb4a0
_ZN2al15GraphicsParamIoC1EPKcS2_S2_ = 0x00803880
_ZN2al15GraphicsParamIoC2EPKcS2_S2_ = 0x00803880
_ZN4neko11trySetNerveEPN2al9IUseNerveEPKNS0_5NerveE = 0x002fbda0
_ZN15alCollisionUtil16getHitPosOnArrowEPKN2al13IUseCollisionEPN4sead7Vector3IfEERKS6_S9_PKNS0_24CollisionPartsFilterBaseEPKNS0_18TriangleFilterBaseE = 0x0093e3e0
_ZN16PlayerActionFunc12calcDownwardEPN4sead7Vector3IfEEPK14PlayerPropertyRKS2_ = 0x00324f00
_ZN2al10InOutParam4initERKNS_9ByamlIterE = 0x009a1410
_ZN2al21makeLayoutArchivePathEPN4sead22BufferedSafeStringBaseIcEERKNS0_14SafeStringBaseIcEEb = 0x0096faf0
_ZN19ItemStatePopUpFrontC1EPN2al9LiveActorE = 0x00263560
_ZN19ItemStatePopUpFrontC2EPN2al9LiveActorE = 0x00263560
_ZN2al8HdrParamC2Ev = 0x008968a0
_ZN22TractorBubblePuppeteer10receiveMsgEPKN2al9SensorMsgEPNS0_9HitSensorES5_ = 0x002d1650
_ZN15RaidonPuppeteer11startGetOffERKN4sead7Vector3IfEEibb = 0x003bd160
_ZN3agl6detail19DynamicUniformBlock10initializeEmPN4sead4HeapE = 0x0075df10
_ZN2al14ShadowDirector8movementEv = 0x008bf960
_ZN11PlayerModelC1EPKcS1_RKN2al13ActorInitInfoES1_ = 0x003aa220
_ZN13ItemStockTray8exeStockEv = 0x001445c0
_ZN2al22ExecuteTableHolderDraw23createExecutorListTableEv = 0x0080a8c0
_ZN10DarkBowser16initBattleHealthERKN2al13ActorInitInfoEi = 0x00010bc0
_ZN18TrampleSwitchTimerC1EPKc = 0x002d2fa0
_ZN2rc25getMessageStringStageNameEPN2al17IUseMessageSystemEPK14GameDataHolderi = 0x00429390
_ZN2al15CubeMapDrawInfoC1EPKNS_18GraphicsSystemInfoE = 0x008abf10
_ZN2al15CubeMapDrawInfoC2EPKNS_18GraphicsSystemInfoE = 0x008abf10
_ZN2al14CameraDirector6updateEb = 0x00901c90
_ZN3agl3utl12INamedObjMgr10initializeEjjPN4sead4HeapE = 0x007ce060
_ZN17BallStateFunction20setPositionOnReleaseEPN2al9LiveActorEPKNS0_9HitSensorEPKS1_ = 0x001d7d70
_ZN2al20MetalReliefDrawParamC2Ev = 0x009910e0
_ZN2al20MetalReliefDrawParamC1Ev = 0x009910e0
_ZN20PlayerActionWallJump5setupEv = 0x0035eb10
_ZN3eui8LayoutEx22isScalableFontTextBox_EPKN2nn4ui2d10ResTextBoxES5_RKNS2_11BuildArgSetE = 0x007eed40
_ZN2al10easeByTypeEfi = 0x0086acf0
_ZN2al35DepthOfFieldProgramableParamBlenderC1EPKN3agl3pfx12DepthOfFieldE = 0x0088f7a0
_ZN2al35DepthOfFieldProgramableParamBlenderC2EPKN3agl3pfx12DepthOfFieldE = 0x0088f7a0
_ZNK26CourseSelectPuppeteerGroup13isPlayDemoAllEv = 0x00090250
_ZN9FlingPoleC1EPKcb = 0x0022d720
_ZN14EnemyGenerator14exeLaunchReadyEv = 0x000d15c0
_ZN13NokonokoNakedC1EPKcP8Nokonoko = 0x000fe950
_ZN20KoopaChaseStateThrowC2EP10KoopaChaseRKN2al13ActorInitInfoEf = 0x00029a50
_ZN20KoopaChaseStateThrowC1EP10KoopaChaseRKN2al13ActorInitInfoEf = 0x00029a50
_ZN19ItemStatePopUpAboveC2EPN2al9LiveActorE = 0x00262fd0
_ZN19ItemStatePopUpAboveC1EPN2al9LiveActorE = 0x00262fd0
_ZN14BindWarpEffect6cancelEv = 0x001da6e0
_ZN2al17CameraDirector_RS11storeCameraEv = 0x0091a580
_ZN18WoodLogBridgeParts10setInitPosERKN4sead7Vector3IfEE = 0x002e3b00
_ZN3agl14TextureSamplerC1ERKNS_11TextureDataE = 0x00765b30
_ZN3agl14TextureSamplerC2ERKNS_11TextureDataE = 0x00765b30
_ZN2rc20requestBindAllPlayerEPKN2al9LiveActorEPNS0_9HitSensorE = 0x0042ba50
_ZN18TrampleSwitchTimer14allEnemiesDeadEv = 0x002d37e0
_ZN11ShadowMario11startActionEPKc = 0x00137590
_ZN20WalkerStateJumpParamC2EfPKcb = 0x001344f0
_ZN20WalkerStateJumpParamC1EfPKcb = 0x001344f0
_ZN2al15RollingCubePose4initERKNS_13PlacementInfoE = 0x0081bd90
_ZN11PlayerModel7showFurEv = 0x003aaa80
_ZN10SkateShoesC1EPKc = 0x003cca60
_ZN10SinkedItem21updateDisasterEffectsEb = 0x002b9a80
_ZN2al25ClippingAreaActorViewArea14updateClippingERKN4sead7Vector3IfEEb = 0x0092fbe0
_ZN6TakoboC1EPKc = 0x00124040
_ZN4sead11TreeMapImplINS_14SafeStringBaseIcEEE5eraseEPNS_11TreeMapNodeIS2_EERKS2_ = 0x008738f0
_ZN18KoopaLastWallClimbC1EPKc = 0x00031160
_ZN2al22SupportFreezeSyncGroup8movementEv = 0x00867280
_ZN2al19CameraAngleCtrlInfo6updateERKN4sead7Vector2IfEEfb = 0x009193a0
_ZN10TitleScene6appearEv = 0x003f8a50
_ZN16GigaBellPedestal4initERKN2al13ActorInitInfoE = 0x0015c360
_ZN14DarkBowserUtil23graphicsAreaPrioritySetEPN2al9LiveActorEPKci = 0x0001fe10
_ZN3eui17TraceGaugeControlC2Ev = 0x007f98b0
_ZN3eui17TraceGaugeControlC1Ev = 0x007f98b0
_ZN17EchoEmitterHolder26initAfterPlacementSceneObjERKN2al13ActorInitInfoE = 0x00227fb0
_ZN6Vessel8Emulator7Virtual11PlatformHvc9CHvcVrc2b14_SerializeCoreEPvb = 0x001bb7b0
_ZN20PlayerBoomerangParamC2EPN2al9LiveActorE = 0x0037aa50
_ZN4Bomb15updateCountDownEb = 0x000b2870
_ZN11PlayerActor14controlPushMsgEPN2al9HitSensorES2_fb = 0x00364a60
_ZN14EnemyStateUtil21isMsgRouteDokanAttackEPKN2al9SensorMsgE = 0x000d2ac0
_ZN12IslandKeeper17getIslandStartPosEiRN4sead7Vector3IfEES3_ = 0x0025d5f0
_ZNK15DrcTouchChecker13isTouchSphereERKN4sead7Vector3IfEEfPf = 0x00223420
_ZN24PlayerWaterSurfaceFinder6updateERKN4sead7Vector3IfEES4_ = 0x003b6170
_ZNK20KoopaChaseStateThrow8canThrowEv = 0x00029e80
_ZNK21DisasterSpikeDirector15getTorpedoParamEv = 0x00153310
_ZN3agl17RenderTargetDepth19onApplyTextureData_Ev = 0x0075f0d0
_ZN10NekoParent23addSpecialShineLocationEv = 0x003097e0
_ZN8GigaBell19startReturnCutsceneEb = 0x0023a550
_ZN10LavaGeyserC1EPKc = 0x0027be90
_ZN2al21makeMtxUpNoSupportPosEPN4sead8Matrix34IfEERKNS0_7Vector3IfEES7_ = 0x009772e0
_ZN20PlayerActionTypeFunc20isActionForceReleaseEPK17PlayerActionGraphb = 0x0035a350
_ZN2al31createPlacementActorFromFactoryERKNS_12ActorFactoryERKNS_13ActorInitInfoEPKNS_13PlacementInfoE = 0x00838df0
_ZN12FortressGoal4initERKN2al13ActorInitInfoE = 0x00234200
_ZN9GreenRing12exeCountDownEv = 0x00256330
_ZN2al17CameraDirector_RS12createCameraEPNS_14CameraPoser_RSEPKNS_11PlacementIdEPKciRKN4sead8Matrix34IfEEb = 0x0091ace0
_ZN2al19initLayoutSceneInfoEPNS_11LayoutActorERKNS_14LayoutInitInfoE = 0x0096fc00
_ZN21KoopaChaseStateDamage10receiveMsgEPbPKN2al9SensorMsgEPNS1_9HitSensorES6_b = 0x000279e0
_ZN2al13ActorInitInfo7initNewEPKNS_13PlacementInfoEPKNS_14LayoutInitInfoEPNS_15ExecuteDirectorEPNS_13AudioDirectorEPNS_16EffectSystemInfoEPNS_17OceanWaveDirectorEPNS_14SceneObjHolderEPNS_13SceneStopCtrlEPNS_15ScreenCoverCtrlEPNS_17HitSensorDirectorEPNS_19ScreenPointDirectorEPNS_20ClippingDirectorBaseEPNS_17CollisionDirectorEPNS_15AreaObjDirectorEPNS_19StageSwitchDirectorEPNS_12PlayerHolderEPNS_16ItemDirectorBaseEPNS_14ShadowDirectorEPNS_17PadRumbleDirectorEPNS_17CameraDirector_RSEPNS_18GraphicsSystemInfoEPNS_15SceneCameraInfoEPNS_12DemoDirectorEPNS_14LiveActorGroupEb = 0x00836df0
_ZN2al18SeEffectController17disableAllEffectsEv = 0x009a3e00
_ZN8CoinRailC1EPKc = 0x00204800
_ZN25DemoSingleModeEndingSceneC2Ev = 0x003d3d40
_ZN25DemoSingleModeEndingSceneC1Ev = 0x003d3d40
_ZNK3eui8LayoutEx14isAnimCloseEndEb = 0x007ee010
_ZN13DisasterSpike7canFallEv = 0x00213c20
_ZN15SingleModeScene14updateMissDemoEbb = 0x003ed600
_ZN27CourseSelectMiniatureCursor22calcMiniatureLayoutPosEPN4sead7Vector2IfEEPN2al10IUseCameraEPKNS4_9LiveActorERKNS0_7Vector3IfEEf = 0x0016e120
_ZN22PlayerActionGroundMove6updateEv = 0x0033dad0
_ZN10OceanWater18initAfterPlacementEv = 0x002939f0
_ZN21CounterLockController11startAppearEP28ICourseSelectActorController = 0x0007a910
_ZN4sead26AudioFxI3DL2ReverbParamNinC1Ev = 0x00755680
_ZN4sead26AudioFxI3DL2ReverbParamNinC2Ev = 0x00755680
_ZN3agl12UniformBlockC1Ev = 0x00765f40
_ZN3agl12UniformBlockC2Ev = 0x00765f40
_ZN4neko24isSensorEnemyReactAttackEPKN2al9HitSensorE = 0x002fbf30
_ZN2al24trySyncStageSwitchAppearEPNS_9LiveActorE = 0x00839110
_ZN2al9RailRider17moveToNearestRailERKN4sead7Vector3IfEE = 0x0089d9c0
_ZN23GuideFrameOutSingleModeC1ERKN2al14LayoutInitInfoEPKNS0_9LiveActorEPKc = 0x00072f20
_ZN15alModelFunction22isShaderUsingThicknessERKN2nn3g3d15ShadingModelObjE = 0x00879500
_ZN16GameDataFunction13getNewFileNumE22GameDataHolderAccessor = 0x00416ef0
_ZN7CrawlerC1EPKc = 0x000c8e40
_ZN10NekoNormal12startClippedEv = 0x00301bb0
_ZN2al25showSilhouetteModelIfHideEPNS_9LiveActorE = 0x0083a740
_ZN2al13PlayerWatcher4initEPKNS_12PlayerHolderE = 0x009163e0
_ZN11SuperBowser25updateRetreatPlessieChaseEv = 0x00044300
_ZN5Gabon12exeThrowSignEv = 0x000d7340
_ZN2rc17addItemByHostInfoEPN2al9LiveActorERKNS0_13ActorInitInfoEPKcS7_ = 0x00427b10
_ZN6FurEnv6updateEv = 0x00317e80
_ZN8WarpCube12startOutSignEv = 0x002dda10
_ZN20CourseSelectDirector13checkDrcTouchEP18CourseSelectSensor = 0x0007dd90
_ZN2al20AudioEventController27getBgmPlayNameByAreaCheckerEb = 0x008deb10
_ZN23PlayerCounterAfterPunch6updateEPK13PlayerTrigger = 0x00390f40
_ZN2al17CameraDirector_RS18createObjectCameraEPKNS_11PlacementIdEPKcS5_iRKN4sead8Matrix34IfEE = 0x0091b230
_ZN15alModelFunction44prepareModelShapeDrawDeferredGraphicsContextEPN3agl11DrawContextEPKN2al14SimpleModelG3DEibb = 0x00878e20
_ZN2al24startActionAtRandomFrameEPNS_9LiveActorEPKc = 0x00832740
_ZN2al21makeMtxFrontNoSupportEPN4sead8Matrix34IfEERKNS0_7Vector3IfEE = 0x00976f30
_ZN13SnapshotState14updateGraphicsEv = 0x003f0980
_ZN3agl4cull18ViewFrustumCulling7update_Ev = 0x00799b00
_ZN9BombBound7exeRollEv = 0x00003280
_ZN2al20setPaneSystemMessageEPNS_11LayoutActorEPKcS3_S3_ = 0x0096f420
_ZN24ActorJointLookController6updateEv = 0x000afa90
_ZN16CourseSelectRoad8initRoadERKN2al13ActorInitInfoEPKN4sead7Vector3IfEE = 0x00090cd0
_ZN4sead17ArchiveFileDeviceC2EPNS_10ArchiveResE = 0x0072d700
_ZN11SuperBowser7controlEv = 0x0003eea0
_ZN12TopMenuScene7controlEv = 0x003faed0
_ZN10DarkBowser16forceKillObjectsEv = 0x00012720
_ZN22inputdevice_controller4initEv = 0x001c8250
_ZNK2al25CollisionPartsKeeperArray17checkStrikeSphereEPNS_21SphereHitResultBufferERKNS_15SphereCheckInfoEbRKN4sead7Vector3IfEE = 0x0093ac20
_ZN13KoopaFireBallC1EPKcbPN2al9LiveActorE = 0x0026c920
_ZN3agl2fx17OcclusionRenderer13updateViewGPUEiRKNS_12RenderBufferE = 0x007c85c0
_ZN2al18CameraInterpole_RS16exeActiveHermiteEv = 0x009255f0
_ZN14BlockStateItem23receiveMsgAndAppearItemEPKN2al9SensorMsgEPNS0_9HitSensorE = 0x001e4210
_ZN18CameraChangeLayout21isInputRightStickTrigEv = 0x00165a40
_ZN9IslandMap7canWarpEv = 0x00175b10
_ZN12DemoCutsceneC2EPKcN12alSeFunction8DemoTypeE = 0x0009fc90
_ZN24KoopaLastDefendeBlockPow12startEndDemoEv = 0x0002dcd0
_ZN23PlayerWallJumpDirection6updateEv = 0x003b5620
_ZN4sead17RegionLanguageMgr31setRegionLanguageWithCheckMask_ENS_8RegionIDENS_10LanguageIDERKNS_10RingBufferINS_16RegionLanguageIDEEE = 0x00724060
_ZN30PlayerActionGigaClimbWallClimb12controlSlideERKN4sead7Vector3IfEE = 0x00326f90
_ZN4sead22SoundMemoryPoolHandlerC1EPKc = 0x0074dc90
_ZN4sead22SoundMemoryPoolHandlerC2EPKc = 0x0074dc90
_ZN2al10calcSpeedHEPKNS_9LiveActorE = 0x0083ca20
_ZN20DemoSceneActorPlayer11startActionEi = 0x000a6700
_ZN16SimpleMenuLayout6appearEi = 0x0019d340
_ZN2al22ActionScreenEffectCtrl6updateEff = 0x008d43c0
_ZN2al18rotateVectorDegreeEPN4sead7Vector3IfEERKS2_S5_f = 0x0086f780
_ZN20PlayerWaterFlowFieldC2EPKN2al11IUseAreaObjEPK19IUseWaterFlowAccessPK16PlayerConstParam = 0x003b6060
_ZN20PlayerWaterFlowFieldC1EPKN2al11IUseAreaObjEPK19IUseWaterFlowAccessPK16PlayerConstParam = 0x003b6060
_ZN9BootSceneC1Ev = 0x003d05b0
_ZN9BootSceneC2Ev = 0x003d05b0
_ZN3agl12UniformBlock9setBufferENS_14GPUMemVoidAddrEii = 0x00766420
_ZN2al15CameraPoserZoom15updateLookAtPosEv = 0x00911ff0
_ZN13KoopaGraffiti4initERKN2al13ActorInitInfoE = 0x00271150
_ZN18BombBoundGeneratorC1EPKc = 0x000b3820
_ZN25TrapezeBindPuppeteerGroup23tryGetBindablePuppeteerEPN2al9HitSensorE = 0x002d8570
_ZN26KoopaChaseStateProvocation6tryEndEb = 0x00029800
_ZN15NpcStateRunAwayC1EPN2al9LiveActorEPN4sead7Vector3IfEEP15NpcTargetFinderPK13NpcStateParamPK20NpcStateRunAwayParambPb = 0x0030d970
_ZN15NpcStateRunAwayC2EPN2al9LiveActorEPN4sead7Vector3IfEEP15NpcTargetFinderPK13NpcStateParamPK20NpcStateRunAwayParambPb = 0x0030d970
_ZN3eui8LayoutEx17createAnimatorSetEPKPKcjb = 0x007ed790
_ZN16CourseSelectRoadC1EPKcPK16CourseSelectNodeRKN4sead7Vector3IfEE = 0x00090c10
_ZN18DarkBowserFirebomb8exeShootEv = 0x0001b540
_ZN2al14CameraPoser_RS6appearERKNS_15CameraStartInfoE = 0x00922c10
_ZN2al15GpuMemAllocatorC2Eiii = 0x009559a0
_ZN2al15GpuMemAllocatorC1Eiii = 0x009559a0
_ZN18KoopaChaseFunction16tryCreateLinkObjERKN2al13ActorInitInfoEPKci = 0x00026830
_ZN2al10CameraRail13calcTopPlayerEPNS_9LiveActorEPi = 0x00912d30
_ZN24CourseSelectWindowHolder4initERKN2al14LayoutInitInfoE = 0x0009e160
_ZN2al20setPaneCounterDigit6EPNS_10IUseLayoutEPKcit = 0x0096f030
_ZN15KillerGenerator8updateQTERKN4sead7Vector3IfEERKNS0_4QuatIfEE = 0x000e7ff0
_ZN9RaidonNpc4initERKN2al13ActorInitInfoE = 0x00316ab0
_ZN8GustWindC1EPKc = 0x00258640
_ZN26TentackResourceParamHolderC2EPKc = 0x0005d000
_ZN26TentackResourceParamHolderC1EPKc = 0x0005d000
_ZN8LiftMikeC1EPKc = 0x0027c7b0
_ZN2al17PadRumbleDirector18findDirectPlayInfoEPKc = 0x00950470
_ZN2al17CameraDirector_RS28initCreateObjectCameraManualEPKNS_14CameraTicketIdEPKcPKNS_13PlacementInfoE = 0x0091b0a0
_ZN2al17CameraDirector_RS19isObjectCameraExistERKNS_13PlacementInfoE = 0x0091ae10
_ZN13PlayerKoopaJr14tryTargetActorEPKN2al9LiveActorEiPKNS0_9HitSensorE = 0x0039bc30
_ZN2al25CollisionPartsKeeperArrayC1Ev = 0x0093a900
_ZN2al25CollisionPartsKeeperArrayC2Ev = 0x0093a900
_ZNK21CameraPoserDarkBowser38calcDistanceBetweenAxisPosAndTargetPosEv = 0x00069cd0
_ZN15KuriboTowerNode13updatePostureEb = 0x000f5bb0
_ZN2al18makeMtxFromTwoAxisEPN4sead8Matrix34IfEERKNS0_7Vector3IfEES7_ii = 0x009768f0
_ZN3agl3utl14PrimitiveShape16setUpStreamQuad_EPN4sead4HeapE = 0x00773c30
_ZNK2al21ParabolicPathMovement12isReachedEndEv = 0x0087eb60
_ZN3agl3env7CubeMap18renderToMipMapUnitEPNS_11DrawContextERKNS_14TextureSamplerES6_jjjjf = 0x007d22a0
_ZN2rc18setPaneWorldStringEPN2al11LayoutActorEPNS0_10IUseLayoutEPKcS6_S6_tS6_b = 0x00429440
_ZN15GamaneChameleon22requestHipDropReactionEPKN2al9SensorMsgEPNS0_9HitSensorE = 0x000d9d00
_ZN18BrosMoveStepKeeper6updateEv = 0x000c1a90
_ZN13BindPuppeteerC1EPKc = 0x001d9bb0
_ZN13BindPuppeteerC2EPKc = 0x001d9bb0
_ZN21WarpCubeBindPuppeteer7endBindEPK18PlayerBindEndParam = 0x002df0e0
_ZNK3agl3sdw13ShadowPrePass7calcGPUEiRKN4sead8Matrix34IfEERKNS2_8Matrix44IfEEPS9_PfffffRKNS_4cull18ViewFrustumCullingE = 0x007de050
_ZN3agl11IndexStream12setUpStream_ENS_19ConstGPUMemVoidAddrENS_17IndexStreamFormatEj = 0x0075e0f0
_ZN21BunbunStateSpinAttack13endKouraThrowEv = 0x0000fe70
_ZN3agl4fctr16GPUStressChecker10initializeEPN4sead4HeapE = 0x00795cb0
_ZN2al19LightStreakDirectorC1EPNS_18GraphicsSystemInfoE = 0x00897960
_ZN2al19LightStreakDirectorC2EPNS_18GraphicsSystemInfoE = 0x00897960
_ZN11PukupukuFlyC1EPKc = 0x00110810
_ZN3agl17RenderTargetColorC1ERKNS_11TextureDataEjj = 0x0075eee0
_ZN3agl17RenderTargetColorC2ERKNS_11TextureDataEjj = 0x0075eee0
_ZN3agl3utl15MultiFilterUnit7destroyEv = 0x007905f0
_ZN13PlayerModelIK4calcEPKcS1_RKN4sead7Vector3IfEE = 0x003aec30
_ZN14SuperSkateRail18getReverseDistanceEv = 0x002c4c90
_ZN2al16moveSyncRailLoopEPNS_9LiveActorEf = 0x0089e3e0
_ZN2al14GyroCameraCtrl6updateERKN4sead7Vector3IfEES5_S5_ = 0x0092bca0
_ZN2al12MtxConnectorC2ERKN4sead4QuatIfEERKNS1_7Vector3IfEE = 0x007ff030
_ZN2al12MtxConnectorC1ERKN4sead4QuatIfEERKNS1_7Vector3IfEE = 0x007ff030
_ZN15SyumockConveyer15setTransByCoordEfbb = 0x00121b40
_ZN2al33isPrePassSpotLightStrikeCollisionEPKNS_9LiveActorEPKc = 0x008202f0
_ZN19RaidonSurfAnimState11requestFallEv = 0x003cab90
_ZN5Koura6doMoveEv = 0x00276c60
_ZN2al39isMsgPlayerUpperPunchForCrossoverSensorEPKNS_9SensorMsgEPKNS_9HitSensorES5_f = 0x0084c3b0
_ZN8WaveGrid12InitMeshDataERNS_8MeshDataERKN2al14CameraViewInfoEPNS2_14SceneObjHolderE = 0x0028eb20
_ZN2al11isClassNameERKNS_13PlacementInfoEPKc = 0x00889aa0
_ZN2al3Bgm12changeVolumeEPKNS_17BgmVolumeProcInfoE = 0x008ebf20
_ZN2al18DepthOfFieldDrawer6updateEb = 0x0088efb0
_ZN13FlyOverCamera12startFlyOverEv = 0x000704b0
_ZN3agl3utl22TextureMemoryAllocator6alloc_EPNS1_11MemoryBlockERKNS1_11AllocateArgEPNS_14GPUMemVoidAddrEb = 0x0077db10
_ZN16TestAndoGoalPole10exeBindTopEv = 0x002c8a30
_ZN2al24AlphaMaskProjectionParamC1Eb = 0x008b2b70
_ZN2al24AlphaMaskProjectionParamC2Eb = 0x008b2b70
_ZN34PlayerActionRollingVelocityControl11calcTrampleEf = 0x0034ba60
_ZN11DoubleMario10receiveMsgEPKN2al9SensorMsgEPNS0_9HitSensorES5_ = 0x0021fec0
_ZN2al13BgmLineKeeper6updateEb = 0x008ec9d0
_ZN2rc14activatePlayerEP11PlayerActoriPKN4sead7Vector3IfEES6_ = 0x00430fc0
_ZN2al16SeEffectProcInfo10createInfoERKNS_9ByamlIterE = 0x009a65d0
_ZN15screenfilterCpu19SubAutoDarkContrastEPjS0_ = 0x001cbff0
_ZN20SuperBowserFireFlameC1EPKc = 0x000475b0
_ZN2al16calcRailPosFrontEPN4sead7Vector3IfEEPKNS_9LiveActorEf = 0x0089e890
_ZN15TentackTentacle13tryStartStiffEPKN2al9SensorMsgEPKNS0_9HitSensorE = 0x000607a0
_ZN2al18calcNerveJumpValueEPKNS_9IUseNerveEiiif = 0x00881430
_ZNK18PlayerAliveWatcher23isEnableBubbleWithInputEP23PlayerAliveWatcherGroup = 0x00370220
_ZN3agl4lght12LightPrePass31InitializeShaderVariationTable_Ev = 0x007a79e0
_ZN16PlayerActionFunc15turnHeadUpForceEP14PlayerProperty = 0x00324cd0
_ZN2al29attachMtxConnectorToCollisionEPNS_12MtxConnectorEPKNS_9LiveActorEff = 0x007fe960
_ZN20CourseSelectDirectorC1EP17CourseSelectScene = 0x0007b870
_ZN20CourseSelectDirectorC2EP17CourseSelectScene = 0x0007b870
_ZN2al13moveRailPauseEPKNS_9LiveActorEf = 0x0089e020
_ZN2al12initDrawInfoEPN2nn4ui2d8DrawInfoEPNS1_16GraphicsResourceERKNS0_4font9RectangleE = 0x00970160
_ZN15ChikaChikaBlock4initERKN2al13ActorInitInfoE = 0x001f6920
_ZN31CloudBonusLauncherBindPuppeteerC1EPKcRKN2al13ActorInitInfoE = 0x001fb9f0
_ZN31CloudBonusLauncherBindPuppeteerC2EPKcRKN2al13ActorInitInfoE = 0x001fb9f0
_ZN2rc22calcPuppetQuatAndTransEPN4sead4QuatIfEEPNS0_7Vector3IfEEPK16IUsePlayerPuppet = 0x0042a910
_ZN2al18calcDecibelToRatioEf = 0x0099f5d0
_ZN4sead7ExpHeap14allocFromHead_Em = 0x0071e680
_ZN22PlayerJumpStateChecker6updateEPK12PlayerAction = 0x00398110
_ZN3agl2fx17OcclusionRenderer11calcContextEiRKN4sead8Matrix34IfEERKNS2_8Matrix44IfEEffffRKNS2_7Vector2IfEEPNS1_10CalcResultE = 0x007c7b00
_ZNK2al22ShaderEnvTextureKeeper18activateEnvTextureERKNS_10EnvTexInfoEPNS_19ModelAdditionalInfoEb = 0x008b2500
_ZNK2al14SimpleModelG3D22setModelAdditionalInfoERKNS_19ModelAdditionalInfoE = 0x0087da30
_ZN16TentackMagmaBall10receiveMsgEPKN2al9SensorMsgEPNS0_9HitSensorES5_ = 0x0005c120
_ZN24PlayerBindableSensorListC1Ev = 0x0037a210
_ZN24PlayerBindableSensorListC2Ev = 0x0037a210
_ZN10RaidonSurf16exeFirstSeenDemoEv = 0x003c35c0
_ZN4sead21AudioFxI3DL2ReverbNin8SetParamERKNS_26AudioFxI3DL2ReverbParamNinE = 0x00756b30
_ZN13CoinChameleon14updateVelocityEv = 0x001ffa30
_ZN3eui26CreateLayoutItemUniqueNameEPN4sead17StringBuilderBaseIcEEPKcPKNS_8LayoutExE = 0x007e22e0
_ZN6Bunbun7controlEv = 0x0000c000
_ZN4sead7ExpHeap8doCreateEPS0_PNS_4HeapE = 0x0071dac0
_ZN2al15CubeMapDirector18initByAtmosScatterEv = 0x008ab680
_ZN2al13SceneInitInfoC1EPKNS_14GameSystemInfoEPNS_13AudioDirectorEPNS_18GameDataHolderBaseEPNS_21ScreenCaptureExecutorEPKciSB_ = 0x008a9c10
_ZN2al13SceneInitInfoC2EPKNS_14GameSystemInfoEPNS_13AudioDirectorEPNS_18GameDataHolderBaseEPNS_21ScreenCaptureExecutorEPKciSB_ = 0x008a9c10
_ZN2al9LiveActor17startClippedByLodEv = 0x0085c6f0
_ZN16GameDataFunction19isStageNoCourseNameE22GameDataHolderAccessori = 0x00415f90
_ZN24BlockHardLaserOnlyDebris9tryAppearEv = 0x0014ca60
_ZN7InkAreaC1EPKc = 0x00000b60
_ZN2al10showShadowEPNS_9LiveActorENS_22ShadowMaskDrawCategoryE = 0x008bb6c0
_ZThn192_N2nn3atk6detail6driver23AdvancedWaveSoundPlayerD1Ev = 0x0065e800
_ZN2al11BgmDirector18pauseActiveBgmByIdEji = 0x008e8f40
_ZN4sead14MethodTreeNode4callEv = 0x00714610
_ZN2al15NerveActionCtrlC1EPN15alNerveFunction20NerveActionCollectorE = 0x00880310
_ZN2al15NerveActionCtrlC2EPN15alNerveFunction20NerveActionCollectorE = 0x00880310
_ZN3agl3pfx14BloomParameter10initializeEPNS_3utl13IParameterObjEPN4sead4HeapE = 0x007a09c0
_ZN2al32getPrePassSpotLightCurrentLengthEPKNS_9LiveActorEPKc = 0x008202a0
_ZN2al22AcLSoundHandlePlatform16setSeqTempoRatioEf = 0x008e3cf0
_ZN11PlayerActor27trySendMsgPlayerClimbAttackEPN2al9HitSensorES2_ = 0x0036e4f0
_ZN3agl3utl12INamedObjMgr5Group5resetERKN4sead14SafeStringBaseIcEE = 0x007ce8f0
_ZN28SuperBowserRainFireballState21generateSpawnPositionEb = 0x00052d80
_ZN2al11ModelKeeper9updateLodERKN4sead7Vector3IfEEb = 0x0087ab80
_ZN2al9SeRequestC1Ev = 0x009aed50
_ZN2al9SeRequestC2Ev = 0x009aed50
_ZN3agl3g3d20ModelShaderAttributeC1Ev = 0x0077ebf0
_ZN3agl3g3d20ModelShaderAttributeC2Ev = 0x0077ebf0
_ZN11BowserSpike13prepareLaunchERKN4sead7Vector3IfEERKNS0_4QuatIfEEb = 0x000c08d0
_ZN17KoopaChaseMovePosC1ERKN2al13PlacementInfoERKNS0_13ActorInitInfoEPS_PN4sead8PtrArrayIS_EE = 0x00027330
_ZN21SuperBowserLaserState23updateLaserHitEffectMtxEv = 0x00050220
_ZN12BoxPropeller14decideAnimRateEv = 0x001ecb70
_ZN6BubbleC1EPKc = 0x000c32c0
_ZN3agl3env12EnvObjBuffer10freeBufferEv = 0x007cc3c0
_ZN4sead10StringUtil21tryConvertUtf16ToSjisEPiPcjPKDsi = 0x0072a770
_ZN22DisasterModeController15startBgmRequestENS_11BGM_REQUESTEb = 0x0020d390
_ZN9DemoScene13initPlacementERKN2al13ActorInitInfoE = 0x003d34f0
_ZN2al15SeRequestKeeper27startPausedSeFromCameraDemoEN12alSeFunction8DemoTypeE = 0x009ae550
_ZN9IslandMap19setIslandWarpEnableEPKN2al18IUseSceneObjHolderEb = 0x001741a0
_ZN21alAudioEffectFunction14getOutDeviceIdEPKc = 0x009a6160
_ZN2al13isInWaterAreaEPKNS_11IUseAreaObjERKN4sead7Vector3IfEES7_PS5_S8_ = 0x008dbad0
_ZN7DoorKey16triggerKillForceEb = 0x0021cd70
_ZN2al13GamePadSystem6updateEv = 0x009473a0
_ZN6Teresa7exeDownEv = 0x0012b2c0
_ZN2al12CameraHolder14setCameraInfosEPKNS_11PlacementIdEPNS_11CameraPoserEi = 0x00904380
_ZN2al15KeyMoveMapParts7reverseEv = 0x00862630
_ZN23PlayerAliveWatcherGroupC2EP18PlayerAliveWatcherRKN2al13ActorInitInfoEPKNS2_12PlayerHolderEi = 0x003714b0
_ZN23PlayerAliveWatcherGroupC1EP18PlayerAliveWatcherRKN2al13ActorInitInfoEPKNS2_12PlayerHolderEi = 0x003714b0
_ZNK2al4Rail18getIncludedSectionEPPKNS_8RailPartEPff = 0x0089bf10
_ZN2al13limitVelocityEPNS_9LiveActorEf = 0x0083c2c0
_ZN17TreeFarLodWatcher11startFarLodEv = 0x002dc610
_ZN18ListStampDemoPartsC1ERKN2al14LayoutInitInfoEPKcS5_PNS0_11LayoutActorEP14ListStampParts = 0x0017ac80
_ZN16RabbitRouteRider7reverseEv = 0x00315db0
_ZN3eui9TextBoxEx16calcStringWidth_Ev = 0x007e9750
_ZN7Skipper8exeAfterEv = 0x0011b170
_ZN16SuperBowserShell4initERKN2al13ActorInitInfoE = 0x00053290
_ZN7Skipper9exeWanderEv = 0x0011ac50
_ZN22GoalBonusGameBlockSlot12updateSameIdEv = 0x0023ff60
_ZN3eui24AdjustPaneSizeToTextSizeEPN2nn4ui2d4PaneEPNS_8LayoutExE = 0x007e1150
_ZN2al11AudioSystemC2Ev = 0x008e05d0
_ZN2al11AudioSystemC1Ev = 0x008e05d0
_ZN13AreaNamePartsC1ERKN2al14LayoutInitInfoEPKcS5_PNS0_11LayoutActorEPKNS0_12PlayerHolderE = 0x0015db80
_ZNK21DisasterSpikeDirector14getPlayerAngleEv = 0x00154560
_ZN2al21tryFindPlessieAreaObjEPKNS_11IUseAreaObjEPKc = 0x008db160
_ZN2al7getQuatEPN4sead4QuatIfEERKNS_13PlacementInfoE = 0x0088a7e0
_ZN2al16ActionEffectCtrl26stopActionAndKillParticlesEv = 0x008d0e20
_ZN2al17BgmRhythmDetector4initEPNS_14BgmMusicalInfoEfiii = 0x008ee670
_ZN13FlyOverCamera7exeDoneEv = 0x000708c0
_ZN2al17LppProjOrthoParam10initByInfoERKNS_13ActorInitInfoE = 0x00823750
_ZN4sead23ParallelSZSDecompressorD1Ev = 0x0074ac10
_ZN4sead23ParallelSZSDecompressorD2Ev = 0x0074ac10
_ZN10RaidonSurf22updateFollowDiveCameraEv = 0x003bfef0
_ZNK2al8Resource12getEntryNameEPN4sead22BufferedSafeStringBaseIcEERKNS1_14SafeStringBaseIcEEj = 0x0089f6a0
_ZN3agl3utl14PrimitiveShape24setupVtxBufferHemisphereEPNS_12VertexBufferENS_10GPUMemAddrINS1_6VertexEEEjj = 0x007798a0
_ZN16PlayerActionFunc12checkMapCodeEPK19IUsePlayerCollisionPKc = 0x00324b00
_ZNK3agl15UniformLocation13setUniformNVNEPNS_11DrawContextEjPKv = 0x0075f700
_ZN2rc16isPlayerOnRaidonEPKN2al9HitSensorE = 0x0042d230
_ZN2al14calcNerveValueEPKNS_9IUseNerveEiiff = 0x00881060
_ZN12DemoCutsceneC1EPKcN12alSeFunction8DemoTypeE = 0x0009fd70
_ZN3eui9TextBoxEx13doPreprocess_EPN4sead22BufferedSafeStringBaseIDsEEPjS5_PKDsjibPv = 0x007e9330
_ZN8WarpCube20setPlayerTransToDestEv = 0x002ddb40
_ZN15MeraWanwanTrackC1EPKc = 0x000fca40
_ZN17ButtonCursorParts3setEPKN2al10IUseLayoutE = 0x0015f8f0
_ZNK3agl13ShaderProgram14forceValidate_Eb = 0x00762230
_ZN2al21createStringIfInStackEPKc = 0x008e3f70
_ZN2al27JointSpringControllerHolder4initEPNS_9LiveActorERKNS_9ByamlIterE = 0x00819b10
_ZN16WindowProcessing7exeWaitEv = 0x001a1740
_ZN10LavaGeyser4initERKN2al13ActorInitInfoE = 0x0027bf60
_ZN2al17HitReactionKeeper5startEPKcPKN4sead7Vector3IfEEPKNS_9HitSensorESA_ = 0x0085a890
_ZNK7InkBomb9canKickedEPKN2al9SensorMsgEPNS0_9HitSensorES5_ = 0x00017670
_ZN5erepo8SendData23trySetInnerDataEventId_ERKN4sead15FixedSafeStringILi31EEE = 0x009c1040
_ZNK37SuperBowserPlessieChaseFireFlameState17calcRingTargetPosEv = 0x00052160
_ZN26CourseSelectPuppeteerGroup7controlEv = 0x0008f430
_ZN4sead8AudioMgr14createInstanceEPNS_4HeapE = 0x0074d700
_ZN3agl3pfx15ColorCorrectionD1Ev = 0x00793ae0
_ZN3agl3pfx15ColorCorrectionD2Ev = 0x00793ae0
_ZN14FlipPanelParts10receiveMsgEPKN2al9SensorMsgEPNS0_9HitSensorES5_ = 0x002326f0
_ZN12GoalPedestal4initERKN2al13ActorInitInfoE = 0x0015c600
_ZNK2al9SeRequest10verifyDataEv = 0x009af1c0
_ZN30PlayerActionGigaClimbWallClimbC2EPK15PlayerActionArgPK22IUsePlayerSnapWallInfoP23PlayerWallJumpDirectionPK23IUsePlayerWallClimbInfoPK24IUsePlayerWallClimbInput = 0x00326870
_ZN30PlayerActionGigaClimbWallClimbC1EPK15PlayerActionArgPK22IUsePlayerSnapWallInfoP23PlayerWallJumpDirectionPK23IUsePlayerWallClimbInfoPK24IUsePlayerWallClimbInput = 0x00326870
_ZN4sead13CalculateTaskD2Ev = 0x007260d0
_ZN4sead13CalculateTaskD1Ev = 0x007260d0
_ZN3agl2fx17OccludedEffectMgr16constructHostIO_Ev = 0x007be200
_ZN4sead13GameFramework19createControllerMgrEPNS_8TaskBaseE = 0x00713db0
_ZN12TargetFinder10findTargetEv = 0x00125ae0
_ZN29KoopaLastBlockPowStateDemoEndC1EP17KoopaLastBlockPowP24KoopaLastDefendeBlockPowRKN2al13ActorInitInfoE = 0x0002c5d0
_ZN29KoopaLastBlockPowStateDemoEndC2EP17KoopaLastBlockPowP24KoopaLastDefendeBlockPowRKN2al13ActorInitInfoE = 0x0002c5d0
_ZN16PlayerConstParamC1Ev = 0x00387150
_ZN16PlayerConstParamC2Ev = 0x00387150
_ZN3agl3utl13ImageFilter2D12drawGaussianEPNS_11DrawContextERKNS_14TextureSamplerERKN4sead8ViewportENS1_14GaussianKernelEbbRKNS7_7Vector2IfEE = 0x0076ad20
_ZN14EnemyStateUtil21isMsgBlowDownForSpikeEPKN2al9SensorMsgE = 0x000d2710
_ZN2al17BgmRhythmDetectorC1Ev = 0x008ee4d0
_ZN2al17BgmRhythmDetectorC2Ev = 0x008ee4d0
_ZN21KoopaChaseStateDamage8doDamageEPN2al9HitSensorEb = 0x00027be0
_ZN13FallingPillarC1EPKc = 0x00158b00
_ZN8Donketsu17trySlideChainPushEPN2al9HitSensorES2_ = 0x000cd210
_ZN19GhostPlayerFunction19makeGhostActionNameEPN4sead22BufferedSafeStringBaseIcEEPKcPKN2al9LiveActorE = 0x002e75e0
_ZN17CourseSelectFairy19startWorldClearDemoEv = 0x0007f870
_ZN2rc12isPlayerDeadEPKN2al9LiveActorE = 0x0042d5b0
_ZN2al19setRailClippingInfoEPN4sead7Vector3IfEEPNS_9LiveActorEff = 0x0089ee40
_ZN15SingleModeScene17initPlacementGoalERKN2al13ActorInitInfoE = 0x003eed10
_ZN3agl11TextureData15initializeSize_Ejjj = 0x00763730
_ZN2al19CameraDistanceCurve18findOrDefaultCurveERKNS_9ByamlIterE = 0x0091c300
_ZN20PlayerAmiiboDirector7exeScanEv = 0x00372f00
_ZN2al18startAnimCamera_RSEPKNS_13IUseCamera_RSEPNS_12CameraTicketEPKci = 0x00929f00
_ZN10MeraWanwan12attackSensorEPN2al9HitSensorES2_ = 0x000fafe0
_ZN16PlayerActionFunc16controlDirectionEP14PlayerPropertyPK15IUsePlayerInputf = 0x00324120
_ZN3agl15VertexAttribute5setUpEv = 0x00766c10
_ZN11ClimbHandle7exeDownEv = 0x001f81e0
_ZN2al22ChikaChikaBgmSequencer6updateEii = 0x008f0f00
_ZN25PlayerActionSkateJumpLoopC2EP22PlayerActionAirMoveArgP20PlayerContinuousJumpPK32IUsePlayerHorizontalSpeedAveragePK20IUsePlayerActualMovePK14IUsePlayerFlagSC_P13PlayerTriggerPK19IUsePlayerCheckArea = 0x0034ce40
_ZN25PlayerActionSkateJumpLoopC1EP22PlayerActionAirMoveArgP20PlayerContinuousJumpPK32IUsePlayerHorizontalSpeedAveragePK20IUsePlayerActualMovePK14IUsePlayerFlagSC_P13PlayerTriggerPK19IUsePlayerCheckArea = 0x0034ce40
_ZN2al11CubeMapInfoC2EiPKN3agl11TextureDataE = 0x008b18e0
_ZN19PlayerGiantDirector5startEv = 0x00394320
_ZN4sead9ThreadMgrD2Ev = 0x00734d50
_ZN4sead9ThreadMgrD1Ev = 0x00734d50
_ZN9GreenRingC1EPKc = 0x00255da0
_ZNK15DrcTouchPointer16isEnableGrabItemEPKN2al9LiveActorE = 0x00226600
_ZN13KoopaGraffiti18updateGuideMessageEb = 0x00272300
_ZN21ButtonTextScrollParts11setLabelIdxEi = 0x00164f90
_ZN3agl3utl18DebugTextureDrawerC1Ev = 0x00767530
_ZN3agl3utl18DebugTextureDrawerC2Ev = 0x00767530
_ZNK2al14CameraTicketId7isEqualERKNS_9ByamlIterE = 0x009298d0
_ZN2al19rotateVectorDegreeXEPN4sead7Vector3IfEEf = 0x0086f8b0
_ZN3eui11UniteButtonC1Ev = 0x007f8540
_ZN3eui11UniteButtonC2Ev = 0x007f8540
_ZN3agl3utl12INamedObjMgrC2Ev = 0x007cdf00
_ZN3agl3utl12INamedObjMgrC1Ev = 0x007cdf00
_ZNK2al8Collider23getRecentOnGroundNormalEj = 0x00934f60
_ZNK18WipeCurtainRanking21isExistMultiPlayer1stEv = 0x001a1fa0
_ZN15EnemyAttachItem13updatePostureEv = 0x000cff50
_ZN2al20UserCameraControllerC1EPNS_15IUseAudioKeeperEPNS_17CollisionDirectorEPNS_15AreaObjDirectorEPKbS8_PbPKa = 0x00917600
_ZN2al20UserCameraControllerC2EPNS_15IUseAudioKeeperEPNS_17CollisionDirectorEPNS_15AreaObjDirectorEPKbS8_PbPKa = 0x00917600
_ZN18ChameleonStateUtil30setRenderMaterialIndirectParamEPN2al9LiveActorEPK27RenderMaterialIndirectParam = 0x001f29d0
_ZN2al25searchVariationMacroValueEPKN2nn3g3d15ShadingModelObjEPKc = 0x008afad0
_ZN13ItemStockTray23updateCountAndSelectionEi = 0x00143390
_ZN2al30initActorCollisionWithResourceEPNS_9LiveActorEPNS_8ResourceERKN4sead14SafeStringBaseIcEEPNS_9HitSensorEPKNS4_8Matrix34IfEEPKc = 0x00836760
_ZN2al21JointSpringControllerC2Ev = 0x008194a0
_ZN2al21JointSpringControllerC1Ev = 0x008194a0
_ZN21alCameraPoserFunction37tryCalcSubTargetTurnBrakeDistanceRateEPfPKN2al14CameraPoser_RSE = 0x0091e250
_ZN2al29startCameraShakeByHitReactionEPKNS_13IUseCamera_RSEPKcS4_S4_ii = 0x0092aa50
_ZN2al17PadRumbleDirector24updateDirectPlayInfoListEv = 0x00951f00
_ZN2al9SeRequest12calcDistanceERN4sead7Vector3IfEEi = 0x009afac0
_ZN2al22setKeyMoveClippingInfoEPNS_9LiveActorEPN4sead7Vector3IfEEPKNS_13KeyPoseKeeperE = 0x0081ab30
_ZN7Skipper21receiveMsgScreenPointEPKN2al9SensorMsgEPNS0_13ScreenPointerEPNS0_17ScreenPointTargetE = 0x0011aaf0
_ZN2al20getCollisionCodeNameERKNS_8TriangleEPKc = 0x0093d750
_ZN2al20CameraAngleSwingInfo6updateERKN4sead7Vector2IfEEf = 0x00920180
_ZN10PackunFire11exeBlowDownEv = 0x00102a60
_ZN4sead7ExpHeap6adjustEv = 0x0071e160
_ZN4Bush16exeReactionDeathEv = 0x001eed30
_ZN2al24ActorCollisionController13resetToOriginEi = 0x00941c60
_ZN2al29ShadowMaskCastInterpolateCubeC1EPKc = 0x008c2fe0
_ZN2al29ShadowMaskCastInterpolateCubeC2EPKc = 0x008c2fe0
_ZN2al10appearItemEPKNS_9LiveActorERKN4sead7Vector3IfEES7_ = 0x00814ff0
_ZN21alCameraPoserFunction29tryFindNearestLimitRailKeeperEPKN2al14CameraPoser_RSERKN4sead7Vector3IfEE = 0x0091fa60
_ZN26KuriboClimbStateBodyAttackC1EPN2al9LiveActorE = 0x000ec4f0
_ZN26KuriboClimbStateBodyAttackC2EPN2al9LiveActorE = 0x000ec4f0
_ZN2rc24setAppearItemFactorByMsgEPKN2al9LiveActorEPKNS0_9SensorMsgEPKNS0_9HitSensorE = 0x00428520
_ZNK11PlayerActor17isEnableLookingAtEPN2al9HitSensorES2_ = 0x0036f180
_ZNK2al13SwingMovement6isLeftEv = 0x00880140
_ZN2al9LiveActor9hideActorEv = 0x0085bba0
_ZN3eui23TwoTouchCheckKeepButtonC2Ev = 0x007f9f40
_ZN3eui23TwoTouchCheckKeepButtonC1Ev = 0x007f9f40
_ZN21CounterGreenStarPartsC1ERKN2al14LayoutInitInfoEPKcS5_PNS0_11LayoutActorEPK15GreenStarKeeper = 0x00168a10
_ZN4sead22BufferedSafeStringBaseIDsE6formatEPKDsz = 0x00726af0
_ZN17RouteDokanBazooka21tryAdjustActiveRidersEv = 0x002ac1e0
_ZN16NpcStateFunction19calcPassiveMovementEPN2al9LiveActorEPK13NpcStateParamb = 0x0030ce20
_ZN12alSeFunction19setIsStateAfterGoalEPN2al15IUseAudioKeeperEb = 0x009a8970
_ZN15RouteDokanRider12attackSensorEPN2al9HitSensorES2_ = 0x002b1640
_ZN2rc26calcControlUserIdByPortNumEi = 0x00425660
_ZN22PlayerBigBgmController9notifyEndEv = 0x00001950
_ZN20PlayerActionBindJumpC2EP22PlayerActionAirMoveArgPK28IUsePlayerBindEndParamGetterP23IUsePlayerSensorControlP13PlayerTriggerPK19IUsePlayerCheckArea = 0x0031c700
_ZN20PlayerActionBindJumpC1EP22PlayerActionAirMoveArgPK28IUsePlayerBindEndParamGetterP23IUsePlayerSensorControlP13PlayerTriggerPK19IUsePlayerCheckArea = 0x0031c700
_ZN3agl3g3d7ResFile11BindTextureEPN2nn3g3d7ResFileEPKS4_ = 0x0075c8e0
_ZN15GamaneChameleonC1EPKcPN2al9LiveActorE = 0x000d98a0
_ZNK10MeraWanwan12isEnableBlowEPKN2al9SensorMsgEPNS0_9HitSensorES5_ = 0x000fb640
_ZN14GameDataCommon14readFromStreamEPN4sead10ReadStreamE = 0x0040f530
_ZN2al26rotateQuatYDirRandomDegreeEPNS_9LiveActorE = 0x0083d470
_ZN21ControlUserDataHolder14readFromStreamEPN4sead10ReadStreamE = 0x0040e190
_ZN2al12findSwitchNoEPKNS_15IUseStageSwitchEPKc = 0x008cc750
_ZN2al10PartsModel14movementPausedEb = 0x00886150
_ZN2al10WipeSimple9startOpenEi = 0x00888fd0
_ZN2al13DirLightParam4initERKN4sead7Vector3IfEES5_RKNS1_7Color4fES8_f = 0x0081ccd0
_ZN11ShadowMario15exeWaitTraceEndEv = 0x00137fa0
_ZN31PlayerActionStandSwimSpinAttack5setupEv = 0x003535f0
_ZN14PlessieTerrain15syncAttachmentsEb = 0x002a6c10
_ZN20CounterGoalItemPartsC1ERKN2al14LayoutInitInfoEPKcS5_P21SingleModeSceneLayout = 0x00168030
_ZN2al16isPadTypeJoyLeftEi = 0x0094c7d0
_ZN18CourseSelectLayout8endPauseEv = 0x0016d8e0
_ZN2al20AudioEventController31getAudioEffectNameByAreaCheckerEv = 0x008deb60
_ZN2al9EffectObjC2EPKc = 0x00883400
_ZN22PlayerActionGroundSpin5setupEv = 0x00340c50
_ZN2al16appearItemTimingEPKNS_9LiveActorEPKcRKN4sead7Vector3IfEES9_ = 0x00815260
_ZN2rc22isAcquiredStampByIndexEP9StampListiPK14GameDataHolder = 0x0017d200
_ZN2al18isCollidedVelocityEPKNS_9LiveActorE = 0x0093dad0
_ZN2al18tryNormalizeOrZeroEPN4sead7Vector2IfEE = 0x0086a5c0
_ZN2rc21initEchoEmitterHolderEPKN2al9LiveActorERKNS0_13ActorInitInfoE = 0x00228930
_ZNSt3__16__sortIRN2nn3vfx6detail19SortCompareLessUIntINS2_6System18SortEmitterSetDataEEEPS6_EEvT0_SA_T_ = 0x006e5ea0
_ZN2al16ShadowMaskKeeper7addCubeERKN4sead8Matrix34IfEERKNS1_7Color4fERKNS1_7Vector3IfEEffiPN3agl14TextureSamplerEbRKNS1_7Vector2IfEESJ_SJ_ib = 0x008c82a0
_ZN14EnemyStateUtil21isMsgBlowDownForGhostEPKN2al9SensorMsgE = 0x000d2790
_ZN15InGameSceneBaseC2EPKc = 0x003d4e30
_ZN4sead12SeparateHeap8tryAllocEmi = 0x0073d4c0
_ZN3agl3utl19DynamicTextureCache3endEv = 0x007957d0
_ZN2al15ModelAnimInterp17prepareAnimInterpEPN2nn3g3d11SkeletonObjEPKcS6_RKN4sead6BufferIPNS2_15SkeletalAnimObjEEE = 0x008d84b0
_ZN2al16ClippingDirectorC1EPNS_15ExecuteDirectorEiPKNS_15AreaObjDirectorEPKNS_12PlayerHolderEPNS_15SceneCameraInfoEPNS_17CameraDirector_RSE = 0x00931550
_ZN2al16ClippingDirectorC2EPNS_15ExecuteDirectorEiPKNS_15AreaObjDirectorEPKNS_12PlayerHolderEPNS_15SceneCameraInfoEPNS_17CameraDirector_RSE = 0x00931550
_ZN2al23CategoryLightInfoHolder17initStageResourceEPKNS_8ResourceE = 0x0087c920
_ZN2al17getTouchPanelPortEi = 0x00947c60
_ZN19PipePackunBodyParts10receiveMsgEPKN2al9SensorMsgEPNS0_9HitSensorES5_ = 0x0010dcd0
_ZN3agl3utl16DebugTexturePageC2Ev = 0x00767e00
_ZN3agl3utl16DebugTexturePageC1Ev = 0x00767e00
_ZN2al13RequestInterpINS_8FogParamEE12updateInterpEv = 0x008123e0
_ZN17MessageAppearBase4initERKN2al13ActorInitInfoE = 0x002b7b20
_ZN3agl6detail9FileIOMgr9DialogArgC2Ev = 0x00780180
_ZN3agl6detail9FileIOMgr9DialogArgC1Ev = 0x00780180
_ZN15SuperSkateShoes8calcAnimEv = 0x003cf110
_ZNK2al19CameraPoserParallel21calcPlayerVecOnScreenEPN4sead7Vector2IfEEi = 0x0090b090
_ZNK2al14ShadowMaskBase18getShadowIntensityEv = 0x008c27f0
_ZN27MysteryHouseCheckerFunction21tryRegisterMysteryBoxEPN2al9LiveActorE = 0x00289f70
_ZN30StageStartBindDemoMysteryHouse4killEv = 0x000ae010
_ZN28PlayerActionStandSwimSurface10updateAnimEb = 0x00353e20
_ZN11PlayerActor26conveyMaterialCodeToActionEv = 0x00366720
_ZN21BunbunStateSpinAttack19requestReactionAnimEv = 0x00010000
_ZN5DokanC1EPKc = 0x00217ff0
_ZN2al16tryGetByamlColorEPN4sead7Color4fERKNS_9ByamlIterEPKc = 0x008cf3a0
_ZNK18PlayerAliveWatcher22calcAllActivePlayerNumEv = 0x003701b0
_ZN6Rabbit11moveOnRouteEf = 0x003136d0
_ZNK2al9ByamlIter17tryGetStringByKeyEPPKcS2_ = 0x008ce160
_ZN2al16KCollisionServer9checkDiskEPNS_6KCFxyzEffRKN4sead7Vector3IfEEfjPNS3_15FixedRingBufferINS_9KCHitInfoELi512EEE = 0x00944e30
_ZN3agl6detail15PrivateResource10initializeEPN4sead4HeapES4_mm = 0x00781050
_ZNK2al13PlayerWatcher32isExistAdditionalCameraLookAtPosEv = 0x00917400
_ZN15GigaBellManager14shineCollectedEv = 0x0023d410
_ZN2al19SeWaitingListKeeper5addSeEPNS_9SeRequestE = 0x009b6fd0
_ZN11GhostPlayer9hideGhostEb = 0x002e6360
_ZN2al19CameraPoserFixedAllC1ERKNS_24CameraPoserFixedAllParamEPKNS_13PlayerWatcherEPKNS_11PlacementIdE = 0x009069c0
_ZN2al19CameraPoserFixedAllC2ERKNS_24CameraPoserFixedAllParamEPKNS_13PlayerWatcherEPKNS_11PlacementIdE = 0x009069c0
_ZN2al12MemorySystem15createSceneHeapEPKc = 0x00872cf0
_ZN16DarkBowserBattle21calcAndSetEyePositionEv = 0x00013f90
_ZN2al18ModelLightDirector7endInitEv = 0x008ae470
_ZN2rc20isGiantPlayerLandingEPKN2al9HitSensorE = 0x00433480
_ZN18IntroFlyOverCamera21finalFinishCameraPlayEb = 0x00070e80
_ZN19PlayerActionAirMove25controlHorizontalVelocityERKN4sead7Vector3IfEEfS4_ = 0x0031a970
_ZN3agl3sdw4SSAO10initializeEiPN4sead4HeapE = 0x0079db50
_ZN16ResultTimerCount6appearEv = 0x00196c60
_ZN2al20tryGetRotate_ParentYEPN4sead7Vector3IfEERKNS_13ActorInitInfoE = 0x0088a300
_ZN13DisasterSpike19clipInAtAllFallTimeEv = 0x00213d30
_ZN5erepo12SendDataBase9finalize_Ev = 0x009c1940
_ZN14BlockStateItem23collectAppearItemTimingEPN2al9HitSensorE = 0x001e4720
_ZN6KillerC1EPKciP15KillerGeneratorPKN2al24CollisionPartsFilterBaseE = 0x000e65f0
_ZN3agl3utl16PrimitiveTextureD1Ev = 0x0077bff0
_ZN3agl3utl16PrimitiveTextureD2Ev = 0x0077bff0
_ZN5Koura9startMoveERKN4sead7Vector3IfEEff = 0x00275a90
_ZN11SuperBowser14stopEverythingEv = 0x0003eae0
_ZN21DisasterSpikeDirector18forceKillAllSpikesEv = 0x00154240
_ZN2rc27isPlayerClimbOrClimbSpecialEPKN2al9HitSensorE = 0x0042f610
_ZN6Gamane16appearCoinNormalEv = 0x000d9060
_ZN13PlayerKoopaJr4initERKN2al13ActorInitInfoE = 0x003992a0
_ZN18alSubActorFunction16setGlobalYOffsetEPN2al14SubActorKeeperEPf = 0x0085d6b0
_ZN21alCameraPoserFunction25checkValidTurnToSubTargetEPKN2al14CameraPoser_RSE = 0x0091dfb0
_ZN17GateKeeperChecker4initERKN2al13ActorInitInfoE = 0x002349f0
_ZN18RouteDokanEntranceC1EPKcS1_S1_ = 0x002af2f0
_ZN15DrcTouchPointer15endSnapshotModeEv = 0x00225170
_ZN2rc23tryFindPlacementWorldIdEPKN2al9LiveActorEPb = 0x0009d3a0
_ZN2al7KeyPoseC2Ev = 0x0081a260
_ZN2al7KeyPoseC1Ev = 0x0081a260
_ZN6TentenC1EPKcP15TentenGenerator = 0x00126110
_ZN22DisasterModeController19exeAnticipationFastEv = 0x00210820
_ZN21StaffRollLayoutHolder11startAppearEv = 0x0019ad80
_ZN2al15IntervalTrigger6updateEf = 0x009766e0
_ZN18DokanBindPuppeteer4initERKN2al13ActorInitInfoE = 0x0021a630
_ZN4sead21ControllerWrapperBaseC2Ev = 0x00747ec0
_ZN22alEffectSystemFunction18drawEffectIndirectEPKN2al12EffectSystemERKN4sead8Matrix44IfEERKNS4_8Matrix34IfEEfffPKNS4_8ViewportE = 0x00960770
_ZN18CourseSelectRocketC1EPKc = 0x00091330
_ZN3agl3sdw13ShadowFrustum13clipByFrustumERKN4sead8Matrix44IfEE = 0x007d8790
_ZN2al22CameraVerticalAbsorber5startERKN4sead7Vector3IfEERKNS_15CameraStartInfoE = 0x00920f60
_ZN2al15KeyMoveMapPartsC2EPKc = 0x00862040
_ZN8BoxLightC1EPKc = 0x001eb000
_ZN19alPlacementFunction19isEnableLinkGroupIdERKN2al13ActorInitInfoEPKc = 0x0088ce10
_ZN14PlayerAnimator8copyAnimEv = 0x003742a0
_ZN4sead11TreeMapImplINS_14SafeStringBaseIcEEE6insertEPNS_11TreeMapNodeIS2_EES6_ = 0x0078e840
_ZN12GuideMessage11startAppearEPKDsif = 0x00172b40
_ZN14EnemyGenerator12killBySwitchEv = 0x000d1110
_ZN12GuideMessage16startAppearSplitEPKDsS1_if = 0x001730d0
_ZN2al16ShadowMaskKeeper16setUniformCommonEiii = 0x008c8510
_ZN2al14CameraFunction16tryGetCameraIterEPNS_9ByamlIterEPKNS_8ResourceEPKc = 0x00903bb0
_ZN11SuperBowser18tryCancelNextLaserEv = 0x00043af0
_ZN2al9RailRider4moveEv = 0x0089d930
_ZN2al16validateClippingEPNS_9LiveActorE = 0x008354f0
_ZN2rc22isPlayerOnRaidonGroundEPKN2al9LiveActorE = 0x0042d2a0
_ZN2al19reinitializeShadersEPNS_11LayoutActorE = 0x0096e040
_ZN7MapMenu13transitionOutEb = 0x0017c970
_ZN11SuperBowser30createLastPhase3ForceJumpAreasERKN2al13ActorInitInfoE = 0x0003b0d0
_ZN2rc27setAppletCancel2PAssistModeEb = 0x00427760
_ZN2al12addHitSensorEPNS_9LiveActorERKNS_13ActorInitInfoEPKcjftRKN4sead7Vector3IfEE = 0x00841020
_ZN4sead10ControllerC2EPNS_13ControllerMgrE = 0x00734ec0
_ZN9CoinFalls11updateCoinsEv = 0x00203510
_ZN2al12AtmosScatter15preDrawGraphicsEv = 0x008aa950
_ZN2al20InitResourceDataAnim9tryCreateEPNS_8ResourceES2_S2_ = 0x008d7aa0
_ZN2al11tryGetTransEPN4sead7Vector3IfEERKNS_13ActorInitInfoE = 0x00889c10
_ZN2al15SeEmitterHolderC1EPNS_15AudioSystemInfoERKN4sead14SafeStringBaseIcEEPKNS_13AudioInfoListINS_13SeEmitterInfoEEEPKNS_11ModelKeeperEPNS_12SeSourcePoseEb = 0x009a8bc0
_ZN2al15SeEmitterHolderC2EPNS_15AudioSystemInfoERKN4sead14SafeStringBaseIcEEPKNS_13AudioInfoListINS_13SeEmitterInfoEEEPKNS_11ModelKeeperEPNS_12SeSourcePoseEb = 0x009a8bc0
_ZN17LiftMikeBlockRail7exeWaitEv = 0x0027e040
_ZN15KoopaChaseMoverC2EP10KoopaChaseRKN2al13ActorInitInfoE = 0x000275a0
_ZN15KoopaChaseMoverC1EP10KoopaChaseRKN2al13ActorInitInfoE = 0x000275a0
_ZN12GoalPoleFlag15updateFollowMtxEv = 0x0024f990
_ZN2al17HitSensorDirectorC2EPNS_15ExecuteDirectorEiPNS_20MultiCoreQueueThreadE = 0x008320e0
_ZN2al17HitSensorDirectorC1EPNS_15ExecuteDirectorEiPNS_20MultiCoreQueueThreadE = 0x008320e0
_ZN17DisasterSpikeDirt19tryStartExplodeAnimEv = 0x00155670
_ZN2al13BgmLineKeeper16checkIfIslandBgmERKNS_17BgmPlayingRequestE = 0x008ed190
_ZN21BunbunStateSpinAttack9endAttackEv = 0x0000ff40
_ZN5Koura7endHoldEv = 0x00275b60
_ZN3agl6detail19DynamicUniformBlock14createInstanceEPN4sead4HeapE = 0x0075ddb0
_ZN10BlockEmpty10receiveMsgEPKN2al9SensorMsgEPNS0_9HitSensorES5_ = 0x001ddfc0
_ZN2al16PrePassLineLight13setByBeginEndERKN4sead7Vector3IfEES5_ = 0x00830090
_ZN2al19initDrawInfoDefaultEPN2nn4ui2d8DrawInfoEPNS1_16GraphicsResourceE = 0x009700d0
_ZN11ShadowMarioC2EbPKciPN2al9LiveActorEP8GoalItem = 0x001367a0
_ZN18IslandDataFunction20getOceanScenarioNameEPN2al18IUseSceneObjHolderEPNS0_17IUseMessageSystemEii = 0x00419490
_ZN17GhostPlayerPlayerC1EPKc = 0x002e8260
_ZN2al14ActionFlagCtrl13startCtrlFlagEv = 0x008d3a50
_ZN31PlayerActionCommonNodeConnector7connectEP16PlayerActionNode = 0x0031df60
_ZN4Bush16initBushOnRabbitERKN2al13ActorInitInfoERKN4sead7Vector3IfEEi = 0x001ee500
_ZN15NpcTargetFinder11forceUpdateEv = 0x00310d70
_ZN18InteractableCatToy11TryDropCoinEPN2al9HitSensorES2_ = 0x0015d4b0
_ZN11PlayerActor20checkCollisionDamageEv = 0x00366d60
_ZN16DarkBowserBattle21updateTrackedPositionEv = 0x00013e40
_ZN11ButtonGroup6selectEPKc = 0x001612a0
_ZN2al19FlareFilterDirectorD2Ev = 0x0088fc10
_ZN2al19FlareFilterDirectorD1Ev = 0x0088fc10
_ZN21BunbunStateSpinAttack11setKouraPosEv = 0x00010130
_ZN13DisasterSpike16getStartPositionEv = 0x00215730
_ZN2al14getChildLinkTQEPN4sead7Vector3IfEEPNS0_4QuatIfEERKNS_13ActorInitInfoEPKci = 0x0088c7a0
_ZN6Teresa13isPlayerSightEv = 0x0012aa60
_ZN2al16ShadowMaskKeeper14setUniformCubeEPN3agl12UniformBlockERKNS0_8PrimInfoERKN4sead8Matrix34IfEERKNS7_8Matrix44IfEE = 0x008c7920
_ZN2al32GraphicsParamRequestInterpKeeperINS_11StressParamEE13updateRequestEv = 0x00802540
_ZN3eui21InitializeMultiFilterEPN4sead4HeapERKN2nn4ui2d4PaneEPNS_8LayoutExE = 0x007e2010
_ZN18PlayerGigaDirector6damageEv = 0x00394a00
_ZN4sead18AudioTaskThreadNinC1EiPNS_4HeapERKNS_14SafeStringBaseIcEEii = 0x0074fe60
_ZN4sead18AudioTaskThreadNinC2EiPNS_4HeapERKNS_14SafeStringBaseIcEEii = 0x0074fe60
_ZN2rc35tryRelayRequestPlayerGetReactionMsgEPKN2al9SensorMsgEPNS0_9HitSensorES5_ = 0x0043a770
_ZN2al11MangaDrawerD2Ev = 0x0098ac60
_ZN2al11MangaDrawerD1Ev = 0x0098ac60
_ZN14PlayerCollider17applyVelocityCoreERN4sead7Vector3IfEERKS2_bS5_fS5_bb = 0x0037fa80
_ZN37PlayerActionConditionAirMoveToHipDrop5checkEv = 0x0031e0b0
_ZN3eui10AnimButtonC1Ev = 0x007f3ef0
_ZN3eui10AnimButtonC2Ev = 0x007f3ef0
_ZN12NeedleRoller11exeFreeMoveEv = 0x0028b4b0
_ZN11BallGimmick10exePreFallEv = 0x001d4dd0
_ZN17CubeMapControllerC1EPKc = 0x0020ab00
_ZN20KoopaChaseStateThrow11doThrowBombENS_9ThrowTypeEbi = 0x00029f60
_ZN16PlayerActionNode7connectEP21PlayerActionConditionPS_ = 0x003464a0
_ZN23CourseSelectSceneLayout22updateWorldStageStringEv = 0x0016ed40
_ZN18RCS_SaveDataLayout12appearDeleteEib = 0x00194c90
_ZN3agl3pfx8FilterAAC2Ev = 0x0079abe0
_ZN3agl3pfx8FilterAAC1Ev = 0x0079abe0
_ZN7Gorobon9exeAppearEv = 0x000dd9f0
_ZN2al22walkAndTurnToDirectionEPNS_9LiveActorEPN4sead7Vector3IfEERKS4_ffffb = 0x0083e0e0
_ZN2al12ShadowKeeper4initEPNS_9LiveActorERKNS_13ActorInitInfoERKNS_9ByamlIterE = 0x008c1250
_ZN2al17SwitchOnAreaGroup7endInitEPNS_24IScenarioCompleteCheckerE = 0x008ddc90
_ZN14CheckPointStar16handleWaitEffectEb = 0x001f57a0
_ZN2rc23getCourseSelectObjectIDEPKN2al9LiveActorERKNS0_13ActorInitInfoE = 0x0009d460
_ZN2al17BgmRegionProcInfo10createInfoERKNS_9ByamlIterEPKc = 0x008e5660
_ZN3agl3utl19DynamicTextureCache5beginEv = 0x00795750
_ZN9TitleLogo22updateLuigiButtonStateEv = 0x0019dd20
_ZN11PlayerActor6damageEb = 0x00364950
_ZN2al9EuiScreenC2Ev = 0x00970850
_ZN2al9EuiScreenC1Ev = 0x00970850
_ZN2rc18AssetLoadingThread19cancelAndDeleteLoadENS0_9LOAD_TYPEE = 0x0040ce10
_ZN15DemoSceneCameraC1EPK14GameDataHolder = 0x000a68f0
_ZN15DemoSceneCameraC2EPK14GameDataHolder = 0x000a68f0
_ZN15StageDataHolder10startStageEi = 0x00421180
_ZN16alCameraFunction19initForceAreaCameraEPKN2al13IUseCamera_RSERKNS0_13PlacementInfoEPKc = 0x0092b010
_ZN7Trapeze11updateModelEv = 0x002d6d00
_ZN3agl3g3d25TextureDataInitializerG3D10initializeEPNS_11TextureDataERN2nn3gfx10ResTextureE = 0x0077fd10
_ZN14PlayerCollider11cutVelocityEj = 0x0037f400
_ZN2al13AnimPlayerVis4initEPKNS_18AnimPlayerInitInfoE = 0x008d78c0
_ZN15KuriboClimbRailC1EPKc = 0x000eae70
_ZN12DemoCutscene14tryHidePlayersEv = 0x000a0840
_ZN2rc15isPlayerInWaterEPKN2al9HitSensorE = 0x0042dad0
_ZN9TimerCoinC1EPKc = 0x002cac30
_ZN3eui8RootPaneC1EPKN2nn4ui2d7ResPaneERKNS2_11BuildArgSetE = 0x007fb120
_ZN3eui8RootPaneC2EPKN2nn4ui2d7ResPaneERKNS2_11BuildArgSetE = 0x007fb120
_ZNK2al9SeRequest13getOriginalIdEv = 0x009af040
_ZN20DestructableMapParts4initERKN2al13ActorInitInfoE = 0x0020b730
_ZN22CourseSelectMenuHeader13setButtonTypeEb = 0x00141740
_ZN16SuperBowserShell12initFromYamlEv = 0x00053460
_ZN8GoalItem10appearIdleEv = 0x00242250
_ZN11DoubleMarioC1EPKcP10ItemBubbleb = 0x0021faf0
_ZN32SuperBowserFireFlamePlessieChaseC1EPKcP37SuperBowserPlessieChaseFireFlameState = 0x00048070
_ZN2al15calcAngleDegreeERKN4sead7Vector2IfEES4_ = 0x00869480
_ZN20LookAtPointInterpole10updateWaitEv = 0x00283620
_ZN2al20PostProcessingFilter15decrementPresetEv = 0x00988010
_ZN2al16makeMtxUpSidePosEPN4sead8Matrix34IfEERKNS0_7Vector3IfEES7_S7_ = 0x00977630
_ZN13KoopaFireBall13exeSpawnCheckEv = 0x0026e270
_ZN6Gamane6exeRunEv = 0x000d8a40
_ZN2al29calcPlayerListOrderByDistanceEPKNS_9LiveActorEPS2_j = 0x0088dfa0
_ZNK4sead17RegionLanguageMgr27parseRegionLanguageMaskStr_EPNS_10RingBufferINS_16RegionLanguageIDEEERKNS_14SafeStringBaseIcEE = 0x00723bc0
_ZN12CursorTargetC2ERKN2al14LayoutInitInfoEPKcS5_PNS0_11LayoutActorE = 0x0016f990
_ZNK3agl3sdw18PrimitiveOcclusion22drawPrecomputeSphereDoEiNS_10ShaderModeE = 0x008baf70
_ZN3eui9AlignPane13getAlignInfo_EPN2nn4ui2d4PaneEPfS5_S5_ = 0x007fc3a0
_ZN2al20ShaderMirrorDirectorD1Ev = 0x008b5540
_ZN2al20ShaderMirrorDirectorD2Ev = 0x008b5540
_ZN2al32GraphicsParamRequestInterpKeeperINS_15ShadowMaskParamEE13updateRequestEv = 0x008c7360
_ZN15alModelFunction38bindShaderParamAndConvertParamCallbackEPN2nn3g3d8ResModelEPKN2al12ShaderHolderE = 0x00879830
_ZN2al3Bgm7stopBgmEi = 0x008ebc70
_ZN21alCameraPoserFunction21calcCameraRotateStickEPN4sead7Vector2IfEEPKN2al14CameraPoser_RSE = 0x0091fba0
_ZN3agl2fx7OfxBaseC2Ev = 0x007c0720
_ZN15PackunStateHold4initEv = 0x001086d0
_ZN2al12LiveActorKit21initHitSensorDirectorEib = 0x00831cf0
_ZN20TentackStateFallRock5shootEb = 0x0005f730
_ZN22DisasterModeController15updateAmbientSEEv = 0x0020d860
_ZN21PlayerFireBallCreator6createEv = 0x00393a10
_ZN13PlayerKoopaJr21tryStartMirrorHipDropEv = 0x0039ebe0
_ZN19PlayerGiantDirector8forceEndEv = 0x003943c0
_ZN2al14SimpleModelG3D20createFromOtherModelEPS0_ = 0x0087cd00
_ZN2al24getLinksActorDisplayNameERKNS_13ActorInitInfoEPKci = 0x00838c30
_ZN2al17DepthShadowDrawer16setupDepthShadowEi = 0x008c0910
_ZN2al13ParameterBase7isEqualERKS0_ = 0x00985ea0
_ZN5MarchC1EPKcS1_S1_i = 0x000f7d80
_ZN6Vessel8Emulator7Virtual11PlatformHvc8CHvcMmc413_AdjustBusMapEv = 0x001b6850
_ZN2al12PlayerHolderC1Ei = 0x0088d580
_ZN2al12PlayerHolderC2Ei = 0x0088d580
_ZNK2al17ModelShaderAssign28activateMaterialUniformBlockEPN3agl11DrawContextEPKN2nn3g3d11MaterialObjEi = 0x0097ce50
_ZN3agl2fx12OfxLensFlareD1Ev = 0x007c35b0
_ZN3agl2fx12OfxLensFlareD2Ev = 0x007c35b0
_ZN3agl2fx19OfxLensFlareDynamicD1Ev = 0x007c35b0
_ZN3agl2fOfxLensFlareDynamicD2Ev = 0x007c35b0
_ZN4sead6BufferIN3agl4lght12LightPrePass9ProjLightEE14tryAllocBufferEiPNS_4HeapEi = 0x007af2e0
_ZN2al18RotateHangDynamicsC2Ev = 0x0087f6e0
_ZN2al18RotateHangDynamicsC1Ev = 0x0087f6e0
_ZN3agl3utl15PrimitiveVertex14createInstanceEPN4sead4HeapE = 0x0077c7d0
_ZNK14PlayerAnimator9isSubAnimERKN4sead14SafeStringBaseIcEE = 0x00375220
_ZN2al39initActorWithArchiveNameNoPlacementInfoEPNS_9LiveActorERKNS_13ActorInitInfoERKN4sead14SafeStringBaseIcEEPKc = 0x00838490
_ZNK2al6Effect20isEmitterActiveFullyEv = 0x0095e8b0
_ZN4sead18Matrix34CalcCommonIfE7slerpToERNS_9BaseMtx34IfEERKS3_S6_f = 0x008d88e0
_ZNK16PlayerEntryParts8isActiveEv = 0x001896f0
_ZN2al20tryFindAreaObjByNameEPKNS_11IUseAreaObjEPKcS4_ = 0x008dc150
_ZN3agl6detail20GPUMemBlockMgrHeapEx8tryAllocEPNS_15GPUMemBlockBaseEmimimmRKNS0_14MemoryPoolTypeEbb = 0x00759040
_ZN2al14ActorAlphaCtrl9tryCreateEPNS_9LiveActorEPKNS_8ResourceEPKc = 0x0097fc70
_ZN18MapOceanShinePartsC1ERKN2al14LayoutInitInfoEPKcS5_PNS0_11LayoutActorEPK14GameDataHolder = 0x00074110
_ZN2al12isNearPlayerEPKNS_9LiveActorEf = 0x0088df30
_ZN3agl2fx7OfxBase17loadPresetByIndexEib = 0x007c1420
_ZN5Gabon10receiveMsgEPKN2al9SensorMsgEPNS0_9HitSensorES5_ = 0x000d6ef0
_ZN10PipePackun19hitInvincibleAttackEPKN2al9SensorMsgEPNS0_9HitSensorE = 0x0010c680
_ZN3agl6driver11NVNtexture_9setDirectERK10NVNtexturei = 0x0075bd70
_ZN11PlayerInput10snapNormalEPN4sead7Vector2IfEE = 0x00397330
_ZNK14PlayerAnimator15getAnimFrameMaxERKN4sead14SafeStringBaseIcEE = 0x00375310
_ZN2al24makeMtxFrontNoSupportPosEPN4sead8Matrix34IfEERKNS0_7Vector3IfEES7_ = 0x00977060
_ZN3agl3pfx21DepthOfFieldParameterC1Ev = 0x007b4af0
_ZN3agl3pfx21DepthOfFieldParameterC2Ev = 0x007b4af0
_ZN12GuideMessage11startAppearEPKcS1_ifb = 0x00172dd0
_ZN2al16PrePassLightBase15requestKillCoreEi = 0x00823dd0
_ZN14PunpunDivision13tryStartThrowEv = 0x00038fd0
_ZNK22DisasterModeController22calcFramesOfProsperityEv = 0x0020ef60
_ZN2al14CameraPoserFix19setReturnWithAnglesEifff = 0x008fb9e0
_ZN21SingleModeSceneLayout8endPauseEv = 0x00198890
_ZN22CourseSelectMenuHeaderC1ERKN2al14LayoutInitInfoE = 0x00141540
_ZN9Gotogoton9exeRotateEv = 0x002526b0
_ZN20ButtonItemStockParts9startDemoEv = 0x00162420
_ZN4sead4Path15changeDelimiterEPNS_22BufferedSafeStringBaseIcEEc = 0x00711810
_ZN3eui11AnimatorSet6selectEj = 0x007ef740
_ZN8GoalPole16updateBindSensorEv = 0x0024b9a0
_ZN3npc12isSensorBallEPKN2al9HitSensorE = 0x0030fb50
_ZN2rc27isSingleModeBossBattleSceneEPKN2al5SceneE = 0x004436e0
_ZN3agl3sdw11DepthShadowD2Ev = 0x007d3510
_ZN3agl3sdw11DepthShadowD1Ev = 0x007d3510
_ZNK21KinopioBrigadeWatcher24getDiscoveredMemberCountEv = 0x0026c070
_ZN15TentackTentacle11appearDelayEi = 0x00060100
_ZN3agl11DisplayList22beginDisplayListBufferENS_10GPUMemAddrIhEEmb = 0x0075d3f0
_ZN14EnemyStateUtil13isMsgBlowDownEPKN2al9SensorMsgE = 0x000d25a0
_ZNK2al11LinearCurve14calcNearestPosEPN4sead7Vector3IfEERKS3_ = 0x0089b990
_ZN3agl3utl22TextureMemoryAllocator10initializeENS_14GPUMemVoidAddrEPN4sead6BufferINS1_7StorageEEEmiPNS3_4HeapE = 0x0077d880
_ZN21DisasterSpikeDirector25spawnRecklessTorpedoSpikeEP11SuperBowser = 0x001538a0
_ZN20PlayerSensorExpanderC2EPN2al9LiveActorEPKc = 0x003b2360
_ZN20PlayerSensorExpanderC1EPN2al9LiveActorEPKc = 0x003b2360
_ZN3agl6detail8RootNode10initializeEPN4sead4HeapERKNS2_14SafeStringBaseIcEE = 0x007823a0
_ZN12GameDataFile19retireStageExitDoorEv = 0x004115c0
_ZNK2al15ExecuteDirector4drawEPKc = 0x00809210
_ZN19GhostPlayerFunction25registerGhostPlayerPlayerEP17GhostPlayerPlayer = 0x002e74b0
_ZN2al26ApplicationMessageReceiver6updateEv = 0x008d9390
_ZN2al13calcNerveRateEPKNS_9IUseNerveEii = 0x00880cd0
_ZN2al15HitSensorKeeper9addSensorEPNS_9LiveActorEPKcjftPKN4sead7Vector3IfEEPKNS5_8Matrix34IfEERS8_ = 0x008134e0
_ZN2al21ClippingAreaActorInfo17updateAlphaOnListEfPNS_27ClippingAreaActorViewHolderE = 0x0092d350
_ZNK2al13BgmLineKeeper16getActiveBgmLineEv = 0x008edda0
_ZN21WarpCubeBindPuppeteerC1EPKcRKN2al13ActorInitInfoE = 0x002dee60
_ZN21WarpCubeBindPuppeteerC2EPKcRKN2al13ActorInitInfoE = 0x002dee60
_ZN7CoinRedC1EPKcP11IUseRedCoin = 0x00205940
_ZN13ShardsWatcherC1EPKc = 0x002b5b50
_ZN18KarakuriCastleDoor9startOpenERKN4sead7Vector3IfEEi = 0x00266930
_ZN20CourseSelectDirector15connectNodeLinkEv = 0x0007d490
_ZN18ChameleonStateUtil19updateIndirectParamEP27RenderMaterialIndirectParamfff = 0x001f2800
_ZN2al11MangaDrawer19initProjectResourceEPN2nn3g3d7ResFileE = 0x0098ad00
_ZNK21DisasterSpikeDirector26calcTorpedoSpikePlayerLeadEv = 0x00151fc0
_ZN16StageSceneLayout7endDemoEbb = 0x0019b660
_ZN2al25CameraPoserParallelOnRail18calcCameraDistanceEv = 0x0090e3b0
_ZN8Nokonoko11attachKouraEv = 0x000fe6b0
_ZN16alSensorFunction20findSensorTypeByNameEPKc = 0x008356e0
_ZN17TreeBindPuppeteerC2EPKcP4Tree = 0x002daca0
_ZN17TreeBindPuppeteerC1EPKcP4Tree = 0x002daca0
_ZN2al27createRollingCubePoseKeeperEPKNS_9LiveActorERKNS_13ActorInitInfoE = 0x0081be90
_ZN11SuperBowser19controlPlessieChaseEv = 0x0003f2b0
_ZN11ShadowMario12exeWaitStartEv = 0x00138d20
_ZN2al19CameraAngleCtrlInfo24receiveRequestFromObjectERKNS_23CameraObjectRequestInfoE = 0x00919700
_ZN18EnemyStateBlowDown6appearEv = 0x000d1c30
_ZN2rc36tryDisappearItemByStartGoalDemoHouseEPN2al9LiveActorEPKNS0_9SensorMsgE = 0x00428fd0
_ZNK16BossBunretsuCore18isReceivableAttackEv = 0x000bdd10
_ZN3agl3pfx20FlareFilterParameter10initializeEPNS_3utl13IParameterObjEPN4sead4HeapE = 0x00796cc0
_ZN13ListClearStar12setClearListEi = 0x00178eb0
_ZN16SuperBowserShell9forceHideEv = 0x00054fd0
_ZN2al21CameraPoserBossBattle9loadParamERKNS_9ByamlIterE = 0x008f7e10
_ZN4sead5Arena10initializeEm = 0x00722ce0
_ZN2al19RollingCubeMapPartsC1EPKc = 0x00863f80
_ZNK15SingleModeScene19isTriggerItemSelectEPi = 0x003e9300
_ZN10StageTimer7endDemoEv = 0x0019c7c0
_ZNK3agl4lght4SSII11drawReduce_EPNS_11DrawContextEiiRKNS_12RenderBufferERKNS_14TextureSamplerEb = 0x007b31c0
_ZN15GigaBellManager24shouldPlayUnlockCutsceneEv = 0x0023cb70
_ZN2al14ActionAnimCtrl4initEPKcS2_ = 0x008cfd70
_ZN2al20GyroCameraController13updateRecoverERKN4sead12LookAtCameraEff = 0x00915db0
_ZN2rc21isSingleModeBossSceneEPKN2al5SceneE = 0x00443650
_ZN22FloatingIslandRailPartC1EPKc = 0x00159430
_ZN3agl12RenderBuffer47adjustPhysicalAreaAndVirtualSizeFromColorTargetEj = 0x0075e320
_ZN2al21SaveDataSequenceWrite5startEPhjjb = 0x008a3190
_ZN15screenfilterCpu7ProcessEPjS0_ = 0x001cc7e0
_ZN12IslandHolderC1EPKc = 0x002e3fc0
_ZN4sead8Geometry26calcIntersectionRayToPlaneERKNS_3RayINS_7Vector3IfEEEERKNS_6Plane3IfEEPf = 0x0073b0a0
_ZN2rc28tryFindRelativeControlUserIdEPKN2al9LiveActorEPNS0_13ScreenPointerE = 0x00426530
_ZN17RouteDokanBazooka6activeEv = 0x002abd00
_ZN7SpinnerC1EPKc = 0x0011e970
_ZN3agl3utl23DynamicTextureAllocator5allocEPNS_11DrawContextERKN4sead14SafeStringBaseIcEENS_13TextureFormatEjjjPNS_14GPUMemVoidAddrENS1_12AllocateTypeEbb = 0x00768ee0
_ZN9MagmaFish19updateJointSyncRailEv = 0x000f7510
_ZNK11SuperBowser23canUpdateForceJumpAreasEv = 0x00043f10
_ZN2al32GraphicsParamRequestInterpKeeperINS_11StressParamEE10NamedParamC2Ev = 0x00802b40
_ZN13PlayerKoopaJr27resetHeadLookJointImmediateEv = 0x003a0500
_ZN4sead6BufferIN3agl2fx17OccludedEffectMgr8Resource10ResTexInfoEE14tryAllocBufferEiPNS_4HeapEi = 0x007bfc30
_ZN2al33isEqualBgmActiveLineSituationNameEPKNS_15IUseAudioKeeperEPKc = 0x008f08e0
_ZN2al18CameraInterpole_RS6updateERKN4sead12LookAtCameraE = 0x00924d70
_ZN3agl3sdw11DepthShadow19updatePlaneClipInfoEv = 0x007d3bd0
_ZN3eui11HoverButton10InitializeEPN4sead4HeapEPN2nn4ui2d4PaneEPNS_8AnimatorEPNS_8LayoutExE = 0x007f5810
_ZNK2al18LayoutActionKeeper18getLayoutPaneGroupEPKc = 0x0096d7f0
_ZN2al12ViewRendererC2EPNS_18GraphicsSystemInfoE = 0x00956330
_ZN2al12ViewRendererC1EPNS_18GraphicsSystemInfoE = 0x00956330
_ZN3agl17ShaderCompileInfo6createEiiPN4sead4HeapE = 0x007603c0
_ZN21alCameraPoserFunction14multVecInvZoneEPN4sead7Vector3IfEERKS2_PKN2al14CameraPoser_RSE = 0x0091f580
_ZN3agl3utl22TextureMemoryAllocatorD1Ev = 0x0077d7f0
_ZN3agl3utl22TextureMemoryAllocatorD2Ev = 0x0077d7f0
_ZN2al10isXluBlendEPKN2nn3g3d11MaterialObjE = 0x00806bc0
_ZN8BlockPow18onConnectRailBlockEv = 0x001df700
_ZN11PlayerActor13initNameplateERKN2al14LayoutInitInfoE = 0x0036f3c0
_ZN3agl24TextureDataImageAccessorD2Ev = 0x00765070
_ZN3agl24TextureDataImageAccessorD1Ev = 0x00765070
_ZN2al23getPrePassProjLightInfoEPKNS_9LiveActorEPKcPfS5_PN4sead7Vector3IfEES9_ = 0x00820340
_ZN11SuperBowser22updateShadowDropLengthEv = 0x0003fb00
_ZNK21CourseSelectNodeParts9isEndGrowEv = 0x00086550
_ZN2al20AudioEventController22initAfterInitPlacementEPKNS_13AudioDirectorE = 0x008de380
_ZN2al15FootPrintHolderC2EPNS_9LiveActorEPKcPNS_15FootPrintServerE = 0x00884240
_ZN2al15FootPrintHolderC1EPNS_9LiveActorEPKcPNS_15FootPrintServerE = 0x00884240
_ZN3eui10AnimButton14BuildStateAnimERKN2nn4ui2d10ControlSrcEPNS_8LayoutExE = 0x007f4260
_ZNK17LuckyIslandHolder23canStartLuckyIslandDemoEv = 0x00287300
_ZN21KinopioBrigadeCheckerC1EPKc = 0x0026b4c0
_ZN14CheckPointStar14updateFlashingEv = 0x001f5600
_ZN16CourseSelectRoad9startOpenEb = 0x00091140
_ZN12IslandHolder11allocBufferEii = 0x002e4ba0
_ZN21BoxPropellerPropellerC1EPKN2al9LiveActorEPKcRKNS0_13ActorInitInfoES5_ = 0x001ed650
_ZN4sead15FixedRingBufferIN2al24CollisionMultiSphereBase6ResultELi64EEC2Ev = 0x00383520
_ZN2al21makeMapPartsModelNameEPN4sead22BufferedSafeStringBaseIcEES3_RKNS_13PlacementInfoE = 0x00838540
_ZN2rc32createPlayerRetargettingSelectorEPKN2al18IUseSceneObjHolderE = 0x003b1780
_ZN19SwitchRotateWatcherC1EPKc = 0x002c6ac0
_ZN2al15startAnimCameraEPKNS_9LiveActorEPKNS_10CameraInfoEPKci = 0x00914aa0
_ZNK7Swimmer13isInTerritoryEv = 0x00120d20
_ZN7Kuribon7controlEv = 0x000ef6a0
_ZNK4sead11XmlDocument4saveEPNS_11WriteStreamEPNS_4HeapEbPNS_10XmlElementE = 0x00740980
_ZN15GigaBellManager12setLockCountEi = 0x0023c840
_ZN2al26makeTextureDataFromArchiveEPN3agl11TextureDataEPKcS4_S4_ = 0x009ba180
_ZN21DrcAssistDirectorList20isPlayerHoldingStampEv = 0x00222980
_ZN19DemoSceneDarkBowserC1EPKcP20DemoSceneActorHolder = 0x00071d90
_ZN2al16getRandomNonSyncEf = 0x0086b300
_ZN3eui14ArcResourceMgr26reinitializeShaderResourceEPv = 0x007fe010
_ZN14PipePackunBody10killSwitchEv = 0x0010d3a0
_ZN4sead6ThreadD1Ev = 0x00734490
_ZN4sead6ThreadD2Ev = 0x00734490
_ZN21GigaBellBindPuppeteerC1EPKc = 0x0015ba80
_ZN21GigaBellBindPuppeteerC2EPKc = 0x0015ba80
_ZN2rc21addScoreComboByFactorEPKN2al9LiveActorEPNS0_9HitSensorEPKcPKNS0_9SensorMsgEf = 0x00443bc0
_ZN19RaidonSurfAnimState16updateMoveEffectEv = 0x003c8ed0
_ZN10PlayReport12SetEventNameEN4sead15FixedSafeStringILi31EEEii = 0x003b6f60
_ZN2al8SequenceD1Ev = 0x008a9500
_ZN2al8SequenceD2Ev = 0x008a9500
_ZN3agl3pfx21DepthOfFieldParameter20assignShaderProgram_Ev = 0x007b6250
_ZN2al14SeesawMapPartsC1EPKc = 0x00865f60
_ZN15RaidonPuppeteerC2Ev = 0x003bcd90
_ZN15RaidonPuppeteerC1Ev = 0x003bcd90
_ZN2al15CameraPoserCartC1EPKc = 0x008f8f00
_ZN2al15CameraPoserCartC2EPKc = 0x008f8f00
_ZN2al21ScreenCaptureExecutor12resetRequestEi = 0x008a8080
_ZNK2al15RenderVariables16bindRenderBufferEv = 0x0095cd80
_ZN2al14CameraDirector16switchCameraModeEv = 0x00902770
_ZN15DemoScenePlayer4initERKN2al13ActorInitInfoE = 0x000a73f0
_ZN3agl3utl22TextureMemoryAllocatorC1Ev = 0x0077d770
_ZN3agl3utl22TextureMemoryAllocatorC2Ev = 0x0077d770
_ZN2al18RadialBlurDirector7controlEv = 0x0089b220
_ZN2al14ActionAnimCtrl9tryCreateEPNS_9LiveActorEPKcS4_ = 0x008cfc40
_ZN19WarpCubeLockedPiece7exeWaitEv = 0x002df820
_ZN18PlayerActionHolded6updateEv = 0x003422b0
_ZNK10StageScene21isEnableOpenStartWipeEv = 0x003f3a00
_ZN2al28setSklAnimBlendWeightSixfoldEPNS_9LiveActorEffffff = 0x00833c90
_ZN11TentackHeadC1EPKcP11TentackBaseb = 0x000573e0
_ZN3eui12BoxCursorMgr14eraseNodeLinksEPKNS_13BoxCursorNodeE = 0x007f5c40
_ZN2al25CameraPoserProgramable_RSC2EPKN4sead7Vector3IfEES5_S5_ = 0x0092ba10
_ZN2al25CameraPoserProgramable_RSC1EPKN4sead7Vector3IfEES5_S5_ = 0x0092ba10
_ZN2al10hideShadowEPNS_9LiveActorEPKc = 0x008bb7b0
_ZN2al15VignettingParamC2Ev = 0x0099ac20
_ZN2al15VignettingParamC1Ev = 0x0099ac20
_ZN2al18GraphicsSystemInfoC2EPKc = 0x00803c10
_ZN2al18GraphicsSystemInfoC1EPKc = 0x00803c10
_ZN2al9FootPrintC1ERKNS_13ActorInitInfoEPKc = 0x00883eb0
_ZNK3agl3pfx15ColorCorrection14updateProgram_Ev = 0x007945c0
_ZN14ChorobonHolderC1EPKc = 0x000c8280
_ZN2al19CameraPoserParallel28calcLookAtPosToScreenCenterYEv = 0x0090aa30
_ZN11ShadowMario20tryRestoreLastActionEv = 0x00138b90
_ZNK12PlayerEffect10isEmittingEPKc = 0x00391700
_ZN17SkipperTrampoline13tryJumpPlayerEv = 0x0011bc00
_ZN3agl3sdw4SSAO7ContextC2Ev = 0x0079cff0
_ZN3agl3sdw4SSAO7ContextC1Ev = 0x0079cff0
_ZN10NekoNormal10exeStartleEv = 0x00304620
_ZN18DarkBowserRingBeam15cutSoundEffectsEv = 0x000cc830
_ZN2al15AreaObjDirector18createAreaObjGroupERKNS_12AreaInitInfoE = 0x008d9f30
_ZN17PlayerCooperationC2Ej = 0x00390a00
_ZN17PlayerCooperationC1Ej = 0x00390a00
_ZN3agl3sdw15DepthShadowUnit18updateShadowMatrixEiiff = 0x007d6cc0
_ZN2al14CollisionParts11resetAllMtxERKN4sead8Matrix34IfEE = 0x00937aa0
_ZN2rc25EffectObjFollowCameraGame4initERKN2al13ActorInitInfoE = 0x001582f0
_ZN10Lighthouse14startInkPillarEv = 0x002803b0
_ZN3agl2fx10RadialBlur10initIndex_EiiPN4sead4HeapE = 0x007cfbb0
_ZN12BossBunretsu11startGatherEb = 0x000badf0
_ZN13OceanWaveWake17attachWakeToActorEPN2al9LiveActorERKNS_6ParamsEi = 0x00291f10
_ZNK11SuperBowser25isPlayerInBetweenLegsAreaEv = 0x00043bb0
_ZN17LuckyIslandHolder19setIslandFlagActiveEv = 0x00287400
_ZNK2al22AlbedoModeProjLightMgr9drawImpl_EPN3agl11DrawContextERKNS_16LppLightDataBaseINS_14ProjLightParamEEEiRKNS1_4lght12LightPrePass7ContextERNSA_11CallbackArgE = 0x0082a480
_ZN5erepo12SaveDataInfoD2Ev = 0x009c0200
_ZN5erepo12SaveDataInfoD1Ev = 0x009c0200
_ZNK2al22DirectionalLightKeeper23findDirLightParamByNameEPKc = 0x0081dae0
_ZN10SkateShoes13tryWallHitEndEv = 0x003cdcd0
_ZN2al17forceInitLanguageE10alLanguage = 0x00979540
_ZN11SuperBowser31lastPhase3ForceJumpAreaSwitchOnEv = 0x00040f60
_ZN15SingleModeScene19initPlacementObjectEPKN2al9StageInfoERKNS0_13ActorInitInfoEPKc = 0x003efa20
_ZNK2al30AudioGeneralPurposeAreaChecker8isInAreaEv = 0x008def90
_ZN2al8Collider7collideERKN4sead7Vector3IfEE = 0x00935a20
_ZN22GoalBonusGameBlockSlotC1EPKc = 0x0023fbe0
_ZN2al15GpuMemAllocator11allocMemoryEPKcii = 0x00956030
_ZN6Vessel8Emulator7Virtual11PlatformHvc12CHvcMapper5F13_AdjustBusMapEv = 0x001b9d70
_ZN13JumpFlipPanelC1EPKc = 0x00264790
_ZN24BgmRhythmAnimeController16updateRhythmInfoEv = 0x001d9650
_ZN2al18RotateHangDynamics6updateEf = 0x0087f9b0
_ZN2al23calcKeyMoveClippingInfoEPN4sead7Vector3IfEEPfPKNS_13KeyPoseKeeperEf = 0x0081a9e0
_ZN27CourseSelectStateStageEnterC1EP17CourseSelectSceneRKN2al14LayoutInitInfoEPNS2_15SceneCameraInfoEPKNS2_14GameSystemInfoE = 0x0009bb10
_ZN27CourseSelectStateStageEnterC2EP17CourseSelectSceneRKN2al14LayoutInitInfoEPNS2_15SceneCameraInfoEPKNS2_14GameSystemInfoE = 0x0009bb10
_ZN2al22pushBackCollisionPartsEPN4sead5TListIPNS_14CollisionPartsEEES3_ = 0x0093a220
_ZN2al13AnimPlayerSkl15setSklAnimFrameEifb = 0x008d67f0
_ZN2al14createInfoListINS_18SePlayInfoInActionEEEPNS_13AudioInfoListIT_EERKNS_9ByamlIterE = 0x009b4090
_ZN21alCameraPoserFunction18calcCameraGyroPoseEPKN2al14CameraPoser_RSEPN4sead7Vector3IfEES7_S7_ = 0x0091e720
_ZN2al10PartsModel10updatePoseEv = 0x00885d70
_ZN9FlingPole14setPuppetOnTopEv = 0x0022f290
_ZN2al14calcDirToActorEPN4sead7Vector3IfEEPKNS_9LiveActorES6_ = 0x0083de80
_ZN3agl2fx17OccludedEffectMgr4calcEv = 0x007bdf10
_ZN14ListStampParts11startDecideEv = 0x0017b360
_ZN2al18CustomTagProcessor14getPadPairTypeEv = 0x009788f0
_ZN13NokonokoNaked10exeRunAwayEv = 0x000fff50
_ZN13DisasterSpike4initERKN2al13ActorInitInfoE = 0x00212110
_ZN2rc35tryFindRelativeControlUserIdBitFlagEPN2al9HitSensorE = 0x004264a0
_ZN2al12ParameterObj11tryGetParamERKNS_9ByamlIterE = 0x00986760
_ZN2rc9HealthBar15updateHealthBarEv = 0x00016b80
_ZN9FlingPole7controlEv = 0x0022f340
_ZN7InkBomb19setupEffectMaterialEv = 0x00017910
_ZN14BossWackunBody11startBattleEv = 0x00009df0
_ZNK14PlayerCollider11calcHeadPosEPN4sead7Vector3IfEERKS2_b = 0x0037f900
_ZN2rc23getTouchPointerPositionEPKN2al9LiveActorE = 0x00223050
_ZN13PlayerKoopaJr16updateAIMovementEb = 0x003a27f0
_ZN26ProductAsyncResourceLoader17tryStartTitleLoadEv = 0x003fbf50
_ZN14SnapshotLayout18rotatePreviewImageEf = 0x00147eb0
_ZN16PlayerActionFunc14isMapCodeSkateEPK19IUsePlayerCollision = 0x00324c30
_ZN11OptionsMenuC1ERKN2al14LayoutInitInfoEPNS0_14CameraDirectorEb = 0x00144f60
_ZN23StrongHipDropReactPoint4initERKN2al13ActorInitInfoE = 0x002c1a90
_ZN2al18UniformBlockSetterD2Ev = 0x008b8870
_ZN2al18UniformBlockSetterD1Ev = 0x008b8870
_ZN11OptionsMenu6exeEndEv = 0x00145bd0
_ZN3agl4cull18ViewFrustumCulling6updateERKN4sead8Matrix34IfEERKNS2_8Matrix44IfEEffffRKNS2_7Vector2IfEE = 0x0079a390
_ZN2al19RollingCubeMapParts20setNerveNextMovementEb = 0x00864670
_ZN2al15FootPrintHolder15appearFootPrintERKN4sead7Vector3IfEE = 0x008846f0
_ZN11ButtonGroup23reloadCursorDestinationEPKcS1_ = 0x00161470
_ZN2al13getChildLinkTEPN4sead7Vector3IfEERKNS_13ActorInitInfoEPKci = 0x0088c5a0
_ZN20DemoScenePlayerModel9startDemoERKN4sead8Matrix34IfEE = 0x000a8520
_ZN9SignBoardC1EPKc = 0x002b6750
_ZNK2al15LayoutPaneGroup15getAnimFrameMaxEv = 0x00971e30
_ZN2rc20replaceDemoPlayerAllEPKN2al9LiveActorERKN4sead7Vector3IfEERKNS4_4QuatIfEEf = 0x000aa260
_ZN2al20MultiCoreQueueThread8waitDoneEv = 0x0096ad30
_ZN2al23SaveDataSequenceInitDirC2Eh = 0x008a3400
_ZN2al23SaveDataSequenceInitDirC1Eh = 0x008a3400
_ZN2al14CollisionParts14validateByUserEv = 0x00937be0
_ZN8GoalPole12tryCreateNpcERKN2al13ActorInitInfoE = 0x0024a2b0
_ZNK3agl13ShaderProgram8activateEPNS_11DrawContextEb = 0x00762680
_ZNK2al15LayoutPaneGroup15getAnimFrameMaxEPKc = 0x00971e60
_ZN2al18ModelLightDirectorC2EPNS_18GraphicsSystemInfoE = 0x008ae2a0
_ZN2al18ModelLightDirectorC1EPNS_18GraphicsSystemInfoE = 0x008ae2a0
_ZN2rc23forceEndGuideGameWindowEPKN2al18IUseSceneObjHolderE = 0x001729a0
_ZN15OceanWaveRipple4initEv = 0x002a06a0
_ZN4sead15OrthoProjectionC1EffRKNS_8ViewportE = 0x00738940
_ZN4sead15OrthoProjectionC2EffRKNS_8ViewportE = 0x00738940
_ZThn192_N2nn3atk6detail6driver23AdvancedWaveSoundPlayerD0Ev = 0x0065e8c0
_ZThn328_N14PlayerFireBall8forceEndEv = 0x00392ca0
_ZN14RaidonEndState21receiveMsgScreenPointEPKN2al9SensorMsgEPNS0_13ScreenPointerEPNS0_17ScreenPointTargetE = 0x003bc0a0
_ZN2al22AudioSituationDirectorC2EPPKci = 0x008dffd0
_ZN2al22AudioSituationDirectorC1EPPKci = 0x008dffd0
_ZNK2al15LayoutPaneGroup11isAnimExistEPKc = 0x00971f00
_ZN18CourseSelectLayoutC1Ev = 0x0016d5f0
_ZN18CourseSelectLayoutC2Ev = 0x0016d5f0
_ZN9BombBound6thrownENS_4TypeERKN4sead7Vector3IfEEb = 0x00002f90
_ZN19RaidonRideAnimState15updateSwimSoundEv = 0x003bd8d0
_ZN2rc31tryCalcControlUserIdFromPortNumE22GameDataHolderAccessori = 0x00425f50
_ZN11FireBarRootC1EPKc = 0x0022a040
_ZN4sead7HeapMgr31removeFromFindContainHeapCache_EPNS_4HeapE = 0x007229c0
_ZN3agl3utl26ContextParameterBufferImplC2Ev = 0x00799620
_ZN3agl3utl26ContextParameterBufferImplC1Ev = 0x00799620
_ZN2al16GraphicsAreaInfoC1EPKNS_7AreaObjE = 0x00800130
_ZN2al16GraphicsAreaInfoC2EPKNS_7AreaObjE = 0x00800130
_ZN21PlayerStockerFunction23killAllAppearDoubleItemEPN2al9LiveActorE = 0x003d8560
_ZN24PlayerModelHolderCreator20createModelHolderAllERKN2al13ActorInitInfoEPKcP33IUsePlayerRetargettingInfoCreatorPNS0_11IUseHioNodeEbjS5_i = 0x003ae2c0
_ZN3agl3pfx14BloomParameterC2Ev = 0x007a06b0
_ZN3agl3pfx14BloomParameterC1Ev = 0x007a06b0
_ZN13CollectNumber12appearNormalERKN4sead7Vector3IfEEi = 0x00166800
_ZN27PlayerAmiiboDirectorWatcher11requestStopEbPKN2al9LiveActorE = 0x00372af0
_ZN21MapPlayerTrackerParts16setPanePositionsEv = 0x00075780
_ZN20PlayerActionTypeFunc16isActionHoldableEPK17PlayerActionGraphb = 0x00359ce0
_ZN2al17getAlivePlayerNumEPKNS_9LiveActorE = 0x0088d870
_ZN9TuccondorC1EPKc = 0x0012d860
_ZN12TopMenuScene24startSingleModeTitleMenuEv = 0x003fb1a0
_ZN10OceanWaterC2EPKc = 0x002926e0
_ZN15DemoScenePlayer7endDemoEv = 0x000a7bd0
_ZN2al15PoseHistoryPathC1Ei = 0x0087ecc0
_ZN2al15PoseHistoryPathC2Ei = 0x0087ecc0
_ZNK9FlingPole11calcJointAtEi = 0x00231d10
_ZN2al13GamePadSystem19changeMultiPlayModeEii = 0x00946ee0
_ZN17BallStateFunction29reboundCollisionWallOrCeilingEPN2al9LiveActorE = 0x001d8610
_ZNK21DisasterSpikeDirector25calcOceanSpikeSpawnOriginEv = 0x00153380
_ZN18CounterPlayerPartsC1ERKN2al14LayoutInitInfoEPKcS5_PNS0_11LayoutActorEPK18PlayerAliveWatcherb = 0x001698e0
_ZN21alCameraPoserFunction11calcSideDirEPN4sead7Vector3IfEEPKN2al14CameraPoser_RSE = 0x0091d450
_ZN2al6EffectC1EPKNS_16EffectSystemInfoEPKNS_10EffectInfoEPKN4sead7Vector3IfEESB_PKNS7_8Matrix34IfEEm = 0x0095cdd0
_ZN2al6EffectC2EPKNS_16EffectSystemInfoEPKNS_10EffectInfoEPKN4sead7Vector3IfEESB_PKNS7_8Matrix34IfEEm = 0x0095cdd0
_ZNK20CourseSelectDirector15findKoopaCastleEi = 0x0007be70
_ZN3agl15VertexAttribute7destroyEv = 0x007668d0
_ZN2al13GamePadSystem13setAssistModeEbb = 0x00947a40
_ZN2al18NamedDirLightParamC2Ev = 0x0081ce90
_ZN2al18NamedDirLightParamC1Ev = 0x0081ce90
_ZN22ProductStateSingleMode8exeStageEv = 0x004011f0
_ZN13BlockBrickBigC1EPKc = 0x001dbe00
_ZN2al20SimpleCircleShadowXZ22initSimpleCircleShadowEPNS_9LiveActorERKNS_13ActorInitInfoEPKcS7_ = 0x00886760
_ZN15TentackTentacleC1EPKcP11TentackBase = 0x0005fa50
_ZN18BrosMoveStepKeeperC2EPN2al9LiveActorEPNS0_13KeyPoseKeeperERKNS0_13ActorInitInfoE = 0x000c16b0
_ZN18BrosMoveStepKeeperC1EPN2al9LiveActorEPNS0_13KeyPoseKeeperERKNS0_13ActorInitInfoE = 0x000c16b0
_ZN20SuperBowserFireFlame14updateColliderEv = 0x000479c0
_ZN4sead8JobQueue6FINISHENS_6CoreIdE = 0x007462c0
_ZN2al29attachMtxConnectorToCollisionEPNS_12MtxConnectorEPKNS_9LiveActorERKN4sead7Vector3IfEES9_ = 0x007fe8c0
_ZN6Vessel8Emulator7Virtual11PlatformHvc16CPlatformHvcUnit20GenerateSerializeTagEPhhhtPKhm = 0x001ae8b0
_ZNK10MeraWanwan13isEnableBreakEPKN2al9SensorMsgE = 0x000fb540
_ZN2al17PadRumbleDirector15startRumbleNo3DEPKcRKNS_14PadRumbleParamEib = 0x00950120
_ZN26PlayerActionRaccoonDogFallC1EP22PlayerActionAirMoveArgP28IUsePlayerRaccoonDogFallTaskP13PlayerTriggerPK19IUsePlayerCheckAreaPK14IUsePlayerFlag = 0x00348ed0
_ZN26PlayerActionRaccoonDogFallC2EP22PlayerActionAirMoveArgP28IUsePlayerRaccoonDogFallTaskP13PlayerTriggerPK19IUsePlayerCheckAreaPK14IUsePlayerFlag = 0x00348ed0
_ZN21SuperBowserLaserState19startLaserEndEffectEv = 0x0004d8b0
_ZN3agl3env7CubeMap11initialize_Ev = 0x007d1920
_ZN19KuribonStateReverse6cancelEv = 0x000f13b0
_ZN3agl12UniformBlock7destroyEv = 0x00765fa0
_ZN2al16PrePassLightBase4initERKNS_13ActorInitInfoE = 0x00823410
_ZN3agl3sdw18PrimitiveOcclusionD2Ev = 0x008b97c0
_ZN3agl3sdw18PrimitiveOcclusionD1Ev = 0x008b97c0
_ZNK12GameDataFile22isLastClearStageUseDrcEv = 0x00412810
_ZNK2al28CollisionPartsKeeperPtrArray16checkStrikeArrowEPNS_20ArrowHitResultBufferERKNS_14ArrowCheckInfoE = 0x0093cbb0
_ZN2rc13setPuppetQuatEP16IUsePlayerPuppetRKN4sead4QuatIfEE = 0x0042a4c0
_ZN4sead23AudioFxReverbHiParamNinC2Ev = 0x00752f20
_ZN4sead23AudioFxReverbHiParamNinC1Ev = 0x00752f20
_ZN6Backup7RequestEN12BackupAccess14SaveDataAccessEPcPvm = 0x001a44f0
_ZN4neko16setAnimationRateEP17IUseNekoModeActor = 0x002fbb80
_ZN2al22CameraPoserEntrance_RS7exeWaitEv = 0x008f9a00
_ZN10gamescreen8finalizeEv = 0x001ccd60
_ZN7BoxCoin13appearHipDropEb = 0x001e6e80
_ZN2al13RequestInterpINS_9SSIIParamEE12requestParamEiiRKS1_ = 0x00831210
_ZN2al17DepthOfFieldParamC2Ev = 0x0088e420
_ZN2al17DepthOfFieldParamC1Ev = 0x0088e420
_ZN3agl6driver6NVNMgr31clearCompressedFrameBufferColorEPNS_11DrawContextERKNS_11TextureDataE = 0x0075b110
_ZN4sead7HeapMgr10initializeEPNS_5ArenaE = 0x00722700
_ZNK11KuriboTower12isContactTopEPK15KuriboTowerNode = 0x000f2680
_ZN2rc23sendMsgAskControlUserIdEPN2al9HitSensorEi = 0x00434190
_ZN2al15initStageSwitchEPNS_15IUseStageSwitchEPNS_19StageSwitchDirectorERKNS_13PlacementInfoE = 0x008cc130
_ZN2al13ActorInitInfoC1Ev = 0x00836da0
_ZN2al13ActorInitInfoC2Ev = 0x00836da0
_ZN2al13isWallPolygonERKN4sead7Vector3IfEES4_ = 0x00945dd0
_ZN2al15SeRequestKeeper7stopAllEjPKc = 0x009ade30
_ZNK2al11ViewFrustum17calcFrustumPointsEPNS0_6PointsE = 0x00933f50
_ZN2al16RetroColorDrawerC2EPNS_12ShaderHolderE = 0x00998120
_ZN2al16RetroColorDrawerC1EPNS_12ShaderHolderE = 0x00998120
_ZN18alSubActorFunction12findSubActorEPKN2al14SubActorKeeperEPKc = 0x0085d610
_ZN11EchoEmitterC1EPKc = 0x00227970
_ZN10RingBeamerC1EPKc = 0x00110d60
_ZN2al23setSklAnimBlendFrameAllEPNS_9LiveActorEfb = 0x00833d60
_ZN8BlockPowC1EPKc = 0x001def70
_ZN29ProductStateSingleOpeningDemoC2EP15ProductSequenceP15StageWipeKeeperRKN2al16SequenceInitInfoEP24ControllerConnectChecker = 0x00402310
_ZN29ProductStateSingleOpeningDemoC1EP15ProductSequenceP15StageWipeKeeperRKN2al16SequenceInitInfoEP24ControllerConnectChecker = 0x00402310
_ZN24ItemStatePopUpFrontParamC2Ev = 0x002635d0
_ZN2al10WipeSimpleC1EPKcS2_RKNS_14LayoutInitInfoES2_ = 0x00888d80
_ZN2al15SeRequestKeeper16addRequestDirectEPNS_9SeRequestE = 0x009ad890
_ZN2rc8addScoreEPKN2al9LiveActorEPNS0_13ScreenPointerEfi = 0x00443da0
_ZN3agl3utl10ColorDriftC2Ei = 0x00792410
_ZN3agl3utl10ColorDriftC1Ei = 0x00792410
_ZN13TuccondorTrapC1EPKc = 0x001300d0
_ZN16BossBunretsuChip11startGatherEv = 0x000bcc10
_ZN3agl3g3d7ResFile7CleanupEPN2nn3g3d7ResFileE = 0x0075c440
_ZN2al18KaleidoscopeDrawerC1EPNS_12ShaderHolderE = 0x00990bf0
_ZN2al18KaleidoscopeDrawerC2EPNS_12ShaderHolderE = 0x00990bf0
_ZN15DrcTouchPointer18handleTouchReleaseEi = 0x00224fe0
_ZN18DarkBowserRingBeam20setActiveWithPostureERKN4sead7Vector3IfEERKNS0_4QuatIfEE = 0x000cc760
_ZN13WindowMessage6exeEndEv = 0x001a0880
_ZN19PackunFlowerWithPot11exeTurnFastEv = 0x00107820
_ZN2al22ActionPadAndCameraCtrl9tryCreateEPKNS_9LiveActorEPKN4sead7Vector3IfEEPKc = 0x008d1110
_ZN8GigaBell21startLockedPlayerGigaEv = 0x0023b450
_ZN6Skatis7exeFindEv = 0x00119500
_ZN14CheckPointStar9startMoveEv = 0x001f6060
_ZN11PlayerActor18searchWaterSurfaceEv = 0x00366b60
_ZN16DarkBowserBattleC2EP10DarkBowserRKN2al13ActorInitInfoE = 0x000133e0
_ZN16DarkBowserBattleC1EP10DarkBowserRKN2al13ActorInitInfoE = 0x000133e0
_ZN2al18EffectShaderHolder20setupTextureExposureEPKN3agl11TextureDataE = 0x00962b80
_ZN3agl2fx17OccludedEffectMgrC2Ev = 0x007bb480
_ZN3agl2fx17OccludedEffectMgrC1Ev = 0x007bb480
_ZN3agl3utl8DevTools12drawPointImmEPNS_11DrawContextERKN4sead7Vector3IfEERKNS4_7Color4fEf = 0x00784d30
_ZN15alModelFunction15calcBoundingBoxEPN4sead9BoundBox3IfEEPK11alModelCafe = 0x00878740
_ZN3agl6driver11NVNsampler_aSERKS1_ = 0x0075bf30
_ZN17SkipperTrampoline19exeRecoverSignCarryEv = 0x0011d2e0
_ZN2al14createInfoListINS_19SeEffectBusUserInfoEEEPNS_13AudioInfoListIT_EERKNS_9ByamlIterE = 0x009a6270
_ZN2al24turnDirectionAlongGroundEPKNS_9LiveActorEPN4sead7Vector3IfEE = 0x0083d9d0
_ZN2al21setBlendCtrlToContextEPN4sead15GraphicsContextEPKN2nn3g3d11MaterialObjEb = 0x00807750
_ZN13AreaNameParts7fadeOutEb = 0x0015edf0
_ZN2al19FullScreenQuadModelD1Ev = 0x008acd90
_ZN2al19FullScreenQuadModelD2Ev = 0x008acd90
_ZN26PlayerActionWallClimbSlide5setupEv = 0x0035df00
_ZN19RaidonSurfAnimState11requestDiveEv = 0x003cace0
_ZN20DemoScenePlayerModel11startActionEPKc = 0x000a8590
_ZN2al22ActionPadAndCameraCtrlC2EPKNS_9LiveActorEPKN4sead7Vector3IfEEPKc = 0x008d18d0
_ZN2al22ActionPadAndCameraCtrlC1EPKNS_9LiveActorEPKN4sead7Vector3IfEEPKc = 0x008d18d0
_ZN37SuperBowserPlessieChaseFireFlameState29updateFlameSweepSoundActorPosEv = 0x00051f60
_ZN20DemoCutsceneSequence19addActionToSequenceEPKcbS1_ibib = 0x000a1420
_ZN2al13AnimInfoTable4sortEv = 0x008d5a30
_ZN14CheckPointStar25updateShadowLengthToFloorEv = 0x001f6470
_ZN15KeyMoveLoopLift21startAppearAndStandByEv = 0x002672d0
_ZN4neko11checkGroundEPKN2al9LiveActorE = 0x002fc570
_ZN2al13calcDistanceVERKN4sead7Vector3IfEEPKNS_9HitSensorES7_ = 0x00841870
_ZN15PlayLogFunction10clearStageE20GameDataHolderWriteriiibb = 0x0041a560
_ZN2al19ActionOceanWaveCtrl9tryCreateEPNS_9LiveActorE = 0x008d3d40
_ZN21StaffRollLayoutHolder20tryPushStaffRollLineEi = 0x0019a560
_ZN2al14CameraFunction34checkValidCollisionBySphereHitInfoEPKNS_13IUseCollisionEi = 0x00904290
_ZN2rc15getPadUiScrollYEi = 0x00427080
_ZN3agl3sdw10ShadowUtil11calcNearFarEPfS2_RKN4sead8Matrix44IfEE = 0x007a0630
_ZN10FishColony12attackSensorEPN2al9HitSensorES2_ = 0x0022cba0
_ZN11PlayerActor20trySendMsgPlayerHoldEPN2al9HitSensorES2_b = 0x0036e010
_ZN14EnemyGenerator16exeSupportFreezeEv = 0x000d1780
_ZN12GuideBalloon17startShowGoalItemEi = 0x00170ad0
_ZN10StageScene16updateDemoCameraEv = 0x003f4970
_ZN2al15FootPrintHolder16createTimingListEPNS0_6ActionEPNS_9ByamlIterE = 0x00884f00
_ZNK2al15AreaObjDirector20getAreaObjGroupIndexEPKc = 0x008da7b0
_ZN19ActorStateGiantBlowC1EPN2al9LiveActorEPK24ActorStateGiantBlowParamS2_S2_ = 0x001cebf0
_ZN19ActorStateGiantBlowC2EPN2al9LiveActorEPK24ActorStateGiantBlowParamS2_S2_ = 0x001cebf0
_ZN16PlayerActionFunc14vertAndNormVecEPN4sead7Vector3IfEERKS2_S5_ = 0x00322fd0
_ZN2al22setTransOffsetLocalDirEPNS_9LiveActorERKN4sead4QuatIfEERKNS2_7Vector3IfEEfi = 0x0083d1a0
_ZNK9ListStamp14isInTransitionEv = 0x0017ab20
_ZN6Bubble11exeBlowDownEv = 0x000c3f40
_ZN2al18PrePassLightKeeperC2EPNS_18GraphicsSystemInfoEi = 0x008250b0
_ZN2al18PrePassLightKeeperC1EPNS_18GraphicsSystemInfoEi = 0x008250b0
_ZN15GigaBellManager17disasterModeStartEv = 0x0023cfc0
_ZNK18OceanWaterIndirect11drawNormalsEv = 0x0029c4e0
_ZN2al14CameraSwitcher17addPoolCameraListERKNS_11PlacementIdE = 0x009136d0
_ZN16GameDataFunction25isEnableShowBestTimeStageE22GameDataHolderAccessori = 0x00415950
_ZN2al13isExistOptionEPKcS1_PN4sead22BufferedSafeStringBaseIcEE = 0x007ffa30
_ZN13WindowMessage7exeWaitEv = 0x001a07d0
_ZN8FairyMiiC1EPKc = 0x002f6d00
_ZN10PackunFire12killCompleteEb = 0x001022e0
_ZN26PlayerKoopaJrStateGraffiti13abortGraffitiEv = 0x003a8930
_ZN6Vessel8Emulator7Virtual11PlatformHvc7CHvcSpu7_SWavwR5PulseEsmPNS2_16CPlatformHvcUnit8_SEntityE = 0x001c1220
_ZN21CourseSelectPuppeteer11exeDokanOutEv = 0x0008cdc0
_ZN2al17OceanWaveDirectorC2EPKc = 0x0097e3c0
_ZN2al8SequenceC2EPKc = 0x008a93b0
_ZN2al8SequenceC1EPKc = 0x008a93b0
_ZN9GreenStarC1EPKcP10ItemBubbleb = 0x00256650
_ZN2al15initLayoutActorEPNS_11LayoutActorERKNS_14LayoutInitInfoEPKcS6_ = 0x00970d30
_ZN15KuriboTowerItemC1EPKcS1_b = 0x000f52e0
_ZN2al22findNearestPlayerActorEPKNS_9LiveActorE = 0x0088dd80
_ZN20ButtonItemStockParts19exeWaitCourseSelectEv = 0x00162ce0
_ZN17CameraLookAtPointC1EPKc = 0x00063110
_ZN2al21createCollisionObjMtxEPKNS_9LiveActorERKNS_13ActorInitInfoEPKcPNS_9HitSensorEPKN4sead8Matrix34IfEES7_ = 0x00885570
_ZNK4sead8Viewport13applyViewportEPNS_11DrawContextERKNS_18LogicalFrameBufferE = 0x0073aa40
_ZN19CoinCirclePlacementC1EPKc = 0x001fff20
_ZN14DarkBowserUtil12calculateArcEN4sead7Vector3IfEES2_ffii = 0x0001fd60
_ZN16SuperBowserShell18returnFromDisasterEv = 0x000550b0
_ZN3agl3utl14PrimitiveShape24setUpStreamQuadTriangle_EPN4sead4HeapE = 0x007741e0
_ZN2al16VignettingDrawerD2Ev = 0x0099c710
_ZN2al16VignettingDrawerD1Ev = 0x0099c710
_ZN2al24ExecuteTableHolderUpdate4initERKNS_21ExecuteSystemInitInfoEPKNS_12ExecuteOrderEib = 0x0080ab20
_ZN15SingleModeScene7controlEv = 0x003e84d0
_ZN2al16ShadowMaskKeeper7endInitEv = 0x008c6530
_ZN20PlayerFigureDirector6updateEv = 0x003921e0
_ZN12GigaBell3in116doInkHitReactionEPKc = 0x0015b4b0
_ZN3agl6driver11NVNtexture_C1ERKS1_ = 0x0075bae0
_ZN3agl6driver11NVNtexture_C2ERKS1_ = 0x0075bae0
_ZN2al19initObjectCamera_RSEPKNS_13IUseCamera_RSERKNS_13PlacementInfoEPKcS7_ = 0x0092a0b0
_ZN18BlockHardLaserOnly10receiveMsgEPKN2al9SensorMsgEPNS0_9HitSensorES5_ = 0x0014bc50
_ZN13TractorBubble16isPlayerInBubbleEv = 0x002cfdc0
_ZN2al13AnimPlayerSklC2EPKNS_18AnimPlayerInitInfoEi = 0x008d7470
_ZN2al13AnimPlayerSklC1EPKNS_18AnimPlayerInitInfoEi = 0x008d7470
_ZN4sead16DisplayBufferNvnC1Ev = 0x007197e0
_ZN4sead16DisplayBufferNvnC2Ev = 0x007197e0
_ZN3agl3utl14PrimitiveShape20setupVtxBufferSphereEPNS_12VertexBufferENS_10GPUMemAddrINS1_6VertexEEEjj = 0x00779070
_ZN29WalkerStateAttackSuccessParamC1EPKcbf = 0x001326b0
_ZN29WalkerStateAttackSuccessParamC2EPKcbf = 0x001326b0
_ZN2al8Collider17storeContactPlaneEPNS_13SphereHitInfoE = 0x00935610
_ZN2al22OccludedEffectDirector22createInfoByPresetNameEPKc = 0x0089a6e0
_ZN23ActorStateSupportFreeze10receiveMsgEPKN2al9SensorMsgEPNS0_9HitSensorE = 0x000b0940
_ZN3agl3utl12DebugTextureC2Ev = 0x00768110
_ZN3agl3utl12DebugTextureC1Ev = 0x00768110
_ZN23TentackAttachItemHolder4initERKN2al13ActorInitInfoE = 0x000570c0
_ZN16DisasterAnimPart12initAnimPartEPN2al9LiveActorERKNS0_13ActorInitInfoE = 0x0014f0a0
_ZN2rc44tryCalcTouchPointerSlideDirOnScreenByPointerEPN4sead7Vector2IfEEPKN2al9LiveActorE = 0x00223100
_ZN4sead10ArchiveRes4loadERNS_11ResourceMgr7LoadArgE = 0x0072d6a0
_ZN2al23destroyCourseSelectHeapEv = 0x00872910
_ZN18TrampleSwitchTimer21exeWaitGameplayCameraEv = 0x002d4800
_ZN2al32GraphicsParamRequestInterpKeeperINS_11GodRayParamEEC2EPNS_18GraphicsSystemInfoEiPKcS6_S6_ = 0x008904e0
_ZN2al12LiveActorKit6updateEv = 0x00831ef0
_ZN4sead17NinSaveFileDeviceC1ERKNS_14SafeStringBaseIcEE = 0x007489b0
_ZN4sead17NinSaveFileDeviceC2ERKNS_14SafeStringBaseIcEE = 0x007489b0
_ZN3eui10MessageMgr7Archive4loadEPN4sead4HeapEPvj = 0x007ec6f0
_ZN4sead16TextStreamFormatC1Ev = 0x007313b0
_ZN4sead16TextStreamFormatC2Ev = 0x007313b0
_ZN2al14BlockRailParts12initRailLinkERKNS_9ByamlIterE = 0x008f3400
_ZN2al19ShaderCubeMapKeeperC2EPNS_18GraphicsSystemInfoEPNS_12PlayerHolderE = 0x008b0490
_ZN2al19ShaderCubeMapKeeperC1EPNS_18GraphicsSystemInfoEPNS_12PlayerHolderE = 0x008b0490
_ZN21PlayerInvincibleStateC2EP18IUsePlayerAnimatorP16IUsePlayerEffectP28IUsePlayerDamageInvalidCheckPK20PlayerFigureDirectorPK16PlayerConstParamP23IUsePlayerEventReceiver = 0x00397a60
_ZN21PlayerInvincibleStateC1EP18IUsePlayerAnimatorP16IUsePlayerEffectP28IUsePlayerDamageInvalidCheckPK20PlayerFigureDirectorPK16PlayerConstParamP23IUsePlayerEventReceiver = 0x00397a60
_ZN2rc15faceToDirectionEP16IUsePlayerPuppetRKN4sead7Vector3IfEEff = 0x0042af40
_ZN3agl3utl23DynamicTextureAllocator10initializeEimmPN4sead4HeapES4_ = 0x00768870
_ZN15SuperSkateShoes10exeTakeOffEv = 0x003cff50
_ZN2rc17isInPlessieTunnelEPKN2al11IUseAreaObjERKN4sead7Vector3IfEE = 0x00424380
_ZN2al12SeActionInfo10createInfoERKNS_9ByamlIterE = 0x009b3fe0
_ZN19KoopaLastPartsModelC1EPKc = 0x0002fc60
_ZN16CourseInfoHolder14readFromStreamEPN4sead10ReadStreamE = 0x0040ea00
_ZN16TestAndoGoalPole15exeBindPoleTurnEv = 0x002c8680
_ZN18PackunFireFireBall10receiveMsgEPKN2al9SensorMsgEPNS0_9HitSensorES5_ = 0x00103090
_ZN15DarkBowserLaserC2EP10DarkBowserRKN2al13ActorInitInfoE = 0x0001bc00
_ZN15DarkBowserLaserC1EP10DarkBowserRKN2al13ActorInitInfoE = 0x0001bc00
_ZN2al22BlockRailShapeStraightC2EPKc = 0x008f44d0
_ZN2al22BlockRailShapeStraightC1EPKc = 0x008f44d0
_ZN14EnemyStateUtil32isMsgPressDownForCrossoverSensorEPKN2al9SensorMsgEPKNS0_9HitSensorES6_ = 0x000d2420
_ZN2rc12emitKeepEchoEPKN2al9LiveActorERKN4sead7Vector3IfEEfi = 0x00228ac0
_ZN19PipePackunBodyPartsC1EP10PipePackunPKc = 0x0010d880
_ZNK11SuperBowser18checkSpawnPositionEN4sead7Vector3IfEEbb = 0x000431a0
_ZN18NpcStateChaseParamC1EfffffbbbPKcS1_f = 0x0030c690
_ZN18NpcStateChaseParamC2EfffffbbbPKcS1_f = 0x0030c690
_ZN16DarkBowserDamage13calcEffectMtxEPKN2al9HitSensorES3_b = 0x00019f10
_ZN12GoalPoleFlag12appearBottomEi = 0x0024fb40
_ZN7DoorKey13exePlayerHoldEv = 0x0021e9b0
_ZN4sead14MethodTreeNode9detachAllEv = 0x007145c0
_ZNK9BombBound11canKickedSMEPKN2al9SensorMsgEPNS0_9HitSensorES5_ = 0x00002280
_ZN12TopMenuScene13exeDeleteFileEv = 0x003fb920
_ZN3eui9AlignPane15calcPartsBound_EPN2nn4ui2d4PaneEPNS0_5BoundEff = 0x007fc870
_ZN4sead10XmlElement16setContentStringERKNS_14SafeStringBaseIcEEPNS_4HeapE = 0x0073f250
_ZN2al15ShadowMaskParam4initEv = 0x008c5230
_ZN15StageWipeKeeper17closeEndRetryWipeEv = 0x00405560
_ZN2al14CameraFunction24calcAngleHFromZoneToRootEfRKN4sead8Matrix34IfEE = 0x00903cd0
_ZN2al41calcLayoutPosFromWorldPosSubClampInScreenEPN4sead7Vector2IfEEPKNS_10IUseCameraERKNS0_7Vector3IfEE = 0x008a8d30
_ZNK2al17ActorCameraTarget9calcTransEPN4sead7Vector3IfEE = 0x008f5a00
_ZN26TentackStateAttackTentacle13receiveDamageEib = 0x0005e6e0
_ZN20DisasterSpikeTorpedo6appearEP11SuperBowserib = 0x00156150
_ZN19PlayerEntryFunction33calcNotUsePlayerCharacterTypeListEPiPK14GameDataHolder = 0x00183520
_ZN13PlayerKoopaJr15endGoalItemDemoEv = 0x0039f3e0
_ZN13DisasterSpike18invalidateClippingEv = 0x002135c0
_ZN3agl12VertexBufferD2Ev = 0x00767080
_ZN3agl12VertexBufferD1Ev = 0x00767080
_ZN2al11ViewFrustum17makePlanesFromMtxERKN4sead8Matrix34IfEEffff = 0x00933ad0
_ZN2al14ResourceSystem28findOrCreateResourceCategoryERKN4sead14SafeStringBaseIcEES5_PKc = 0x008a0c30
_ZNK3agl3sdw11DepthShadow13drawShadowMapEPNS_11DrawContextE = 0x007d3a90
_ZNK3agl13ShaderProgram8hasStageENS_10ShaderTypeE = 0x007629f0
_ZN18EnemyStateBlowDown10setBlowDirEPKN2al9HitSensorES3_ = 0x000d1f20
_ZN2al13SlideMapPartsC1EPKc = 0x00866550
_ZN2al16DepthShadowParamC2Ev = 0x00284000
_ZN12ControlGuideC1ERKN2al14LayoutInitInfoEb = 0x00166af0
_ZN17NpcTerritoryMover19decideNextTargetPosEv = 0x00311550
_ZN4sead9WorkerMgr12pushJobQueueEPNS_8JobQueueENS_10CoreIdMaskENS_8SyncTypeENS_16JobQueuePushTypeE = 0x007490c0
_ZN2rc41requestBindAllPlayerButBubbleExcludeActorEPKN2al9LiveActorEPNS0_9HitSensorES3_ = 0x0042bca0
_ZN13KoopaGraffiti11exePaintingEv = 0x00272480
_ZNK17WipeCurtainResult14isEnableGoNextEv = 0x001a3bf0
_ZN2al12getBlendModeEPKN2nn3g3d11MaterialObjE = 0x00806c50
_ZN4sead4ptcl10PtclSystem11beginRenderEPN2nn3gfx14TCommandBufferINS3_12ApiVariationINS3_7ApiTypeILi4EEENS3_10ApiVersionILi8EEEEEEERKNS_8Matrix44IfEERKNS_8Matrix34IfEERKNS_7Vector3IfEEfff = 0x00966910
_ZN3agl3pfx15ColorCorrection10initializeEiPN4sead4HeapEb = 0x00793d20
_ZN2rc11isInAreaObjEPKN2al9LiveActorENS_11AreaObjTypeE = 0x004237a0
_ZN2al10EdgeDrawerC2EPKNS_18GraphicsSystemInfoEi = 0x00984c40
_ZN2al10EdgeDrawerC1EPKNS_18GraphicsSystemInfoEi = 0x00984c40
_ZN2al27initActorPrePassLightKeeperEPNS_9LiveActorEPKNS_8ResourceERKNS_13ActorInitInfoERKNS_9ByamlIterEPKc = 0x00836c50
_ZN5erepo8SendData20initializeInnerData_EPN4sead4HeapE = 0x009c0ef0
_ZN2al8SeKeeper14stopSeFromNameEPKc = 0x009aa420
_ZN4sead14MathCalcCommonIfE8expTableEf = 0x00735b70
_ZN14PlayerAnimator17tryStartPartsAnimERKN4sead14SafeStringBaseIcEE = 0x00375d30
_ZN6TeresaC1EPKc = 0x00129970
_ZN15KuriboClimbRail4initERKN2al13ActorInitInfoE = 0x000eaf20
_ZN26DemoEventGateKeeperCheckerC1EPKc = 0x0009e8b0
_ZN9GreenStar7controlEv = 0x00256de0
_ZN2rc24getPlayerInvincibleColorEPKN2al9HitSensorE = 0x00433260
_ZN2al31tryFindStageParameterFileDesignERKN4sead14SafeStringBaseIcEES4_i = 0x008a04f0
_ZN3agl11TextureData22initializeCubeMapArrayENS_13TextureFormatEjjjjNS_16TextureAttributeE = 0x007649d0
_ZN18PackunFireFireBall8setParamEPKN4sead8Matrix34IfEERKNS0_4QuatIfEEf = 0x00103310
_ZN3agl4lght12LightPrePass16setSpecularCurveERKNS_3utl14ParameterCurveILj2EEE = 0x007a75d0
_ZN8Pukupuku4initERKN2al13ActorInitInfoE = 0x0010f9a0
_ZN17SkipperTrampoline16exeReactionCarryEv = 0x0011cf40
_ZN17DemoPlayerLocator9startDemoERKN4sead8Matrix34IfEEi = 0x000a3f70
_ZN15BossGorobonRockC1EPKc = 0x000062f0
_ZN22GraphicsAreaController10finishInitERKN2al13ActorInitInfoE = 0x002537c0
_ZN3agl15GPUMemBlockBase11setVirtual_EmPN4sead4HeapENS_15MemoryAttributeENS_14GPUMemVoidAddrEi = 0x00758660
_ZNK2al17StageResourceList13findStageInfoEPKc = 0x008a6af0
_ZN14SingleModeData34clearGetGigaBellPlayerRespawnPointEv = 0x0041d040
_ZN16BobsledDashPanel4initERKN2al13ActorInitInfoE = 0x001e5e20
_ZNK2al18ModelLightDirector22calcModelLightPresetIdEPKN2nn3g3d11ResMaterialE = 0x008aeb10
_ZN3agl4perf17GPUTimeStampArrayC2Ev = 0x00796280
_ZN3agl4perf17GPUTimeStampArrayC1Ev = 0x00796280
_ZN11PlayerActor12hideBodyRainEb = 0x003674d0
_ZN2al15getEffectPosPtrEPNS_16IUseEffectKeeperEPKc = 0x00969330
_ZN19WalkerStateRailMove11exeRailMoveEv = 0x00135280
_ZN2al13tryStopAllBgmEPKNS_15IUseAudioKeeperEi = 0x008f05b0
_ZN4sead14ControllerBase13getStickHold_EjRKNS_7Vector2IfEEffi = 0x00735670
_ZN6Vessel8Emulator7Virtual11PlatformHvc8CHvcMmc514_SerializeCoreEPvb = 0x001b83f0
_ZNK3agl15VertexAttribute8activateEPNS_11DrawContextE = 0x00766ef0
_ZN10PackunFire9exeSearchEv = 0x00102750
_ZNK2al26CollisionPartsKeeperOctree25searchWithSphereRecursiveERKNS_15SphereCheckInfoERN4sead10IDelegate1IPNS_14CollisionPartsEEEPKNS0_7OctNodeE = 0x0093c180
_ZNK2al21CameraLimitRailKeeper14calcCameraDirHEPN4sead7Vector3IfEEPKNS_14CameraPoser_RSE = 0x0091cd50
_ZN6Vessel8Emulator7Virtual11PlatformHvc7CHvcSpu7_SQdMfm5PulseEsmPNS2_16CPlatformHvcUnit8_SEntityE = 0x001c4ef0
_ZN7preport17PlayReportManager10EventBeginENS_12KeyEventTypeEiib = 0x003b9230
_ZN31CloudBonusLauncherBindPuppeteer14startBindForceEPN2al9HitSensorES2_RKN4sead7Vector3IfEE = 0x001fba90
_ZN2al18initLayoutInitInfoEPNS_14LayoutInitInfoEPKNS_9LayoutKitEPNS_14SceneObjHolderEPKNS_13AudioDirectorEPKNS_12LayoutSystemEPKNS_13MessageSystemEPKNS_13GamePadSystemE = 0x0081cbf0
_ZN2al24ExecuteTableHolderUpdateD2Ev = 0x0080aae0
_ZN2al24ExecuteTableHolderUpdateD1Ev = 0x0080aae0
_ZN2al22AcLSoundHandlePlatform21writeSeqLocalVariableEis = 0x008e3c90
_ZN22RouteDokanBazookaRider12attackSensorEPN2al9HitSensorES2_ = 0x002ad460
_ZN4sead18Matrix34CalcCommonIfE18makeVectorRotationERNS_9BaseMtx34IfEERKNS_8BaseVec3IfEES8_ = 0x003b48b0
_ZNK2al16KCollisionServer12calcPosLocalEPN4sead7Vector3IfEEPKNS_11KCPrismDataEiPKNS_13KCPrismHeaderE = 0x00942f10
_ZN2al15CameraPoserRaceC1EPKc = 0x008fd8e0
_ZN2al15CameraPoserRaceC2EPKc = 0x008fd8e0
_ZN17EnemyEffectBullet10receiveMsgEPKN2al9SensorMsgEPNS0_9HitSensorES5_ = 0x000d0c00
_ZN14SuperSkateRail12getDirectionEv = 0x002c49b0
_ZN2rc28isAnyActiveButDemoCameraDemoEPKN2al9LiveActorE = 0x000a9a60
_ZN3agl6driver6NVNMgr14countupSamplerEj = 0x0075ab70
_ZN2al20tryGetRotate_ParentYEPN4sead7Vector3IfEERKNS_13PlacementInfoE = 0x0088a3c0
_ZN11ShadowMario15appearPoseModelERKN4sead7Vector3IfEES4_PKcf = 0x00137440
_ZN3eui12TagProcessor17preProcessEuiTag_EPKN4sead10MessageSetIDsE7TagInfoEPDsPjS8_jPKDsjPv = 0x007eafb0
_ZN6Punpun13exeDemoAppearEv = 0x00037680
_ZN8WarpCube11endGetPieceEPN2al9HitSensorE = 0x002dd960
_ZN7Lantern8exeSwingEv = 0x0027b490
_ZN2al15normalizeOrDirZEPN4sead7Vector3IfEERKS2_ = 0x0086a4f0
_ZN10RaidonSurf12isUnderwaterEv = 0x003c1f80
_ZN11ShadowRacer4initERKN2al13ActorInitInfoE = 0x0013c1a0
_ZN3agl3utl8Trimming13doGenMessage_EPN4sead6hostio7ContextE = 0x00792fb0
_ZN22DisasterModeController15preDisasterModeEv = 0x0020f8c0
_ZN2al11TextureUnitC1EPKc = 0x009b9b30
_ZN2al11TextureUnitC2EPKc = 0x009b9b30
_ZN24SyumockConveyerGenerator4initERKN2al13ActorInitInfoE = 0x00121fd0
_ZN4sead14QuatCalcCommonIfE7slerpToERNS_8BaseQuatIfEERKS3_S6_f = 0x0076d9f0
_ZN4sead9HashCRC3219calcHashWithContextEPNS0_7ContextEPKvj = 0x0073e2d0
_ZN3agl12ShaderSource6expandEv = 0x0078afb0
_ZN4sead8DateTime11setUnixTimeERKNS_12CalendarTime4YearERKNS1_5MonthERKNS1_3DayERKNS1_4HourERKNS1_6MinuteERKNS1_6SecondE = 0x0073c9a0
_ZN8CoinBlow8setBoundEb = 0x001fdf30
_ZN19WorldGameDataHolderC2Ev = 0x00422c30
_ZN19WorldGameDataHolderC1Ev = 0x00422c30
_ZN21PlayerActionKnockDown5setupEv = 0x003441b0
_ZN2rc21invalidatePlayerInputEPKN2al9LiveActorEi = 0x0042b570
_ZN4Bull4initERKN2al13ActorInitInfoE = 0x000c43a0
_ZN22CameraPoserFollowLimit16setHiDegreeLimitEf = 0x0006fa70
_ZN11SkipperWeak4initERKN2al13ActorInitInfoE = 0x0011df20
_ZN2rc37findNearestActivePlayerOrKoopaJrActorEPKN2al9LiveActorE = 0x00431d10
_ZN14alSeDbFunction28createDefaultEmitterInfoListEv = 0x009a1360
_ZN2al14ActorAlphaCtrl10SphereInfo4initERKNS_9ByamlIterEPNS_9LiveActorE = 0x0097fa80
_ZN2al11NfpDirector4stopEb = 0x00882550
_ZNK2al14LiveActorGroup17calcAliveActorNumEv = 0x008316e0
_ZN10CheckPoint14starDoneMovingEv = 0x001f41a0
_ZN13SamboSnowHead20checkForwardObstacleEv = 0x001178e0
_ZN5Bonze4initERKN2al13ActorInitInfoE = 0x000b6610
_ZN4sead7HeapMgr15setCurrentHeap_EPNS_4HeapE = 0x00722b30
_ZN2al14calcViewVolumeEPN2nn3g3d10ViewVolumeERKN4sead8Matrix34IfEERKNS4_8Matrix44IfEE = 0x008062e0
_ZN7Swimmer21receiveMsgScreenPointEPKN2al9SensorMsgEPNS0_13ScreenPointerEPNS0_17ScreenPointTargetE = 0x00120840
_ZN2al17CameraDirector_RS15endSnapShotModeEv = 0x0091b6a0
_ZN21PlayerStockerFunction17appearDoubleMarioEPKN2al9LiveActorEPKNS0_9HitSensorE = 0x003d80c0
_ZN21CourseSelectPuppeteer9enterUserEv = 0x0008b6e0
_ZNK15PlayerBoomerang17checkCollideFrontEv = 0x0037bce0
_ZN10MysteryBox17setDestMysteryBoxEPKS_ = 0x00288480
_ZNK3agl20ShaderProgramArchive24searchShaderProgramIndexERKN4sead14SafeStringBaseIcEE = 0x0078b1b0
_ZN2al13GamePadSystem13setMaxNpadNumEi = 0x00947140
_ZN14SingleModeData14getOptionsDataEv = 0x0041bb90
_ZN2al19ModelAdditionalInfo18activateEnvTextureEiPKNS_14SimpleModelG3DE = 0x0087cc50
_ZN3eui19SetupPaneAfterBuildEPN2nn4ui2d4PaneEPNS_8LayoutExE = 0x007e2970
_ZN2al10LppTexInfoD2Ev = 0x00823ae0
_ZN2al10LppTexInfoD1Ev = 0x00823ae0
_ZN2al15GameFrameworkNxC1ERKN4sead15GameFrameworkNx9CreateArgE = 0x0096ae90
_ZN2al15GameFrameworkNxC2ERKN4sead15GameFrameworkNx9CreateArgE = 0x0096ae90
_ZN2al22AudioSituationDirector12endSituationEi = 0x008e04f0
_ZN2al9normalizeEPN4sead7Vector3IfEE = 0x0086a230
_ZNSt3__127__insertion_sort_incompleteIRN2nn3vfx6detail16SortCompareViewZINS3_8SortDataEEEPS5_EEbT0_S9_T_ = 0x006ead50
_ZN2al10makeMtxSRTEPN4sead8Matrix34IfEEPKNS_9LiveActorE = 0x0083f7c0
_ZN14GameDataHolder12initIsPhase0Ev = 0x004176e0
_ZN13ListClearStar11startAppearEiibb = 0x00179490
_ZN26CourseSelectWorldWarpDokan9startDemoEv = 0x0009e630
_ZN2al17validatePadReplayEj = 0x0094e980
_ZN2al16ShadowMaskSphereC2EPKc = 0x008cb6b0
_ZN2al16ShadowMaskSphereC1EPKc = 0x008cb6b0
_ZN2al13BgmLineKeeper8startBgmERKNS_17BgmPlayingRequestE = 0x008ecbc0
_ZN2al22ActionPadAndCameraCtrl6updateEff = 0x008d1760
_ZNK15ChikaChikaBlock13getSwitchTimeEv = 0x001f6ec0
_ZN19ActorStateGiantBlow12tryStartBlowEPKN2al9SensorMsgEPNS0_9HitSensorES5_ = 0x001ced00
_ZN9FlingPole5shootEff = 0x00231520
_ZN3agl3utl22ContextParameterBufferINS_3pfx12DepthOfFieldENS2_21DepthOfFieldParameterEE32initializeContextParameterBufferEibPN4sead4HeapE = 0x007b5ef0
_ZN3agl2fx7OfxBase11calcContextEiRKN4sead8Matrix34IfEERKNS2_8Matrix44IfEEffffRKNS2_7Vector2IfEE = 0x007c1670
_ZN21BunbunStateSpinAttack9exeAttackEv = 0x0000f7e0
_ZN3agl3sdw15DepthShadowUnit31updateDirectionalBoundingIndex_Ev = 0x007d6610
_ZN2rc26tryFindPlayerFromInputPortEPKN2al12PlayerHolderEib = 0x0042fc20
_ZN2al34sendMsgPushAndKillVelocityToTargetEPNS_9LiveActorEPNS_9HitSensorES3_ = 0x0084ca80
_ZN2al20UserCameraController17userControlUpdateEPN4sead12LookAtCameraEPKNS_11CameraPoserEb = 0x00917d40
_ZN2al16SeSource3DCircleC2EPNS_21SeSourcePose3DMtxBaseEPKfPNS_15AudioSystemInfoEb = 0x009b0240
_ZN2al16SeSource3DCircleC1EPNS_21SeSourcePose3DMtxBaseEPKfPNS_15AudioSystemInfoEb = 0x009b0240
_ZN10BossWackunC1EPKc = 0x00007270
_ZN2al8HdrParam6interpERKS0_S2_f = 0x008931f0
_ZN15GigaBellManager17startPlessieChaseEP11SuperBowser = 0x0023d6a0
_ZN12TopMenuScene30cancelSingleModeTitleMenuAudioEi = 0x003fb260
_ZN10NekoNormal21tryStartReactToTargetEv = 0x00302b40
_ZN17DrcAssistDirector19calcJoyConBaseAngleEv = 0x00221820
_ZN19ActorRailBrakeMover23moveSyncRailByTimeInOutEPN2al9LiveActorEPiPfb = 0x000b0470
_ZN18KoopaFireBallGiantC1EPKcP11SuperBowser = 0x0026ead0
_ZNK2al10MeshDrawer15isExistDrawMeshEv = 0x008761a0
_ZN15PlayLogFunction10setUserNumE20GameDataHolderWriteri = 0x0041a230
_ZN2al12PadGyroAddonC2EPN4sead10ControllerEi = 0x0094dd40
_ZN2al12PadGyroAddonC1EPN4sead10ControllerEi = 0x0094dd40
_ZN2al14CameraDirector23setCameraFromCameraAreaEPKNS_7AreaObjE = 0x00901b70
_ZN17CounterScorePartsC1ERKN2al14LayoutInitInfoEPKcS5_PNS0_11LayoutActorEPK14GameDataHolder = 0x0016abe0
_ZN2al19tryCreateRailKeeperERKNS_13PlacementInfoEPKc = 0x0089c700
_ZN13PlayerKoopaJrC1EPKc = 0x00399080
_ZN20CourseSelectDirector14startEnterDemoEP28ICourseSelectActorController = 0x0007ca30
_ZN2al8SeKeeper13requestPlaySeEjPKcbPNS_6MeInfoEPKNS_22SeResourceSpecificInfoES2_ = 0x009a97b0
_ZN2al11BgmUserInfo6createERKNS_9ByamlIterE = 0x008ef190
_ZNK16CourseSelectRoad9isEndOpenEv = 0x00091220
_ZN26PlayerActionRaccoonDogFall6updateEv = 0x00348f30
_ZN18RCSControlGuideBar26setCharacterKinopioBrigadeEi = 0x0018c990
_ZN2al14tryStartActionEPNS_16IUseLayoutActionEPKcS3_ = 0x0096d050
_ZN3agl15GPUMemBlockBase12allocBuffer_EmPN4sead4HeapEiNS_15MemoryAttributeE = 0x007585c0
_ZN31CloudBonusLauncherBindPuppeteer16startBindInStartEPN2al9HitSensorES2_ = 0x001fbb30
_ZN14alSeDbFunction28convertInputFunctionNameToIdEPKc = 0x009a1290
_ZN4sead13Audio3DMgrNinD2Ev = 0x0074b620
_ZN4sead13Audio3DMgrNinD1Ev = 0x0074b620
_ZN2rc16getPlayerViewMtxEPKN2al9HitSensorE = 0x0042fb80
_ZN12TopMenuSceneD2Ev = 0x003fab50
_ZN12TopMenuSceneD1Ev = 0x003fab50
_ZN3agl3utl8DevTools13drawSpotLightEPNS_11DrawContextERKN4sead7Vector3IfEES8_RKNS4_7Color4fEffRKNS4_8Matrix34IfEERKNS4_8Matrix44IfEE = 0x00783130
_ZNK2al8Resource11getFileSizeERKN4sead14SafeStringBaseIcEE = 0x0089f780
_ZN19KoopaChaseStateFireC1EP10KoopaChaseRKN2al13ActorInitInfoEb = 0x00028c10
_ZN19KoopaChaseStateFireC2EP10KoopaChaseRKN2al13ActorInitInfoEb = 0x00028c10
_ZN3agl6driver17GraphicsDriverMgr11initialize_EPN4sead4HeapE = 0x00759c50
_ZN11ScoreNumber10startScoreEijPKN4sead7Vector3IfEERS3_i = 0x00197210
_ZN2al17CameraDirector_RS22initCreateObjectCameraEPKNS_14CameraTicketIdEPKNS_13PlacementInfoE = 0x0091ae70
_ZN2al21getPreLoadFileListArcEv = 0x008a5e40
_ZN17PlayerEntryPlayer12appearPlayerEi = 0x0018bb20
_ZN7TopMenu26exeAppearSingleModeButtonsEv = 0x0019ee30
_ZN2al7CurveIo12loadResourceEv = 0x008b8580
_ZN2al14tryGetMatrixTREPN4sead8Matrix34IfEERKNS_13PlacementInfoE = 0x0088ae90
_ZN5Koura16doKouraInputProcEv = 0x002781c0
_ZN3agl3sdw18PrimitiveOcclusionC2Ev = 0x008b8c50
_ZN3agl3sdw18PrimitiveOcclusionC1Ev = 0x008b8c50
_ZN21CameraPoserDarkBowser17requestAutoCameraEv = 0x00068200
_ZN2al16appearItemTimingEPKNS_9LiveActorEPKcRKN4sead7Vector3IfEES9_PKNS_9HitSensorEb = 0x00815190
_ZN3agl3g3d20ModelShaderAttribute4bindEPKN2nn3g3d11ResMaterialEPKNS3_8ResShapeEPKNS3_15ResShadingModelEPKNS3_16ResShaderProgramE = 0x0077eee0
_ZN18KouraBindPuppeteerC1EP5Koura = 0x00279080
_ZN18KouraBindPuppeteerC2EP5Koura = 0x00279080
_ZN4sead4ptcl19PtclEditorInterfaceC2Ev = 0x00969c80
_ZN2al18SeCategoryInfoListC2EPKNS_18SeCategoryNameListE = 0x0099f0e0
_ZN2al18SeCategoryInfoListC1EPKNS_18SeCategoryNameListE = 0x0099f0e0
_ZN15SingleModeScene9startSaveEv = 0x003ea550
_ZN2al23GraphicsParamKeeperImplC2EPNS_18GraphicsSystemInfoEPN3agl3utl12IParameterIOEPKcS8_i = 0x00803210
_ZN2al23GraphicsParamKeeperImplC1EPNS_18GraphicsSystemInfoEPN3agl3utl12IParameterIOEPKcS8_i = 0x00803210
_ZN12FlowerCactus4initERKN2al13ActorInitInfoE = 0x00232e40
_ZN10StageTimer23setTimerCountClearStageEi = 0x0019c330
_ZN21PlayerActionStandSwim11controlAnimEv = 0x00351f70
_ZN18RCS_SaveDataLayout10appearSaveEii = 0x00194bb0
_ZN4sead6Thread5startEv = 0x007345e0
_ZN2al15initTextBoxPaneEPN2nn4ui2d7TextBoxEPKNS_13MessageHolderEPKcj = 0x009728a0
_ZN2rc13addScoreComboEPKN2al9LiveActorEPNS0_9HitSensorEPKNS0_9SensorMsgEPKN4sead7Vector3IfEERSC_ = 0x00443ad0
_ZN2al18ModelDrawerCubeMap11createTableEv = 0x00874a10
_ZN2al12GBufferArray16bindRenderBufferEi = 0x008adb00
_ZN2al11BgmDataBaseC1Ev = 0x008e5d50
_ZN2al11BgmDataBaseC2Ev = 0x008e5d50
_ZN2al23ActorPrePassLightKeeper4initEPNS_9LiveActorERKNS_13ActorInitInfoERKNS_9ByamlIterE = 0x00821360
_ZN26DemoPlayerControllerHolder16requestStartDemoEv = 0x000a3ae0
_ZN8WarpDoor7endBindEv = 0x002e0240
_ZNK10TentackLv315getResParamInfoEv = 0x0005b570
_ZN16PressureDeathObj4initERKN2al13ActorInitInfoE = 0x002a7170
_ZN21PlayerStockerFunction20tryCreateDoubleMarioEPKN2al5SceneERKNS0_13ActorInitInfoEP26PlayerRetargettingSelectorP29PlayerInvincibleBgmControllerb = 0x003d7f70
_ZN3agl6detail15TextureDataUtil21convFormatDriverToAGLE9NVNformat = 0x0078ea70
_ZN2al22addVelocityToDirectionEPNS_9LiveActorERKN4sead7Vector3IfEEf = 0x0083be80
_ZN10PhaseSceneC1Ev = 0x003d7520
_ZN10PhaseSceneC2Ev = 0x003d7520
_ZN2al20tryGetMapPartsSuffixERKNS_13ActorInitInfoEPKc = 0x008386d0
_ZN2al14SimpleModelG3D20calcBoundingForDepthEv = 0x0087d670
_ZN6Vessel8Emulator7Virtual11PlatformHvc7CHvcSpu7_SQdMfm5SetupEhhPNS2_16CPlatformHvcUnit8_SEntityE = 0x001c4c50
_ZN10RaidonSurf13shouldRespawnEb = 0x003c2ef0
_ZN2al15KeyMoveMapParts7controlEv = 0x00862b60
_ZN23ActorStateSupportFreeze7exeBindEv = 0x000b0a50
_ZN2al19initShaderKeyStaticEPN2nn3g3d15ShadingModelObjEPKNS1_15ResShaderAssignEPKNS1_8ModelObjEPKNS1_8ShapeObjEb = 0x008af360
_ZNK20CourseSelectDirector19isAllwaysOpenCourseEi = 0x0007c630
_ZN2al19CameraPoserParallelC2ERKNS_24CameraPoserParallelParamEPKN4sead21PerspectiveProjectionEPNS_13PlayerWatcherEPKNS4_12LookAtCameraEPNS_17CollisionDirectorEPKNS_11PlacementIdE = 0x00907d90
_ZN2al19CameraPoserParallelC1ERKNS_24CameraPoserParallelParamEPKN4sead21PerspectiveProjectionEPNS_13PlayerWatcherEPKNS4_12LookAtCameraEPNS_17CollisionDirectorEPKNS_11PlacementIdE = 0x00907d90
_ZN2al15AreaObjDirector18getInVolumeAreaObjEPKcRKN4sead7Vector3IfEE = 0x008da5f0
_ZNK15GhostPresentBox11getItemNameEv = 0x002e9a40
_ZN37SuperBowserPlessieChaseFireFlameStateC1EP11SuperBowserRKN2al13ActorInitInfoE = 0x00050ac0
_ZN37SuperBowserPlessieChaseFireFlameStateC2EP11SuperBowserRKN2al13ActorInitInfoE = 0x00050ac0
_ZN16WipeCurtainStartC1ERKN2al14LayoutInitInfoE = 0x001a4020
_ZN2al14CollisionParts9updateMtxEv = 0x00938140
_ZNK8KyoroHei11isHitToBodyEPKN2al9SensorMsgEPNS0_9HitSensorES5_ = 0x000f6600
_ZN2al14CollisionParts38forceResetAllMtxAndSetUpdateMtxOneTimeERKN4sead8Matrix34IfEE = 0x00938020
_ZNK4sead8Viewport12applyScissorEPNS_11DrawContextERKNS_18LogicalFrameBufferE = 0x0073ab10
_ZN19PlayerActionHipDropC1EPK15PlayerActionArgP21IUsePlayerFlagControlPK14IUsePlayerFlagPK19IUsePlayerCheckAreaS7_S7_ = 0x00341220
_ZN19PlayerActionHipDropC2EPK15PlayerActionArgP21IUsePlayerFlagControlPK14IUsePlayerFlagPK19IUsePlayerCheckAreaS7_S7_ = 0x00341220
_ZN2al16startSequenceBgmEPKNS_15IUseAudioKeeperEPKcii = 0x008efa10
_ZN6Vessel8Emulator7Virtual11PlatformHvc15CHvcDiskUtility15LoadOnColdStartEPNS2_16CPlatformHvcUnit8_SEntityE = 0x001b17e0
_ZN2al11TextureUnit12applyCompSelERKNS_11CompSelTypeE = 0x009ba070
_ZN15SingleModeScene21exeDemoIslandMap2PartEv = 0x003ec360
_ZN18BombBoundGenerator9exeReloadEv = 0x000b3d70
_ZN11RaidonActorC2EPKcS1_ = 0x003bb940
_ZN10Lighthouse9turnOnInkEi = 0x00282f70
_ZN2al12MtxConnectorC1Ev = 0x007fefd0
_ZN2al12MtxConnectorC2Ev = 0x007fefd0
_ZN11PlayerActor26conveyMaterialAreaToActionEv = 0x00366840
_ZNK20CourseSelectDirector12isPlayerMoveEv = 0x0007d9b0
_ZN15RaidonWaitStateC2EPKcP10RaidonBaseP23ActorStateSupportStroke = 0x003cc230
_ZN15RaidonWaitStateC1EPKcP10RaidonBaseP23ActorStateSupportStroke = 0x003cc230
_ZN9BlockHardC1EPKc = 0x001de200
_ZN2al25calcWorldPosFromLayoutPosEPN4sead7Vector3IfEEPKNS_15SceneCameraInfoERKNS0_7Vector2IfEERKS2_i = 0x008a91b0
_ZN21StageStartEventCamera9startDemoEv = 0x000ae800
_ZN2al39tryFindNearestPlayerDisatanceFromTargetEPfPKNS_9LiveActorERKN4sead7Vector3IfEE = 0x0088de80
_ZN12BoxPropellerC1EPKc = 0x001ec050
_ZN25ScenarioShineCounterParts7endDemoEv = 0x00077470
_ZN11GhostPlayer15tryStartFromObjEPKc = 0x002e6f30
_ZN17CoinBlowGeneratorC1EPKc = 0x001fe5d0
_ZN2al12SceneCreator16tryEndInitThreadEv = 0x008a9b40
_ZN27KoopaLastDemoEndActorHolder12startEndDemoEv = 0x0002f1c0
_ZN2al33setShadowDropLengthEvenWithTargetEPNS_14ShadowMaskBaseEPKS0_RKN4sead7Vector3IfEE = 0x008bc230
_ZNK11PlayerActor21isInRouteDokanOrDokanEv = 0x00367280
_ZN21SuperBowserLaserState15calcHitPositionEv = 0x0004e1e0
_ZN2al18isCameraCalcTargetEPKNS_9LiveActorEi = 0x00914db0
_ZN3agl6detail20GPUMemBlockMgrHeapEx18freeMemoryPoolHeapEPNS0_14MemoryPoolHeapE = 0x00758cb0
_ZN20DemoPlayerController26stopSklAnimAndDeleteEffectEv = 0x000a38e0
_ZN7DoorKey19updateOpenThrowPoseEi = 0x0021ded0
_ZN6Vessel8Emulator7Virtual11PlatformHvc8CHvcMmc213_AdjustBusMapEv = 0x001b3840
_ZNK2al16CameraCloseUpper19isPlayerInsideFrameEv = 0x009037c0
_ZN9InkPuddle12attackSensorEPN2al9HitSensorES2_ = 0x000e3420
_ZN5erepo17PlayStyleObserver18checkCurrentStyle_ERKNS_7Manager9UpdateArgEb = 0x009bc080
_ZN2al12GBufferArray29bindRenderBufferAndContextMRTEv = 0x008ae010
_ZNK2rc5Stamp13getUIRotationEv = 0x002bef10
_ZN11DemoObjBase4initERKN2al13ActorInitInfoE = 0x000a2d60
_ZN10Lighthouse18setScenarioButtonsEPN2al9LiveActorE = 0x0027fd10
_ZN7LanternC1EPKc = 0x0027a9d0
_ZN15PlayerThrowBase8forceEndEv = 0x003b3f90
_ZN11SuperBowser14activateCameraEv = 0x0003e5f0
_ZNK2al28ExecutorListLayoutDrawNormal9startDrawEv = 0x0080eb90
_ZN2al14CollisionParts14makeEqualScaleEPN4sead8Matrix34IfEE = 0x00937dc0
_ZN3agl3utl12IParameterIO4loadERKN4sead14SafeStringBaseIcEEb = 0x0078d320
_ZN2al17DepthShadowDrawerD1Ev = 0x008c0190
_ZN2al17DepthShadowDrawerD2Ev = 0x008c0190
_ZN3agl3utl14PrimitiveShapeD2Ev = 0x007732f0
_ZN3agl3utl14PrimitiveShapeD1Ev = 0x007732f0
_ZN10TentackLv312exeFallMagmaEv = 0x0005a8c0
_ZN2rc16initAreaObjIndexEPN2al15AreaObjDirectorE = 0x00423640
_ZN22SingleModeDataFunction15getScenarioTypeE22GameDataHolderAccessorii = 0x0041f0f0
_ZN4sead14MainFileDeviceC1EPNS_4HeapE = 0x0070efc0
_ZN4sead14MainFileDeviceC2EPNS_4HeapE = 0x0070efc0
_ZN2al12MtxConnector4initEPKN4sead8Matrix34IfEE = 0x007ff0b0
_ZN3eui17TraceGaugeControl10initializeERKN2nn4ui2d10ControlSrcEPNS_8LayoutExE = 0x007f9910
_ZN16PlayerActionFunc11calcJumpPowERKN4sead7Vector3IfEES4_ffffff = 0x00323260
_ZN10GameSystem8drawMainEv = 0x00418950
_ZN2al17cancelCameraShakeEPKNS_13IUseCamera_RSE = 0x0092ab80
_ZN11PlayerModelC2EPKcS1_RKN2al13ActorInitInfoES1_ = 0x003aa0f0
_ZN21DisasterSpikeDirector30forceKillFallingDisasterSpikesEv = 0x001539a0
_ZN2al10SeDirector7endDemoEN12alSeFunction8DemoTypeE = 0x009a2310
_ZN11ButtonGroup6decideEPKc = 0x00161550
_ZN34PlayerActionConditionAirMoveToWall5checkEv = 0x0031e300
_ZN2al19ColorClampDrawParamC2Ev = 0x0098ffd0
_ZN2al19ColorClampDrawParamC1Ev = 0x0098ffd0
_ZN17DisasterLightningC1EPKc = 0x0014f960
_ZN22CourseSelectRouteDokan19startAppearEffectW7Ev = 0x00093340
_ZN11KuriboTower22isExistObstacleForwardERKN4sead7Vector3IfEES4_S4_fff = 0x000f2c60
_ZN2al20tryIsInAreaObjPlayerEPNS_12AreaObjGroupE = 0x008dbfe0
_ZN18CoinBlowConcentric4initERKN2al13ActorInitInfoE = 0x0014d090
_ZN3eui10AnimButton5BuildERKN2nn4ui2d10ControlSrcEPNS_8LayoutExE = 0x007f3f40
_ZN2rc14isInNoRainAreaEPKN2al11IUseAreaObjERKN4sead7Vector3IfEEb = 0x004242e0
_ZN17LiftMikeBlockRail4initERKN2al13ActorInitInfoE = 0x0027dd70
_ZN2al17tryIsInAreaPlayerEPKNS_7AreaObjE = 0x008dc030
_ZN37SuperBowserPlessieChaseFireFlameState13startJointAimEN4sead7Vector3IfEEi = 0x00051440
_ZN29CourseSelectStateRevivePlayerC1EP17CourseSelectSceneb = 0x0009b7d0
_ZN29CourseSelectStateRevivePlayerC2EP17CourseSelectSceneb = 0x0009b7d0
_ZN6Vessel8Resource4File10InitializeEv = 0x001ca820
_ZN2al13ScreenCapture24copyImageFromFrameBufferEPN3agl11DrawContextEPKNS1_12RenderBufferE = 0x008a8420
_ZN4sead7TaskMgr13appendToList_ERNS_5TListIPNS_8TaskBaseEEES3_ = 0x007176a0
_ZN18BombStateExplosionC2EPN2al9LiveActorEbPK23BombStateExplosionParam = 0x000b6130
_ZN18BombStateExplosionC1EPN2al9LiveActorEbPK23BombStateExplosionParam = 0x000b6130
_ZN22DisasterModeController21beginAndNeverEndDebugEv = 0x0020e880
_ZN11LuckyIslandC1EPKc = 0x00285970
_ZNK11SuperBowser28findSpawnClosestInLinkedAreaEN4sead7Vector3IfEEb = 0x0003a130
_ZN4sead14AudioPlayerNinC2Ev = 0x0074dcf0
_ZN4sead14AudioPlayerNinC1Ev = 0x0074dcf0
_ZNK21CourseSelectMiniature15isGreenStarLockEv = 0x00081eb0
_ZN3eui14ArcResourceMgr11ArcResourceC1EPS0_RKN4sead14SafeStringBaseIcEEPv = 0x007fe150
_ZN3eui14ArcResourceMgr11ArcResourceC2EPS0_RKN4sead14SafeStringBaseIcEEPv = 0x007fe150
_ZN10LighthouseC1EPKc = 0x0027ee60
_ZN3agl2fx12OfxLensFlare6Preset13PresetElementC1EiPNS_3utl13IParameterObjE = 0x007c2750
_ZN3agl2fx12OfxLensFlare6Preset13PresetElementC2EiPNS_3utl13IParameterObjE = 0x007c2750
_ZNK10OceanWater11drawComposeEPKN3agl12RenderBufferE = 0x00295380
_ZN3agl11TextureData16updateNVNtextureEv = 0x007645e0
_ZN21VisibleSwitchMapParts4initERKN2al13ActorInitInfoE = 0x00867db0
_ZN18IntroFlyOverCameraC1EPKc = 0x00070af0
_ZN2al16calcSlerpKeyQuatEPN4sead4QuatIfEEPKNS_13KeyPoseKeeperEf = 0x0081a570
_ZN9SuperStar7controlEv = 0x002c5020
_ZN2al14CollisionPartsC2EPvPKv = 0x009378f0
_ZN2al14CollisionPartsC1EPvPKv = 0x009378f0
_ZN22CourseSelectRouteDokanC1EPKc = 0x00093130
_ZN2al11GodRayParamaSERKS0_ = 0x00890120
_ZN22ProductStateSingleModeC2EP15ProductSequenceP22ProductStageStartParamP15StageWipeKeeperRKN2al16SequenceInitInfoERKNS6_14LayoutInitInfoEP14GameDataHolderP24ControllerConnectCheckerPNS6_21ScreenCaptureExecutorE = 0x00400ba0
_ZN22ProductStateSingleModeC1EP15ProductSequenceP22ProductStageStartParamP15StageWipeKeeperRKN2al16SequenceInitInfoERKNS6_14LayoutInitInfoEP14GameDataHolderP24ControllerConnectCheckerPNS6_21ScreenCaptureExecutorE = 0x00400ba0
_ZN3agl3sdw4SSAO7ContextD1Ev = 0x0079d090
_ZN3agl3sdw4SSAO7ContextD2Ev = 0x0079d090
_ZN15BrosStateAttackC1EPN2al9LiveActorEPK18BrosMoveStepKeeper = 0x000c1e10
_ZN15BrosStateAttackC2EPN2al9LiveActorEPK18BrosMoveStepKeeper = 0x000c1e10
_ZN21PlayerStockerFunction23isDoubleItemAppearedMaxEPKN2al9LiveActorE = 0x003d84a0
_ZN2al24setRenderStateBlendColorEPNS_9LiveActorERKN4sead7Color4fE = 0x0083b3c0
_ZN22BunbunStateShellAttack14tryReflectWallEv = 0x0000ec60
_ZNK2al19BlockRailPartsGroup18calcEmptyLinkCountEv = 0x008f3a30
_ZN8KyoroHeiC1EPKc = 0x000f5e40
_ZN20TentackTentacleGroup16endSwingAllForceEv = 0x00062230
_ZN17NpcHeadController14validateLookAtEv = 0x0030c240
_ZN2al14CameraDirectorC1EiPNS_15AreaObjDirectorEPNS_17CollisionDirectorE = 0x00900f40
_ZN2al14CameraDirectorC2EiPNS_15AreaObjDirectorEPNS_17CollisionDirectorE = 0x00900f40
_ZN3agl3pfx15ColorCorrection8destroy_Ev = 0x00793c00
_ZN4sead13FaderTaskBase14startAsCreate_ERKNS_8TaskBase9CreateArgE = 0x00718890
_ZN3eui6Screen34iteratePaneForSetupPaneAfterBuild_EPN2nn4ui2d4PaneEPNS_8LayoutExEPj = 0x007f19c0
_ZN2al17ScreenPointKeeper9addTargetEPNS_9LiveActorEPKcfPKN4sead7Vector3IfEEPKNS5_8Matrix34IfEERS8_ = 0x008a7580
_ZN26CourseSelectStateStageExitC1EP17CourseSelectScenePN2al15SceneCameraInfoE = 0x0009c3b0
_ZN26CourseSelectStateStageExitC2EP17CourseSelectScenePN2al15SceneCameraInfoE = 0x0009c3b0
_ZN2al29isExistSeActionNameInUserInfoEPKNS_15IUseAudioKeeperEPKc = 0x009b62e0
_ZN10CheckPoint6cancelEv = 0x001f3130
_ZN2al19CameraPoserFixActorC1EPKc = 0x008f9d20
_ZN2al19CameraPoserFixActorC2EPKc = 0x008f9d20
_ZN2al16rotateQuatMomentEPN4sead4QuatIfEERKS2_RKNS0_7Vector3IfEE = 0x0086d760
_ZNK2al17LppProjOrthoParam10calcSizeXZEPfS1_ = 0x008239f0
_ZNK9BombBound9canKickedEPKN2al9SensorMsgEPNS0_9HitSensorES5_ = 0x00002010
_ZN2al19walkAndTurnToTargetEPNS_9LiveActorERKN4sead7Vector3IfEEffffb = 0x0083e260
_ZN2al19CameraPoserParallel26calcSpeedCompensationMultiEv = 0x0090b840
_ZN16alByamlLocalUtil11verifiByamlEPKh = 0x008ce830
_ZN2al16isCeilingPolygonERKN4sead7Vector3IfEES4_ = 0x00945ee0
_ZN14PlayerAnimator11setAnimRateEf = 0x00374a20
_ZN5Byugo13updateKeyMoveEv = 0x000c6940
_ZN17EchoEmitterHolder7executeEv = 0x002280d0
_ZN19DarkBowserShellDive6exeHopEv = 0x0001e140
_ZN16CounterTimerGateC1ERKN2al14LayoutInitInfoEPKcS5_PNS0_11LayoutActorE = 0x00141100
_ZN19TimeLimitStepSwitch4initERKN2al13ActorInitInfoE = 0x002ca1d0
_ZN4sead11DateTimeUtc6setNowEv = 0x0073cf00
_ZN14DarkBowserUtil16playLaserEffectsEPN2al9LiveActorEPbPiPNS_10LaserParamE = 0x00021540
_ZN2al18GraphicsSystemInfo15preDrawGraphicsEPKNS_15SceneCameraInfoE = 0x00805960
_ZN14GameDataHolder14initializeDataEv = 0x00417450
_ZN2rc23setPaneWorldStageStringEPN2al11LayoutActorEPNS0_10IUseLayoutEPKcS6_S6_ttPK14GameDataHolderS6_b = 0x00429620
_ZN2al28CameraAngleVerticalRequester6updateERKN4sead7Vector3IfEE = 0x0091c270
_ZN21DisasterSpikeDirector9loadParamEv = 0x00150c90
_ZN15DrcTouchPointer19startDisappearForceEv = 0x00225890
_ZN8WaveGrid8FlushCPUERNS_4DataEj = 0x00291380
_ZN2al7GpuPerfC2Ev = 0x0096cd00
_ZN2al7GpuPerfC1Ev = 0x0096cd00
_ZN15DemoScenePlayer9startDemoERKN4sead8Matrix34IfEE = 0x000a7690
_ZN15PlayerEntryMini16startPlayerEntryEb = 0x00187380
_ZN2al17PadRumbleDirector21updateInfoListOneTimeEv = 0x00951df0
_ZN10Fugumannen21receiveMsgScreenPointEPKN2al9SensorMsgEPNS0_13ScreenPointerEPNS0_17ScreenPointTargetE = 0x000d60e0
_ZN6Vessel8Emulator7Virtual11PlatformHvc8CHvcVrc114_SerializeCoreEPvb = 0x001bae70
_ZN5erepo7Manager20updateFinishStartup_ERKNS0_9UpdateArgE = 0x009bb760
_ZN14MarchGenerator17setParadePositionEv = 0x000f9f60
_ZN2al19RetroColorDrawParamC2Ev = 0x00996f70
_ZN2al19RetroColorDrawParamC1Ev = 0x00996f70
_ZNK21KinopioBrigadeChecker28findNearestDemoStartPositionEv = 0x0026ba10
_ZN21PlayerActionSquatLandC1EPK15PlayerActionArgP23IUsePlayerCollisionSizePK22IUsePlayerCeilingCheck = 0x003506c0
_ZN21PlayerActionSquatLandC2EPK15PlayerActionArgP23IUsePlayerCollisionSizePK22IUsePlayerCeilingCheck = 0x003506c0
_ZN10IslandFlagC1EPKc = 0x0025b500
_ZNK2al19CameraAngleCtrlInfo14isFixByRangeHVEv = 0x00919830
_ZN2al19AudioEffectDataBaseC2EPKcS2_ = 0x008e1a10
_ZN2al19AudioEffectDataBaseC1EPKcS2_ = 0x008e1a10
_ZN2al7CurveIoC1EPKcS2_S2_S2_S2_ = 0x008b84d0
_ZN2al7CurveIoC2EPKcS2_S2_S2_S2_ = 0x008b84d0
_ZN4Bull8exeAngryEv = 0x000c5a50
_ZN24GameDataPlayReportCommon14readFromStreamEPN4sead10ReadStreamE = 0x004184a0
_ZN2al16NamedSkyboxParamC1Ev = 0x009b8b90
_ZN2al16NamedSkyboxParamC2Ev = 0x009b8b90
_ZNK20DemoSceneActorHolder14isAllActionEndEv = 0x000a5e40
_ZN13PlayerKoopaJr17startGoalItemDemoERKN4sead7Vector3IfEE = 0x0039f230
_ZN4sead14DelegateThreadC2ERKNS_14SafeStringBaseIcEEPNS_10IDelegate2IPNS_6ThreadElEEPNS_4HeapEiNS_12MessageQueue9BlockTypeElii = 0x007349f0
_ZN4sead14DelegateThreadC1ERKNS_14SafeStringBaseIcEEPNS_10IDelegate2IPNS_6ThreadElEEPNS_4HeapEiNS_12MessageQueue9BlockTypeElii = 0x007349f0
_ZN3agl3utl23DynamicTextureAllocator14createInstanceEPN4sead4HeapE = 0x00768420
_ZN3agl25TextureDataInitializerTGA17initializeTiling_EPNS_11TextureDataENS_14GPUMemVoidAddrERKNS0_7TGADataEPN4sead4HeapE = 0x00781e00
_ZN2al9LiveActor8calcAnimEv = 0x0085c230
_ZN2al15CameraPoserAnim8initAnimEPKNS_8ResourceERKNS_11PlacementIdERKNS_13ActorInitInfoE = 0x00905b20
_ZN2al17CameraPoseUpdaterC1EPNS_15SceneCameraInfoEi = 0x00923730
_ZN2al17CameraPoseUpdaterC2EPNS_15SceneCameraInfoEi = 0x00923730
_ZN2al12GBufferArrayC2EPKN3agl17RenderTargetDepthEPKNS_18GraphicsSystemInfoEbb = 0x008acef0
_ZN2al12GBufferArrayC1EPKN3agl17RenderTargetDepthEPKNS_18GraphicsSystemInfoEbb = 0x008acef0
_ZN25TrapezeBindPuppeteerGroup23getMemberByPlayerSensorEPN2al9HitSensorE = 0x002d8630
_ZN2rc17isSingleModeSceneEPKc = 0x00443520
_ZN2al13CartoonDrawerC1EPNS_12ShaderHolderEPNS_18NoiseTextureKeeperE = 0x0098d880
_ZN2al13CartoonDrawerC2EPNS_12ShaderHolderEPNS_18NoiseTextureKeeperE = 0x0098d880
_ZN2al25calcTransLocalOffsetByMtxEPN4sead7Vector3IfEERKNS0_8Matrix34IfEERKS2_ = 0x00978100
_ZN20CoinConcentricCircle4initERKN2al13ActorInitInfoE = 0x00200a20
_ZN3agl2fx17OccludedEffectMgr10loadBinaryEPvjRKN4sead14SafeStringBaseIcEEb = 0x007bd5f0
_ZN2rc23calcPlayerModelJointPosEPN4sead7Vector3IfEEPKN2al9HitSensorEPKc = 0x00430120
_ZN2al11calcPaneMtxEPN4sead8Matrix34IfEEPKNS_10IUseLayoutEPKc = 0x0096e2d0
_ZN4sead14FrameBufferNvn6createEPNS_4HeapERKNS_7Vector2IfEEjj = 0x007193e0
_ZN2al17CameraInputHolderC2Ei = 0x0091c7d0
_ZN2al17CameraInputHolderC1Ei = 0x0091c7d0
_ZN2al13CameraCreator17createCameraPoserEPKcRKNS_11PlacementIdE = 0x00902fe0
_ZN15SplatterPlotter10initPointsEv = 0x002bcf90
_ZN12GuideBalloon17startShowDrcTouchEb = 0x00170920
_ZN10FishColony4initERKN2al13ActorInitInfoE = 0x0022c810
_ZN2al9BlockRail16tryCreateRailEndERKNS_13ActorInitInfoE = 0x008f23e0
_ZN2al21ScreenCaptureExecutor19createScreenCaptureEiii = 0x008a7ea0
_ZN21SuperBowserLaserState9forceKillEv = 0x0004ad70
_ZN20DemoCutsceneSequence29tryStartNextActionWithMessageEPKc = 0x000a14e0
_ZN2al26SeCategoryParamsControllerC2EPKNS_18SeCategoryNameListE = 0x0099f280
_ZN2al26SeCategoryParamsControllerC1EPKNS_18SeCategoryNameListE = 0x0099f280
_ZN3eui8LayoutEx21tryCreateAnimatorAutoEPKcb = 0x007ed690
_ZN30CourseSelectInfoLayoutFunction16setPaneGreenStarEP20CourseSelectInfoBasei = 0x0016bff0
_ZN2al11TextureUnit16tryCreateTextureERKNS_14TextureInitArgE = 0x009b9dd0
_ZN4Tree10appearItemEv = 0x002da290
_ZN24CourseSelectWindowHolder13appearMessageEPKc = 0x0009e370
_ZN2al10LutTexture17createDisplayListEPNS_15GpuMemAllocatorEPN3agl11DrawContextERKNS3_15SamplerLocationEPN4sead4HeapE = 0x008b8180
_ZN4sead6BufferIN3agl3env9EnvObjSet3RefEE14tryAllocBufferEiPNS_4HeapEi = 0x007cdda0
_ZN4sead8ViewportC1Effff = 0x0073a610
_ZN4sead8ViewportC2Effff = 0x0073a610
_ZN5Dokan7tryWarpEv = 0x00219380
_ZN2al19CameraPoserTower_RS16resetInputRotateEfi = 0x008ff900
_ZNK4sead20AudioSoundDataMgrNin15getSoundArchiveEv = 0x0074c600
_ZN2rc28tryGetMsgParamBlockRailRiderEPKN2al9SensorMsgE = 0x00436190
_ZN3agl4lght4SSII20applyQualitySetting_Ev = 0x007b0240
_ZN15alModelFunction37createMeshDrawerTableFromAssignShaderEPKN2al14SimpleModelG3DEi = 0x00879010
_ZN3agl3pfx8FilterAA10initializeERKNS1_13InitializeArgEPN4sead4HeapE = 0x0079b3f0
_ZN15PackunStateHold10receiveMsgEPKN2al9SensorMsgEPNS0_9HitSensorES5_ = 0x00108b30
_ZN2al24initActorOceanWaveKeeperEPNS_9LiveActorERKNS_13ActorInitInfoEPKcS6_ = 0x008365d0
_ZN2al13ArchiveHolder12tryFindEntryERKN4sead14SafeStringBaseIcEE = 0x0080ff70
_ZNK15StageDataHolder13getTotalScoreEv = 0x004215a0
_ZN7Kyuppon13exeSwoonStartEv = 0x00035680
_ZNK10DarkBowser13saveHitPointsEv = 0x00012630
_ZNK21DisasterSpikeDirector20getLaunchSpikeOriginEv = 0x00154310
_ZN21PlayerActionSlideJumpC2EP22PlayerActionAirMoveArgP13PlayerTriggerPK19IUsePlayerCheckArea = 0x0034ebc0
_ZN21PlayerActionSlideJumpC1EP22PlayerActionAirMoveArgP13PlayerTriggerPK19IUsePlayerCheckArea = 0x0034ebc0
_ZN4sead11ResourceMgr20tryLoadWithoutDecompERKNS0_7LoadArgE = 0x0072f0e0
_ZN20StageStartEventTimer7exeWaitEv = 0x000af6c0
_ZN13BlockRouletteC1EPKc = 0x001e12a0
_ZN2al26tryCreateSwitchOnAreaGroupEPNS_9LiveActorERKNS_13ActorInitInfoE = 0x008ddd30
_ZN2al27tryGetPlacementInfoAndCountEPNS_13PlacementInfoEPiPKNS_9StageInfoEPKc = 0x008a5580
_ZN10DarkBowser18requestHitReactionEPKc = 0x000128d0
_ZN2rc5Stamp11setRotationEf = 0x002bedc0
_ZN23PlayerAliveWatcherGroup6updateEv = 0x00371f80
_ZN2al29ModelDrawerDeferredSilhouette11createTableEv = 0x00876f80
_ZN10SkateShoes7exeDashEv = 0x003cdf50
_ZN2al22SeChorusEffectProcInfo10createInfoERKNS_9ByamlIterEPKc = 0x009a7390
_ZN5Ocean12attachWakeToEPN2al9LiveActorE = 0x0028e440
_ZN2al11isStopSceneEPKNS_9LiveActorE = 0x00840bb0
_ZN22DisasterModeController30exeProsperityTransitionWipeOutEv = 0x0020f610
_ZN20PlayerAmiiboDirector10startPauseEb = 0x00372a70
_ZN2al8TriangleC2Ev = 0x00941cb0
_ZN2al8TriangleC1Ev = 0x00941cb0
_ZN3eui12SharcArchive10FileReaderD2Ev = 0x007e60b0
_ZN3eui12SharcArchive10FileReaderD1Ev = 0x007e60b0
_ZN3agl3pfx10HDRComposeD2Ev = 0x007e01c0
_ZN3agl3pfx10HDRComposeD1Ev = 0x007e01c0
_ZN17CourseSelectFairy7exeWaitEv = 0x0007f620
_ZN3eui12SharcArchive10FileReader8readNextEv = 0x007e6110
_ZN3agl6detail8RootNode11setNodeMetaEPN4sead6hostio4NodeERKNS2_14SafeStringBaseIcEE = 0x00782770
_ZN17CoinBlowGenerator13initWithParamERKNS_9InitParamERKN2al13ActorInitInfoE = 0x001fe7f0
_ZNK4sead10XmlElement16getContentStringEv = 0x0073f210
_ZN18CameraChangeLayoutC2ERKN2al14LayoutInitInfoEPNS0_14CameraDirectorEP15GuideGameWindowb = 0x00165690
_ZN18CameraChangeLayoutC1ERKN2al14LayoutInitInfoEPNS0_14CameraDirectorEP15GuideGameWindowb = 0x00165690
_ZN2al17DeferredRendering16endRenderGBufferEv = 0x0095a040
_ZN2al19ActorPoseKeeperTFSV16updatePoseRotateERKN4sead7Vector3IfEE = 0x0083ede0
_ZN2al19CameraPoserFixPoint5startERKNS_15CameraStartInfoE = 0x008fb100
_ZN19WarpCubeLockedPiece4initERKN2al13ActorInitInfoE = 0x002df2d0
_ZNK18PlayerGigaDirector12getScaleRateEv = 0x003949b0
_ZN2al6Effect6updateEv = 0x0095cfe0
_ZN19KoopaChaseBattleLv1C1EP10KoopaChaseRKN2al13ActorInitInfoE = 0x000241c0
_ZN19KoopaChaseBattleLv1C2EP10KoopaChaseRKN2al13ActorInitInfoE = 0x000241c0
_ZN2al14validateShadowEPNS_9LiveActorEPNS_14ShadowMaskBaseE = 0x008bb900
_ZN24KoopaLastDefendeBlockPow10receiveMsgEPKN2al9SensorMsgEPNS0_9HitSensorES5_ = 0x0002dc00
_ZN20PlayerActionWallJumpC2EP22PlayerActionAirMoveArgPK27IUsePlayerWallJumpDirectionP18PlayerWallJumpInfoP13PlayerTriggerPK19IUsePlayerCheckArea = 0x0035ea10
_ZN20PlayerActionWallJumpC1EP22PlayerActionAirMoveArgPK27IUsePlayerWallJumpDirectionP18PlayerWallJumpInfoP13PlayerTriggerPK19IUsePlayerCheckArea = 0x0035ea10
_ZN10TentackLv328makeTentacleGroupAndTurnNextEb = 0x0005af50
_ZNK2al14ActionAnimCtrl13isExistActionEPKc = 0x008d0620
_ZN3agl3sdw13ShadowFrustum15clipByBoundBox_EPKN4sead7Vector3IfEENS2_7BitFlagIhEE = 0x007d8cc0
_ZN9IslandMap16updateInkPatchesEib = 0x00176bc0
_ZN16DarkBowserDamage17pushReleasePlayerEv = 0x00019030
_ZN16PlayerActionFunc16decayVerticalVecEPN4sead7Vector3IfEERKS2_f = 0x003237d0
_ZN2rc20isPlayerDeadOrBubbleEPKN2al9LiveActorE = 0x0042b730
_ZN10RaidonSurf4initERKN2al13ActorInitInfoE = 0x003c0260
_ZN2al9HitSensorC1EPNS_9LiveActorEPKcjftPKN4sead7Vector3IfEEPKNS5_8Matrix34IfEERS8_ = 0x00813a80
_ZN2al9HitSensorC2EPNS_9LiveActorEPKcjftPKN4sead7Vector3IfEEPKNS5_8Matrix34IfEERS8_ = 0x00813a80
_ZN2al21setRailPosToRailPointEPKNS_9LiveActorEi = 0x0089dbe0
_ZN11SkipperWeak9exeWanderEv = 0x0011e420
_ZN3agl3utl14IParameterListC2Ev = 0x0078d690
_ZN3agl3utl14IParameterListC1Ev = 0x0078d690
_ZN22PlayerPointLightingObj4initERKN2al13ActorInitInfoE = 0x002a61d0
_ZN2al16invalidateShadowEPNS_9LiveActorEPKc = 0x008bba00
_ZN2al12DemoDirector19tryRequestStartDemoEPKNS_9LiveActorEPKc = 0x008a3c10
_ZN10TrampolineC1EPKc = 0x002d56c0
_ZN2al28setPaneCounterDigit3WithIconEPNS_10IUseLayoutEPKcPKDsit = 0x0096f370
_ZN39PlayerActionConditionDamageToGroundMove5checkEv = 0x0031ed10
_ZN2al16tryGetSuffixIterEPNS_9ByamlIterEPKNS_8ResourceEPKcS6_ = 0x00840890
_ZN17TentackAttachItem17releaseAndTryKillEv = 0x00056d80
_ZN21SuperBowserLaserState11updateLaserEv = 0x0004c170
_ZN18MapMenuPlayerParts11startAppearEPKcPKN2al10IUseLayoutE = 0x0017d000
_ZN2al13MessageSystem20tryInitMessageHolderEPN4sead10StrTreeMapILi256EPNS_13MessageHolderEEEPKc = 0x00979cb0
_ZN2al19CameraPoserTower_RSC1EPKcPKN4sead7Vector3IfEE = 0x008fe5f0
_ZN2al19CameraPoserTower_RSC2EPKcPKN4sead7Vector3IfEE = 0x008fe5f0
_ZN2al15SeRequestKeeper19stopSeForCameraDemoEN12alSeFunction8DemoTypeE = 0x009ae2a0
_ZN2al19StageSwitchDirector9useSwitchEPKNS_19StageSwitchAccesserE = 0x008cb9e0
_ZN9BombBound8exeBoundEv = 0x000030a0
_ZN22PlayerActionGroundMove15updateMoveStateEf = 0x0033f100
_ZN7Tentack22tryFindTransNearPlayerEPN4sead7Vector3IfEE = 0x000562e0
_ZN4sead4Path12getDriveNameEPNS_22BufferedSafeStringBaseIcEERKNS_14SafeStringBaseIcEE = 0x00710900
_ZN4sead9ThreadMgrC1Ev = 0x00734c10
_ZN4sead9ThreadMgrC2Ev = 0x00734c10
_ZN22PlayerActionGroundMove5setupEv = 0x0033f860
_ZN12GeneratorBoxC1EPKc = 0x00234d80
_ZN12PlayerEffect18emitEffectSubActorEPKciS1_ = 0x00391900
_ZN9BoxKuribo4initERKN2al13ActorInitInfoE = 0x001ea780
_ZN14PunpunShuriken27initShurikenWithArchiveNameERKN2al13ActorInitInfoEPKc = 0x00039650
_ZN22SingleModeDataFunction27reportCommonPlayReportItemsE20GameDataHolderWriterPKN2al18IUseSceneObjHolderEbb = 0x0041f850
_ZN10RaidonSurf17startSharedGetOffEbb = 0x003c4a00
_ZN11CoinRedRingC1EPKc = 0x00206120
_ZNK2al16LightStreakParameqERKS0_ = 0x00897720
_ZN7TopMenu6appearE18TopMenuAppearState = 0x0019eac0
_ZN4sead15SZSDecompressorC1EjPh = 0x0074a310
_ZN4sead15SZSDecompressorC2EjPh = 0x0074a310
_ZN15alModelFunction22isShaderAssignDeferredEPKN2nn3g3d8ModelObjEi = 0x00879d30
_ZN19NpcStateWanderParamC2EiifffffffbbPKcS1_bif = 0x0030f3d0
_ZN19NpcStateWanderParamC1EiifffffffbbPKcS1_bif = 0x0030f3d0
_ZN4sead6ThreadC2EPNS_4HeapEPN2nn2os10ThreadTypeEj = 0x00734330
_ZN16TestAndoGoalPole14calcNearestPosEv = 0x002c8040
_ZN27PipePackunWaterSurfaceModel8setCoordEf = 0x0010e7d0
_ZN4sead24AudioFxReverbStdParamNinC2Ev = 0x00753ce0
_ZN4sead24AudioFxReverbStdParamNinC1Ev = 0x00753ce0
_ZN11GuideCourseC1ERKN2al14LayoutInitInfoEPKc = 0x00171210
_ZN12GameDataFile11startEndingEv = 0x00411870
_ZN4sead4ptcl10PtclSystemC2ERKNS0_6ConfigE = 0x009699d0
_ZN17PlayerActionSlide18calcModelOffsetMtxEv = 0x0034d8a0
_ZN3eui10ButtonBaseC2Ev = 0x007f4c00
_ZN3eui10ButtonBaseC1Ev = 0x007f4c00
_ZN27PlayerAmiiboDirectorWatcherC2Eb = 0x00373e10
_ZN27PlayerAmiiboDirectorWatcherC1Eb = 0x00373e10
_ZN3eui12TagProcessorC1EPNS_10MessageMgrEPNS_7FontMgrE = 0x007ea660
_ZN3eui12TagProcessorC2EPNS_10MessageMgrEPNS_7FontMgrE = 0x007ea660
_ZN2al19ActorPoseKeeperTQSVC1Ev = 0x0083f260
_ZN2al19ActorPoseKeeperTQSVC2Ev = 0x0083f260
_ZN2al12MemorySystem18createSequenceHeapEv = 0x00872c80
_ZN14PlayerAnimator14startAnimLocalERKN4sead14SafeStringBaseIcEEi = 0x00374950
_ZN2al18LayoutActionKeeper11startActionEPKcS2_ = 0x0096d5b0
_ZN2rc21isMsgAskControlUserIdEPKN2al9SensorMsgEi = 0x00436240
_ZN2al30tryNormalizeMtxScaleOrIdentityEPN4sead8Matrix34IfEERKS2_ = 0x00977ee0
_ZN10Lighthouse4initERKN2al13ActorInitInfoE = 0x0027f010
_ZN3agl3env6EnvObj11registClassERKN4sead14SafeStringBaseIcEES6_PFPS1_PNS2_4HeapEENS1_8MetaInfoEj = 0x007c9c70
_ZN23CourseSelectSceneLayout19updateGreenStarAnimEv = 0x0016e9b0
_ZN19GhostPlayerFunction27calcGhostPlayDataActionNameEPPKcPKvi = 0x002e7fb0
_ZN21PlayerUpperBodyAction8forceEndEv = 0x003b43e0
_ZN3agl3sdw15DepthShadowUnitD2Ev = 0x007d5930
_ZN3agl3sdw15DepthShadowUnitD1Ev = 0x007d5930
_ZN16BasicActionGuideC1ERKN2al14LayoutInitInfoEPKcS5_PNS0_11LayoutActorE = 0x0013dde0
_ZN16BlockTransparentC1EPKc = 0x001e5730
_ZN8CoinRing10receiveMsgEPKN2al9SensorMsgEPNS0_9HitSensorES5_ = 0x00206c30
_ZN28CourseSelectInfoDecideButtonC2EPN2al11LayoutActorE = 0x0016cf50
_ZN28CourseSelectInfoDecideButtonC1EPN2al11LayoutActorE = 0x0016cf50
_ZN19HeadgearPoseBuilderC1EPN2al9LiveActorEPK24HeadgearPoseBuilderParam = 0x00258d80
_ZN19HeadgearPoseBuilderC2EPN2al9LiveActorEPK24HeadgearPoseBuilderParam = 0x00258d80
_ZN6Vessel8Emulator7Virtual11PlatformHvc4CHvcD2Ev = 0x001a70c0
_ZN6Vessel8Emulator7Virtual11PlatformHvc4CHvcD1Ev = 0x001a70c0
_ZN18MapOceanShineParts17getNearestIconIdxERf = 0x00074d70
_ZN2rc13isPlayerGiantEPKN2al9HitSensorE = 0x0042f4c0
_ZN17BallStateFunction16calcReflectSpeedEPN2al9LiveActorEPKS1_PK18BallStateFallParam = 0x001d83d0
_ZN2al14ShadowDirectorC1EiPNS_18GraphicsSystemInfoEPNS_12LiveActorKitE = 0x008bed10
_ZN2al14ShadowDirectorC2EiPNS_18GraphicsSystemInfoEPNS_12LiveActorKitE = 0x008bed10
_ZN15GigaBellManager24getCurrentKnockbackParamEv = 0x0023d8a0
_ZN2rc16addScoreByFactorEPKN2al9LiveActorEPNS0_9HitSensorEPKcRKN4sead7Vector3IfEEi = 0x00443930
_ZNK3agl3sdw13ShadowPrePass4drawEPNS_11DrawContextEiPKNS_17RenderTargetDepthES6_PKNS_11TextureDataES9_PKNS_14TextureSamplerEi = 0x007df230
_ZN11SyumockUtil6doKillEPN2al9LiveActorEPKNS0_9SensorMsgEPNS0_9HitSensorES7_ = 0x00123fc0
_ZN2al18SnapShotCameraCtrlC1EPKNS_11IUseAreaObjEPKNS_23SnapShotCameraSceneInfoEb = 0x0092c3f0
_ZN2al18SnapShotCameraCtrlC2EPKNS_11IUseAreaObjEPKNS_23SnapShotCameraSceneInfoEb = 0x0092c3f0
_ZN15BossWackunFrame7revivalEv = 0x0000b130
_ZNK3agl3sdw18PrimitiveOcclusion6drawDoEiRKNS_11TextureDataES4_bNS_10ShaderModeE = 0x008baaf0
_ZN5Ukibo7exeMoveEv = 0x00131910
_ZNK15DrcTouchPointer9isVisibleEv = 0x00225470
_ZN17EchoBlockMapParts4initERKN2al13ActorInitInfoE = 0x002278e0
_ZN3agl3utl8DevTools11drawTextureEPNS_11DrawContextERKNS_14TextureSamplerERKN4sead8Matrix34IfEERKNS7_8Matrix44IfEERKNS7_7Color4fE = 0x007844c0
_ZN3agl6driver6NVNMgr6toTileEPNS_11TextureDataEPKv = 0x0075b510
_ZN15screenfilterCpu13BlurKido_InitEv = 0x001caa80
_ZN16CourseSelectNode14setSubDistanceEfRKN4sead7Vector3IfEE = 0x00085480
_ZN3agl6detail14GPUMemBlockMgr14createInstanceEPN4sead4HeapE = 0x00759440
_ZN2al18PrePassLightKeeper21requestProjLightOrthoERKN4sead7Vector3IfEES5_S5_RKNS1_7Color4fEfffffffbbS8_PN3agl14TextureSamplerEbRKNS1_7Vector2IfEESF_ = 0x00827230
_ZN21ItemStateAssistRotate15setRotateDegreeEf = 0x00260fc0
_ZN15DrcTouchPointer13initialAppearEv = 0x00224ef0
_ZN24ActorStateRouteDokanMove7exeMoveEv = 0x001cf140
_ZN22CameraPoserFollowLimit13tryStartWaterEb = 0x0006be40
_ZN4Tree12exeGiantBlowEv = 0x002da970
_ZN2al18PrePassLightKeeper10initShaderEPNS_12ShaderHolderE = 0x008253d0
_ZN10DarkBowser8initDemoEi = 0x00011ab0
_ZN11PlayerModel14createHairCtrlEv = 0x003aab80
_ZNK14GameDataCommon13writeToStreamEPN4sead11WriteStreamE = 0x0040f5c0
_ZN5Bonze23isSingleModeReactionMsgEPKN2al9SensorMsgEPNS0_9HitSensorES5_ = 0x000b6b60
_ZN2al14ActorAlphaCtrl6updateEPKNS_13ClippingJudgeE = 0x0097fe90
_ZN10DarkBowser22initGraphicsAndEffectsERKN2al13ActorInitInfoE = 0x000118e0
_ZN21SingleModeSceneLayout11prepEndDemoEv = 0x001987c0
_ZN8BallYarn23isEnablePlayerKnockDownEPN2al9HitSensorES2_ = 0x001493f0
_ZN19RaidonSurfAnimState13changeToNerveEPN2al9IUseNerveEPKNS0_5NerveE = 0x003c91f0
_ZN2al26ApplicationMessageReceiver11procMessageEj = 0x008d93d0
_ZN24ActorJointLookControllerC1EPKN2al9LiveActorEi = 0x000af900
_ZN24ActorJointLookControllerC2EPKN2al9LiveActorEi = 0x000af900
_ZN2rc16AttachObjectList4initERKN2al13ActorInitInfoEb = 0x001484e0
_ZN9TimerGate11exeRailMoveEv = 0x002cd080
_ZN17PlayerActionPivotC1EPK15PlayerActionArgP32IUsePlayerHorizontalSpeedAverageb = 0x00346e80
_ZN17PlayerActionPivotC2EPK15PlayerActionArgP32IUsePlayerHorizontalSpeedAverageb = 0x00346e80
_ZN2rc21findRandomPlayerActorEPKN2al9LiveActorE = 0x004323a0
_ZN2al12EffectKeeper6updateEv = 0x00960fd0
_ZN2al16KCollisionServer11checkSphereEPNS_6KCFxyzEffjPN4sead15FixedRingBufferINS_9KCHitInfoELi512EEE = 0x00943290
_ZNK13DemoLayoutObj5isEndEi = 0x000a2850
_ZN22alEffectSystemFunction17drawEffectForwardEPKN2al12EffectSystemERKN4sead8Matrix44IfEERKNS4_8Matrix34IfEEfff = 0x009604e0
_ZN6Togezo15exeTurnToPlayerEv = 0x0012d120
_ZN2al20CameraAngleSwingInfo4loadERKNS_9ByamlIterE = 0x00920110
_ZNK24GameDataPlayReportCommon13writeToStreamEPN4sead11WriteStreamE = 0x00418570
_ZN3agl25TextureDataInitializerRAW13copyTileImageEPNS_11TextureDataENS_19ConstGPUMemVoidAddrEj = 0x00781fc0
_ZN2al28ModelDrawerDeferredFootPrintC1EPKc = 0x00876d60
_ZN2al28ModelDrawerDeferredFootPrintC2EPKc = 0x00876d60
_ZN22SingleModeDataFunction14getScenarioNumE22GameDataHolderAccessori = 0x004202d0
_ZN18BlockChoiceWatcherC1EPKc = 0x001dda30
_ZN13DisasterSpike9startLandEv = 0x00215820
_ZN2al14createInfoListINS_15SeEffectBusInfoEEEPNS_13AudioInfoListIT_EERKNS_9ByamlIterE = 0x009a6490
_ZN11SuperBowser11getJumpRateEv = 0x000432a0
_ZN19KoopaChaseStateWarpC1EP10KoopaChaseRKN2al13ActorInitInfoE = 0x0002a5c0
_ZN19KoopaChaseStateWarpC2EP10KoopaChaseRKN2al13ActorInitInfoE = 0x0002a5c0
_ZN10TentackLv318startFallMagmaBallEb = 0x0005aa70
_ZN2al17OceanWaveUserInfo10createInfoERKNS_9ByamlIterERKN4sead14SafeStringBaseIcEE = 0x0097e4d0
_ZN33CourseSelectStateAfterEndingEventC1EP17CourseSelectSceneP20CourseSelectDirector = 0x00099bb0
_ZN33CourseSelectStateAfterEndingEventC2EP17CourseSelectSceneP20CourseSelectDirector = 0x00099bb0
_ZNK2al4Rail23getIncludedSectionIndexEf = 0x0089c520
_ZN2rc25setPlayerColorAnimDefaultEPN2al9LiveActorEPKc = 0x00432e00
_ZNK4sead14SafeStringBaseIcE14token_iterator3getEPNS_22BufferedSafeStringBaseIcEE = 0x0070d970
_ZNK2al23GraphicsParamKeeperImpl27tryFindParamOrDefaultBinaryEPKc = 0x00803690
_ZN15StageListHolderC2Ev = 0x00421ea0
_ZN15StageListHolderC1Ev = 0x00421ea0
_ZN33PlayerFireBallAppearWatchFunction22isEmittableBoundEffectEPN2al9LiveActorE = 0x003939b0
_ZN8GoalItem31tryPlayGoalToLighthouseCutsceneEv = 0x002452f0
_ZN15PlayerBoomerang10startThrowERKN4sead4QuatIfEERKNS0_7Vector3IfEE = 0x0037ac80
_ZN11alModelCafeC2Ev = 0x00874100
_ZN11alModelCafeC1Ev = 0x00874100
_ZN2al7BgmLine15startWaitingBgmEv = 0x008ea340
_ZN19PlayerEntryFunction30isEnableUsePlayerCharacterTypeEiPK14GameDataHolder = 0x001837d0
_ZN9GreenCoin10receiveMsgEPKN2al9SensorMsgEPNS0_9HitSensorES5_ = 0x00255940
_ZN2al25initJointLocalQuatRotatorEPKNS_9LiveActorEPKcPKN4sead4QuatIfEE = 0x00816590
_ZN37SuperBowserPlessieChaseFireFlameState14initSweepParamEP42SuperBowserPlessieChaseFireFlameSweepParamPKc = 0x00052320
_ZN2al13ParameterBase18initializeListNodeERKN4sead14SafeStringBaseIcEES5_S5_PNS_12ParameterObjEb = 0x00985990
_ZN2al14CameraPoser_RS18initLocalInterpoleEv = 0x009228f0
_ZN2al15CameraPoserRail6updateEv = 0x0090eee0
_ZN4BirdC1EPKc = 0x001da960
_ZN13PlayerKoopaJr17tryThrowStockItemEiPKcPN2al9LiveActorE = 0x0039eed0
_ZN16TimerClockNumber9exeAppearEv = 0x0019d910
_ZN3agl15UniformLocation6searchERKNS_13ShaderProgramE = 0x0075f2d0
_ZN2al13MessageHolderC2Ev = 0x00979810
_ZN2al13MessageHolderC1Ev = 0x00979810
_ZN2al18initDemoAnimCameraEPKNS_13IUseCamera_RSERKNS_13ActorInitInfoEPKNS_8ResourceEPKN4sead8Matrix34IfEEPKcb = 0x0092a520
_ZN21DrcAssistDirectorList15endSnapshotModeEv = 0x00222900
_ZN2al11MirrorParam6interpERKS0_S2_f = 0x008b4a10
_ZN2al36GraphicsParamRequestInterpKeeperImplC2EPNS_18GraphicsSystemInfoEiPKcS4_S4_ = 0x00803790
_ZN3agl3utl13ParameterBase18initializeListNodeERKN4sead14SafeStringBaseIcEES6_S6_PNS0_13IParameterObjE = 0x0076ba00
_ZN2al28ExecutorListActorExecuteBase13registerActorEPNS_9LiveActorE = 0x0080bd10
_ZN15MeraWanwanTrack5startERKN4sead7Vector3IfEES4_PKN2al14CollisionPartsE = 0x000fcbc0
_ZN3agl3env9EnvObjMgrC1Ev = 0x007ca670
_ZN3agl3env9EnvObjMgrC2Ev = 0x007ca670
_ZN2al18KaleidoscopeDrawer6updateEv = 0x00990d20
_ZN3eui10DrawInfoEx21applyRenderBufferInfoEPKNS0_16RenderBufferInfoE = 0x007e4be0
_ZNK4sead10XmlElement18findAttributeValueERKNS_14SafeStringBaseIcEE = 0x0073e890
_ZN21SuperBowserLaserState14calcRayOriginsEv = 0x0004df50
_ZN18WaterAreaMoveModel4initERKN2al13ActorInitInfoE = 0x002e13d0
_ZN2al19CameraPoserParallel17applyCameraOffsetEv = 0x00909fe0
_ZN16SimpleMenuLayoutC1EPKcRKN2al14LayoutInitInfoEjS1_ = 0x0019d220
_ZN10PlayReport11InitAccountEP14GameDataHolder = 0x003b6d80
_ZN18ChorobonCubeHolder4initERKN2al13ActorInitInfoE = 0x000c7cb0
_ZN13FallingPillar17createPillarPartsERKN2al13ActorInitInfoE = 0x00158cb0
_ZN4sead17PrimitiveDrawUtil13setQuadVertexEPNS0_6VertexEPt = 0x0071ca20
_ZN2al12MemorySystem23createSceneResourceHeapEPKc = 0x00872da0
_ZNSt3__127__insertion_sort_incompleteIRN2nn3vfx6detail29SortCompareGreaterIndexStableINS3_8SortDataEEEPS5_EEbT0_S9_T_ = 0x006e78a0
_ZN21DisasterSpikeDirector15setUpGoldSpikesEv = 0x001521c0
_ZN2al22turnVecToVecCosOnPlaneEPN4sead7Vector3IfEERKS2_S5_S5_f = 0x0086f530
_ZN12BossBunretsu12faceToTargetEv = 0x000bb470
_ZN19TouchCarryItemState21receiveMsgScreenPointEPKN2al9SensorMsgEPNS0_13ScreenPointerEPNS0_17ScreenPointTargetE = 0x002ce4e0
_ZN6Shards6exeGotEv = 0x002b56a0
_ZN8BallSnowC1EPKc = 0x001d5850
_ZN2al25setPrePassProjLightShadowEPKNS_9LiveActorEPKcbbf = 0x008205b0
_ZN18BindPuppeteerGroup22createAndFillPuppeteerEPKc = 0x001d9dc0
_ZN4sead22AudioResourceLoaderNin14setArchiveOnFsERKNS_14SafeStringBaseIcEE = 0x00750d20
_ZN2al15GodRayRequester4initERKNS_13ActorInitInfoE = 0x008925c0
_ZN3agl13ShaderProgram11initialize_ERKN4sead14SafeStringBaseIcEENS_8ResArrayINS_18ResShaderVariationEEEPNS1_4HeapE = 0x00760c90
_ZN11SuperBowser9hasLandedEv = 0x00046ce0
_ZN4sead15ResourceFactoryD2Ev = 0x0072e8e0
_ZN4sead15ResourceFactoryD1Ev = 0x0072e8e0
_ZN18KinokoStateRunaway4moveEfffff = 0x002696b0
_ZN17CourseSelectDokan4initERKN2al13ActorInitInfoE = 0x0007def0
_ZN21SuperBowserLaserState21checkHitDisasterSpikeEv = 0x0004e850
_ZN20TentackTentacleGroup16eatAttachItemAllEv = 0x000622b0
_ZN16DemoOpeningStateC2EPN2al5SceneERKNS0_13ActorInitInfoEPNS0_18GraphicsSystemInfoEPN4sead8Matrix34IfEE = 0x003d1de0
_ZN16DemoOpeningStateC1EPN2al5SceneERKNS0_13ActorInitInfoEPNS0_18GraphicsSystemInfoEPN4sead8Matrix34IfEE = 0x003d1de0
_ZN18MapOceanShineParts16setPanePositionsEN4sead7Vector2IfEEf = 0x00074630
_ZNK3agl3utl12ExpandFilter11drawExpand_EPNS_11DrawContextEPNS0_22MultiFilterDrawContextENS0_15MultiFilterUnit11FilterScaleE = 0x00790f50
_ZN2al21AudioResourceDirector24createAudioResourceLayerERKN4sead14SafeStringBaseIcEE = 0x008dfc10
_ZN21alCameraPoserFunction9resetGyroEPN2al14CameraPoser_RSE = 0x0091e6c0
_ZN19KoopaChaseStateDemo3endEb = 0x00028360
_ZN21alAudioEffectFunction11getBusIndexEPKc = 0x009a60e0
_ZNK2al16PrePassLightBase9calcColorEPN4sead7Color4fEf = 0x00823f30
_ZN21alCameraPoserFunction19calcPreCameraAngleHEPKN2al14CameraPoser_RSE = 0x0091d600
_ZN4sead14MessageProject10initializeEPvPNS_4HeapE = 0x00751d90
_ZN20DemoScenePlayerModel13killAllEffectEv = 0x000a8430
_ZN9CoinFallsC1EPKc = 0x002025e0
_ZNK2al18EffectLayoutDrawer4drawEv = 0x00966bd0
_ZN2rc20tryFindControlUserIdEPKN2al9LiveActorE = 0x00426220
_ZN2al34createAndSetColliderSpecialPurposeEPNS_9LiveActorEPKc = 0x0093d680
_ZN2rc5StampC1ERKN2al13ActorInitInfoEPKcPK18DrcTouchAssistInfoPNS_13StampDirectorEi = 0x002bdd90
_ZN8GigaBell19exeTransitionWakeUpEv = 0x0023abf0
_ZN15KuriboClimbRail12exePressDownEv = 0x000ec030
_ZNK11KuriboTower9isContactEPK15KuriboTowerNode = 0x000f2500
_ZN11LuckyIsland4initERKN2al13ActorInitInfoE = 0x00285a70
_ZN17CourseSelectFairy21startBackToCastleDemoEPKN4sead8Matrix34IfEE = 0x0007f8e0
_ZN10GameSystemC1Ev = 0x004186e0
_ZN10GameSystemC2Ev = 0x004186e0
_ZN10PackunFire10receiveMsgEPKN2al9SensorMsgEPNS0_9HitSensorES5_ = 0x001024f0
_ZN11SyumockUtil37initJointSyumockJointSpringControllerEPN2al9LiveActorE = 0x00123c60
_ZN13LuigiBrosMain8finalizeEv = 0x001c9c20
_ZN14SingleModeDataC2EP14GameDataHolderi = 0x0041bc10
_ZN14SingleModeDataC1EP14GameDataHolderi = 0x0041bc10
_ZN13CoinChameleonC1EPKc = 0x001fece0
_ZN17TreeBindPuppeteer7bindEndEv = 0x002db1a0
_ZN4NekoC1EPKcPS_ = 0x002fc6b0
_ZN22SingleModeDataFunction12collectShardE20GameDataHolderWriterii = 0x0041f730
_ZN2rc36setPlacementIdObjGhostPlayerRecorderEPKN2al18IUseSceneObjHolderEPKcb = 0x002e9490
_ZN11CoinRedRing12exeCountDownEv = 0x002064f0
_ZN5erepo10SendThread11initialize_EPN4sead4HeapEi = 0x009c1e10
_ZN13PlayerKoopaJr17tryTargetGraffitiEPN2al9HitSensorE = 0x003a0320
_ZN13PlayerStocker20tryCreateDoubleMarioERKN2al13ActorInitInfoEP26PlayerRetargettingSelectorP29PlayerInvincibleBgmControllerb = 0x003d7a90
_ZN14CameraObserver6updateEv = 0x000640e0
_ZN11TentackHead4initERKN2al13ActorInitInfoE = 0x00057560
_ZN6Runner4initERKN2al13ActorInitInfoE = 0x00112180
_ZN22DisasterModeController29cancelFirstAppearCutsceneFuncEv = 0x0020e0d0
_ZN17StageDatabaseInfo10initializeEiiiiiiiiiiPKcS1_ = 0x00420cf0
_ZN2al12AreaObjGroup18getInVolumeAreaObjERKN4sead7Vector3IfEES5_PS3_S6_ = 0x008dac50
_ZN17ShadowMarioPlayer6updateEv = 0x0013be50
_ZNK2al16KCollisionServer10KCHitArrowEPKNS_11KCPrismDataEPKNS_13KCPrismHeaderERKN4sead7Vector3IfEESB_PfPh = 0x00944300
_ZN2al10FileLoaderC2Eib = 0x0080f520
_ZN2al10FileLoaderC1Eib = 0x0080f520
_ZN22SingleModeDataFunction12isLuckyShineE22GameDataHolderAccessorii = 0x0041f2f0
_ZN4sead21MaskControllerWrapperC2Ev = 0x00748280
_ZN4sead21MaskControllerWrapperC1Ev = 0x00748280
_ZN2al18BgmPitchController6updateEv = 0x008eb2b0
_ZN3agl3g3d18ModelShaderSampler4bindEPKN2nn3g3d11ResMaterialEPKNS3_15ResShadingModelEPKNS3_16ResShaderProgramE = 0x0077f8e0
_ZN7Lantern19updateSwingMovementEv = 0x0027b530
_ZNK2al9RailRider16isReachedRailEndEv = 0x0089daa0
_ZN17alTempSeadUtility16calcStereoCameraEPN4sead16DirectProjectionEPNS0_12DirectCameraES2_S4_RKNS0_10ProjectionERKNS0_6CameraEffb = 0x00915660
_ZN2al18GraphicsSystemInfoD2Ev = 0x00803f20
_ZN2al18GraphicsSystemInfoD1Ev = 0x00803f20
_ZN3agl3env9EnvObjMgr10updateViewERKN4sead8Matrix34IfEERKNS2_8Matrix44IfEEi = 0x007cb210
_ZNK28PlayerCollisionMsgUpperPunch10isSwimmingEv = 0x00385fc0
_ZN2rc25tryChangeToGigaClimbMarioEPKN2al9LiveActorEPS1_b = 0x0042ecd0
_ZN2al6Effect11emitEmitterEPNS_13EffectEmitterEPKN4sead7Vector3IfEE = 0x0095de90
_ZN15GigaBellManager17gigaBellCollectedEP8GigaBell = 0x0023d270
_ZN14CheckPointStar21handleCountDownEffectEb = 0x001f5730
_ZN2al14ActorStateBaseC1EPKcPNS_9LiveActorE = 0x00880720
