@sdk

nndetailImagePng_png_get_eXIf
_ZN2nn4nifm6detail21ServiceProviderClientD2Ev
_ZNKSt3__110moneypunctIwLb1EE16do_decimal_pointEv
_ZNK2nn5audio11SinkManager15IsValidSinkInfoEPKNS0_8SinkInfoE
_ZN2nn2sf4cmif6client6detail13CmifProxyImplINS_4bcat6detail3ipc16INotifierServiceENS2_19CmifDomainProxyKindINS0_4hipc6client38Hipc2ClientSessionManagedProxyKindBaseINSB_18Hipc2ProxyKindBaseILNSA_6detail11MessageTypeE6EEEEEEENS0_30MemoryResourceAllocationPolicyES8_NS3_19ProcessModifierImplINS2_21DefaultProxyFilterTagEEEE20_nn_sf_sync_GetEventENS0_3OutINS0_12NativeHandleEvEE
nnmem_nlib_free_size
_ZN2nn3hid6detail19GetTouchScreenStateILm2EEENS_6ResultEPNS0_16TouchScreenStateIXT_EEE
_ZTSN2nn3ldn6detail32ISystemLocalCommunicationServiceE
_ZN2nn4util37GetLengthOfConvertedStringUtf32ToUtf8EPiPKDii
connect
_ZN2nn3hid6system24SendKeyboardLockKeyEventENS_4util10BitFlagSetILi32ENS1_20KeyboardLockKeyEventEEE
_ZTSN2nn2sf4cmif6client6detail13CmifProxyImplINS_5visrv2sf23IApplicationRootServiceENS0_4hipc6client18Hipc2ProxyKindBaseILNS8_6detail11MessageTypeE6EEENS0_30MemoryResourceAllocationPolicyES7_NS3_19ProcessModifierImplINS2_21DefaultProxyFilterTagEEEEE
_ZN7android10VectorImpl3addEPKv
_ZNSt3__127__insertion_sort_incompleteIRPFbRKN2nn6fontll15OtfKerningTable11KerningPairES6_EPS4_EEbT0_SB_T_
_ZN2nn2sf4cmif6client34CmifDomainProxyClientCoreProcessorINS0_4hipc6client38Hipc2ClientSessionManagedProxyKindBaseINS5_18Hipc2ProxyKindBaseILNS4_6detail11MessageTypeE6EEEEENS1_6detail14CoreMethodInfoINSt3__15tupleIJNSC_18OutRawArgumentInfoILm4ELm4ELl0EEENSG_ILm4ELm4ELl4EEENSC_17InRawArgumentInfoILm4ELm4ELl0EEENSC_18BufferArgumentInfoILi0ELi33ELm0EEENSJ_ILm4ELm4ELl4EEENSL_ILi1ELi33ELm0EEEEEELm8ELm8ELb0EEESP_E7ProcessEPNS2_23CmifDomainClientMessageISB_E15ProxyBaseObjectENS2_24OutRawClientArgumentTypeILm4ELm4EEESX_NS2_23InRawClientArgumentTypeILm4ELm4EvEENS2_24BufferClientArgumentTypeESZ_S10_j
_ZN2nn7account34NetworkServiceAccountAdministrator30InvalidateRequiredLicenseCacheERKNS_13ApplicationIdE
_ZN2nn2sf4cmif6client34CmifDomainProxyClientCoreProcessorINS0_4hipc6client38Hipc2ClientSessionManagedProxyKindBaseINS5_18Hipc2ProxyKindBaseILNS4_6detail11MessageTypeE6EEEEENS1_6detail14CoreMethodInfoINSt3__15tupleIJNSC_17InRawArgumentInfoILm32ELm1ELl0EEEEEELm32ELm0ELb0EEESI_E7ProcessEPNS2_23CmifDomainClientMessageISB_E15ProxyBaseObjectENS2_23InRawClientArgumentTypeILm32ELm1EvEEj
_ZTSN2nn9bluetooth11GattServiceE
_ZN2nn2fs3dbm8PathTool10PathParser8FinalizeEv
_ZN2nn2fs19MountDeviceSaveDataEPKc
_ZN2nn2os6detail25SharedMemoryImplByHorizon6CreateEPjmNS0_16MemoryPermissionES4_
_ZN2nn2sf4cmif6client6detail13CmifProxyImplINS_5visrv2sf22IManagerDisplayServiceENS0_4hipc6client18Hipc2ProxyKindBaseILNS8_6detail11MessageTypeE6EEENS0_30MemoryResourceAllocationPolicyES7_NS3_19ProcessModifierImplINS2_21DefaultProxyFilterTagEEEE31_nn_sf_sync_DestroySharedBufferENS_2vi7fbshare18SharedBufferHandleE
_ZN2nn8irsensor27GetClusteringProcessorStateEPNS0_24ClusteringProcessorStateERKNS0_14IrCameraHandleE
_ZN2nn6socket8resolver10serializer13DNSSerializer6SizeOfINS0_14ResolverOptionEEEmPKT_m
_ZNK7android6Parcel12dataPositionEv
NvOsGetProcessInfo
_ZNSt3__18ios_base5imbueERKNS_6localeE
_ZNK2nn2fs3dbm15AllocationTable20ConvertIndexToSectorEj
_ZN4nerd16VibrationDecoder15DoGenerateChunkEjjjjPs
_ZN2nn5srepo6detail17VerifyBinaryValueEPKvm
_ZN2nn5swkbd6detail18InlineKeyboardImpl19SetKeytopAsFloatingEb
_ZN2nn2sf4cmif6client34CmifDomainProxyClientCoreProcessorINS0_4hipc6client38Hipc2ClientSessionManagedProxyKindBaseINS5_18Hipc2ProxyKindBaseILNS4_6detail11MessageTypeE6EEEEENS1_6detail14CoreMethodInfoINSt3__15tupleIJNSC_18OutRawArgumentInfoILm32ELm4ELl0EEEEEELm0ELm32ELb0EEESI_E7ProcessEPNS2_23CmifDomainClientMessageISB_E15ProxyBaseObjectENS2_24OutRawClientArgumentTypeILm32ELm4EEEj
_ZTSN2nn2sf4cmif6client6detail13CmifProxyImplINS_4bcat6detail3ipc30IDeliveryCacheDirectoryServiceENS2_19CmifDomainProxyKindINS0_4hipc6client38Hipc2ClientSessionManagedProxyKindBaseINSB_18Hipc2ProxyKindBaseILNSA_6detail11MessageTypeE6EEEEEEENS0_30MemoryResourceAllocationPolicyES8_NS3_19ProcessModifierImplINS2_21DefaultProxyFilterTagEEEEE
_ZN2nn2sf4cmif6client6detail13CmifProxyImplINS_3nim6detail20IShopServiceAccessorENS0_4hipc6client18Hipc2ProxyKindBaseILNS8_6detail11MessageTypeE6EEENS0_30MemoryResourceAllocationPolicyES7_NS3_19ProcessModifierImplINS2_21DefaultProxyFilterTagEEEE12GetProxyInfoEv
_ZN2nn4edid6detail25ModeExtensionBlockVisitorEPKhmPv
_ZN2nn3hid6detail28SetDisallowedPalmaConnectionEPKNS_9bluetooth7AddressEi
_ZN2nn2sf4cmif6client6detail13CmifProxyImplINS_8settings24ISettingsItemKeyIteratorENS0_4hipc6client18Hipc2ProxyKindBaseILNS7_6detail11MessageTypeE6EEENS0_30MemoryResourceAllocationPolicyES6_NS3_19ProcessModifierImplINS2_21DefaultProxyFilterTagEEEE17GetCmifBaseObjectEv
_ZNKSt3__19money_getIwNS_19istreambuf_iteratorIwNS_11char_traitsIwEEEEE6do_getES4_S4_bRNS_8ios_baseERjRe
_ZN2nn5codec32FDK_sbrDecoder_sbr_start_freq_44E
stderr
_ZZN2nn2sf31SimpleAllInOneHipcClientManagerILm1EE27InitializeShimLibraryHolderINS_4npns9INpnsUserENS0_4cmif6client6detail19ProcessModifierImplINS7_21DefaultProxyFilterTagEEEEENS_6ResultEPNS0_23ShimLibraryObjectHolderIT_EEPKcPNS_14MemoryResourceEENUlPNS0_13SharedPointerIS5_EEE_clESN_
_ZN2nn2sf4cmif6client6detail13CmifProxyImplINS_8settings21ISystemSettingsServerENS0_4hipc6client18Hipc2ProxyKindBaseILNS7_6detail11MessageTypeE6EEENS0_30MemoryResourceAllocationPolicyES6_NS3_19ProcessModifierImplINS2_21DefaultProxyFilterTagEEEE34_nn_sf_sync_GetHomeMenuSchemeModelENS0_3OutIjvEE
_ZTSNSt3__115numpunct_bynameIcEE
_ZTIN2nn2am7service16IAudioControllerE
_ZThn32_N2nn2sf4cmif6client6detail13CmifProxyImplINS_2am7service18IAppletProxyCommonENS2_19CmifDomainProxyKindINS0_4hipc6client38Hipc2ClientSessionManagedProxyKindBaseINSA_18Hipc2ProxyKindBaseILNS9_6detail11MessageTypeE6EEEEEEENS0_30MemoryResourceAllocationPolicyENS6_18ISystemAppletProxyENS3_19ProcessModifierImplINS2_21DefaultProxyFilterTagEEEE17GetCmifBaseObjectEv
_ZN2nn2sf4cmif6client6detail13CmifProxyImplINS_7friends6detail3ipc14IFriendServiceENS2_19CmifDomainProxyKindINS0_4hipc6client38Hipc2ClientSessionManagedProxyKindBaseINSB_18Hipc2ProxyKindBaseILNSA_6detail11MessageTypeE6EEEEEEENS0_30MemoryResourceAllocationPolicyES8_NS3_19ProcessModifierImplINS2_21DefaultProxyFilterTagEEEE40_nn_sf_sync_DeclareOpenOnlinePlaySessionERKNS_7account3UidE
_ZN2nn4util10BitFlagSetILi256ENS_3hid11KeyboardKeyEE4FlagILi70EE4MaskE
_ZNK2nn3mii21ParamCharInfoAccessor16GetMustacheScaleEv
_ZTIN2nn2sf4cmif6client6detail9CmifProxyINS_3mii6detail14IStaticServiceENS2_19CmifDomainProxyKindINS0_4hipc6client38Hipc2ClientSessionManagedProxyKindBaseINSA_18Hipc2ProxyKindBaseILNS9_6detail11MessageTypeE6EEEEEEENS0_30MemoryResourceAllocationPolicyENS3_19ProcessModifierImplINS2_21DefaultProxyFilterTagEEEvEE
_ZN2nn2os22MoveAllMultiWaitHolderEPNS0_13MultiWaitTypeES2_
_ZTCNSt3__19strstreamE0_NS_14basic_iostreamIcNS_11char_traitsIcEEEE
__trunctfsf2
_Z21__nnmusl_get_dir_name18__nnmuslDescriptor
_ZN2nn3mii6detail22RandomMiiNoseTypeTableE
_ZN2nn2os6detail22SetMemoryAttributeImplEmmNS0_15MemoryAttributeE
__lgamma_r
_ZN2nn5audio23InitializeLimiterEffectEPNS0_16LimiterParameterEPNS0_12LimiterStateEPvmi
_ZN2nn4bcat26RequestSuspendDeliveryTaskEPNS0_22DeliveryTaskSuspensionENS_13ApplicationIdE
setLimiterRelease
_ZN2nn3kpr6detail22SetKeyCodeComposerModeEPNS1_22KeyCodeComposerStorageENS0_19KeyCodeComposerModeE
_ZN2nn3ngc15ProfanityFilter16CleanUpVariablesEv
_ZTVNSt3__117__assoc_sub_stateE
_ZNK2nn2la21CommonArgumentsWriter15PushToInChannelENS_6applet19LibraryAppletHandleE
_ZTIN2nn2sf4cmif6client6detail13CmifProxyImplINS_7account7profile8IProfileENS2_19CmifDomainProxyKindINS0_4hipc6client38Hipc2ClientSessionManagedProxyKindBaseINSA_18Hipc2ProxyKindBaseILNS9_6detail11MessageTypeE6EEEEEEENS0_25StatelessAllocationPolicyINS0_22ExpHeapStaticAllocatorILm2048ENS5_6detail12ObjectHolder24ObjectHolderAllocatorTagEEEEENS6_14IProfileEditorENS3_19ProcessModifierImplINS2_21DefaultProxyFilterTagEEEEE
_ZN2nn5swkbd14SetSubTextUtf8EPNS0_14KeyboardConfigEPKc
_ZN2nn4time6detail4util10DateToDaysEiii
_ZTIN2nn5codec19HardwareOpusDecoderE
_ZN2nn2fs4save11IFileSystem7HasFileEPbRKNS1_4PathE
_ZN2nn3htc18GetBridgeIpAddressEPcm
_ZN2nn2sf4cmif6client6detail13CmifProxyImplINS_5visrv2sf22IManagerDisplayServiceENS0_4hipc6client18Hipc2ProxyKindBaseILNS8_6detail11MessageTypeE6EEENS0_30MemoryResourceAllocationPolicyES7_NS3_19ProcessModifierImplINS2_21DefaultProxyFilterTagEEEE17GetCmifBaseObjectEv
_ZTv0_n24_N7android10IInterfaceD0Ev
_ZTSN2nn2sf4cmif6client6detail9CmifProxyINS_7account4baas22IManagerForApplicationENS2_19CmifDomainProxyKindINS0_4hipc6client38Hipc2ClientSessionManagedProxyKindBaseINSA_18Hipc2ProxyKindBaseILNS9_6detail11MessageTypeE6EEEEEEENS0_25StatelessAllocationPolicyINS0_22ExpHeapStaticAllocatorILm2048ENS5_6detail12ObjectHolder24ObjectHolderAllocatorTagEEEEENS3_19ProcessModifierImplINS2_21DefaultProxyFilterTagEEEvEE
_ZN2nn2fs4save22SaveDataFileSystemCore17OpenDirectoryImplEPPNS1_18ExclusiveDirectoryERKNS1_4PathE
_ZN2nn2sf4cmif6client6detail13CmifProxyImplINS_3hid16IHidSystemServerENS0_4hipc6client18Hipc2ProxyKindBaseILNS7_6detail11MessageTypeE6EEENS0_30MemoryResourceAllocationPolicyES6_NS3_19ProcessModifierImplINS2_21DefaultProxyFilterTagEEEE34_nn_sf_sync_GetHidButtonConfigLeftENS0_3OutINS_9hidconfig16ButtonConfigLeftEvEENS5_6system11UniquePadIdE
_ZN2nn3mii8Nickname3SetEPKt
_ZN2nn4nifm33UnregisterTemporaryNetworkProfileEv
_ZN2nn4npns8GetStateEv
_ZN2nn3web6detail40WebSessionSendSystemMessageGroupIncludesENS1_25WebSessionSendMessageKindE
_ZNK7android6Parcel4dataEv
_ZN7android21SurfaceComposerClient12getErrorTextEiRNS_7String8E
_ZN2nn5audio20AppendAudioOutBufferEPNS0_8AudioOutEPNS0_14AudioOutBufferE
_ZN2nn2fs24HierarchicalRomFileTable36QueryDirectoryEntryBucketStorageSizeEl
_ZN2nn2sf4hipc6client24Hipc2ClientCoreProcessorILNS1_6detail11MessageTypeE6ENS0_4cmif6detail14CoreMethodInfoINSt3__15tupleIJNS7_18OutRawArgumentInfoILm4ELm4ELl0EEENSB_ILm16ELm8ELl8EEENSB_ILm16ELm8ELl24EEENS7_18BufferArgumentInfoILi0ELi5ELm0EEENS7_17InRawArgumentInfoILm8ELm8ELl8EEENSH_ILm16ELm8ELl16EEENSH_ILm16ELm8ELl32EEENSH_ILm32ELm8ELl48EEENSH_ILm4ELm4ELl0EEENSF_ILi1ELi6ELm0EEEEEELm80ELm40ELb0EEESO_E7ProcessEPNS2_26Hipc2ClientProxyBaseObjectENS6_6client24OutRawClientArgumentTypeILm4ELm4EEENSU_ILm16ELm8EEESW_NST_24BufferClientArgumentTypeENST_23InRawClientArgumentTypeILm8ELm8EvEENSY_ILm16ELm8EvEES10_NSY_ILm32ELm8EvEENSY_ILm4ELm4EvEESX_j
NvWsiContextCreate
_ZTSN2nn2am7service16IAudioControllerE
FSS_font_name_with_offset
nndetailImagePng_png_colorspace_set_rgb_coefficients
_ZN2nn2os17FinalizeBusyMutexEPNS0_13BusyMutexTypeE
_ZN2nn2sf4cmif6client6detail13CmifProxyImplINS_3ssl2sf11ISslContextENS2_19CmifDomainProxyKindINS0_4hipc6client38Hipc2ClientSessionManagedProxyKindBaseINSA_18Hipc2ProxyKindBaseILNS9_6detail11MessageTypeE6EEEEEEENS0_24StatefulAllocationPolicyINS0_16ExpHeapAllocatorEEES7_NS3_19ProcessModifierImplINS2_21DefaultProxyFilterTagEEEE21_nn_sf_sync_ImportCrlENS0_3OutImvEERKNS0_8InBufferE
_ZN2nn3web10WebSessionC2Ev
_ZNSt11logic_errorC1ERKS_
_ZN2nn2fs11FileStorage12OperateRangeEPvmNS0_11OperationIdEllPKvm
_ZN2nn2sf4cmif6client6detail13CmifProxyImplINS_8irsensor15IIrSensorServerENS0_4hipc6client18Hipc2ProxyKindBaseILNS7_6detail11MessageTypeE6EEENS0_25StatelessAllocationPolicyINS0_22ExpHeapStaticAllocatorILm16384ENS5_6detail14IrSensorServerEEEEES6_NS3_19ProcessModifierImplINS2_21DefaultProxyFilterTagEEEE12GetProxyInfoEv
_ZN2nn4time32GetStandardSteadyClockTestOffsetEv
_ZN2nn4pctl45ClearFreeCommunicationApplicationListForDebugEv
_ZN2nn2sf4cmif6client34CmifDomainProxyClientCoreProcessorINS0_4hipc6client38Hipc2ClientSessionManagedProxyKindBaseINS5_18Hipc2ProxyKindBaseILNS4_6detail11MessageTypeE6EEEEENS1_6detail14CoreMethodInfoINSt3__15tupleIJNSC_18OutRawArgumentInfoILm8ELm4ELl0EEENSC_21OutHandleArgumentInfoILi0ELi1EEENSC_17InRawArgumentInfoILm8ELm8ELl8EEENSK_ILm1ELm1ELl0EEEEEELm16ELm8ELb0EEESN_E7ProcessEPNS2_23CmifDomainClientMessageISB_E15ProxyBaseObjectENS2_24OutRawClientArgumentTypeILm8ELm4EEENS2_27OutHandleClientArgumentTypeENS2_23InRawClientArgumentTypeILm8ELm8EvEENSX_ILm1ELm1EvEEj
NvRmGpuDeviceGetKindInfo
_ZN2nn7account36CheckNetworkServiceAvailabilityAsyncEPNS0_12AsyncContextE
_ZN2nn2am33InitializeOverlayAppletInterfacesEv
_ZN2nn3hid14KeyboardLayout15RussianCyrillicE
_ZN2nn4nifm7RequestD2Ev
_ZTVNSt3__17num_putIcNS_19ostreambuf_iteratorIcNS_11char_traitsIcEEEEEE
putwchar_unlocked
_ZTIN2nn2sf4cmif6client6detail9CmifProxyINS_7account6detail9INotifierENS2_19CmifDomainProxyKindINS0_4hipc6client38Hipc2ClientSessionManagedProxyKindBaseINSA_18Hipc2ProxyKindBaseILNS9_6detail11MessageTypeE6EEEEEEENS0_25StatelessAllocationPolicyINS0_22ExpHeapStaticAllocatorILm2048ENS6_12ObjectHolder24ObjectHolderAllocatorTagEEEEENS3_19ProcessModifierImplINS2_21DefaultProxyFilterTagEEEvEE
_ZN2nn3err13MakeErrorCodeEjj
_ZN2nn3mii6detail12StoreDataRaw13SetBeardColorEi
_ZTIN2nn2sf13InterfaceInfoINS0_4hipc6detail12IHipcManagerEE4_tABINS5_5_tO2NINS2_6server34HipcServerSessionManagerWithDomain15HipcManagerImplEE4typeES4_E4typeE
_ZN2nn2sf4cmif6client6detail13CmifProxyImplINS_5visrv2sf22IManagerDisplayServiceENS0_4hipc6client18Hipc2ProxyKindBaseILNS8_6detail11MessageTypeE6EEENS0_30MemoryResourceAllocationPolicyES7_NS3_19ProcessModifierImplINS2_21DefaultProxyFilterTagEEEE43_nn_sf_sync_DestroyIndirectConsumerEndPointEm
_ZN7android11IMemoryHeap11asInterfaceERKNS_2spINS_7IBinderEEE
_ZN2nn2fs22GetSaveDataRestoreFlagEPbPKc
_ZN2nn6socket10GetSockOptEiNS0_5LevelENS0_6OptionEPvPj
_ZN2nn4time23StandardUserSystemClock3nowEv
_ZNK2nn9bluetooth17GattAttributeUuideqERKS1_
_ZN2nn2sf4cmif6client6detail13CmifProxyImplINS_8settings21ISystemSettingsServerENS0_4hipc6client18Hipc2ProxyKindBaseILNS7_6detail11MessageTypeE6EEENS0_30MemoryResourceAllocationPolicyES6_NS3_19ProcessModifierImplINS2_21DefaultProxyFilterTagEEEE44_nn_sf_sync_SetChineseTraditionalInputMethodEi
_ZTINSt3__110ostrstreamE
_ZN2nn5audio3dsp25MailBoxImplByMessageQueue4OpenEib
_ZTSN2nn4npns21INotificationReceiverE
nnosReleaseSemaphoreCount
_ZN7android12BnMemoryHeapD0Ev
_ZN7android18BufferItemConsumer13releaseBufferERKNS_22IGraphicBufferConsumer10BufferItemERKNS_2spINS_5FenceEEE
_ZN2nn2sf4cmif6client6detail13CmifProxyImplINS_7account4http15IOAuthProcedureENS2_19CmifDomainProxyKindINS0_4hipc6client38Hipc2ClientSessionManagedProxyKindBaseINSA_18Hipc2ProxyKindBaseILNS9_6detail11MessageTypeE6EEEEEEENS0_25StatelessAllocationPolicyINS0_22ExpHeapStaticAllocatorILm2048ENS5_6detail12ObjectHolder24ObjectHolderAllocatorTagEEEEENS5_3nas34IOAuthProcedureForUserRegistrationENS3_19ProcessModifierImplINS2_21DefaultProxyFilterTagEEEE24_nn_sf_sync_PrepareAsyncENS0_3OutINS0_13SharedPointerINSK_13IAsyncContextEEEvEE
_ZN2nn2sf4cmif6client6detail13CmifProxyImplINS_6grcsrv11IMovieMakerENS2_19CmifDomainProxyKindINS0_4hipc6client38Hipc2ClientSessionManagedProxyKindBaseINS9_18Hipc2ProxyKindBaseILNS8_6detail11MessageTypeE6EEEEEEENS0_30MemoryResourceAllocationPolicyES6_NS3_19ProcessModifierImplINS2_21DefaultProxyFilterTagEEEE17GetCmifBaseObjectEv
_ZThn16_N2nn2sf4cmif6client6detail13CmifProxyImplINS_3nim6detail20IShopServiceAccessorENS0_4hipc6client18Hipc2ProxyKindBaseILNS8_6detail11MessageTypeE6EEENS0_30MemoryResourceAllocationPolicyES7_NS3_19ProcessModifierImplINS2_21DefaultProxyFilterTagEEEE17GetCmifBaseObjectEv
_ZTSNSt3__17num_putIcNS_19ostreambuf_iteratorIcNS_11char_traitsIcEEEEEE
nncryptoDecryptAes128CtrPartial
_ZN2nn2oe17GetDisplayVersionEPNS0_14DisplayVersionE
_ZN2nn8settings6system19SetShutdownRtcValueEl
mbrtowc
nndetailDiagOnAssertionFailure
_ZN2nn2fs25CleanDirectoryRecursivelyEPKc
nndetailImagePng_png_get_hIST
pthread_mutex_unlock
_ZN2nn5swkbd17SetHeaderTextUtf8EPNS0_14KeyboardConfigEPKc
_ZN2nn4timegeERKNS0_12CalendarTimeES3_
_ZNK2nn7account41CachedNintendoAccountInfoForSystemService9GetRegionEPm
_ZTVN2nn2sf6detail38ObjectImplFactoryWithStatefulAllocatorINS0_4cmif6client6detail9CmifProxyINS_2am7service26ILibraryAppletSelfAccessorENS4_19CmifDomainProxyKindINS0_4hipc6client38Hipc2ClientSessionManagedProxyKindBaseINSC_18Hipc2ProxyKindBaseILNSB_6detail11MessageTypeE6EEEEEEENS0_30MemoryResourceAllocationPolicyENS5_19ProcessModifierImplINS4_21DefaultProxyFilterTagEEEvEESK_E6ObjectE
_ZN2nn2fs32OpenSdCardDetectionEventNotifierEPNSt3__110unique_ptrINS0_14IEventNotifierENS1_14default_deleteIS3_EEEE
_ZN2nn5codec11OpusEncoder10InitializeEiiPvm
_ZN2nn4lmem6detail27GetUnitHeapAllocatableCountEPNS1_8HeapHeadE
_ZN2nn3web21ShowSystemDataPageArgC2Ev
_ZTIN10__cxxabiv120__function_type_infoE
_ZN2nn2sf4cmif6client6detail13CmifProxyImplINS_7account4http15IOAuthProcedureENS2_19CmifDomainProxyKindINS0_4hipc6client38Hipc2ClientSessionManagedProxyKindBaseINSA_18Hipc2ProxyKindBaseILNS9_6detail11MessageTypeE6EEEEEEENS0_25StatelessAllocationPolicyINS0_22ExpHeapStaticAllocatorILm2048ENS5_6detail12ObjectHolder24ObjectHolderAllocatorTagEEEEENS5_3nas29IOAuthProcedureForExternalNsaENS3_19ProcessModifierImplINS2_21DefaultProxyFilterTagEEEE30_nn_sf_sync_ApplyResponseAsyncENS0_3OutINS0_13SharedPointerINSK_13IAsyncContextEEEvEERKNS0_7InArrayIcEE
_ZN2nn7nlibsdk4heap10CachedHeap15ReleaseAllCacheEv
_ZN2nn2sf4hipc6client18DuplicateSessionExEPNS_3svc6HandleES4_j
_ZTIN2nn2sf4cmif6client6detail9CmifProxyINS_7account4baas14IAdministratorENS2_19CmifDomainProxyKindINS0_4hipc6client38Hipc2ClientSessionManagedProxyKindBaseINSA_18Hipc2ProxyKindBaseILNS9_6detail11MessageTypeE6EEEEEEENS0_25StatelessAllocationPolicyINS0_22ExpHeapStaticAllocatorILm2048ENS5_6detail12ObjectHolder24ObjectHolderAllocatorTagEEEEENS3_19ProcessModifierImplINS2_21DefaultProxyFilterTagEEEvEE
_ZN2nn2ec24ShowShopSubscriptionListENS_13ApplicationIdERKNS_7account10UserHandleE
_ZN2nn2fs6detail18IsSaveDataExistingEPbNS_3ncm13ApplicationIdERKNS0_6UserIdE
_ZN2nn6socket6detail10InitializeEPvmmi
_ZNSt12domain_errorD1Ev
nncodecLibopus_celt_preemphasis
_ZN2nn2fs6detail28EnableSessionForRealtimeOnlyEv
_ZN2nn6socket8SendMMsgEiP7mmsghdrmi
_ZNSt3__119__shared_mutex_base15try_lock_sharedEv
_ZN2nn6crypto6detail6BigNum6ModExpEPjPKjS5_iS5_iPNS2_14DigitAllocatorE
_ZN2nn2fs6detail22LruFileDataCacheSystem39ReserveFreePagesBySinglePageReservationEPNS0_8IStorageElm
nndetailImagePng_png_do_invert
_ZN2nn8irsensor6detail7SessionD1Ev
_ZN2nn3mii6detail12StoreDataRaw11SetEyebrowYEi
_ZTIN2nn2sf6detail38ObjectImplFactoryWithStatefulAllocatorINS0_4cmif6client6detail9CmifProxyINS_4npns21INotificationReceiverENS0_4hipc6client18Hipc2ProxyKindBaseILNS9_6detail11MessageTypeE6EEENS0_30MemoryResourceAllocationPolicyENS5_19ProcessModifierImplINS4_21DefaultProxyFilterTagEEEvEESF_E6ObjectE
_ZN2nn2sf4hipc6client24Hipc2ClientCoreProcessorILNS1_6detail11MessageTypeE6ENS0_4cmif6detail14CoreMethodInfoINSt3__15tupleIJNS7_21OutObjectArgumentInfoILi0ELi0EEENS7_17InRawArgumentInfoILm4ELm4ELl8EEENSD_ILm8ELm1ELl0EEEEEELm12ELm0ELb0EEESG_E21ProcessWithOutObjectsEPNS2_26Hipc2ClientProxyBaseObjectENS6_6client27OutObjectClientArgumentTypeENSL_23InRawClientArgumentTypeILm4ELm4EvEENSN_ILm8ELm1EvEEjPNS0_13SharedPointerINS0_14IServiceObjectEEE
_ZN2nn2sf4cmif6client34CmifDomainProxyClientCoreProcessorINS0_4hipc6client38Hipc2ClientSessionManagedProxyKindBaseINS5_18Hipc2ProxyKindBaseILNS4_6detail11MessageTypeE6EEEEENS1_6detail14CoreMethodInfoINSt3__15tupleIJNSC_18BufferArgumentInfoILi0ELi6ELm0EEENSC_17InRawArgumentInfoILm8ELm8ELl8EEENSI_ILm4ELm4ELl0EEEEEELm16ELm0ELb0EEESL_E7ProcessEPNS2_23CmifDomainClientMessageISB_E15ProxyBaseObjectENS2_24BufferClientArgumentTypeENS2_23InRawClientArgumentTypeILm8ELm8EvEENST_ILm4ELm4EvEEj
_ZN2nn2sf4cmif6client6detail13CmifProxyImplINS_3hid10IHidServerENS0_4hipc6client18Hipc2ProxyKindBaseILNS7_6detail11MessageTypeE6EEENS0_30MemoryResourceAllocationPolicyES6_NS3_19ProcessModifierImplINS2_21DefaultProxyFilterTagEEEE25_nn_sf_sync_ReadPalmaStepENS5_21PalmaConnectionHandleE
_ZThn32_N2nn2sf4cmif6client6detail13CmifProxyImplINS_2am7service17IWindowControllerENS2_19CmifDomainProxyKindINS0_4hipc6client38Hipc2ClientSessionManagedProxyKindBaseINSA_18Hipc2ProxyKindBaseILNS9_6detail11MessageTypeE6EEEEEEENS0_30MemoryResourceAllocationPolicyES7_NS3_19ProcessModifierImplINS2_21DefaultProxyFilterTagEEEE17GetCmifBaseObjectEv
getchar
_ZN2nn2fs6detail22LruFileDataCacheSystem10InitializeEPvm
_ZNK2nn2os6detail29MultiWaitHolderOfNativeHandle15GetNativeHandleEPj
_ZNSt3__124__libcpp_debug_exceptionC1ERKNS_19__libcpp_debug_infoE
_ZN2nn6applet29BeginAutoSleepDisabledSectionEv
_ZN2nn5codec11imdct_blockEPNS0_6mdct_tEPiS3_PKsiiiPK8FIXP_SPKiS8_ii
_ZN2nn3hid6system6detail25FinalizeUsbFirmwareUpdateEv
_ZN2nn2ro6detail36g_pLookupGlobalManualFunctionPointerE
_ZN2nn6socket8resolver14CreateRandomIdERi
_ZN2nn4util6detail16IntrusiveDicImpl8MoveIterEPKNS0_16IntrusiveDicNodeEi
_ZTIN2nn7account4baas12IManagerBaseE
_ZN2nn5audio22AudioRendererParameter17MixBufferCountMaxE
_ZTSN2nn5audio6detail16IAudioOutManagerE
_ZN2nn5codec13IcsReadMaxSfbEPNS0_13FDK_BITSTREAMEPNS0_8CIcsInfoEPKNS0_16SamplingRateInfoE
_ZN2nn2ec31BeginProvidableRightDataInquiryEPNS0_19ShopServiceAccessor13AsyncResponseERKNS_7account3UidEPKNS0_30ConsumableServiceItemRightDataEiPS1_PNS_3mem17StandardAllocatorE
_ZN2nn2sf4cmif6client6detail13CmifProxyImplINS_5visrv2sf22IManagerDisplayServiceENS0_4hipc6client18Hipc2ProxyKindBaseILNS8_6detail11MessageTypeE6EEENS0_30MemoryResourceAllocationPolicyES7_NS3_19ProcessModifierImplINS2_21DefaultProxyFilterTagEEEE48_nn_sf_sync_SetDetachedSharedFrameBufferSubImageENS_2vi7fbshare18SharedBufferHandleEliiiijRKNS0_8InBufferERKNSK_19SharedTextureOptionEj
_ZN2nn5audio6detail25ApplyI3dl2ReverbEffect1chEPNS0_16I3dl2ReverbStateEPPKiPPii
nnmem_nlib_semaphore_trywait_for
_ZN2nn2vi6detail22ServiceReferenceHolder21GetApplicationServiceEPNS_2sf13SharedPointerINS_5visrv2sf26IApplicationDisplayServiceEEE
_ZN2nn3ssl10Connection16SetNextAlpnProtoEPKhj
_ZNSt3__16futureIvEC2EPNS_17__assoc_sub_stateE
_ZN2nn2fs4save12SaveDataFileC2ERNS_2os17SdkRecursiveMutexE
_ZN2nn2sf4cmif6client6detail13CmifProxyImplINS_3hid16IHidSystemServerENS0_4hipc6client18Hipc2ProxyKindBaseILNS7_6detail11MessageTypeE6EEENS0_30MemoryResourceAllocationPolicyES6_NS3_19ProcessModifierImplINS2_21DefaultProxyFilterTagEEEE57_nn_sf_sync_RetryCurrentAnalogStickManualCalibrationStageENS5_6system11UniquePadIdEl
_ZN2nn6socket8resolver10serializer13DNSSerializer6SizeOfINS0_7HostEntEEEmRKT_
_ZTSN2nn2sf4cmif6client6detail9CmifProxyINS_2am7service18ICommonStateGetterENS2_19CmifDomainProxyKindINS0_4hipc6client38Hipc2ClientSessionManagedProxyKindBaseINSA_18Hipc2ProxyKindBaseILNS9_6detail11MessageTypeE6EEEEEEENS0_30MemoryResourceAllocationPolicyENS3_19ProcessModifierImplINS2_21DefaultProxyFilterTagEEEvEE
_ZN2nn4lmem30SetExpHeapUseMarginOfAlignmentEPNS0_6detail8HeapHeadEb
_ZNK2nn2sf13SharedPointerINS_5visrv2sf26IApplicationDisplayServiceEE19FunctionForBoolTypeEv
_ZNK2nn3mii8Database14IsFullDatabaseEv
ffsl
_ZN2nn2sf4cmif6client34CmifDomainProxyClientCoreProcessorINS0_4hipc6client38Hipc2ClientSessionManagedProxyKindBaseINS5_18Hipc2ProxyKindBaseILNS4_6detail11MessageTypeE6EEEEENS1_6detail14CoreMethodInfoINSt3__15tupleIJNSC_18BufferArgumentInfoILi0ELi26ELm4096EEEEEELm0ELm0ELb0EEESI_E7ProcessEPNS2_23CmifDomainClientMessageISB_E15ProxyBaseObjectENS2_24BufferClientArgumentTypeEj
_ZN2nn2fs40ListApplicationAccessibleSaveDataOwnerIdEPiPNS_3ncm13ApplicationIdES3_iii
_ZN2nn8settings6detail16GetPtmBatteryLotEPNS0_10BatteryLotE
_ZTSN2nn2am7service15IAppletAccessorE
_ZN2nn3hid27EnableControlPadRestrictionERKNS_4util10BitFlagSetILi32ENS0_12NpadStyleTagEEEb
_ZN2nn8settings6detail17GetHomeMenuSchemeEPNS0_6system14HomeMenuSchemeE
_ZN2nn2sf4cmif6client6detail13CmifProxyImplINS_8settings22IFactorySettingsServerENS0_4hipc6client18Hipc2ProxyKindBaseILNS7_6detail11MessageTypeE6EEENS0_30MemoryResourceAllocationPolicyES6_NS3_19ProcessModifierImplINS2_21DefaultProxyFilterTagEEEE33_nn_sf_sync_GetBluetoothBdAddressENS0_3OutINS5_7factory9BdAddressEvEE
_ZN2nn3hid21IsSixAxisSensorAtRestERKNS0_19SixAxisSensorHandleE
_ZN2nn7nlibsdk17VsnPrintfFallbackEPwmPKwSt9__va_list
_ZNSt3__19basic_iosIcNS_11char_traitsIcEEED1Ev
_ZN2nn3mii6detail12StoreDataRaw12SetEyeRotateEi
_ZN2nn4util8Color4u811ConstantRedE
_ZN2nn2sf13SharedPointerINS_3hid15IHidDebugServerEED2Ev
_ZN2nn3hid6system6detail23GetNpadFullKeyGripColorEPNS_4util8Unorm8x4ES5_RKj
_ZN2nn3hid6system6detail23InitializeCaptureButtonEv
_ZN7android16SortedVectorImplD2Ev
__atomic_store
nndetailRoGetRoDataEnd
gcvt
_ZTIN2nn7account6detail24SimpleOAuthProcedureBaseE
_ZN2nn5audio6server16CommandGenerator33GenerateCircularBufferSinkCommandEiPNS1_12SinkInfoBaseE
_ZTIN2nn5fssrv2sf27ISaveDataTransferProhibiterE
_ZN2nn2fs6detail21SaveDataChunkImporterD0Ev
_ZN2nn3hid19GetTouchScreenStateILm16EEEvPNS0_16TouchScreenStateIXT_EEE
_ZN2nn2sf4cmif6client6detail13CmifProxyImplINS_3hid10IHidServerENS0_4hipc6client18Hipc2ProxyKindBaseILNS7_6detail11MessageTypeE6EEENS0_30MemoryResourceAllocationPolicyES6_NS3_19ProcessModifierImplINS2_21DefaultProxyFilterTagEEEE33_nn_sf_sync_IsSixAxisSensorAtRestENS0_3OutIbvEENS_6applet20AppletResourceUserIdENS5_19SixAxisSensorHandleE
_ZN7android16SortedVectorImpl5mergeERKS0_
_ZN2nn2sf6detail38ObjectImplFactoryWithStatefulAllocatorINS0_4cmif6client6detail9CmifProxyINS_2am7service21ILibraryAppletCreatorENS4_19CmifDomainProxyKindINS0_4hipc6client38Hipc2ClientSessionManagedProxyKindBaseINSC_18Hipc2ProxyKindBaseILNSB_6detail11MessageTypeE6EEEEEEENS0_30MemoryResourceAllocationPolicyENS5_19ProcessModifierImplINS4_21DefaultProxyFilterTagEEEvEESK_E6Object12AddReferenceEv
_ZN2nn2fs24HierarchicalRomFileTable17GetDirectoryEntryEPjPNS1_17DirectoryRomEntryERKNS1_8EntryKeyE
_ZN2nn5audio3dsp21GetRemainCommandCountEi
silk_LTP_vq_gain_ptrs_Q7
_ZN2nn4pctl6detail16ConvertNpnsErrorENS_6ResultE
_ZN2nn2sf4cmif6client34CmifDomainProxyClientCoreProcessorINS0_4hipc6client38Hipc2ClientSessionManagedProxyKindBaseINS5_18Hipc2ProxyKindBaseILNS4_6detail11MessageTypeE6EEEEENS1_6detail14CoreMethodInfoINSt3__15tupleIJNSC_17InRawArgumentInfoILm56ELm8ELl0EEENSC_18BufferArgumentInfoILi0ELi25ELm128EEENSI_ILi1ELi5ELm0EEEEEELm56ELm0ELb0EEESL_E7ProcessEPNS2_23CmifDomainClientMessageISB_E15ProxyBaseObjectENS2_23InRawClientArgumentTypeILm56ELm8EvEENS2_24BufferClientArgumentTypeESU_j
_ZTIN2nn2sf4cmif6client6detail9CmifProxyINS_2am7service17IApplicationProxyENS2_19CmifDomainProxyKindINS0_4hipc6client38Hipc2ClientSessionManagedProxyKindBaseINSA_18Hipc2ProxyKindBaseILNS9_6detail11MessageTypeE6EEEEEEENS0_30MemoryResourceAllocationPolicyENS3_19ProcessModifierImplINS2_21DefaultProxyFilterTagEEEvEE
_ZN2nn5codec9schur_divEiii
FDKceil
_ZTVN2nn2fs6detail21SaveDataChunkExporterE
_ZN2nn2sf4cmif6client6detail13CmifProxyImplINS_3hid15IHidDebugServerENS0_4hipc6client18Hipc2ProxyKindBaseILNS7_6detail11MessageTypeE6EEENS0_30MemoryResourceAllocationPolicyES6_NS3_19ProcessModifierImplINS2_21DefaultProxyFilterTagEEEE40_nn_sf_sync_SetTouchScreenAutoPilotStateERKNS0_7InArrayINS5_10TouchStateEEE
_ZN2nn2sf6detail38ObjectImplFactoryWithStatefulAllocatorINS0_4cmif6client6detail9CmifProxyINS_6hidbus19IHidbusSystemServerENS0_4hipc6client18Hipc2ProxyKindBaseILNS9_6detail11MessageTypeE6EEENS0_30MemoryResourceAllocationPolicyENS5_19ProcessModifierImplINS4_21DefaultProxyFilterTagEEEvEESF_E6Object12AddReferenceEv
_ZNK2nn3mii12AppletOutput22GetUpdateMiiImageIndexEv
_ZN2nn2sf4hipc6client34HipcSimpleClientSessionManagerBaseINS2_29DefaultSessionResourceManagerEE4Impl18InitializeByHandleINS_4pctl6detail3ipc30IParentalControlServiceFactoryENS0_30MemoryResourceAllocationPolicyENS0_4cmif6client6detail19ProcessModifierImplINSE_21DefaultProxyFilterTagEEEEENS_6ResultEPNS0_13SharedPointerIT_EEPNT0_9AllocatorENS_3svc6HandleE
nvgr_set_video_metadata
_ZNKSt3__120__time_get_c_storageIwE7__am_pmEv
_ZN2nn2sf4cmif6client6detail13CmifProxyImplINS_7account4baas24IManagerForSystemServiceENS2_19CmifDomainProxyKindINS0_4hipc6client38Hipc2ClientSessionManagedProxyKindBaseINSA_18Hipc2ProxyKindBaseILNS9_6detail11MessageTypeE6EEEEEEENS0_25StatelessAllocationPolicyINS0_22ExpHeapStaticAllocatorILm2048ENS5_6detail12ObjectHolder24ObjectHolderAllocatorTagEEEEENS6_14IAdministratorENS3_19ProcessModifierImplINS2_21DefaultProxyFilterTagEEEE38_nn_sf_sync_CreateAuthorizationRequestENS0_3OutINS0_13SharedPointerINS5_3nas21IAuthorizationRequestEEEvEERKNSW_13NasClientInfoERKNS5_45NintendoAccountAuthorizationRequestParametersEONS0_12NativeHandleEj
_ZN2nn2sf4cmif6client6detail13CmifProxyImplINS_2am7service16IAudioControllerENS2_19CmifDomainProxyKindINS0_4hipc6client38Hipc2ClientSessionManagedProxyKindBaseINSA_18Hipc2ProxyKindBaseILNS9_6detail11MessageTypeE6EEEEEEENS0_30MemoryResourceAllocationPolicyES7_NS3_19ProcessModifierImplINS2_21DefaultProxyFilterTagEEEE40_nn_sf_sync_ChangeMainAppletMasterVolumeEfl
_ZN2nn2sf4cmif6client6detail13CmifProxyImplINS_3hid16IHidSystemServerENS0_4hipc6client18Hipc2ProxyKindBaseILNS7_6detail11MessageTypeE6EEENS0_30MemoryResourceAllocationPolicyES6_NS3_19ProcessModifierImplINS2_21DefaultProxyFilterTagEEEE33_nn_sf_sync_GetUniquePadsFromNpadENS0_3OutIlvEERKNS0_8OutArrayINS5_6system11UniquePadIdEEEj
_ZN2nn5srepo6detail15ReportGenerator11AddKeyValueEPmPKcfPhmmm
_ZN2nn3hid6system20GetNpadInterfaceTypeERKj
_ZN2nn2sf4cmif6client6detail13CmifProxyImplINS_4pctl6detail3ipc23IParentalControlServiceENS2_19CmifDomainProxyKindINS0_4hipc6client38Hipc2ClientSessionManagedProxyKindBaseINSB_18Hipc2ProxyKindBaseILNSA_6detail11MessageTypeE6EEEEEEENS0_30MemoryResourceAllocationPolicyES8_NS3_19ProcessModifierImplINS2_21DefaultProxyFilterTagEEEE22_nn_sf_sync_InitializeEv
__nnmusl_TimerDelete
_ZTIN2nn2sf4cmif6client6detail13CmifProxyImplINS_7account6detail9INotifierENS2_19CmifDomainProxyKindINS0_4hipc6client38Hipc2ClientSessionManagedProxyKindBaseINSA_18Hipc2ProxyKindBaseILNS9_6detail11MessageTypeE6EEEEEEENS0_25StatelessAllocationPolicyINS0_22ExpHeapStaticAllocatorILm2048ENS6_12ObjectHolder24ObjectHolderAllocatorTagEEEEES7_NS3_19ProcessModifierImplINS2_21DefaultProxyFilterTagEEEEE
_ZN2nn2fs25SetVerifyWriteEnalbleFlagEb
_ZN2nn2sf4cmif6client6detail13CmifProxyImplINS_4npns9INpnsUserENS0_4hipc6client18Hipc2ProxyKindBaseILNS7_6detail11MessageTypeE6EEENS0_30MemoryResourceAllocationPolicyENS5_11INpnsSystemENS3_19ProcessModifierImplINS2_21DefaultProxyFilterTagEEEE20_nn_sf_sync_ListenToENS_13ApplicationIdE
_ZN2nn2sf4cmif6client6detail13CmifProxyImplINS_4pctl6detail3ipc23IParentalControlServiceENS2_19CmifDomainProxyKindINS0_4hipc6client38Hipc2ClientSessionManagedProxyKindBaseINSB_18Hipc2ProxyKindBaseILNSA_6detail11MessageTypeE6EEEEEEENS0_30MemoryResourceAllocationPolicyES8_NS3_19ProcessModifierImplINS2_21DefaultProxyFilterTagEEEE46_nn_sf_sync_ConfirmLaunchApplicationPermissionENS_3ncm13ApplicationIdERKNS0_7InArrayIaEEb
NvOsMutexUnlock
_ZN2nn5codec21transportDec_SetParamEPNS0_12TRANSPORTDECENS0_11TPDEC_PARAMEi
_ZN2nn4util14CopyUtf8StringEPcmPKcmi
_ZN2nn2sf4cmif6client6detail13CmifProxyImplINS_4npns11INpnsSystemENS0_4hipc6client18Hipc2ProxyKindBaseILNS7_6detail11MessageTypeE6EEENS0_30MemoryResourceAllocationPolicyES6_NS3_19ProcessModifierImplINS2_21DefaultProxyFilterTagEEEE21_nn_sf_sync_AttachJidERKNS0_7InArrayIcEESL_
_ZN2nn3nsd35SetApplicationServerEnvironmentTypeENS_2oe21ServerEnvironmentTypeE
_ZN2nn4pctl23GetSynchronizationEventEv
_ZNK7android6Parcel17readExceptionCodeEv
_ZN2nn7account6detail18OAuthProcedureBaseC1Ev
_ZTIN2nn2sf4cmif6client6detail13CmifProxyImplINS_4bcat6detail3ipc30IDeliveryCacheDirectoryServiceENS2_19CmifDomainProxyKindINS0_4hipc6client38Hipc2ClientSessionManagedProxyKindBaseINSB_18Hipc2ProxyKindBaseILNSA_6detail11MessageTypeE6EEEEEEENS0_30MemoryResourceAllocationPolicyES8_NS3_19ProcessModifierImplINS2_21DefaultProxyFilterTagEEEEE
_ZN2nn6crypto6detail9GhashImpl7GfMultHEPNS2_5BlockE
_ZN2nn2fs6detail21LogResultErrorMessageENS_6ResultE
_ZN2nn4util10BitFlagSetILi256ENS_3hid11KeyboardKeyEE4FlagILi7EE4MaskE
_ZN2nn3mii6detail12StoreDataRaw9SetMouthYEi
_ZN2nn3web19ShowYouTubeVideoArgC2Ev
_ZN2nn2sf4cmif6client6detail13CmifProxyImplINS_2am7service26ILibraryAppletSelfAccessorENS2_19CmifDomainProxyKindINS0_4hipc6client38Hipc2ClientSessionManagedProxyKindBaseINSA_18Hipc2ProxyKindBaseILNS9_6detail11MessageTypeE6EEEEEEENS0_30MemoryResourceAllocationPolicyES7_NS3_19ProcessModifierImplINS2_21DefaultProxyFilterTagEEEE46_nn_sf_sync_UnreserveResourceForMovieOperationEv
nnmem_nlib_rwlock_rdlock
_ZN2nn2oe18GetPerformanceModeEv
_ZN2nn6socket6detail6AcceptEiP8sockaddrPj
_ZZN2nn2sf31SimpleAllInOneHipcClientManagerILm17EE27InitializeShimLibraryHolderINS_6aocsrv6detail20IAddOnContentManagerENS0_4cmif6client6detail19ProcessModifierImplINS8_21DefaultProxyFilterTagEEEEENS_6ResultEPNS0_23ShimLibraryObjectHolderIT_EEPKcPNS_14MemoryResourceEENUlPvE_8__invokeESM_
_ZN2nn5audio6server14EffectInfoBase14GetStateBufferEv
_ZN2nn3hid20GetTouchScreenStatesILm15EEEiPNS0_16TouchScreenStateIXT_EEEi
csinf
_ZN2nn2fs15MountSystemDataEPKcNS_3ncm12SystemDataIdE
nvgr_read_event_counter
nncodecLibopus_opus_repacketizer_out_range
_ZN2nn2sf4cmif6client6detail13CmifProxyImplINS_7friends6detail3ipc14IFriendServiceENS2_19CmifDomainProxyKindINS0_4hipc6client38Hipc2ClientSessionManagedProxyKindBaseINSB_18Hipc2ProxyKindBaseILNSA_6detail11MessageTypeE6EEEEEEENS0_30MemoryResourceAllocationPolicyES8_NS3_19ProcessModifierImplINS2_21DefaultProxyFilterTagEEEE28_nn_sf_sync_GetFriendListIdsENS0_3OutIivEERKNS0_8OutArrayINS_7account23NetworkServiceAccountIdEEERKNSR_3UidEiRKNS7_17SizedFriendFilterEm
_ZTSN2nn3nfp6detail6IDebugE
_ZNSt3__16locale7numericE
_ZNSt3__119piecewise_constructE
csinh
_ZN2nn2sf6detail38ObjectImplFactoryWithStatefulAllocatorINS0_4cmif6client6detail9CmifProxyINS_2am7service22ILibraryAppletAccessorENS4_19CmifDomainProxyKindINS0_4hipc6client38Hipc2ClientSessionManagedProxyKindBaseINSC_18Hipc2ProxyKindBaseILNSB_6detail11MessageTypeE6EEEEEEENS0_30MemoryResourceAllocationPolicyENS5_19ProcessModifierImplINS4_21DefaultProxyFilterTagEEEvEESK_E6Object12AddReferenceEv
_ZN2nn5audio6server24AudioRendererManagerImpl15AudioDeviceImpl27QueryAudioDeviceSystemEventENS_2sf3OutINS4_12NativeHandleEvEE
_ZN2nn8settings22GetDebugPadKeyboardMapEPNS0_19DebugPadKeyboardMapE
_ZN2nn4util6detail7msgpack14WriteExtensionEPNS0_17MessagePackWriter11StreamParamEaPKvj
_ZN7android13GraphicBufferC2EjjijjP13native_handleb
_ZN2nn2sf4hipc6client24Hipc2ClientCoreProcessorILNS1_6detail11MessageTypeE6ENS0_4cmif6detail14CoreMethodInfoINSt3__15tupleIJNS7_18OutRawArgumentInfoILm8ELm1ELl0EEEEEELm0ELm8ELb0EEESD_E7ProcessEPNS2_26Hipc2ClientProxyBaseObjectENS6_6client24OutRawClientArgumentTypeILm8ELm1EEEj
_ZN7android6Region3setEjj
_ZN2nn2fs6detail21SaveDataChunkExporterD2Ev
_ZN2nn3mii13ImageDatabase11ImageHeightE
nnsocketWrite
NvRmGpuProfilerReserveHwpm
_ZN2nn2sf4cmif6client34CmifDomainProxyClientCoreProcessorINS0_4hipc6client38Hipc2ClientSessionManagedProxyKindBaseINS5_18Hipc2ProxyKindBaseILNS4_6detail11MessageTypeE6EEEEENS1_6detail14CoreMethodInfoINSt3__15tupleIJNSC_18OutRawArgumentInfoILm1ELm1ELl0EEENSG_ILm1ELm1ELl1EEEEEELm0ELm2ELb0EEESJ_E7ProcessEPNS2_23CmifDomainClientMessageISB_E15ProxyBaseObjectENS2_24OutRawClientArgumentTypeILm1ELm1EEESR_j
_ZN2nn2sf13InterfaceInfoINS_5audio6detail14IAudioRendererEE4_tABINS5_5_tO2NINS2_6server24AudioRendererManagerImpl17AudioRendererImplEE4typeES4_E4type16_nn_sf_sync_StopEv
csinl
_ZN2nn2am20GetDisplayControllerEv
_ZN2nn5audio6server38CommandProcessingTimeEstimatorVersion38EstimateERKNS0_12DelayCommandE
FDK_toolsGetLibInfo
_ZN2nn2fs6detail18FileSystemAccessor26DeleteDirectoryRecursivelyEPKc
_ZN2nn4util37GetLengthOfConvertedStringUtf32ToUtf8EPiPKj
_ZTVNSt3__114collate_bynameIcEE
iswspace_l
_ZN2nn5audio14MemoryPoolInfo8FinalizeEv
_ZN2nn2fs6detail29DirectoryServiceObjectAdapterC2EONS_2sf13SharedPointerINS_5fssrv2sf10IDirectoryEEE
_ZN2nn3hid15VibrationPlayerD0Ev
_ZN2nn3hid6system18DeleteButtonConfigERKNS1_11UniquePadIdE
nnmem_nlib_rwlock_tryrdlock
_ZTSN2nn2sf4cmif6client6detail13CmifProxyImplINS_7account4baas12IManagerBaseENS2_19CmifDomainProxyKindINS0_4hipc6client38Hipc2ClientSessionManagedProxyKindBaseINSA_18Hipc2ProxyKindBaseILNS9_6detail11MessageTypeE6EEEEEEENS0_25StatelessAllocationPolicyINS0_22ExpHeapStaticAllocatorILm2048ENS5_6detail12ObjectHolder24ObjectHolderAllocatorTagEEEEENS6_24IManagerForSystemServiceENS3_19ProcessModifierImplINS2_21DefaultProxyFilterTagEEEEE
_ZN2nn2fs17RamDiskFileSystem12DoDeleteFileEPKc
_ZN2nn3hid6system20GetSleepButtonStatesEPNS1_16SleepButtonStateEi
_ZN2nn2os26GetThreadAvailableCoreMaskEv
_ZN2nn4util23GetGzipDecompressedSizeEPKvm
_ZTv0_n24_N7android9BpRefBaseD1Ev
_ZN2nn2sf4cmif6client6detail13CmifProxyImplINS_8irsensor15IIrSensorServerENS0_4hipc6client18Hipc2ProxyKindBaseILNS7_6detail11MessageTypeE6EEENS0_25StatelessAllocationPolicyINS0_22ExpHeapStaticAllocatorILm16384ENS5_6detail14IrSensorServerEEEEES6_NS3_19ProcessModifierImplINS2_21DefaultProxyFilterTagEEEE42_nn_sf_sync_GetImageTransferProcessorStateENS_6applet20AppletResourceUserIdENS0_3OutINS5_27ImageTransferProcessorStateEvEERKNS0_9OutBufferENS5_14IrCameraHandleE
_ZN2nn3nfp6GetAllEPNS0_7NfpDataERKNS0_12DeviceHandleE
_ZN2nn3ntc4shim31CorrectionNetworkClockAsyncTaskD1Ev
nvdcGetPhysicalSize
_ZNSt3__119__libcpp_mutex_lockEPNSt13__libcxx_shim19__libcxx_shim_ver_119__libcxx_shim_mutexE
_ZN2nn2fs6detail8IdString8ToStringINS0_11ContentTypeEEEPKcT_
_ZN2nn4util6detail16IntrusiveDicImpl10FindParentEPKNS0_16IntrusiveDicNodeE
__nnmusl_errno_from_result
_ZZN2nn2sf40SimpleAllInOneHipcSubDomainClientManagerILm32EE27InitializeShimLibraryHolderINS_5codec6detail27IHardwareOpusDecoderManagerENS0_4cmif6client6detail19ProcessModifierImplINS8_21DefaultProxyFilterTagEEEEENS_6ResultEPNS0_23ShimLibraryObjectHolderIT_EEPKcPNS_14MemoryResourceEENUlPNS0_13SharedPointerIS6_EEE_clESO_
_ZN2nn3hid12GetNpadStateEPNS0_14NpadLuciaStateERKj
_ZN2nn2sf4cmif6client6detail13CmifProxyImplINS_7account4baas14IAdministratorENS2_19CmifDomainProxyKindINS0_4hipc6client38Hipc2ClientSessionManagedProxyKindBaseINSA_18Hipc2ProxyKindBaseILNS9_6detail11MessageTypeE6EEEEEEENS0_25StatelessAllocationPolicyINS0_22ExpHeapStaticAllocatorILm2048ENS5_6detail12ObjectHolder24ObjectHolderAllocatorTagEEEEES7_NS3_19ProcessModifierImplINS2_21DefaultProxyFilterTagEEEE64_nn_sf_sync_CreateProcedureToUpdateLinkageStateOfNintendoAccountENS0_3OutINS0_13SharedPointerINS5_4http15IOAuthProcedureEEEvEE
_ZN2nn2sf4hipc6client24Hipc2ClientCoreProcessorILNS1_6detail11MessageTypeE6ENS0_4cmif6detail14CoreMethodInfoINSt3__15tupleIJNS7_17InRawArgumentInfoILm8ELm8ELl8EEENSB_ILm4ELm4ELl4EEENSB_ILm2ELm2ELl0EEEEEELm16ELm0ELb1EEESF_E7ProcessEPNS2_26Hipc2ClientProxyBaseObjectENS6_6client23InRawClientArgumentTypeILm8ELm8EvEENSL_ILm4ELm4EvEENSL_ILm2ELm2EvEEj
atanlo
_ZN2nn3hid6detail28GetNpadOfHighestBatteryLevelEPjPKji
NvBlitForceFlag
_ZNKSt12experimental15fundamentals_v112bad_any_cast4whatEv
_ZNKSt3__120__codecvt_utf8_utf16IDsE6do_outER11__mbstate_tPKDsS5_RS5_PcS7_RS7_
_ZN2nn5image6detail4jpeg11jpeg_aritabE
_ZN2nn2sf4cmif6client6detail13CmifProxyImplINS_4nifm6detail14IStaticServiceENS2_19CmifDomainProxyKindINS0_4hipc6client38Hipc2ClientSessionManagedProxyKindBaseINSA_18Hipc2ProxyKindBaseILNS9_6detail11MessageTypeE6EEEEEEENS0_30MemoryResourceAllocationPolicyES7_NS3_19ProcessModifierImplINS2_21DefaultProxyFilterTagEEEE17GetCmifBaseObjectEv
_ZN2nn2sf4cmif6client6detail13CmifProxyImplINS_4nifm6detail15IGeneralServiceENS2_19CmifDomainProxyKindINS0_4hipc6client38Hipc2ClientSessionManagedProxyKindBaseINSA_18Hipc2ProxyKindBaseILNS9_6detail11MessageTypeE6EEEEEEENS0_30MemoryResourceAllocationPolicyES7_NS3_19ProcessModifierImplINS2_21DefaultProxyFilterTagEEEE42_nn_sf_sync_IsEthernetCommunicationEnabledENS0_3OutIbvEE
setLimiterAttack
fabsf
_ZTINSt3__114__codecvt_utf8IDsEE
_ZNSt9bad_allocC2Ev
_ZN2nn4diag6detail11NotNullImplEm
pcmDmx_SetMatrixMixdownFromPce
_ZN2nn2sf6detail38ObjectImplFactoryWithStatefulAllocatorINS0_4cmif6client6detail9CmifProxyINS_3ngc1t6detail7IObjectENS0_4hipc6client18Hipc2ProxyKindBaseILNSB_6detail11MessageTypeE6EEENS0_30MemoryResourceAllocationPolicyENS5_19ProcessModifierImplINS4_21DefaultProxyFilterTagEEEvEESH_E6Object7ReleaseEv
_ZTINSt3__17num_putIcNS_19ostreambuf_iteratorIcNS_11char_traitsIcEEEEEE
_ZN2nn3hid6system6detail21GetUniquePadButtonSetEPNS_4util10BitFlagSetILi64ENS1_15UniquePadButtonEEERKNS1_11UniquePadIdE
_ZTSN2nn2sf6detail19InterfaceInfoBottomINS0_14IServiceObjectEE4_tABINS0_13InterfaceInfoINS0_4hipc6detail12IHipcManagerEE5_tO2NINS7_6server34HipcServerSessionManagerWithDomain15HipcManagerImplEE4typeES9_E4typeE
silk_LTP_gain_middle_avg_RD_Q14
_ZN2nn2sf4cmif6client6detail13CmifProxyImplINS_8settings21ISystemSettingsServerENS0_4hipc6client18Hipc2ProxyKindBaseILNS7_6detail11MessageTypeE6EEENS0_30MemoryResourceAllocationPolicyES6_NS3_19ProcessModifierImplINS2_21DefaultProxyFilterTagEEEE51_nn_sf_sync_GetConsoleSixAxisSensorAccelerationBiasENS0_3OutINS5_6system36ConsoleSixAxisSensorAccelerationBiasEvEE
android_atomic_or
aacDecoder_ConfigRaw
_ZN2nn3hid6system30UnregisterAppletResourceUserIdERKNS_6applet20AppletResourceUserIdE
_ZN3nne4nlib16NullOutputStreamD0Ev
_ZNSt3__115numpunct_bynameIcEC1EPKcm
__ffsti2
_ZN2nn2sf4hipc6client34HipcSimpleClientSessionManagerBaseINS2_29DefaultSessionResourceManagerEE4Impl10DeallocateENS_3svc6HandleE
_ZN2nn2sf4cmif6client6detail13CmifProxyImplINS_2am7service18IAppletProxyCommonENS2_19CmifDomainProxyKindINS0_4hipc6client38Hipc2ClientSessionManagedProxyKindBaseINSA_18Hipc2ProxyKindBaseILNS9_6detail11MessageTypeE6EEEEEEENS0_30MemoryResourceAllocationPolicyENS6_18ISystemAppletProxyENS3_19ProcessModifierImplINS2_21DefaultProxyFilterTagEEEE17GetCmifBaseObjectEv
_ZN2nn5audio3dsp6detail14ResampleImplHQEPiPKsiS3_i
_ZTIN2nn5codec30HardwareOpusMultiStreamDecoderE
_ZNK2nn2fs6detail18FileSystemAccessor20GetSaveDataAttributeEPNS0_17SaveDataAttributeE
_ZN2nn4npns14SubscribeTopicEPKc
_ZN2nn6socket8resolver10serializer13DNSSerializer8ToBufferI7in_addrEElPhmRKT_
_ZN2nn7account25UserRegistrationProcedure4SwapERS1_
fabsl
_ZN2nn2sf4cmif6client6detail13CmifProxyImplINS_6hidbus19IHidbusSystemServerENS0_4hipc6client18Hipc2ProxyKindBaseILNS7_6detail11MessageTypeE6EEENS0_30MemoryResourceAllocationPolicyES6_NS3_19ProcessModifierImplINS2_21DefaultProxyFilterTagEEEE12GetProxyInfoEv
_ZN2nn2sf4cmif6client6detail13CmifProxyImplINS_5visrv2sf21ISystemDisplayServiceENS0_4hipc6client18Hipc2ProxyKindBaseILNS8_6detail11MessageTypeE6EEENS0_30MemoryResourceAllocationPolicyES7_NS3_19ProcessModifierImplINS2_21DefaultProxyFilterTagEEEE29_nn_sf_sync_SetDisplayCmuLumaEmf
_ZNSt12length_errorD0Ev
_ZN2nn2sf4cmif6client6detail13CmifProxyImplINS_7account4baas14IAdministratorENS2_19CmifDomainProxyKindINS0_4hipc6client38Hipc2ClientSessionManagedProxyKindBaseINSA_18Hipc2ProxyKindBaseILNS9_6detail11MessageTypeE6EEEEEEENS0_25StatelessAllocationPolicyINS0_22ExpHeapStaticAllocatorILm2048ENS5_6detail12ObjectHolder24ObjectHolderAllocatorTagEEEEES7_NS3_19ProcessModifierImplINS2_21DefaultProxyFilterTagEEEE70_nn_sf_sync_IsServiceEntryRequirementCacheRefreshRequiredForOnlinePlayENS0_3OutIbvEENS_13ApplicationIdE
_ZN2nn2sf4cmif6client6detail13CmifProxyImplINS_8settings21ISystemSettingsServerENS0_4hipc6client18Hipc2ProxyKindBaseILNS7_6detail11MessageTypeE6EEENS0_30MemoryResourceAllocationPolicyES6_NS3_19ProcessModifierImplINS2_21DefaultProxyFilterTagEEEE25_nn_sf_sync_SetRegionCodeEi
nvdcEnableVblank
_ZN2nn4htcs10FdSetIsSetEiPKNS0_5FdSetE
_ZN2nn3mii6detail16Ver3StoreDataRaw7SetNameERKNS0_8NicknameE
_ZN2nn2sf4hipc6client24Hipc2ClientCoreProcessorILNS1_6detail11MessageTypeE6ENS0_4cmif6detail14CoreMethodInfoINSt3__15tupleIJNS7_18BufferArgumentInfoILi0ELi22ELm4096EEEEEELm0ELm0ELb0EEESD_E7ProcessEPNS2_26Hipc2ClientProxyBaseObjectENS6_6client24BufferClientArgumentTypeEj
_ZN2nn3web17OfflineWebSession24TryReceiveContentMessageEPmPcm
_ZNSt3__112basic_stringIwNS_11char_traitsIwEENS_9allocatorIwEEE6insertEmmw
__towupper_l
nncodecLibopus_opus_encoder_init
_ZTSN2nn3nsd6detail8IManagerE
_ZN2nn8settings12LanguageCode18ChineseTraditionalEv
_ZN7android6Parcel4BlobC1Ev
_ZNKSt3__120__codecvt_utf8_utf16IDsE16do_always_noconvEv
_ZN2nn2sf4hipc6client24Hipc2ClientCoreProcessorILNS1_6detail11MessageTypeE6ENS0_4cmif6detail14CoreMethodInfoINSt3__15tupleIJNS7_17InRawArgumentInfoILm8ELm8ELl8EEENSB_ILm4ELm4ELl0EEENSB_ILm8ELm8ELl16EEEEEELm24ELm0ELb1EEESF_E7ProcessEPNS2_26Hipc2ClientProxyBaseObjectENS6_6client23InRawClientArgumentTypeILm8ELm8EvEENSL_ILm4ELm4EvEESM_j
_ZN2nn8settings6detail15SetLanguageCodeERKNS0_12LanguageCodeE
_ZN2nn6socket12SocketExemptENS0_6FamilyENS0_4TypeENS0_8ProtocolE
_ZN7android9SingletonINS_19GraphicBufferMapperEE9sInstanceE
_ZNSt3__17codecvtIwc11__mbstate_tED2Ev
_ZN2nn3hid31BindPalmaOperationCompleteEventERKNS0_21PalmaConnectionHandleEPNS_2os15SystemEventTypeENS4_14EventClearModeE
_ZN2nn4util10Executable4LockEv
_ZNSt3__115basic_streambufIwNS_11char_traitsIwEEE7seekoffExNS_8ios_base7seekdirEj
_ZTINSt3__113messages_baseE
_ZTIN2nn2sf6detail39ObjectImplFactoryWithStatelessAllocatorINS0_4cmif6client6detail9CmifProxyINS_7account31IAccountServiceForAdministratorENS4_19CmifDomainProxyKindINS0_4hipc6client38Hipc2ClientSessionManagedProxyKindBaseINSB_18Hipc2ProxyKindBaseILNSA_6detail11MessageTypeE6EEEEEEENS0_25StatelessAllocationPolicyINS0_22ExpHeapStaticAllocatorILm2048ENS7_6detail12ObjectHolder24ObjectHolderAllocatorTagEEEEENS5_19ProcessModifierImplINS4_21DefaultProxyFilterTagEEEvEESP_E6ObjectE
_ZN2nn2fs26EraseAndWriteParamDirectlyEPvm
_ZN2nn2os6detail25SharedMemoryImplByHorizon3MapEPPvjS3_mNS0_16MemoryPermissionE
_ZNSt3__113basic_ostreamIwNS_11char_traitsIwEEElsEPFRNS_9basic_iosIwS2_EES6_E
_ZN2nn7account49ExternalNetworkServiceAccountIntroducingProcedureC2Ev
_ZN2nn4nifm6detail29TemporaryNetworkProfileClient6UpdateERKNS0_18NetworkProfileDataE
_ZN2nn3ssl7Context6CreateENS1_10SslVersionE
_ZN2nn3ngc15ProfanityFilterC2EPvm
__divmodsi4
_ZN2nn2vi10InitializeEv
_ZN2nn2sf6detail19InterfaceInfoBottomINS0_14IServiceObjectEE4_tABINS0_13InterfaceInfoINS_5audio6detail21IAudioRendererManagerEE5_tO2NINS7_6server24AudioRendererManagerImplEE4typeES9_E4typeD2Ev
_ZN2nn4diag6detail23ResetDefalutLogObserverEv
_ZN2nn3hid13VibrationNode19SetCurrentVibrationERKNS0_14VibrationValueE
_ZN2nn4nifm6detail34ConvertAccessPointDataToSfFromNifmEPNS1_2sf17AccessPointDataV1ERKNS0_15AccessPointDataE
_ZN2nn2vi21LayerCreationSettingsC1Eii
_ZN7android10FrameStats9unflattenEPKvm
nncryptoAes128CtrEncryptorInitialize
_ZN2nn2sf4cmif6client6detail13CmifProxyImplINS_3ngc1t6detail25IServiceWithManagementApiENS0_4hipc6client18Hipc2ProxyKindBaseILNS9_6detail11MessageTypeE6EEENS0_30MemoryResourceAllocationPolicyES8_NS3_19ProcessModifierImplINS2_21DefaultProxyFilterTagEEEE39_nn_sf_sync_CalculateContentFingerprintERKNS0_9OutBufferE
_ZN2nn2sf4cmif6client6detail13CmifProxyImplINS_2am7service26ILibraryAppletSelfAccessorENS2_19CmifDomainProxyKindINS0_4hipc6client38Hipc2ClientSessionManagedProxyKindBaseINSA_18Hipc2ProxyKindBaseILNS9_6detail11MessageTypeE6EEEEEEENS0_30MemoryResourceAllocationPolicyES7_NS3_19ProcessModifierImplINS2_21DefaultProxyFilterTagEEEE29_nn_sf_sync_UnpopExtraStorageENS0_13SharedPointerINS6_8IStorageEEE
_ZN2nn2fs3dbm24FileSystemObjectTemplateINS1_13DirectoryNameENS1_8FileNameEE8OpenFileEPjPNS1_18FileObjectTemplateIS3_S4_EEPKc
_ZN2nn2fs31SaveDataTransferManagerVersion224OpenSaveDataImporterImplEPNSt3__110unique_ptrINS0_25ISaveDataDivisionImporterENS2_14default_deleteIS4_EEEERKNS0_19InitialDataVersion2ERKNS0_6UserIdENS0_15SaveDataSpaceIdEb
_ZTVN2nn2sf6detail38ObjectImplFactoryWithStatefulAllocatorINS0_4cmif6client6detail9CmifProxyINS_3ntc6detail7service14IStaticServiceENS0_4hipc6client18Hipc2ProxyKindBaseILNSB_6detail11MessageTypeE6EEENS0_30MemoryResourceAllocationPolicyENS5_19ProcessModifierImplINS4_21DefaultProxyFilterTagEEEvEESH_E6ObjectE
_ZN2nn2sf6detail38ObjectImplFactoryWithStatefulAllocatorINS0_4cmif6client6detail9CmifProxyINS_6grcsrv17IGameMovieTrimmerENS4_19CmifDomainProxyKindINS0_4hipc6client38Hipc2ClientSessionManagedProxyKindBaseINSB_18Hipc2ProxyKindBaseILNSA_6detail11MessageTypeE6EEEEEEENS0_30MemoryResourceAllocationPolicyENS5_19ProcessModifierImplINS4_21DefaultProxyFilterTagEEEvEESJ_E6Object12AddReferenceEv
_ZN2nn4htcs6detail25virtual_socket_collection6SocketERi
_ZN2nn3mii8Nickname19ReplaceQuestionMarkEv
_ZN2nn4nifm30IsEthernetCommunicationEnabledEv
_ZN2nn12notification33WeeklyScheduleAlarmSettingBuilderC2ERKNS0_12AlarmSettingE
nnosTimedSendMessageQueue
_ZNK2nn2fs11RomPathTool10PathParser15IsDirectoryPathEv
_ZN2nn5audio15BehaviorManager11CheckErrorsEv
_ZN2nn5swkbd14InlineKeyboard28SetChangedStringCallbackUtf8EPFvPKNS0_20ChangedStringArgUtf8EE
nanf
_ZN2nn5codec28aaFractDelayPhaseFactorImQmfE
nnmem_nlib_log_attr_setint
_ZN2nn2os6detail11VammManager14AllocateMemoryEPmm
_ZN2nn8settings6detail28GetButtonConfigSettingsRightEPiPNS0_6system20ButtonConfigSettingsEi
_ZN2nn8settings6system31GetApplicationOwnKeyboardLayoutEPNS0_14KeyboardLayoutE
_ZNSt3__115basic_streambufIwNS_11char_traitsIwEEE4setgEPwS4_S4_
_ZN2nn5codec22rescalFilterBankValuesEPNS0_6PS_DECEPPiS4_ii
_ZN2nn5codec20GetRam_SbrDecChannelEi
nnmem_nlib_thread_attr_setint
_ZN2nn2sf4cmif6client6detail13CmifProxyImplINS_8settings21ISystemSettingsServerENS0_4hipc6client18Hipc2ProxyKindBaseILNS7_6detail11MessageTypeE6EEENS0_30MemoryResourceAllocationPolicyES6_NS3_19ProcessModifierImplINS2_21DefaultProxyFilterTagEEEE40_nn_sf_sync_GetNetworkSystemClockContextENS0_3OutINS_4time18SystemClockContextEvEE
_ZNK2nn3web26OfflineHtmlPageReturnValue10GetLastUrlEv
__nnmusl_random_lock_finalize
__nnmusl_GetThreadNamePointer
_ZN2nn2sf4cmif6client6detail13CmifProxyImplINS_4pctl6detail3ipc23IParentalControlServiceENS2_19CmifDomainProxyKindINS0_4hipc6client38Hipc2ClientSessionManagedProxyKindBaseINSB_18Hipc2ProxyKindBaseILNSA_6detail11MessageTypeE6EEEEEEENS0_30MemoryResourceAllocationPolicyES8_NS3_19ProcessModifierImplINS2_21DefaultProxyFilterTagEEEE37_nn_sf_sync_FinishRetrievePairingInfoENS0_3OutINS6_15PairingInfoBaseEvEENS6_9AsyncDataE
NvRmGpuLibAttachDevice
_ZN7android8Composer27setAnimationTransactionImplEv
_ZNSt3__112strstreambufD1Ev
_ZN2nn2sf13SharedPointerINS_6capsrv2sf32IAlbumAccessorApplicationSessionEED2Ev
get_charData_ttf
_ZNSt3__120__libcpp_thread_joinEPNS_10shared_ptrINS_21__horizon_thread_dataEEE
__nnmusl_socket_shutdown
nanl
_ZN2nn2ec6detail23ShopServiceAccessServer10ProxyStoreD2Ev
_ZN2nn2fs18CreateCacheStorageEill
_ZN2nn8settings12LanguageCode7SpanishEv
snprintf
_ZN7android8String166removeEmm
_ZN2nn2sf4cmif6client6detail36GetClientProcessorImplWithObjectBaseINS2_19CmifDomainProxyKindINS0_4hipc6client38Hipc2ClientSessionManagedProxyKindBaseINS7_18Hipc2ProxyKindBaseILNS6_6detail11MessageTypeE6EEEEEEENS3_19ProcessModifierImplINS2_21DefaultProxyFilterTagEEEE14ObjectAssignerINS0_30MemoryResourceAllocationPolicyENS_14MemoryResourceEE14AllocateObjectINS_2am7service25IProcessWindingControllerEEEvi
_ZN2nn2ec28AsyncRecoverRightDataRequest5BeginEv
_ZN2nn2ec19EndConsumeRightDataEPiPNS0_30ConsumableServiceItemRightDataEiPKS2_iPNS0_19ShopServiceAccessor13AsyncResponseEPvm
_ZN2nn6fontll18ScalableFontEngineC2Ev
nndetailImagePng_png_read_data
_ZNK2nn3web20SharePageReturnValue18GetShareExitReasonEv
_ZTIN2nn9bluetooth16IBluetoothDriverE
_ZN2nn2sf4cmif6client34CmifDomainProxyClientCoreProcessorINS0_4hipc6client38Hipc2ClientSessionManagedProxyKindBaseINS5_18Hipc2ProxyKindBaseILNS4_6detail11MessageTypeE6EEEEENS1_6detail14CoreMethodInfoINSt3__15tupleIJNSC_18BufferArgumentInfoILi0ELi26ELm256EEEEEELm0ELm0ELb0EEESI_E7ProcessEPNS2_23CmifDomainClientMessageISB_E15ProxyBaseObjectENS2_24BufferClientArgumentTypeEj
_ZN2nn3hid18VibrationConverter13ChunkDurationE
_ZN2nn4timeeqERKNS0_13ClockSnapshotES3_
_ZN7android19GraphicBufferMapper4lockEPK13native_handleiRKNS_4RectEPPv
_ZN2nn3btm4user19BleGetPairedDevicesEPNS_9bluetooth7AddressEhRKNS2_27BleAdvertisePacketParameterE
_ZN2nn2fs16SaveDataImporterC1EONS_2sf13SharedPointerINS_5fssrv2sf17ISaveDataImporterEEE
nncodecLibopus_silk_init_encoder
_ZN2nn2ec6detail23ShopServiceAccessServer5ProxyC2Ev
_ZN2nn2fs27PathNormalizationFileSystem10DoOpenFileEPNSt3__110unique_ptrINS0_3fsa5IFileENS2_14default_deleteIS5_EEEEPKcNS0_8OpenModeE
_ZN2nn8settings6system42GetConsoleSixAxisSensorAngularAccelerationEPNS1_39ConsoleSixAxisSensorAngularAccelerationE
_ZN2nn2vi6detail18SystemServiceProxyC2Ev
_ZN7android12ConsumerBaseC2ERKNS_2spINS_22IGraphicBufferConsumerEEEb
_ZN2nn4diag27GetReadOnlyDataSectionRangeEPmS1_m
_ZN2nn2fs19GetGameCardDeviceIdEPvm
_ZN2nn5image6detail4jpeg17jpeg_new_colormapEPNS2_22jpeg_decompress_structE
_ZNK2nn5audio12SplitterInfo13GetSampleRateEv
nncodecLibopus_downmix_float
_ZN2nn2sf4cmif6client6detail13CmifProxyImplINS_7timesrv6detail7service12ISteadyClockENS2_19CmifDomainProxyKindINS0_4hipc6client38Hipc2ClientSessionManagedProxyKindBaseINSB_18Hipc2ProxyKindBaseILNSA_6detail11MessageTypeE6EEEEEEENS0_30MemoryResourceAllocationPolicyES8_NS3_19ProcessModifierImplINS2_21DefaultProxyFilterTagEEEE29_nn_sf_sync_GetInternalOffsetENS0_3OutINS_12TimeSpanTypeEvEE
_ZTIN2nn2sf4cmif6client6detail9CmifProxyINS_3ntc6detail7service38IEnsureNetworkClockAvailabilityServiceENS0_4hipc6client18Hipc2ProxyKindBaseILNS9_6detail11MessageTypeE6EEENS0_30MemoryResourceAllocationPolicyENS3_19ProcessModifierImplINS2_21DefaultProxyFilterTagEEEvEE
_ZN2nn4util15FileInputStreamD2Ev
_ZN7android9SingletonINS_8ComposerEE9sInstanceE
_ZN2nn5audio6server10NullAspectC1EPNS1_13CommandBufferE
_ZN2nn2ec6detail15ShowShopPageArg24CallbackableUrlMaxLengthE
_ZN2nn2sf4cmif6client34CmifDomainProxyClientCoreProcessorINS0_4hipc6client38Hipc2ClientSessionManagedProxyKindBaseINS5_18Hipc2ProxyKindBaseILNS4_6detail11MessageTypeE6EEEEENS1_6detail14CoreMethodInfoINSt3__15tupleIJNSC_18OutRawArgumentInfoILm8ELm2ELl0EEENSG_ILm24ELm4ELl8EEENSC_17InRawArgumentInfoILm8ELm8ELl0EEENSC_18BufferArgumentInfoILi0ELi21ELm16384EEEEEELm8ELm32ELb0EEESN_E7ProcessEPNS2_23CmifDomainClientMessageISB_E15ProxyBaseObjectENS2_24OutRawClientArgumentTypeILm8ELm2EEENSU_ILm24ELm4EEENS2_23InRawClientArgumentTypeILm8ELm8EvEENS2_24BufferClientArgumentTypeEj
_ZNSt3__112basic_stringIcNS_11char_traitsIcEENS_9allocatorIcEEE9__grow_byEmmmmmm
_ZN2nn4bcat6detail17ShimLibraryGlobal31IncrementDeliveryCacheFileCountEv
_ZN2nn2sf4cmif6client34CmifDomainProxyClientCoreProcessorINS0_4hipc6client38Hipc2ClientSessionManagedProxyKindBaseINS5_18Hipc2ProxyKindBaseILNS4_6detail11MessageTypeE6EEEEENS1_6detail14CoreMethodInfoINSt3__15tupleIJNSC_18OutRawArgumentInfoILm4ELm4ELl0EEENSC_17InRawArgumentInfoILm88ELm4ELl0EEEEEELm88ELm4ELb0EEESK_E7ProcessEPNS2_23CmifDomainClientMessageISB_E15ProxyBaseObjectENS2_24OutRawClientArgumentTypeILm4ELm4EEENS2_23InRawClientArgumentTypeILm88ELm4EvEEj
_ZN2nn7account12AsyncContextC1EPNS0_6detail13IAsyncContextERKNS0_3UidE
_ZN2nn7account44EnsureNetworkServiceAccountIdTokenCacheAsyncEPNS0_12AsyncContextERKNS0_10UserHandleE
_ZN2nn3nfc11WriteMifareERKNS0_12DeviceHandleEPKNS0_25MifareWriteBlockParameterEm
_ZNKSt3__112basic_stringIcNS_11char_traitsIcEENS_9allocatorIcEEE4findEPKcmm
nncodecLibopus_silk_stereo_encode_mid_only
_ZNK2nn5audio6server17AudioRenderSystem13GetVoiceCountEv
_ZN2nn2fs23CorruptSaveDataForDebugEm
_ZN2nn2os19ClearInterruptEventEPNS0_18InterruptEventTypeE
_ZTIN2nn2sf4cmif6client6detail13CmifProxyImplINS_7account4baas34IAsyncContextForLoginForOnlinePlayENS2_19CmifDomainProxyKindINS0_4hipc6client38Hipc2ClientSessionManagedProxyKindBaseINSA_18Hipc2ProxyKindBaseILNS9_6detail11MessageTypeE6EEEEEEENS0_25StatelessAllocationPolicyINS0_22ExpHeapStaticAllocatorILm2048ENS5_6detail12ObjectHolder24ObjectHolderAllocatorTagEEEEES7_NS3_19ProcessModifierImplINS2_21DefaultProxyFilterTagEEEEE
_ZN2nn2sf4cmif6client34CmifDomainProxyClientCoreProcessorINS0_4hipc6client38Hipc2ClientSessionManagedProxyKindBaseINS5_18Hipc2ProxyKindBaseILNS4_6detail11MessageTypeE6EEEEENS1_6detail14CoreMethodInfoINSt3__15tupleIJNSC_18BufferArgumentInfoILi0ELi26ELm64EEENSC_17InRawArgumentInfoILm16ELm8ELl8EEENSI_ILm1ELm1ELl0EEEEEELm24ELm0ELb0EEESL_E7ProcessEPNS2_23CmifDomainClientMessageISB_E15ProxyBaseObjectENS2_24BufferClientArgumentTypeENS2_23InRawClientArgumentTypeILm16ELm8EvEENST_ILm1ELm1EvEEj
__nnmusl_TimerSetTime
_ZN2nn2sf4cmif6client6detail13CmifProxyImplINS_2am7service15ISelfControllerENS2_19CmifDomainProxyKindINS0_4hipc6client38Hipc2ClientSessionManagedProxyKindBaseINSA_18Hipc2ProxyKindBaseILNS9_6detail11MessageTypeE6EEEEEEENS0_30MemoryResourceAllocationPolicyES7_NS3_19ProcessModifierImplINS2_21DefaultProxyFilterTagEEEE39_nn_sf_sync_GetSystemSharedBufferHandleENS0_3OutINS_2vi7fbshare18SharedBufferHandleEvEE
_ZN2nn2fs6detail8RegisterEONSt3__110unique_ptrINS1_18FileSystemAccessorENS2_14default_deleteIS4_EEEE
_ZTIN2nn2sf6detail38ObjectImplFactoryWithStatefulAllocatorINS0_4cmif6client6detail9CmifProxyINS_6jitsrv11IJitServiceENS0_4hipc6client18Hipc2ProxyKindBaseILNS9_6detail11MessageTypeE6EEENS0_30MemoryResourceAllocationPolicyENS5_19ProcessModifierImplINS4_21DefaultProxyFilterTagEEEvEESF_E6ObjectE
_ZN2nn5prepo10PlayReport3AddEPKcRKNS0_5ArrayE
_ZN2nn8settings6system13SetTvSettingsERKNS1_10TvSettingsE
_ZN2nn5audio33GetI3dl2ReverbLateReverbDelayTimeEPKNS0_15I3dl2ReverbTypeE
_ZN2nn5audio6server24AudioRenderSystemManager3AddERNS1_17AudioRenderSystemE
_ZN2nn2sf4cmif6client6detail13CmifProxyImplINS_6capsrv2sf32IAlbumAccessorApplicationSessionENS0_4hipc6client18Hipc2ProxyKindBaseILNS8_6detail11MessageTypeE6EEENS0_30MemoryResourceAllocationPolicyES7_NS3_19ProcessModifierImplINS2_21DefaultProxyFilterTagEEEE37_nn_sf_sync_CloseAlbumMovieReadStreamEm
_ZN2nn5codec30GetAacDecoderStaticChannelInfoEi
_ZN2nn4pctl6detail17EventObjectHolderD2Ev
_ZN7android8Composer8setLayerERKNS_2spINS_21SurfaceComposerClientEEERKNS1_INS_7IBinderEEEi
_ZNSt3__112ctype_bynameIwEC2ERKNS_12basic_stringIcNS_11char_traitsIcEENS_9allocatorIcEEEEm
_ZN2nn3htc8FinalizeEv
_ZN2nn2vi6buffer11BufferQueue21GetRequiredMemorySizeERKNS1_10BufferInfoE
NvRmGpuProfilerCreate
iswupper_l
_ZTSN2nn2sf4cmif6client6detail9CmifProxyINS_2am7service7IWindowENS2_19CmifDomainProxyKindINS0_4hipc6client38Hipc2ClientSessionManagedProxyKindBaseINSA_18Hipc2ProxyKindBaseILNS9_6detail11MessageTypeE6EEEEEEENS0_30MemoryResourceAllocationPolicyENS3_19ProcessModifierImplINS2_21DefaultProxyFilterTagEEEvEE
_ZN2nn2fs4save17SaveDataDirectory10InitializeEv
_ZNK2nn3hid6server8RingLifoINS0_16TouchScreenStateILm16EEELi16ENS1_29TouchScreenStateAtomicStorageEE8ReadImplINS3_ILm12EEEEEiPT_i
_ZN2nn4nifm31SetWirelessCommunicationEnabledEb
_ZN2nn2vi11CreateLayerEPPNS0_5LayerEPNS0_7DisplayE
__set_tp
_ZN2nn7account12AsyncContextC1Ev
_ZN2nn2sf4hipc6client34HipcSimpleClientSessionManagerBaseINS2_29DefaultSessionResourceManagerEE4Impl18InitializeByHandleINS_7friends6detail3ipc15IServiceCreatorENS0_30MemoryResourceAllocationPolicyENS0_4cmif6client6detail19ProcessModifierImplINSE_21DefaultProxyFilterTagEEEEENS_6ResultEPNS0_13SharedPointerIT_EEPNT0_9AllocatorENS_3svc6HandleE
_ZN2nn2fs23SaveDataTransferManager20OpenSaveDataImporterEPNSt3__110unique_ptrINS0_16SaveDataImporterENS2_14default_deleteIS4_EEEEPlPKvmRKNS0_6UserIdENS0_15SaveDataSpaceIdE
_ZN2nn3hid6system6detail28GetUniquePadBluetoothAddressEPNS_9bluetooth7AddressENS1_11UniquePadIdE
NvOsAtomicExchangeAdd32
wcscoll_l
gethostbyname
nndetailImagePng_png_read_finish_IDAT
_ZN2nn2sf4cmif6client6detail13CmifProxyImplINS_4nifm6detail15IGeneralServiceENS2_19CmifDomainProxyKindINS0_4hipc6client38Hipc2ClientSessionManagedProxyKindBaseINSA_18Hipc2ProxyKindBaseILNS9_6detail11MessageTypeE6EEEEEEENS0_30MemoryResourceAllocationPolicyES7_NS3_19ProcessModifierImplINS2_21DefaultProxyFilterTagEEEE34_nn_sf_sync_GetCurrentIpConfigInfoENS0_3OutINS5_16IpAddressSettingEvEENSN_INS5_10DnsSettingEvEE
nnosDetachReadableHandleOfSystemEvent
nnResolverGetspecificPrivate
_ZN2nn7account48NintendoAccountApplicationAuthorizationProcedureaSEOS1_
_ZN2nn2sf4cmif6client6detail13CmifProxyImplINS_3hid16IHidSystemServerENS0_4hipc6client18Hipc2ProxyKindBaseILNS7_6detail11MessageTypeE6EEENS0_30MemoryResourceAllocationPolicyES6_NS3_19ProcessModifierImplINS2_21DefaultProxyFilterTagEEEE42_nn_sf_sync_SetButtonConfigStorageEmbeddedERKNS_9hidconfig20ButtonConfigEmbeddedEi
_ZTIN2nn2sf4cmif6client6detail9CmifProxyINS_7friends6detail3ipc14IFriendServiceENS2_19CmifDomainProxyKindINS0_4hipc6client38Hipc2ClientSessionManagedProxyKindBaseINSB_18Hipc2ProxyKindBaseILNSA_6detail11MessageTypeE6EEEEEEENS0_30MemoryResourceAllocationPolicyENS3_19ProcessModifierImplINS2_21DefaultProxyFilterTagEEEvEE
nndetailImagePng_png_write_chunk_end
_ZN2nn2sf4cmif6client6detail36GetClientProcessorImplWithObjectBaseINS2_19CmifDomainProxyKindINS0_4hipc6client38Hipc2ClientSessionManagedProxyKindBaseINS7_18Hipc2ProxyKindBaseILNS6_6detail11MessageTypeE6EEEEEEENS3_19ProcessModifierImplINS2_21DefaultProxyFilterTagEEEE14ObjectAssignerINS0_30MemoryResourceAllocationPolicyENS_14MemoryResourceEE14AllocateObjectINS_3mii6detail16IDatabaseServiceEEEvi
_nnmusl_socket_TranslateFileDescriptorFromNativeToNnmusl
_ZN2nn5audio19InitializeResamplerEPNS0_14ResamplerStateEjb
_ZN2nn5codec33FDK_sbrDecoder_sbr_frame_info2_15E
_ZTSN2nn3ssl6detail18ISslServiceFactoryE
_ZN2nn5swkbd20SetTextCheckCallbackEPNS0_15ShowKeyboardArgEPFNS0_15TextCheckResultEPvPmPNS0_6StringEE
_ZNK7android12SharedBuffer5resetEm
_ZN2nn2sf4cmif6client6detail13CmifProxyImplINS_7account19IAccountServiceBaseENS2_19CmifDomainProxyKindINS0_4hipc6client38Hipc2ClientSessionManagedProxyKindBaseINS9_18Hipc2ProxyKindBaseILNS8_6detail11MessageTypeE6EEEEEEENS0_25StatelessAllocationPolicyINS0_22ExpHeapStaticAllocatorILm2048ENS5_6detail12ObjectHolder24ObjectHolderAllocatorTagEEEEENS5_29IAccountServiceForApplicationENS3_19ProcessModifierImplINS2_21DefaultProxyFilterTagEEEE24_nn_sf_sync_GetUserCountENS0_3OutIivEE
_ZTVN2nn5audio6server10ReverbInfoE
_ZN2nn6hidbus6detail25GetJoyPollingReceivedDataEPNS0_22JoyPollingReceivedDataERKNS0_9BusHandleE
_ZN2nn8settings12LanguageCode9EnglishUsEv
_ZN2nn5swkbd6detail18InlineKeyboardImpl28SetChangedStringCallbackUtf8EPFvPKNS0_20ChangedStringArgUtf8EE
_ZN2nn6hidbus6detail23CreateHidbusServerProxyEPNS_2sf13SharedPointerINS0_13IHidbusServerEEE
_ZN2nn6socket6detail21GetResourceStatisticsENS0_14StatisticsTypeEPvmjPKcm
_ZTSN2nn2sf6detail38ObjectImplFactoryWithStatefulAllocatorINS0_4cmif6client6detail9CmifProxyINS_5visrv2sf23IApplicationRootServiceENS0_4hipc6client18Hipc2ProxyKindBaseILNSA_6detail11MessageTypeE6EEENS0_30MemoryResourceAllocationPolicyENS5_19ProcessModifierImplINS4_21DefaultProxyFilterTagEEEvEESG_E6ObjectE
_ZNK7android6Parcel12dataCapacityEv
mtx_lock
_ZNKSt3__117moneypunct_bynameIcLb1EE13do_pos_formatEv
__nnmusl_tsd_keys
_ZNK2nn4bcat8FileName7IsValidEv
_ZN2nn5codec23FDK_sbrDecoder_invTableE
_ZTIN2nn5image11JpegEncoderE
_ZN2nn2oe21TryPopLaunchParameterEPmPvm
nvdcGetCrc
_ZN2nn2fs29SetConcatenationFileAttributeEPKc
nndetailImagePng_png_create_write_struct
nndetailImagePng_png_write_eXIf
_ZTSN2nn2sf4cmif6client6detail13CmifProxyImplINS_8irsensor15IIrSensorServerENS0_4hipc6client18Hipc2ProxyKindBaseILNS7_6detail11MessageTypeE6EEENS0_25StatelessAllocationPolicyINS0_22ExpHeapStaticAllocatorILm16384ENS5_6detail14IrSensorServerEEEEES6_NS3_19ProcessModifierImplINS2_21DefaultProxyFilterTagEEEEE
_ZN2nn8settings6detail29GetAnalogStickModelParameterLEPNS0_7factory25AnalogStickModelParameterE
_ZN2nn2sf4cmif6client6detail13CmifProxyImplINS_5visrv2sf22IManagerDisplayServiceENS0_4hipc6client18Hipc2ProxyKindBaseILNS8_6detail11MessageTypeE6EEENS0_30MemoryResourceAllocationPolicyES7_NS3_19ProcessModifierImplINS2_21DefaultProxyFilterTagEEEE52_nn_sf_sync_FinishDetachSharedLayerFromLowLevelLayerENS_2vi7fbshare17SharedLayerHandleE
NvRmMemCacheSyncForDevice
pthread_condattr_getpshared
swab
_ZN2nn5codec32FDK_sbrDecoder_sbr_start_freq_48E
_ZNK2nn3mii21ParamCharInfoAccessor8GetMoleYEv
_ZNSt3__112basic_stringIcNS_11char_traitsIcEENS_9allocatorIcEEED1Ev
wcstombs
_ZN2nn3hid6detail25DisableAnyPalmaConnectionEv
_ZN2nn3ngc6detail2Bp16ReleaseAllocatorEv
_ZNK2nn4time27PeriodicBenefitClaimContext40GetSpanToEndOfPenaltyAtLastClaimForDebugEPNS_8TimeSpanE
_ZN2nn4util10SwapEndianEPNS0_9ResEndianEPNS0_10StringPoolE
NvRmChannelSetSubmitTimeout
_nnmusl_socket_TranslateFileDescriptorFromNnmuslToNative
_ZNKSt3__112basic_stringIcNS_11char_traitsIcEENS_9allocatorIcEEE5rfindEPKcmm
_ZN2nn2sf4cmif6client34CmifDomainProxyClientCoreProcessorINS0_4hipc6client38Hipc2ClientSessionManagedProxyKindBaseINS5_18Hipc2ProxyKindBaseILNS4_6detail11MessageTypeE6EEEEENS1_6detail14CoreMethodInfoINSt3__15tupleIJNSC_18OutRawArgumentInfoILm1ELm1ELl0EEENSC_17InRawArgumentInfoILm8ELm8ELl0EEEEEELm8ELm1ELb0EEESK_E7ProcessEPNS2_23CmifDomainClientMessageISB_E15ProxyBaseObjectENS2_24OutRawClientArgumentTypeILm1ELm1EEENS2_23InRawClientArgumentTypeILm8ELm8EvEEj
_Znwm
_ZNSt3__118__insertion_sort_3IRPFbRKN2nn6fontll15OtfKerningTable11KerningPairES6_EPS4_EEvT0_SB_T_
_ZN2nn2sf4cmif6client6detail13CmifProxyImplINS_3hid16IHidSystemServerENS0_4hipc6client18Hipc2ProxyKindBaseILNS7_6detail11MessageTypeE6EEENS0_30MemoryResourceAllocationPolicyES6_NS3_19ProcessModifierImplINS2_21DefaultProxyFilterTagEEEE38_nn_sf_sync_GetButtonConfigStorageFullENS0_3OutINS_9hidconfig16ButtonConfigFullEvEEi
_ZN2nn2sf4cmif6client34CmifDomainProxyClientCoreProcessorINS0_4hipc6client38Hipc2ClientSessionManagedProxyKindBaseINS5_18Hipc2ProxyKindBaseILNS4_6detail11MessageTypeE6EEEEENS1_6detail14CoreMethodInfoINSt3__15tupleIJNSC_18OutRawArgumentInfoILm4ELm4ELl0EEENSG_ILm4ELm4ELl4EEENSC_17InRawArgumentInfoILm4ELm4ELl0EEENSC_18BufferArgumentInfoILi0ELi33ELm0EEEEEELm4ELm8ELb0EEESN_E7ProcessEPNS2_23CmifDomainClientMessageISB_E15ProxyBaseObjectENS2_24OutRawClientArgumentTypeILm4ELm4EEESV_NS2_23InRawClientArgumentTypeILm4ELm4EvEENS2_24BufferClientArgumentTypeEj
_ZN2nn6fontll18ScalableFontEngine17AcquireOtfKerningEPKNS0_15OtfKerningTableEjjj
_ZTSNSt3__18ios_base7failureE
_ZN2nn3ssl6detail16SslMemoryManager11g_pHeapHeadE
_ZN2nn2fs4save17SaveDataDirectoryD0Ev
_ZN2nn2fs25ReadSaveDataThumbnailFileEmRKNS_7account3UidEPvmS5_m
_ZN2nn3nsd6detail3ipc17GetNasRequestFqdnEPNS0_4FqdnE
_ZN2nn8settings7factory12GetAmiiboKeyEPNS1_9AmiiboKeyE
_ZN7android6RegionC1Ev
_ZTSN2nn6grcsrv17IGameMovieTrimmerE
_ZN22nerd_gillette_internal5otete12Downscale2x2ERKNS_15StaticImageViewIhEERKNS1_IKhEE
_ZN2nn9bluetooth24AcquireBleMtuConfigEventEPNS_2os15SystemEventTypeE
_ZN2nn3ngc15ProfanityFilter19CheckProfanityWordsEPjjPPKtm
NvRmStreamFlushSync
_ZN2nn7account26LoadSaveDataThumbnailImageEPvmRKNS0_3UidERKNS_13ApplicationIdE
_ZN2nn2fs30RegisterSaveDataAtomicDeletionEPmi
_ZN2nn5codec26qmf_phaseshift_sin64_cldfbE
_ZN2nn2sf4hipc6client24Hipc2ClientCoreProcessorILNS1_6detail11MessageTypeE6ENS0_4cmif6detail14CoreMethodInfoINSt3__15tupleIJNS7_18OutRawArgumentInfoILm4ELm4ELl0EEENS7_18BufferArgumentInfoILi0ELi34ELm0EEENS7_17InRawArgumentInfoILm8ELm8ELl0EEEEEELm8ELm4ELb1EEESH_E7ProcessEPNS2_26Hipc2ClientProxyBaseObjectENS6_6client24OutRawClientArgumentTypeILm4ELm4EEENSM_24BufferClientArgumentTypeENSM_23InRawClientArgumentTypeILm8ELm8EvEEj
_ZN2nn8irsensor6detail15IrSensorSession25GetWindowOfInterestConfigERKNS0_14IrCameraHandleE
_ZTVN2nn2sf6detail38ObjectImplFactoryWithStatefulAllocatorINS0_4cmif6client6detail9CmifProxyINS_2am7service15ISelfControllerENS4_19CmifDomainProxyKindINS0_4hipc6client38Hipc2ClientSessionManagedProxyKindBaseINSC_18Hipc2ProxyKindBaseILNSB_6detail11MessageTypeE6EEEEEEENS0_30MemoryResourceAllocationPolicyENS5_19ProcessModifierImplINS4_21DefaultProxyFilterTagEEEvEESK_E6ObjectE
_ZN2nn4bcat8NotifierC2Ev
_ZN2nn5codec10CTns_ResetEPNS0_8CTnsDataE
_ZNSt3__18ios_base34__set_failbit_and_consider_rethrowEv
__nnmusl_Dup
nnmem_nlib_memchr_gt_simd
_ZTVN10__cxxabiv129__pointer_to_member_type_infoE
_ZN2nn2sf6detail38ObjectImplFactoryWithStatefulAllocatorINS0_4cmif6client6detail9CmifProxyINS_4nifm6detail14IStaticServiceENS4_19CmifDomainProxyKindINS0_4hipc6client38Hipc2ClientSessionManagedProxyKindBaseINSC_18Hipc2ProxyKindBaseILNSB_6detail11MessageTypeE6EEEEEEENS0_30MemoryResourceAllocationPolicyENS5_19ProcessModifierImplINS4_21DefaultProxyFilterTagEEEvEESK_E6Object12AddReferenceEv
_ZN2nn8settings6detail11GetDeviceIdEPm
_ZN2nn8settings6detail33GetConsoleSixAxisSensorModuleTypeEPh
_ZNKSt3__18time_getIwNS_19istreambuf_iteratorIwNS_11char_traitsIwEEEEE10__get_hourERiRS4_S4_RjRKNS_5ctypeIwEE
_ZN2nn2fs27DisableAutoSaveDataCreationEv
_ZN2nn2sf4cmif6client6detail13CmifProxyImplINS_3hid10IHidServerENS0_4hipc6client18Hipc2ProxyKindBaseILNS7_6detail11MessageTypeE6EEENS0_30MemoryResourceAllocationPolicyES6_NS3_19ProcessModifierImplINS2_21DefaultProxyFilterTagEEEE22_nn_sf_sync_GetXpadIdsENS0_3OutIlvEERKNS0_8OutArrayINS5_11BasicXpadIdEEE
_ZN2nn2sf4cmif6client6detail13CmifProxyImplINS_3hid15IHidDebugServerENS0_4hipc6client18Hipc2ProxyKindBaseILNS7_6detail11MessageTypeE6EEENS0_30MemoryResourceAllocationPolicyES6_NS3_19ProcessModifierImplINS2_21DefaultProxyFilterTagEEEE33_nn_sf_sync_RequestBatteryVoltageENS5_6system11UniquePadIdE
_ZTSN2nn8irsensor21IIrSensorSystemServerE
nnmem_nlib_unlink
_ZN7android8String16D1Ev
_ZN2nn2sf4cmif6client6detail13CmifProxyImplINS_4bcat6detail3ipc12IBcatServiceENS2_19CmifDomainProxyKindINS0_4hipc6client38Hipc2ClientSessionManagedProxyKindBaseINSB_18Hipc2ProxyKindBaseILNSA_6detail11MessageTypeE6EEEEEEENS0_30MemoryResourceAllocationPolicyES8_NS3_19ProcessModifierImplINS2_21DefaultProxyFilterTagEEEE49_nn_sf_sync_GetDeliveryCacheStorageUpdateNotifierENS0_3OutINS0_13SharedPointerINS7_16INotifierServiceEEEvEENS_13ApplicationIdE
_ZN2nn2ec31FinalizeForShopServiceAccessorsEv
_ZTIN2nn5fssrv2sf16IProgramRegistryE
_ZN2nn3mii6detail11CoreDataRaw15SetEyebrowScaleEi
_ZTVNSt3__113basic_istreamIcNS_11char_traitsIcEEEE
_ZTSNSt3__115__codecvt_utf16IDiLb1EEE
imaxdiv
silk_Transition_LP_B_Q28
_ZN2nn2sf4cmif6client6detail13CmifProxyImplINS_7friends6detail3ipc14IFriendServiceENS2_19CmifDomainProxyKindINS0_4hipc6client38Hipc2ClientSessionManagedProxyKindBaseINSB_18Hipc2ProxyKindBaseILNSA_6detail11MessageTypeE6EEEEEEENS0_30MemoryResourceAllocationPolicyES8_NS3_19ProcessModifierImplINS2_21DefaultProxyFilterTagEEEE24_nn_sf_sync_ClearPlayLogERKNS_7account3UidE
nnosClearEvent
_ZN2nn4pctl6detail3ipc14GetServiceImplEv
_ZN2nn2sf4cmif6client6detail13CmifProxyImplINS_3hid15IHidDebugServerENS0_4hipc6client18Hipc2ProxyKindBaseILNS7_6detail11MessageTypeE6EEENS0_30MemoryResourceAllocationPolicyES6_NS3_19ProcessModifierImplINS2_21DefaultProxyFilterTagEEEE26_nn_sf_sync_DeactivateXpadENS5_11BasicXpadIdE
_ZN2nn3hid6system28GetPlusMinusButtonCapabilityEPbS2_RKj
_ZN2nn3mii6detail16Ver3StoreDataRaw11SetPadding9Ei
_ZN2nn2sf4cmif6client6detail13CmifProxyImplINS_7friends6detail3ipc14IFriendServiceENS2_19CmifDomainProxyKindINS0_4hipc6client38Hipc2ClientSessionManagedProxyKindBaseINSB_18Hipc2ProxyKindBaseILNSA_6detail11MessageTypeE6EEEEEEENS0_30MemoryResourceAllocationPolicyES8_NS3_19ProcessModifierImplINS2_21DefaultProxyFilterTagEEEE29_nn_sf_sync_ReadFriendRequestERKNS_7account3UidENS5_9RequestIdE
_ZNK2nn5album24MovieMakerMovieParameter17GetVideoFrameRateEv
_ZTIN2nn2sf6detail38ObjectImplFactoryWithStatefulAllocatorINS0_4cmif6client6detail9CmifProxyINS_2am7service22ILibraryAppletAccessorENS4_19CmifDomainProxyKindINS0_4hipc6client38Hipc2ClientSessionManagedProxyKindBaseINSC_18Hipc2ProxyKindBaseILNSB_6detail11MessageTypeE6EEEEEEENS0_30MemoryResourceAllocationPolicyENS5_19ProcessModifierImplINS4_21DefaultProxyFilterTagEEEvEESK_E6ObjectE
_ZN2nn5audio12RemoveReverbEPNS0_19AudioRendererConfigEPNS0_10ReverbTypeEPNS0_10SubMixTypeE
nnmem_nlib_fd_close
_ZN2nn3mii13ImageDatabase6ReloadEv
_ZN2nn2sf4cmif6client6detail13CmifProxyImplINS_3hid10IHidServerENS0_4hipc6client18Hipc2ProxyKindBaseILNS7_6detail11MessageTypeE6EEENS0_30MemoryResourceAllocationPolicyES6_NS3_19ProcessModifierImplINS2_21DefaultProxyFilterTagEEEE36_nn_sf_sync_IsVibrationDeviceMountedENS0_3OutIbvEENS_6applet20AppletResourceUserIdENS5_21VibrationDeviceHandleE
_ZN2nn2sf4hipc6server2v16detail29HipcAllInOneServerManagerBase14InitializePortEiiPKc
_ZNKSt3__16locale9use_facetERNS0_2idE
_ZN2nn5album27EncodeMovieMakerAudioSampleEPKvm
_ZN2nn2sf4cmif6client6detail13CmifProxyImplINS_2am7service22IGlobalStateControllerENS2_19CmifDomainProxyKindINS0_4hipc6client38Hipc2ClientSessionManagedProxyKindBaseINSA_18Hipc2ProxyKindBaseILNS9_6detail11MessageTypeE6EEEEEEENS0_30MemoryResourceAllocationPolicyES7_NS3_19ProcessModifierImplINS2_21DefaultProxyFilterTagEEEE42_nn_sf_sync_LoadAndApplyIdlePolicySettingsEv
_ZN2nn5codec33FDK_sbrDecoder_sbr_frame_info2_16E
_ZN2nn2fs18GetSaveDataOwnerIdEPmm
_ZN2nn4util10BitFlagSetILi256ENS_3hid11KeyboardKeyEE4FlagILi21EE4MaskE
_ZN2nn6socket10SetSockOptEiiiPKvj
_ZTIN2nn2sf6detail38ObjectImplFactoryWithStatefulAllocatorINS0_4cmif6client6detail9CmifProxyINS_2am7service19IApplicationCreatorENS4_19CmifDomainProxyKindINS0_4hipc6client38Hipc2ClientSessionManagedProxyKindBaseINSC_18Hipc2ProxyKindBaseILNSB_6detail11MessageTypeE6EEEEEEENS0_30MemoryResourceAllocationPolicyENS5_19ProcessModifierImplINS4_21DefaultProxyFilterTagEEEvEESK_E6ObjectE
_ZN2nn2fs27GetFileTimeStampRawForDebugEPNS0_16FileTimeStampRawEPKc
_ZN2nn5image10PngDecoderC1Ev
_ZN2nn8settings6detail30GetExternalSteadyClockSourceIdEPNS_4util4UuidE
_ZN2nn5codec26transportDec_EndAccessUnitEPNS0_12TRANSPORTDECE
_ZN2nn2fs3dbm30BufferedAllocationTableStorage18InitializeBufferedEPNS1_15AllocationTableEjjNS0_10SubStorageEPNS0_14IBufferManagerE
_ZN2nn2fs6detail22LruFileDataCacheSystem5PurgeEPNS0_8IStorageE
_ZN2nn3hid6detail25GetGyroscopeZeroDriftModeEPNS0_22GyroscopeZeroDriftModeENS0_19SixAxisSensorHandleE
_ZTIN2nn2sf6detail38ObjectImplFactoryWithStatefulAllocatorINS0_4cmif6client6detail9CmifProxyINS_8settings21ISystemSettingsServerENS0_4hipc6client18Hipc2ProxyKindBaseILNS9_6detail11MessageTypeE6EEENS0_30MemoryResourceAllocationPolicyENS5_19ProcessModifierImplINS4_21DefaultProxyFilterTagEEEvEESF_E6ObjectE
_ZN2nn6socket6detail4OpenEPKcNS0_8OpenFlagE
_ZN2nn7account8NotifierC1EPNS0_6detail9INotifierE
_ZTIN2nn2sf4cmif6client6detail9CmifProxyINS_7account4baas28IFloatingRegistrationRequestENS2_19CmifDomainProxyKindINS0_4hipc6client38Hipc2ClientSessionManagedProxyKindBaseINSA_18Hipc2ProxyKindBaseILNS9_6detail11MessageTypeE6EEEEEEENS0_25StatelessAllocationPolicyINS0_22ExpHeapStaticAllocatorILm2048ENS5_6detail12ObjectHolder24ObjectHolderAllocatorTagEEEEENS3_19ProcessModifierImplINS2_21DefaultProxyFilterTagEEEvEE
_ZN2nn8irsensor6detail13StatusManager22GetIrSensorAruidStatusEPNS_4util10BitFlagSetILi32ENS1_16AppletStatusFlagEEERKNS_6applet20AppletResourceUserIdE
_ZN2nn3mem17StandardAllocator10InitializeEPvmb
_ZTIN2nn3nfc6detail14ISystemManagerE
nnosWaitConditionVariable
_ZNK2nn3mii21ParamCharInfoAccessor12GetGlassTypeEv
_ZN2nn4time13ClockSnapshotC1Ev
nndetailImagePng_png_write_hIST
_ZN2nn4npns11CreateTokenEPNS0_17NotificationTokenERKNS_7account3UidENS_13ApplicationIdE
_ZN2nn2sf4cmif6client6detail13CmifProxyImplINS_3ssl2sf11ISslContextENS2_19CmifDomainProxyKindINS0_4hipc6client38Hipc2ClientSessionManagedProxyKindBaseINSA_18Hipc2ProxyKindBaseILNS9_6detail11MessageTypeE6EEEEEEENS0_24StatefulAllocationPolicyINS0_16ExpHeapAllocatorEEES7_NS3_19ProcessModifierImplINS2_21DefaultProxyFilterTagEEEE28_nn_sf_sync_CreateConnectionENS0_3OutINS0_13SharedPointerINS6_14ISslConnectionEEEvEE
_ZN2nn2vi13ObjectManager25GetValidDisplayHolderListEv
_ZN2nn6fontll6detail24PickKerningFromGposTableEPNS0_15OtfKerningTableEPKvb
tdelete
_ZN2nn5audio20GetSplitterMixVolumeEPKNS0_12SplitterTypeEiPKNS0_10SubMixTypeEii
_ZN2nn2fs20DeleteSystemSaveDataEmRKNS_7account3UidE
_ZN2nn7nlibsdk4heap14TlsHeapCentral12CalcHeapHashEP8HeapHash
_ZThn32_N2nn2sf4cmif6client6detail13CmifProxyImplINS_7account7profile8IProfileENS2_19CmifDomainProxyKindINS0_4hipc6client38Hipc2ClientSessionManagedProxyKindBaseINSA_18Hipc2ProxyKindBaseILNS9_6detail11MessageTypeE6EEEEEEENS0_25StatelessAllocationPolicyINS0_22ExpHeapStaticAllocatorILm2048ENS5_6detail12ObjectHolder24ObjectHolderAllocatorTagEEEEENS6_14IProfileEditorENS3_19ProcessModifierImplINS2_21DefaultProxyFilterTagEEEE17GetCmifBaseObjectEv
_ZN2nn2fs20DeleteSystemSaveDataENS0_15SaveDataSpaceIdEmRKNS0_6UserIdE
nndetailImagePng_png_set_strip_alpha
_ZN2nn3ngc61RequestProfanityWordDatabaseUpdateCheckForPlatformRegionChinaEv
_ZN7android19GraphicBufferMapper14lockAsyncYCbCrEPK13native_handleiRKNS_4RectEP13android_ycbcri
_ZNSt11logic_errorD0Ev
_ZN2nn5audio10EffectInfoC1Ev
_ZN2nn2sf4hipc6client24Hipc2ClientCoreProcessorILNS1_6detail11MessageTypeE6ENS0_4cmif6detail14CoreMethodInfoINSt3__15tupleIJNS7_17InRawArgumentInfoILm4ELm4ELl4EEENSB_ILm24ELm4ELl8EEENSB_ILm1ELm1ELl0EEENSB_ILm24ELm4ELl32EEENSB_ILm24ELm4ELl56EEENSB_ILm1ELm1ELl1EEEEEELm80ELm0ELb0EEESI_E7ProcessEPNS2_26Hipc2ClientProxyBaseObjectENS6_6client23InRawClientArgumentTypeILm4ELm4EvEENSO_ILm24ELm4EvEENSO_ILm1ELm1EvEESQ_SQ_SR_j
_ZN2nn5image6detail4jpeg13jpeg_idct_6x3EPNS2_22jpeg_decompress_structEPNS2_19jpeg_component_infoEPsPPhi
_ZTIN7android12ConsumerBaseE
strsep
_ZN2nn5audio6common20GetSplitterInfoMagicEv
_ZN2nn5audio6common19WorkBufferAllocatorC2EPvm
_ZZN2nn2sf40SimpleAllInOneHipcSubDomainClientManagerILm16EE27InitializeShimLibraryHolderINS_4nifm6detail14IStaticServiceENS0_4cmif6client6detail19ProcessModifierImplINS8_21DefaultProxyFilterTagEEEEENS_6ResultEPNS0_23ShimLibraryObjectHolderIT_EEPKcPNS_14MemoryResourceEENUlPvE_8__invokeESM_
nnsocketInetHtonll
_ZN2nn2fs6detail18FileSystemAccessor15DeleteDirectoryEPKc
_ZN2nn3hid6system26GetXcdHandleForNpadWithNfcEPNS_3xcd12DeviceHandleEj
_ZN2nn2sf4cmif6client6detail13CmifProxyImplINS_5visrv2sf22IManagerDisplayServiceENS0_4hipc6client18Hipc2ProxyKindBaseILNS8_6detail11MessageTypeE6EEENS0_30MemoryResourceAllocationPolicyES7_NS3_19ProcessModifierImplINS2_21DefaultProxyFilterTagEEEE45_nn_sf_sync_SetDetachedSharedFrameBufferImageENS_2vi7fbshare18SharedBufferHandleElRKNS0_8InBufferERKNSK_19SharedTextureOptionEj
_ZNSt3__15stoldERKNS_12basic_stringIcNS_11char_traitsIcEENS_9allocatorIcEEEEPm
_ZN2nn2sf4cmif6client6detail13CmifProxyImplINS_2am7service21IApplicationFunctionsENS2_19CmifDomainProxyKindINS0_4hipc6client38Hipc2ClientSessionManagedProxyKindBaseINSA_18Hipc2ProxyKindBaseILNS9_6detail11MessageTypeE6EEEEEEENS0_30MemoryResourceAllocationPolicyES7_NS3_19ProcessModifierImplINS2_21DefaultProxyFilterTagEEEE30_nn_sf_sync_SetTerminateResultEj
_ZN2nn2sf4cmif6client6detail13CmifProxyImplINS_2am7service21IApplicationFunctionsENS2_19CmifDomainProxyKindINS0_4hipc6client38Hipc2ClientSessionManagedProxyKindBaseINSA_18Hipc2ProxyKindBaseILNS9_6detail11MessageTypeE6EEEEEEENS0_30MemoryResourceAllocationPolicyES7_NS3_19ProcessModifierImplINS2_21DefaultProxyFilterTagEEEE67_nn_sf_sync_CreateApplicationWithAttributeAndRequestToStartForQuestENS_3ncm13ApplicationIdERKNS5_20ApplicationAttributeE
_ZN2nn2sf4cmif6client6detail13CmifProxyImplINS_2am7service30IAllSystemAppletProxiesServiceENS2_19CmifDomainProxyKindINS0_4hipc6client38Hipc2ClientSessionManagedProxyKindBaseINSA_18Hipc2ProxyKindBaseILNS9_6detail11MessageTypeE6EEEEEEENS0_30MemoryResourceAllocationPolicyES7_NS3_19ProcessModifierImplINS2_21DefaultProxyFilterTagEEEE37_nn_sf_sync_OpenLibraryAppletProxyOldENS0_3OutINS0_13SharedPointerINS6_19ILibraryAppletProxyEEEvEEmONS0_12NativeHandleE
_ZN2nn2sf4cmif6client34CmifDomainProxyClientCoreProcessorINS0_4hipc6client38Hipc2ClientSessionManagedProxyKindBaseINS5_18Hipc2ProxyKindBaseILNS4_6detail11MessageTypeE6EEEEENS1_6detail14CoreMethodInfoINSt3__15tupleIJNSC_18OutRawArgumentInfoILm4ELm4ELl0EEENSC_21OutObjectArgumentInfoILi0ELi0EEEEEELm0ELm4ELb0EEESK_E21ProcessWithOutObjectsEPNS2_23CmifDomainClientMessageISB_E15ProxyBaseObjectENS2_24OutRawClientArgumentTypeILm4ELm4EEENS2_27OutObjectClientArgumentTypeEjPNS0_13SharedPointerINS0_14IServiceObjectEEE
_ZN2nn3mii6detail16Ver3StoreDataRaw12SetMouthTypeEi
_ZNK2nn3mii6detail16Ver3StoreDataRaw12GetMouthTypeEv
nvdcQueryNumHeads
_ZNSt3__112__get_sp_mutEPKv
conj
_ZTIN2nn2sf4cmif6client6detail13CmifProxyImplINS_7account24IBaasAccessTokenAccessorENS2_19CmifDomainProxyKindINS0_4hipc6client38Hipc2ClientSessionManagedProxyKindBaseINS9_18Hipc2ProxyKindBaseILNS8_6detail11MessageTypeE6EEEEEEENS0_30MemoryResourceAllocationPolicyES6_NS3_19ProcessModifierImplINS2_21DefaultProxyFilterTagEEEEE
_ZTSN2nn3hid13VibrationNodeE
duplocale
_ZN2nn5audio19GetReverbColorationEPKNS0_10ReverbTypeE
_ZN2nn5codec12LdDataVectorEPiS1_i
_ZN2nn3hid6detail41EnableUnintendedHomeButtonInputProtectionERKjb
_ZN2nn3mii6detail16Ver3StoreDataRaw11SetPadding3Ei
_ZN2nn3mii18GetAppendMiiResultEPiNS_6applet13StorageHandleE
_ZN2nn3ngc6detail11InputStream11CheckBufferEv
_ZN2nn2sf4cmif6client34CmifDomainProxyClientCoreProcessorINS0_4hipc6client38Hipc2ClientSessionManagedProxyKindBaseINS5_18Hipc2ProxyKindBaseILNS4_6detail11MessageTypeE6EEEEENS1_6detail14CoreMethodInfoINSt3__15tupleIJNSC_18OutRawArgumentInfoILm4ELm4ELl0EEENSG_ILm4ELm4ELl4EEENSC_17InRawArgumentInfoILm4ELm4ELl0EEENSC_18BufferArgumentInfoILi0ELi6ELm0EEENSJ_ILm4ELm4ELl4EEENSJ_ILm4ELm4ELl8EEEEEELm12ELm8ELb0EEESP_E7ProcessEPNS2_23CmifDomainClientMessageISB_E15ProxyBaseObjectENS2_24OutRawClientArgumentTypeILm4ELm4EEESX_NS2_23InRawClientArgumentTypeILm4ELm4EvEENS2_24BufferClientArgumentTypeESZ_SZ_j
_ZN2nn2sf4cmif6client6detail13CmifProxyImplINS_7timesrv6detail7service16ITimeZoneServiceENS2_19CmifDomainProxyKindINS0_4hipc6client38Hipc2ClientSessionManagedProxyKindBaseINSB_18Hipc2ProxyKindBaseILNSA_6detail11MessageTypeE6EEEEEEENS0_30MemoryResourceAllocationPolicyES8_NS3_19ProcessModifierImplINS2_21DefaultProxyFilterTagEEEE23_nn_sf_sync_ToPosixTimeENS0_3OutIivEERKNS0_8OutArrayINS_4time9PosixTimeEEENSR_12CalendarTimeERKNSR_12TimeZoneRuleE
_ZNKSt3__120__time_get_c_storageIcE7__am_pmEv
_ZNSt3__118__time_get_storageIwEC2ERKNS_12basic_stringIcNS_11char_traitsIcEENS_9allocatorIcEEEE
_ZTIN2nn2sf4cmif6client6detail9CmifProxyINS_7account4http15IOAuthProcedureENS2_19CmifDomainProxyKindINS0_4hipc6client38Hipc2ClientSessionManagedProxyKindBaseINSA_18Hipc2ProxyKindBaseILNS9_6detail11MessageTypeE6EEEEEEENS0_25StatelessAllocationPolicyINS0_22ExpHeapStaticAllocatorILm2048ENS5_6detail12ObjectHolder24ObjectHolderAllocatorTagEEEEENS3_19ProcessModifierImplINS2_21DefaultProxyFilterTagEEEvEE
_ZN2nn2sf4cmif6client6detail13CmifProxyImplINS_2am7service22IGlobalStateControllerENS2_19CmifDomainProxyKindINS0_4hipc6client38Hipc2ClientSessionManagedProxyKindBaseINSA_18Hipc2ProxyKindBaseILNS9_6detail11MessageTypeE6EEEEEEENS0_30MemoryResourceAllocationPolicyES7_NS3_19ProcessModifierImplINS2_21DefaultProxyFilterTagEEEE33_nn_sf_sync_StartShutdownSequenceEv
_ZN2nn5audio38AcquireAudioDeviceNotificationForInputEPNS_2os11SystemEventE
nnosGetReadableHandleOfSystemEvent
_ZN2nn6socket6detail11GetPeerNameEiPNS0_8SockAddrEPj
_ZNK7android22GraphicBufferAllocator4dumpERNS_7String8E
_ZTVSt13runtime_error
_ZTSN2nn2sf6detail39ObjectImplFactoryWithStatelessAllocatorINS0_4cmif6client6detail9CmifProxyINS_7account4http15IOAuthProcedureENS4_19CmifDomainProxyKindINS0_4hipc6client38Hipc2ClientSessionManagedProxyKindBaseINSC_18Hipc2ProxyKindBaseILNSB_6detail11MessageTypeE6EEEEEEENS0_25StatelessAllocationPolicyINS0_22ExpHeapStaticAllocatorILm2048ENS7_6detail12ObjectHolder24ObjectHolderAllocatorTagEEEEENS5_19ProcessModifierImplINS4_21DefaultProxyFilterTagEEEvEESQ_E6ObjectE
_ZN2nn2sf4hipc6client24Hipc2ClientCoreProcessorILNS1_6detail11MessageTypeE6ENS0_4cmif6detail14CoreMethodInfoINSt3__15tupleIJNS7_17InRawArgumentInfoILm8ELm8ELl0EEENS7_21OutObjectArgumentInfoILi0ELi0EEENS7_18BufferArgumentInfoILi0ELi5ELm0EEENSB_ILm8ELm4ELl8EEENS7_20InHandleArgumentInfoILi0ELi1EEENS7_18OutRawArgumentInfoILm16ELm4ELl0EEENSF_ILi1ELi6ELm0EEENSB_ILm8ELm8ELl16EEEEEELm24ELm16ELb1EEESO_E21ProcessWithOutObjectsEPNS2_26Hipc2ClientProxyBaseObjectENS6_6client23InRawClientArgumentTypeILm8ELm8EvEENST_27OutObjectClientArgumentTypeENST_24BufferClientArgumentTypeENSU_ILm8ELm4EvEENST_26InHandleClientArgumentTypeENST_24OutRawClientArgumentTypeILm16ELm4EEESX_SV_jPNS0_13SharedPointerINS0_14IServiceObjectEEE
_ZN2nn3ngc6detail11InputStreamD0Ev
_ZN2nn2sf4cmif6client6detail13CmifProxyImplINS_8settings21ISystemSettingsServerENS0_4hipc6client18Hipc2ProxyKindBaseILNS7_6detail11MessageTypeE6EEENS0_30MemoryResourceAllocationPolicyES6_NS3_19ProcessModifierImplINS2_21DefaultProxyFilterTagEEEE46_nn_sf_sync_SetServiceDiscoveryControlSettingsENS5_6system31ServiceDiscoveryControlSettingsE
_ZNK2nn3mii6detail12StoreDataRaw7GetTypeEv
_ZN2nn4edid24GetDisplayModePreferenceEPNS0_15DisplayModeInfoEPNS0_17DisplayTimingInfoEPNS0_13ImageSizeInfoEPKNS0_4EdidE
_ZN2nn2os24GetThreadCurrentPriorityEPKNS0_10ThreadTypeE
_ZN7android12ConsumerBase16freeBufferLockedEi
strtold
_ZTINSt3__114error_categoryE
_ZTIN2nn2sf6detail38ObjectImplFactoryWithStatefulAllocatorINS0_4cmif6client6detail9CmifProxyINS_2ec21IPurchaseEventManagerENS0_4hipc6client18Hipc2ProxyKindBaseILNS9_6detail11MessageTypeE6EEENS0_30MemoryResourceAllocationPolicyENS5_19ProcessModifierImplINS4_21DefaultProxyFilterTagEEEvEESF_E6ObjectE
_ZNK2nn5audio6server12VoiceContext8GetStateEi
_ZTSN2nn2sf6detail38ObjectImplFactoryWithStatefulAllocatorINS0_4cmif6client6detail9CmifProxyINS_4bcat6detail3ipc25IDeliveryCacheFileServiceENS4_19CmifDomainProxyKindINS0_4hipc6client38Hipc2ClientSessionManagedProxyKindBaseINSD_18Hipc2ProxyKindBaseILNSC_6detail11MessageTypeE6EEEEEEENS0_30MemoryResourceAllocationPolicyENS5_19ProcessModifierImplINS4_21DefaultProxyFilterTagEEEvEESL_E6ObjectE
_ZN2nn2sf4hipc6client24Hipc2ClientCoreProcessorILNS1_6detail11MessageTypeE6ENS0_4cmif6detail14CoreMethodInfoINSt3__15tupleIJNS7_17InRawArgumentInfoILm6ELm1ELl0EEENSB_ILm2ELm2ELl6EEENSB_ILm2ELm2ELl8EEEEEELm10ELm0ELb0EEESF_E7ProcessEPNS2_26Hipc2ClientProxyBaseObjectENS6_6client23InRawClientArgumentTypeILm6ELm1EvEENSL_ILm2ELm2EvEESN_j
_ZN2nn4util10BitFlagSetILi256ENS_3hid11KeyboardKeyEE4FlagILi65EE4MaskE
_ZN2nn2sf4cmif6client6detail13CmifProxyImplINS_6jitsrv15IJitEnvironmentENS0_4hipc6client18Hipc2ProxyKindBaseILNS7_6detail11MessageTypeE6EEENS0_30MemoryResourceAllocationPolicyES6_NS3_19ProcessModifierImplINS2_21DefaultProxyFilterTagEEEE24_nn_sf_sync_GenerateCodeENS0_3OutIivEENSI_INS_3jit9CodeRangeEvEESM_RKNS0_8InBufferEmRKSL_SR_RKNS5_8Struct32EjRKNS0_9OutBufferE
_ZTSN2nn2sf4cmif6client6detail9CmifProxyINS_5visrv2sf19IManagerRootServiceENS0_4hipc6client18Hipc2ProxyKindBaseILNS8_6detail11MessageTypeE6EEENS0_30MemoryResourceAllocationPolicyENS3_19ProcessModifierImplINS2_21DefaultProxyFilterTagEEEvEE
_ZNSt3__119__shared_weak_count12__add_sharedEv
_ZN2nn9bluetooth11GattServiceC1Ev
_ZN2nn2fs3dbm22AllocationTableStorage7SetSizeEl
_ZN2nn2fs3dbm29HierarchicalFileTableTemplateINS1_13DirectoryNameENS1_8FileNameENS1_6detail13DirectoryInfoENS5_8FileInfoEE10DeleteFileEPKc
_ZN2nn4nifm6detail39ConvertNetworkInterfaceInfoToSfFromNifmEPNS1_2sf20NetworkInterfaceInfoERKNS0_20NetworkInterfaceInfoE
nnosSetTlsValue
_ZN2nn2sf4cmif6client6detail13CmifProxyImplINS_8settings22IFactorySettingsServerENS0_4hipc6client18Hipc2ProxyKindBaseILNS7_6detail11MessageTypeE6EEENS0_30MemoryResourceAllocationPolicyES6_NS3_19ProcessModifierImplINS2_21DefaultProxyFilterTagEEEE26_nn_sf_sync_GetGameCardKeyENS0_3OutINS5_7factory11GameCardKeyEvEE
_ZN7android12NativeHandle6createEP13native_handleb
_Unwind_Resume_or_Rethrow
_ZN2nn4bcat37RegisterSystemApplicationDeliveryTaskENS_13ApplicationIdE
nnmem_nlib_munlock
_ZN2nn3mii6detail12StoreDataRaw8SetMoleXEi
_ZN2nn5srepo6detail15ReportGenerator11AddKeyValueEPmPKcRKNS0_5ArrayEPhmmm
_ZNSt3__18numpunctIcE2idE
_ZN2nn5codec11ApplyPsSlotEPNS0_6PS_DECEPPiS4_S3_S3_
_ZN2nn3hid6system6detail30IsAnalogStickInReleasePositionEPbNS1_11UniquePadIdENS1_19AnalogStickPositionE
_ZN2nn2sf4cmif6client6detail13CmifProxyImplINS_3hid10IHidServerENS0_4hipc6client18Hipc2ProxyKindBaseILNS7_6detail11MessageTypeE6EEENS0_30MemoryResourceAllocationPolicyES6_NS3_19ProcessModifierImplINS2_21DefaultProxyFilterTagEEEE35_nn_sf_sync_MergeSingleJoyAsDualJoyENS_6applet20AppletResourceUserIdEjj
_ZN7android8Composer11setPositionERKNS_2spINS_21SurfaceComposerClientEEERKNS1_INS_7IBinderEEEff
_ZTSNSt3__115messages_bynameIcEE
_ZN2nn5audio24GetI3dl2ReverbParametersEPKNS0_15I3dl2ReverbTypeE
_ZN2nn3hid15VibrationWriterD0Ev
_ZN2nn2vi6native8ParcelIo10OpenParcelEPN7android6ParcelEPKvm
_ZN2nn2sf4hipc6client24Hipc2ClientCoreProcessorILNS1_6detail11MessageTypeE6ENS0_4cmif6detail14CoreMethodInfoINSt3__15tupleIJNS7_17InRawArgumentInfoILm8ELm8ELl0EEENS7_18BufferArgumentInfoILi0ELi9ELm0EEENSD_ILi1ELi9ELm0EEEEEELm8ELm0ELb0EEESG_E7ProcessEPNS2_26Hipc2ClientProxyBaseObjectENS6_6client23InRawClientArgumentTypeILm8ELm8EvEENSL_24BufferClientArgumentTypeESO_j
_ZN2nn2oe22GetNotificationMessageEv
nvdcGetMode
_ZN2nn2sf4cmif6client6detail13CmifProxyImplINS_2am7service18IAppletProxyCommonENS2_19CmifDomainProxyKindINS0_4hipc6client38Hipc2ClientSessionManagedProxyKindBaseINSA_18Hipc2ProxyKindBaseILNS9_6detail11MessageTypeE6EEEEEEENS0_30MemoryResourceAllocationPolicyENS6_18ISystemAppletProxyENS3_19ProcessModifierImplINS2_21DefaultProxyFilterTagEEEE32_nn_sf_sync_GetDisplayControllerENS0_3OutINS0_13SharedPointerINS6_18IDisplayControllerEEEvEE
_ZN2nn2os18FinalizeLightEventEPNS0_14LightEventTypeE
_ZTv0_n24_NSt3__113basic_ostreamIcNS_11char_traitsIcEEED1Ev
_ZNKSt3__110__time_put8__do_putEPwRS1_PK2tmcc
_ZN2nn2fs20ResolveAccessFailureEm
nndetailImagePng_png_set_crc_action
strtoll
_ZN2nn2sf4cmif6client34CmifDomainProxyClientCoreProcessorINS0_4hipc6client38Hipc2ClientSessionManagedProxyKindBaseINS5_18Hipc2ProxyKindBaseILNS4_6detail11MessageTypeE6EEEEENS1_6detail14CoreMethodInfoINSt3__15tupleIJNSC_17InRawArgumentInfoILm16ELm8ELl0EEENSC_18BufferArgumentInfoILi0ELi5ELm0EEEEEELm16ELm0ELb0EEESK_E7ProcessEPNS2_23CmifDomainClientMessageISB_E15ProxyBaseObjectENS2_23InRawClientArgumentTypeILm16ELm8EvEENS2_24BufferClientArgumentTypeEj
_ZN2nn3mii13ImageDatabase11MaxFileSizeE
_ZN2nn2vi6detail22ServiceReferenceHolder23ResetApplicationServiceEv
_ZN2nn2sf4cmif6client6detail13CmifProxyImplINS_8settings21ISystemSettingsServerENS0_4hipc6client18Hipc2ProxyKindBaseILNS7_6detail11MessageTypeE6EEENS0_30MemoryResourceAllocationPolicyES6_NS3_19ProcessModifierImplINS2_21DefaultProxyFilterTagEEEE44_nn_sf_sync_AcquireFatalDirtyFlagEventHandleENS0_3OutINS0_12NativeHandleEvEE
NvRmGpuChannelGetInfo
_ZN2nn5image6detail4jpeg10jpeg_abortEPNS2_18jpeg_common_structE
_ZN2nn2sf4hipc6client24Hipc2ClientCoreProcessorILNS1_6detail11MessageTypeE6ENS0_4cmif6detail14CoreMethodInfoINSt3__15tupleIJNS7_17InRawArgumentInfoILm8ELm8ELl0EEENSB_ILm8ELm8ELl8EEENSB_ILm8ELm8ELl16EEEEEELm24ELm0ELb1EEESF_E7ProcessEPNS2_26Hipc2ClientProxyBaseObjectENS6_6client23InRawClientArgumentTypeILm8ELm8EvEESM_SM_j
_ZTSNSt3__112system_errorE
_ZN2nn5codec11DeletePsDecEPPNS0_6PS_DECE
_ZN2nn8irsensor6detail20InternalErrorHandlerD1Ev
_ZN2nn2sf4cmif6client34CmifDomainProxyClientCoreProcessorINS0_4hipc6client38Hipc2ClientSessionManagedProxyKindBaseINS5_18Hipc2ProxyKindBaseILNS4_6detail11MessageTypeE6EEEEENS1_6detail14CoreMethodInfoINSt3__15tupleIJNSC_18OutRawArgumentInfoILm16ELm1ELl0EEENSC_18BufferArgumentInfoILi0ELi25ELm380EEEEEELm0ELm16ELb0EEESK_E7ProcessEPNS2_23CmifDomainClientMessageISB_E15ProxyBaseObjectENS2_24OutRawClientArgumentTypeILm16ELm1EEENS2_24BufferClientArgumentTypeEj
_ZNSt3__111__libcpp_db4swapEPvS1_
_ZTINSt3__19time_baseE
_ZNK2nn5audio6server12BehaviorInfo25IsWaveBufferVer2SupportedEv
_ZN2nn4edid6detail13GetColorDepthEh
_ZN2nn2sf4cmif6client6detail13CmifProxyImplINS_7friends6detail3ipc14IFriendServiceENS2_19CmifDomainProxyKindINS0_4hipc6client38Hipc2ClientSessionManagedProxyKindBaseINSB_18Hipc2ProxyKindBaseILNSA_6detail11MessageTypeE6EEEEEEENS0_30MemoryResourceAllocationPolicyES8_NS3_19ProcessModifierImplINS2_21DefaultProxyFilterTagEEEE43_nn_sf_sync_IsBlockedUserListCacheAvailableENS0_3OutIbvEERKNS_7account3UidE
nnosTryAcquireSemaphore
_ZTIN2nn2sf4cmif6client6detail13CmifProxyImplINS_2am7service18ISystemAppletProxyENS2_19CmifDomainProxyKindINS0_4hipc6client38Hipc2ClientSessionManagedProxyKindBaseINSA_18Hipc2ProxyKindBaseILNS9_6detail11MessageTypeE6EEEEEEENS0_30MemoryResourceAllocationPolicyES7_NS3_19ProcessModifierImplINS2_21DefaultProxyFilterTagEEEEE
_ZN2nn2sf4cmif6client6detail13CmifProxyImplINS_2lm10ILogGetterENS2_19CmifDomainProxyKindINS0_4hipc6client38Hipc2ClientSessionManagedProxyKindBaseINS9_18Hipc2ProxyKindBaseILNS8_6detail11MessageTypeE6EEEEEEENS0_30MemoryResourceAllocationPolicyES6_NS3_19ProcessModifierImplINS2_21DefaultProxyFilterTagEEEE23_nn_sf_sync_StopLoggingEv
_ZN7android11BufferQueue23createBufferQueueForAppEPNS_2spINS_22IGraphicBufferProducerEEEPNS1_INS_22IGraphicBufferConsumerEEERKNS1_INS_19IGraphicBufferAllocEEEi
_ZNSt3__113basic_istreamIwNS_11char_traitsIwEEEC1EPNS_15basic_streambufIwS2_EE
_ZN2nn5audio16LimiterParameter24SupportedChannelCountMaxE
_ZN2nn9bluetooth14GattDescriptorD0Ev
_ZN2nn6crypto6detail11CtrModeImplINS0_12AesEncryptorILm24EEEE16IncrementCounterEv
_ZN2nn3err14SystemErrorArg18DetachErrorContextEv
_ZN2nn2fs8PathTool9NormalizeEPcPmPKcmbb
_ZNK2nn3mii6detail16Ver3StoreDataRaw13GetFontRegionEv
_ZN2nn3ssl10Connection19GetServerCertDetailEPNS1_16ServerCertDetailEPKcj
_ZNK2nn2fs3dbm15AllocationTable20ConvertSectorToIndexEj
_ZN2nn3hid6system20BindNfcActivateEventEjPNS_2os15SystemEventTypeENS2_14EventClearModeE
_ZN2nn5image6detail4jpeg19jpeg_write_raw_dataEPNS2_20jpeg_compress_structEPPPhi
_ZN2nn2sf4hipc6client24Hipc2ClientCoreProcessorILNS1_6detail11MessageTypeE6ENS0_4cmif6detail14CoreMethodInfoINSt3__15tupleIJNS7_18OutRawArgumentInfoILm4ELm4ELl0EEENSB_ILm4ELm4ELl4EEENS7_17InRawArgumentInfoILm8ELm8ELl0EEEEEELm8ELm8ELb0EEESG_E7ProcessEPNS2_26Hipc2ClientProxyBaseObjectENS6_6client24OutRawClientArgumentTypeILm4ELm4EEESN_NSL_23InRawClientArgumentTypeILm8ELm8EvEEj
_ZNSt3__115__libcpp_tl_getEN2nn2os7TlsSlotE
_ZN2nn2sf4cmif6client6detail13CmifProxyImplINS_7account31IAccountServiceForAdministratorENS2_19CmifDomainProxyKindINS0_4hipc6client38Hipc2ClientSessionManagedProxyKindBaseINS9_18Hipc2ProxyKindBaseILNS8_6detail11MessageTypeE6EEEEEEENS0_25StatelessAllocationPolicyINS0_22ExpHeapStaticAllocatorILm2048ENS5_6detail12ObjectHolder24ObjectHolderAllocatorTagEEEEES6_NS3_19ProcessModifierImplINS2_21DefaultProxyFilterTagEEEE60_nn_sf_sync_ResumeProcedureToRegisterUserWithNintendoAccountENS0_3OutINS0_13SharedPointerINS5_3nas34IOAuthProcedureForUserRegistrationEEEvEERKNSJ_4UuidEONS0_12NativeHandleEj
_ZN2nn6crypto6detail11CtrModeImplINS0_12AesEncryptorILm24EEEE6UpdateEPvmPKvm
_ZN2nn2sf4cmif6client34CmifDomainProxyClientCoreProcessorINS0_4hipc6client38Hipc2ClientSessionManagedProxyKindBaseINS5_18Hipc2ProxyKindBaseILNS4_6detail11MessageTypeE6EEEEENS1_6detail14CoreMethodInfoINSt3__15tupleIJNSC_21OutObjectArgumentInfoILi0ELi0EEENSC_18BufferArgumentInfoILi0ELi25ELm769EEENSC_17InRawArgumentInfoILm8ELm8ELl8EEENSK_ILm4ELm4ELl0EEEEEELm16ELm0ELb0EEESN_E21ProcessWithOutObjectsEPNS2_23CmifDomainClientMessageISB_E15ProxyBaseObjectENS2_27OutObjectClientArgumentTypeENS2_24BufferClientArgumentTypeENS2_23InRawClientArgumentTypeILm8ELm8EvEENSW_ILm4ELm4EvEEjPNS0_13SharedPointerINS0_14IServiceObjectEEE
_ZNK2nn3mii6detail16Ver3StoreDataRaw7IsValidEv
_ZN2nn4edid6cea86120VisitDetailedTimingsEPKhmPFbPKNS0_15DisplayModeInfoEPKNS0_17DisplayTimingInfoEPKNS0_13ImageSizeInfoEPvESD_
_ZN2nn3hid14VibrationMixerD2Ev
_ZN2nn2sf33ScopedCurrentMemoryResourceSetterD2Ev
_ZN2nn2sf13InterfaceInfoINS0_4hipc6detail12IHipcManagerEE4_tABINS5_5_tO2NINS2_6server2v134HipcServerSessionManagerWithDomain15HipcManagerImplEE4typeES4_E4type30_nn_sf_sync_CloneCurrentObjectENS0_3OutINS0_12NativeHandleEvEE
__nnmusl_socket_sockatmark
_ZTSN2nn2sf4cmif6client6detail13CmifProxyImplINS_2am7service15IAppletAccessorENS2_19CmifDomainProxyKindINS0_4hipc6client38Hipc2ClientSessionManagedProxyKindBaseINSA_18Hipc2ProxyKindBaseILNS9_6detail11MessageTypeE6EEEEEEENS0_30MemoryResourceAllocationPolicyES7_NS3_19ProcessModifierImplINS2_21DefaultProxyFilterTagEEEEE
_ZN2nn2ec6detail23ShopServiceAccessServer5Proxy8FinalizeEv
_ZN4nerd7g_freqsE
nndetailImagePng_png_get_sCAL_fixed
_ZNK2nn3mii6detail12StoreDataRaw11GetMoleTypeEv
_ZN2nn2oe38BeginHandlingCaptureButtonShortPressedEv
_ZN2nn2sf4hipc6server28HipcServerSessionManagerBase14ProcessRequestEPNS2_21HipcServerSessionBaseEPvm
_ZN2nn2sf4cmif6client6detail13CmifProxyImplINS_2am7service26ILibraryAppletSelfAccessorENS2_19CmifDomainProxyKindINS0_4hipc6client38Hipc2ClientSessionManagedProxyKindBaseINSA_18Hipc2ProxyKindBaseILNS9_6detail11MessageTypeE6EEEEEEENS0_30MemoryResourceAllocationPolicyES7_NS3_19ProcessModifierImplINS2_21DefaultProxyFilterTagEEEE27_nn_sf_sync_PopExtraStorageENS0_3OutINS0_13SharedPointerINS6_8IStorageEEEvEE
_ZN2nn5audio14SetVoiceVolumeEPNS0_9VoiceTypeEf
_ZNK2nn5audio6common10EdgeMatrix9ConnectedEii
_ZTIN2nn2sf4cmif6client6detail13CmifProxyImplINS_7account31IAccountServiceForSystemServiceENS2_19CmifDomainProxyKindINS0_4hipc6client38Hipc2ClientSessionManagedProxyKindBaseINS9_18Hipc2ProxyKindBaseILNS8_6detail11MessageTypeE6EEEEEEENS0_25StatelessAllocationPolicyINS0_22ExpHeapStaticAllocatorILm2048ENS5_6detail12ObjectHolder24ObjectHolderAllocatorTagEEEEENS5_31IAccountServiceForAdministratorENS3_19ProcessModifierImplINS2_21DefaultProxyFilterTagEEEEE
_ZNK2nn3mii6detail16Ver3StoreDataRaw9GetGenderEv
_ZN2nn2os6detail29ReaderWriterLockImplByHorizon15AcquireReadLockEPNS0_20ReaderWriterLockTypeE
_ZN2nn2fs6detail24GetSaveDataAvailableSizeEPlNS0_15SaveDataSpaceIdEm
_ZNK2nn3mii21ParamCharInfoAccessor15GetFacelineTypeEv
getsockopt
silk_pitch_lag_iCDF
_ZN2nn6crypto6detail6BigNum7SetZeroEPji
_ZN2nn2sf4cmif6client34CmifDomainProxyClientCoreProcessorINS0_4hipc6client38Hipc2ClientSessionManagedProxyKindBaseINS5_18Hipc2ProxyKindBaseILNS4_6detail11MessageTypeE6EEEEENS1_6detail14CoreMethodInfoINSt3__15tupleIJNSC_21OutObjectArgumentInfoILi0ELi0EEENSC_18BufferArgumentInfoILi0ELi5ELm0EEENSI_ILi1ELi5ELm0EEENSC_17InRawArgumentInfoILm16ELm8ELl8EEENSL_ILm1ELm1ELl0EEEEEELm24ELm0ELb0EEESO_E21ProcessWithOutObjectsEPNS2_23CmifDomainClientMessageISB_E15ProxyBaseObjectENS2_27OutObjectClientArgumentTypeENS2_24BufferClientArgumentTypeESW_NS2_23InRawClientArgumentTypeILm16ELm8EvEENSX_ILm1ELm1EvEEjPNS0_13SharedPointerINS0_14IServiceObjectEEE
isblank
_ZN2nn5audio23OpenFinalOutputRecorderEPNS0_19FinalOutputRecorderEPNS_2os11SystemEventERKNS0_28FinalOutputRecorderParameterE
_ZN2nn5audio6server24AudioRenderSystemManager16InitializeUnsafeEv
_ZN2nn2fs3dbm15AllocationTable10InitializeENS0_10SubStorageEj
_ZN2nn3mii6detail21GetMouthColorFromVer3ENS1_14Ver3MouthColorE
_ZN2nn4time19ToCalendarTimeInUtcERKNS0_9PosixTimeE
_ZN7android6Parcel25writeParcelFileDescriptorEii
_ZN2nn2fs35GetAndClearFileSystemProxyErrorInfoEPNS0_24FileSystemProxyErrorInfoE
_ZTSN2nn2sf6detail38ObjectImplFactoryWithStatefulAllocatorINS0_4cmif6client6detail9CmifProxyINS_6hidbus19IHidbusSystemServerENS0_4hipc6client18Hipc2ProxyKindBaseILNS9_6detail11MessageTypeE6EEENS0_30MemoryResourceAllocationPolicyENS5_19ProcessModifierImplINS4_21DefaultProxyFilterTagEEEvEESF_E6ObjectE
_ZN2nn2sf4cmif6client6detail13CmifProxyImplINS_12notification6server27INotificationServicesCommonENS2_19CmifDomainProxyKindINS0_4hipc6client38Hipc2ClientSessionManagedProxyKindBaseINSA_18Hipc2ProxyKindBaseILNS9_6detail11MessageTypeE6EEEEEEENS0_30MemoryResourceAllocationPolicyENS6_35INotificationServicesForApplicationENS3_19ProcessModifierImplINS2_21DefaultProxyFilterTagEEEE32_nn_sf_sync_RegisterAlarmSettingENS0_3OutINS5_14AlarmSettingIdEvEERKNS5_12AlarmSettingERKNS0_8InBufferE
_ZN2nn4util17MessagePackWriter21WriteExtension8HeaderEah
_ZN2nn2sf4cmif6client6detail13CmifProxyImplINS_5visrv2sf21ISystemDisplayServiceENS0_4hipc6client18Hipc2ProxyKindBaseILNS8_6detail11MessageTypeE6EEENS0_30MemoryResourceAllocationPolicyES7_NS3_19ProcessModifierImplINS2_21DefaultProxyFilterTagEEEE35_nn_sf_sync_SetDisplayContrastRatioEmf
_ZN2nn2sf4cmif6client6detail13CmifProxyImplINS_7account31IAccountServiceForSystemServiceENS2_19CmifDomainProxyKindINS0_4hipc6client38Hipc2ClientSessionManagedProxyKindBaseINS9_18Hipc2ProxyKindBaseILNS8_6detail11MessageTypeE6EEEEEEENS0_25StatelessAllocationPolicyINS0_22ExpHeapStaticAllocatorILm2048ENS5_6detail12ObjectHolder24ObjectHolderAllocatorTagEEEEENS5_31IAccountServiceForAdministratorENS3_19ProcessModifierImplINS2_21DefaultProxyFilterTagEEEE38_nn_sf_sync_ListOpenUsersInApplicationERKNS0_8OutArrayINS5_3UidEEENS_3arp21ApplicationInstanceIdE
_ZNK2nn3mii6detail10NicknameLe7IsEmptyEv
_ZN2nn2sf4cmif6client6detail13CmifProxyImplINS_3mii6detail16IDatabaseServiceENS2_19CmifDomainProxyKindINS0_4hipc6client38Hipc2ClientSessionManagedProxyKindBaseINSA_18Hipc2ProxyKindBaseILNS9_6detail11MessageTypeE6EEEEEEENS0_30MemoryResourceAllocationPolicyES7_NS3_19ProcessModifierImplINS2_21DefaultProxyFilterTagEEEE25_nn_sf_sync_UpdateLatest1ENS0_3OutINS5_9StoreDataEvEERKSO_i
_ZN2nn6socket11GetAddrInfoEPKcS2_PKNS0_8AddrInfoEPPS3_
_ZN7android19BufferQueueProducer28getBufferReleasedEventHandleERjRb
_ZNKSt3__120__time_get_c_storageIcE3__xEv
_ZNKSt3__17codecvtIwc11__mbstate_tE6do_outERS1_PKwS5_RS5_PcS7_RS7_
_ZNSt15underflow_errorD2Ev
_ZNK2nn5audio6server7AuxInfo13GetWorkBufferENS1_14EffectInfoBase5IndexE
nncodecLibopus_silk_scale_vector32_Q26_lshift_18
_ZN2nn2fs14IsWindowsDriveEPKc
_ZN3nne4nlib12OutputStream14GetWorkBuffer_EPm
_ZN2nn3btm4user25StopBleScanForSmartDeviceEv
_ZN2nn6crypto6detail9GhashImpl8GetGhashEPvm
_ZNK2nn6crypto6detail7AesImplILm32EE12DecryptBlockEPvmPKvm
_ZTIN2nn2sf6detail38ObjectImplFactoryWithStatefulAllocatorINS0_4cmif6client6detail9CmifProxyINS_3nim6detail33IShopServiceAccessServerInterfaceENS0_4hipc6client18Hipc2ProxyKindBaseILNSA_6detail11MessageTypeE6EEENS0_30MemoryResourceAllocationPolicyENS5_19ProcessModifierImplINS4_21DefaultProxyFilterTagEEEvEESG_E6ObjectE
_ZN2nn2fs12GetSdCardCidEPvm
nndetailImagePng_png_handle_tRNS
_ZNK2nn2sf13SharedPointerINS_4npns11INpnsSystemEE19FunctionForBoolTypeEv
_ZN2nn2vi28GetDisplayVsyncEventForDebugEPNS_2os15SystemEventTypeEPNS0_7DisplayE
_ZN2nn3web20SetScreenShotEnabledEPNS0_14ShowWebPageArgE
_ZNSt3__112basic_stringIwNS_11char_traitsIwEENS_9allocatorIwEEE6assignEmw
nncodecLibopus_opus_multistream_surround_encoder_create
_ZN2nn3hid6system6detail31IsButtonConfigStorageRightEmptyEPbi
_ZN2nn2os6detail13ThreadManager11ExitProcessEv
_ZTVNSt3__114__codecvt_utf8IDiEE
wctob
_ZN2nn5audio6server15BufferMixerInfo6UpdateEPNS0_6common17BehaviorParameter9ErrorInfoEPKNS0_10EffectInfo11InParameterERNS1_10PoolMapperE
nndetailImagePng_png_do_strip_channel
nnsocketRegisterResourceStatisticsName
_ZN2nn5audio16GetAuxSampleRateEPKNS0_7AuxTypeE
_ZN2nn2fs27PathNormalizationFileSystem19DoGetTotalSpaceSizeEPlPKc
unw_init_local
_ZN2nn5image6detail15PngStreamReader10InitializeEPKvm
_ZN2nn2sf4hipc6client24Hipc2ClientCoreProcessorILNS1_6detail11MessageTypeE6ENS0_4cmif6detail14CoreMethodInfoINSt3__15tupleIJNS7_21OutObjectArgumentInfoILi0ELi0EEENS7_17InRawArgumentInfoILm48ELm8ELl0EEENSD_ILm8ELm8ELl48EEEEEELm56ELm0ELb1EEESG_E21ProcessWithOutObjectsEPNS2_26Hipc2ClientProxyBaseObjectENS6_6client27OutObjectClientArgumentTypeENSL_23InRawClientArgumentTypeILm48ELm8EvEENSN_ILm8ELm8EvEEjPNS0_13SharedPointerINS0_14IServiceObjectEEE
_ZN2nn3err6detail28IsApplicationErrorCodeStringEPKc
_ZN2nn2sf4hipc6client24Hipc2ClientCoreProcessorILNS1_6detail11MessageTypeE6ENS0_4cmif6detail14CoreMethodInfoINSt3__15tupleIJNS7_18OutRawArgumentInfoILm1ELm1ELl0EEENS7_18BufferArgumentInfoILi0ELi9ELm0EEEEEELm0ELm1ELb0EEESF_E7ProcessEPNS2_26Hipc2ClientProxyBaseObjectENS6_6client24OutRawClientArgumentTypeILm1ELm1EEENSK_24BufferClientArgumentTypeEj
_ZNK2nn2sf4hipc6detail25HipcMessageBufferAccessor10GetReceiveEi
_ZN2nn7account34IsUserRegistrationRequestPermittedEPb
_ZN2nn5audio26GetBiquadFilterInputOutputEPKNS0_16BiquadFilterTypeEPaS4_Pii
_ZN2nn2fs4save12SaveDataFileD2Ev
__nnmusl_stdout_lock_finalize
pthread_rwlock_destroy
__iscntrl_l
_ZN2nn3hid13VibrationNodeD1Ev
_ZN2nn4nifm6detail13RequestClient20PrepareLibraryAppletEPNS_6applet19LibraryAppletHandleE
nnosWaitThread
_ZN2nn4util8Vector2f11ConstantOneE
_ZTINSt3__18time_putIcNS_19ostreambuf_iteratorIcNS_11char_traitsIcEEEEEE
_ZN2nn5audio10MixManager20UpdateMixInParameterEPv
fopen
_ZTIN2nn2fs6detail7NewableE
_ZTIN2nn2sf6detail38ObjectImplFactoryWithStatefulAllocatorINS0_4cmif6client6detail9CmifProxyINS_5visrv2sf18ISystemRootServiceENS0_4hipc6client18Hipc2ProxyKindBaseILNSA_6detail11MessageTypeE6EEENS0_30MemoryResourceAllocationPolicyENS5_19ProcessModifierImplINS4_21DefaultProxyFilterTagEEEvEESG_E6ObjectE
_ZN7android22GraphicBufferAllocatorD1Ev
_ZNSt3__112strstreambufC1EPclS1_
_ZN2nn3ngc6detail14ContentsReader17GetFilterFilePathEPcNS0_26ProfanityFilterPatternListEj
_ZTSN2nn3ngc6detail12OutputStreamE
_ZNSt13runtime_errorC1ERKS_
__getdelim
_ZN2nn5audio6server11InfoUpdater23UpdatePerformanceBufferEPvmPNS1_18PerformanceManagerE
_ZN2nn9bluetooth11GattServiceC2ERKNS0_17GattAttributeUuidEtjttb
nncodecLibopus_opus_decoder_create
_ZN2nn6crypto6detail6BigNum7CompareEPKjS4_i
_ZN2nn3hid23MergeSingleJoyAsDualJoyERKjS2_
NvRmGpuProfilerClose
_ZTVNSt3__112future_errorE
_Unwind_Find_FDE
_ZN2nn6applet30GetExpectedThemeColorForSystemEv
_ZTSN2nn3nfp6detail12IUserManagerE
_ZN2nn2os6detail10TlsManagerC2Ev
_ZN2nn2sf4cmif6client6detail13CmifProxyImplINS_6aocsrv6detail20IAddOnContentManagerENS0_4hipc6client18Hipc2ProxyKindBaseILNS8_6detail11MessageTypeE6EEENS0_30MemoryResourceAllocationPolicyES7_NS3_19ProcessModifierImplINS2_21DefaultProxyFilterTagEEEE12GetProxyInfoEv
_ZNK2nn2sf13SharedPointerINS_2ec21IPurchaseEventManagerEE19FunctionForBoolTypeEv
_ZN2nn2sf4cmif6client6detail36GetClientProcessorImplWithObjectBaseINS2_19CmifDomainProxyKindINS0_4hipc6client38Hipc2ClientSessionManagedProxyKindBaseINS7_18Hipc2ProxyKindBaseILNS6_6detail11MessageTypeE6EEEEEEENS3_19ProcessModifierImplINS2_21DefaultProxyFilterTagEEEE14ObjectAssignerINS0_30MemoryResourceAllocationPolicyENS_14MemoryResourceEE14AllocateObjectINS_7timesrv6detail7service12ISteadyClockEEEvi
_ZNKSt3__18numpunctIwE16do_thousands_sepEv
_ZN2nn5codec6detail21SetComplexityInternalEP26nncodecLibopus_OpusEncoderi
getsockname
_ZN2nn3nfc6client16GetUserInterfaceEv
_ZN2nn5audio26GetReleasedMemoryPoolCountEPKNS0_19AudioRendererConfigE
_ZNK2nn5audio23SplitterDestinationData12NeedToUpdateEv
_ZTSN2nn2fs6detail9RomFsFileE
_ZN2nn2vi6detail18SystemServiceProxy47InitializeIndirectDisplayTransactionServiceImplEv
NvOsInterruptPriorityThreadCreate
_ZNK7android6Parcel11readString8Ev
_ZN2nn7account13ProfileEditor11SetUserDataEPKcm
_ZN2nn6capsrv28SaveScreenShotForApplicationEPNS0_21ApplicationAlbumEntryEPKvmRKNS0_19ScreenShotAttributeERKNS0_15ApplicationDataEj
_ZNKSt3__120__time_get_c_storageIcE3__rEv
__truncdfhf2
_ZN2nn2sf6detail38ObjectImplFactoryWithStatefulAllocatorINS0_4cmif6client6detail9CmifProxyINS_2am7service18IHomeMenuFunctionsENS4_19CmifDomainProxyKindINS0_4hipc6client38Hipc2ClientSessionManagedProxyKindBaseINSC_18Hipc2ProxyKindBaseILNSB_6detail11MessageTypeE6EEEEEEENS0_30MemoryResourceAllocationPolicyENS5_19ProcessModifierImplINS4_21DefaultProxyFilterTagEEEvEESK_E6Object7ReleaseEv
_ZN2nn5audio19RegisterBufferEventEPNS0_8AudioOutEPNS_2os11SystemEventE
_ZN2nn6hidbus6detail20ClientResourceHolder5ClearEv
_ZN2nn5image6detail4jpeg15jpeg_free_smallEPNS2_18jpeg_common_structEPvm
_ZN2nn3jit10InitializeEv
_ZN2nn2la27AppletToNifmArgumentsReaderD1Ev
_ZN2nn2sf4cmif6client6detail13CmifProxyImplINS_7account24IBaasAccessTokenAccessorENS2_19CmifDomainProxyKindINS0_4hipc6client38Hipc2ClientSessionManagedProxyKindBaseINS9_18Hipc2ProxyKindBaseILNS8_6detail11MessageTypeE6EEEEEEENS0_30MemoryResourceAllocationPolicyES6_NS3_19ProcessModifierImplINS2_21DefaultProxyFilterTagEEEE30_nn_sf_sync_GetDeviceAccountIdENS0_3OutImvEERKNS5_3UidE
_ZN2nn2sf4cmif6client6detail13CmifProxyImplINS_2am7service20IApplicationAccessorENS2_19CmifDomainProxyKindINS0_4hipc6client38Hipc2ClientSessionManagedProxyKindBaseINSA_18Hipc2ProxyKindBaseILNS9_6detail11MessageTypeE6EEEEEEENS0_30MemoryResourceAllocationPolicyES7_NS3_19ProcessModifierImplINS2_21DefaultProxyFilterTagEEEE44_nn_sf_sync_PushToNotificationStorageChannelENS0_13SharedPointerINS6_8IStorageEEE
_ZTIN2nn2fs4save16IExclusiveObjectE
nndetailImagePng_png_set_sCAL
nvcecEnable
__pthread_once
_ZN2nn5album26GetAlbumScreenshotFileListEPiPNS0_14AlbumFileEntryEiRKNS_7account3UidE
_ZN2nn3web6detail23SharePageReturnValue2_0C1Ev
_ZN2nn6applet18StartLibraryAppletENS0_19LibraryAppletHandleEPv
_ZN2nn2fs13MountSaveDataEPKcNS_13ApplicationIdERKNS_7account3UidE
_ZTIN2nn5prepo6detail3ipc13IPrepoServiceE
_ZN2nn6hidbus10InitializeERKNS0_9BusHandleE
_ZTSN2nn5image11JpegDecoderE
_ZTSN2nn4pctl6detail3ipc23IParentalControlServiceE
_ZN2nn2ro18RegisterModuleInfoEPNS0_16RegistrationInfoEPKv
NvRmStreamSetWaitSync
android_atomic_add
_ZNSt3__16localeD2Ev
_ZZN2nn7friends6detail17ShimLibraryGlobal11GetInstanceEvE10s_Instance
_ZN2nn4htcs23CreateHtcsManagerByHipcEPNS_2sf30HipcSimpleClientSessionManagerE
_ZN2nn5audio6server12VoiceContext22UpdateStateByDspSharedEv
_ZN2nn5audio6server6detail19ListAudioDeviceNameEPNS0_15AudioDeviceNameEij
_ZN2nn2sf4cmif6client6detail13CmifProxyImplINS_3hid10IHidServerENS0_4hipc6client18Hipc2ProxyKindBaseILNS7_6detail11MessageTypeE6EEENS0_30MemoryResourceAllocationPolicyES6_NS3_19ProcessModifierImplINS2_21DefaultProxyFilterTagEEEE31_nn_sf_sync_HasLeftRightBatteryENS0_3OutIbvEESJ_j
_ZN2nn8irsensor6detail15IrSensorSession18RunMomentProcessorERKNS0_14IrCameraHandleERKNS0_27PackedMomentProcessorConfigE
_ZNK2nn5audio6server12BehaviorInfo34IsVoicePitchAndSrcSkippedSupportedEv
_ZN2nn2fs11FileStorageC1EPNS0_3fsa5IFileE
_ZN2nn5prepo6detail17HandleSrepoResultENS_6ResultE
FsLtt_getSubfamilyName
_ZN2nn7friends6detail17ShimLibraryGlobal18CreateAsyncSessionEPPNS1_3ipc14IFriendServiceE
nnmem_nlib_rwlock_trywrlock_until
_ZN2nn6socket6detail8RecvFromEiPvmNS0_7MsgFlagEPNS0_8SockAddrEPj
__uflow
_ZN2nn2sf4cmif6client6detail13CmifProxyImplINS_3hid16IHidSystemServerENS0_4hipc6client18Hipc2ProxyKindBaseILNS7_6detail11MessageTypeE6EEENS0_30MemoryResourceAllocationPolicyES6_NS3_19ProcessModifierImplINS2_21DefaultProxyFilterTagEEEE39_nn_sf_sync_SetButtonConfigStorageRightERKNS_9hidconfig17ButtonConfigRightEi
_ZN2nn2sf4cmif6client6detail13CmifProxyImplINS_3hid16IHidSystemServerENS0_4hipc6client18Hipc2ProxyKindBaseILNS7_6detail11MessageTypeE6EEENS0_30MemoryResourceAllocationPolicyES6_NS3_19ProcessModifierImplINS2_21DefaultProxyFilterTagEEEE48_nn_sf_sync_GetAnalogStickManualCalibrationStageENS0_3OutIlvEENS5_6system11UniquePadIdEl
_ZN2nn3mii6detail12StoreDataRaw13SetMouthScaleEi
_ZN2nn3mii13AppletManagerD2Ev
nnsocketGetHostByNameWithOptions
_ZNSt3__111__libcpp_db11__insert_icEPvPKv
_ZTIN2nn2am7service15IDebugFunctionsE
_ZN2nn2os14IsReadLockHeldEPKNS0_20ReaderWriterLockTypeE
_ZTIN2nn7account6detail14ISessionObjectE
_ZN2nn2fs10CreateFileEPKcli
_ZN2nn2sf4hipc6client24Hipc2ClientCoreProcessorILNS1_6detail11MessageTypeE6ENS0_4cmif6detail14CoreMethodInfoINSt3__15tupleIJNS7_18OutRawArgumentInfoILm2ELm2ELl0EEEEEELm0ELm2ELb0EEESD_E7ProcessEPNS2_26Hipc2ClientProxyBaseObjectENS6_6client24OutRawClientArgumentTypeILm2ELm2EEEj
_ZN2nn2sf4cmif6client6detail13CmifProxyImplINS_4nifm6detail15IGeneralServiceENS2_19CmifDomainProxyKindINS0_4hipc6client38Hipc2ClientSessionManagedProxyKindBaseINSA_18Hipc2ProxyKindBaseILNS9_6detail11MessageTypeE6EEEEEEENS0_30MemoryResourceAllocationPolicyES7_NS3_19ProcessModifierImplINS2_21DefaultProxyFilterTagEEEE37_nn_sf_sync_ConfirmSystemAvailabilityEv
_ZNKSt3__110moneypunctIwLb0EE13do_neg_formatEv
_ZN2nn7account28DeleteSaveDataThumbnailImageERKNS0_3UidE
_ZN2nn5audio6server14MemoryPoolInfo13SetDspAddressEm
_ZN2nn2sf4cmif6client34CmifDomainProxyClientCoreProcessorINS0_4hipc6client38Hipc2ClientSessionManagedProxyKindBaseINS5_18Hipc2ProxyKindBaseILNS4_6detail11MessageTypeE6EEEEENS1_6detail14CoreMethodInfoINSt3__15tupleIJNSC_18OutRawArgumentInfoILm16ELm8ELl0EEENSC_17InRawArgumentInfoILm8ELm8ELl8EEENSI_ILm1ELm1ELl0EEEEEELm16ELm16ELb0EEESL_E7ProcessEPNS2_23CmifDomainClientMessageISB_E15ProxyBaseObjectENS2_24OutRawClientArgumentTypeILm16ELm8EEENS2_23InRawClientArgumentTypeILm8ELm8EvEENSU_ILm1ELm1EvEEj
_ZN2nn2sf6detail38ObjectImplFactoryWithStatefulAllocatorINS0_4cmif6client6detail9CmifProxyINS_8settings15ISettingsServerENS0_4hipc6client18Hipc2ProxyKindBaseILNS9_6detail11MessageTypeE6EEENS0_30MemoryResourceAllocationPolicyENS5_19ProcessModifierImplINS4_21DefaultProxyFilterTagEEEvEESF_E6Object7ReleaseEv
NvRmChannelModuleMutexLock
_ZN2nn2sf4cmif6client6detail13CmifProxyImplINS_6aocsrv6detail20IAddOnContentManagerENS0_4hipc6client18Hipc2ProxyKindBaseILNS8_6detail11MessageTypeE6EEENS0_30MemoryResourceAllocationPolicyES7_NS3_19ProcessModifierImplINS2_21DefaultProxyFilterTagEEEE31_nn_sf_sync_PrepareAddOnContentEim
_ZThn16_N2nn2sf4cmif6client6detail13CmifProxyImplINS_3apm14ISystemManagerENS0_4hipc6client18Hipc2ProxyKindBaseILNS7_6detail11MessageTypeE6EEENS0_30MemoryResourceAllocationPolicyES6_NS3_19ProcessModifierImplINS2_21DefaultProxyFilterTagEEEE17GetCmifBaseObjectEv
_ZTIN2nn2sf4cmif6client6detail9CmifProxyINS_4bcat6detail3ipc28IDeliveryCacheStorageServiceENS2_19CmifDomainProxyKindINS0_4hipc6client38Hipc2ClientSessionManagedProxyKindBaseINSB_18Hipc2ProxyKindBaseILNSA_6detail11MessageTypeE6EEEEEEENS0_30MemoryResourceAllocationPolicyENS3_19ProcessModifierImplINS2_21DefaultProxyFilterTagEEEvEE
nndetailImagePng_png_set_packing
nnmem_nlib_memrchr_generic
_ZN2nn5prepo16SystemPlayReport16SetApplicationIdERKNS_13ApplicationIdE
_ZN7android6Region7andSelfERKNS_4RectE
__nesf2
__freadptrinc
_ZN2nn5audio6server12DetailAspectC1EPNS1_16CommandGeneratorENS0_20PerformanceEntryTypeEjNS0_21PerformanceDetailTypeE
_ZN2nn2sf4cmif6client34CmifDomainProxyClientCoreProcessorINS0_4hipc6client38Hipc2ClientSessionManagedProxyKindBaseINS5_18Hipc2ProxyKindBaseILNS4_6detail11MessageTypeE6EEEEENS1_6detail14CoreMethodInfoINSt3__15tupleIJNSC_17InRawArgumentInfoILm16ELm8ELl8EEENSG_ILm8ELm8ELl24EEENSG_ILm4ELm4ELl0EEENSG_ILm16ELm8ELl32EEENSC_18BufferArgumentInfoILi0ELi25ELm72EEEEEELm48ELm0ELb0EEESN_E7ProcessEPNS2_23CmifDomainClientMessageISB_E15ProxyBaseObjectENS2_23InRawClientArgumentTypeILm16ELm8EvEENSU_ILm8ELm8EvEENSU_ILm4ELm4EvEESV_NS2_24BufferClientArgumentTypeEj
_ZN2nn2fs6detail20OpenSaveDataIteratorEPNSt3__110unique_ptrINS0_16SaveDataIteratorENS2_14default_deleteIS4_EEEENS0_15SaveDataSpaceIdERKNS0_14SaveDataFilterE
_ZN2nn8settings6detail13GetColorSetIdEPi
_ZTVN2nn2sf4hipc6server18Hipc2ServerMessageE
_ZNSt3__112basic_stringIwNS_11char_traitsIwEENS_9allocatorIwEEEaSERKS5_
_ZN2nn5album14LoadAlbumImageEPiS1_PNS0_18AlbumFileAttributeEPmPvmS5_mS5_mRKNS0_14AlbumFileEntryE
_ZN2nn3ngc6detail15CompressedArray12SetAllocatorEPNS1_16WorkBufAllocatorE
_ZN2nn2sf6detail39ObjectImplFactoryWithStatelessAllocatorINS0_4cmif6client6detail9CmifProxyINS_7account3nas21IAuthorizationRequestENS4_19CmifDomainProxyKindINS0_4hipc6client38Hipc2ClientSessionManagedProxyKindBaseINSC_18Hipc2ProxyKindBaseILNSB_6detail11MessageTypeE6EEEEEEENS0_25StatelessAllocationPolicyINS0_22ExpHeapStaticAllocatorILm2048ENS7_6detail12ObjectHolder24ObjectHolderAllocatorTagEEEEENS5_19ProcessModifierImplINS4_21DefaultProxyFilterTagEEEvEESQ_E6Object7ReleaseEv
_ZN2nn2sf6detail38ObjectImplFactoryWithStatefulAllocatorINS0_4cmif6client6detail9CmifProxyINS_2am7service30IAllSystemAppletProxiesServiceENS4_19CmifDomainProxyKindINS0_4hipc6client38Hipc2ClientSessionManagedProxyKindBaseINSC_18Hipc2ProxyKindBaseILNSB_6detail11MessageTypeE6EEEEEEENS0_30MemoryResourceAllocationPolicyENS5_19ProcessModifierImplINS4_21DefaultProxyFilterTagEEEvEESK_E6Object7ReleaseEv
_ZN2nn2sf4hipc6client34HipcSimpleClientSessionManagerBaseINS2_29DefaultSessionResourceManagerEE4Impl18InitializeByHandleINS_5codec6detail27IHardwareOpusDecoderManagerENS0_30MemoryResourceAllocationPolicyENS0_4cmif6client6detail19ProcessModifierImplINSD_21DefaultProxyFilterTagEEEEENS_6ResultEPNS0_13SharedPointerIT_EEPNT0_9AllocatorENS_3svc6HandleE
_ZN2nn6crypto6detail11XtsModeImpl13UpdateGenericEPvmPKvm
_ZN2nn3hid6system6detail38GetSupportedNpadStyleSetOfCallerAppletEPNS_4util10BitFlagSetILi32ENS0_12NpadStyleTagEEE
NvOsEventPoolWait
_ZTVN2nn5audio6server22CircularBufferSinkInfoE
_ZN2nn2os6detail26g_UserExceptionStackBottomE
FsLtt_done
_ZN2nn4util6detail7msgpack28WriteUnsignedIntegerAutoSizeEPNS0_17MessagePackWriter11StreamParamEm
_ZN2nn2sf4hipc6client24Hipc2ClientCoreProcessorILNS1_6detail11MessageTypeE6ENS0_4cmif6detail14CoreMethodInfoINSt3__15tupleIJNS7_18BufferArgumentInfoILi0ELi22ELm4096EEENS7_18OutRawArgumentInfoILm4ELm4ELl0EEENS7_17InRawArgumentInfoILm8ELm8ELl0EEENSF_ILm8ELm8ELl8EEEEEELm16ELm4ELb0EEESI_E7ProcessEPNS2_26Hipc2ClientProxyBaseObjectENS6_6client24BufferClientArgumentTypeENSN_24OutRawClientArgumentTypeILm4ELm4EEENSN_23InRawClientArgumentTypeILm8ELm8EvEESS_j
NvRmFencePutToFile
_ZTVNSt3__113basic_ostreamIwNS_11char_traitsIwEEEE
_ZN2nn3hid6system6detail22SetDefaultButtonConfigERKNS1_11UniquePadIdE
_ZTSN2nn2sf6detail38ObjectImplFactoryWithStatefulAllocatorINS0_4cmif6client6detail9CmifProxyINS_8settings28IFirmwareDebugSettingsServerENS0_4hipc6client18Hipc2ProxyKindBaseILNS9_6detail11MessageTypeE6EEENS0_30MemoryResourceAllocationPolicyENS5_19ProcessModifierImplINS4_21DefaultProxyFilterTagEEEvEESF_E6ObjectE
_ZN2nn4util16FileOutputStream5FlushEv
__nnmusl_TimerCreate
_ZN2nn5audio12SplitterInfo14StoreParameterEPNS1_11InParameterE
_ZTIN2nn2fs17RamDiskFileSystemE
_ZN2nn3web16ShowSharePageArg22SetAdditionalMediaDataEPKhm
_ZNSt3__113basic_ostreamIwNS_11char_traitsIwEEEC1EPNS_15basic_streambufIwS2_EE
_ZNSt3__116__narrow_to_utf8ILm16EED0Ev
_ZN2nn2fs15RomFsFileSystem19DoGetTotalSpaceSizeEPlPKc
_ZN2nn2sf4cmif6client34CmifDomainProxyClientCoreProcessorINS0_4hipc6client38Hipc2ClientSessionManagedProxyKindBaseINS5_18Hipc2ProxyKindBaseILNS4_6detail11MessageTypeE6EEEEENS1_6detail14CoreMethodInfoINSt3__15tupleIJNSC_18OutRawArgumentInfoILm36ELm4ELl0EEEEEELm0ELm36ELb0EEESI_E7ProcessEPNS2_23CmifDomainClientMessageISB_E15ProxyBaseObjectENS2_24OutRawClientArgumentTypeILm36ELm4EEEj
_ZN2nn3ssl6detail15BuiltinDataInfo5GetIdEv
_ZN2nn4util10BitFlagSetILi256ENS_3hid11KeyboardKeyEE4FlagILi80EE4MaskE
_ZN2nn8settings6detail20GetAppletLaunchFlagsEPNS_4util10BitFlagSetILi32ENS0_6system16AppletLaunchFlagEEE
_ZNK2nn5audio16SharedRingBuffer24GetWorkBufferDataAddressEv
_ZN7android8String16C1ERKS0_
_ZN7android11DisplayEDIDC2Ev
_ZTVN2nn2sf6detail39ObjectImplFactoryWithStatelessAllocatorINS0_4cmif6client6detail9CmifProxyINS_7account7profile8IProfileENS4_19CmifDomainProxyKindINS0_4hipc6client38Hipc2ClientSessionManagedProxyKindBaseINSC_18Hipc2ProxyKindBaseILNSB_6detail11MessageTypeE6EEEEEEENS0_25StatelessAllocationPolicyINS0_22ExpHeapStaticAllocatorILm2048ENS7_6detail12ObjectHolder24ObjectHolderAllocatorTagEEEEENS5_19ProcessModifierImplINS4_21DefaultProxyFilterTagEEEvEESQ_E6ObjectE
_ZN2nn2sf4cmif6client6detail13CmifProxyImplINS_4bcat6detail3ipc28IDeliveryCacheStorageServiceENS2_19CmifDomainProxyKindINS0_4hipc6client38Hipc2ClientSessionManagedProxyKindBaseINSB_18Hipc2ProxyKindBaseILNSA_6detail11MessageTypeE6EEEEEEENS0_30MemoryResourceAllocationPolicyES8_NS3_19ProcessModifierImplINS2_21DefaultProxyFilterTagEEEE12GetProxyInfoEv
_ZN2nn3hid18ParseVibrationFileEPNS0_17VibrationFileInfoEPNS0_26VibrationFileParserContextEPKvm
_ZTIN2nn3hid15VibrationTargetE
nnutilZlib_inflateSyncPoint
_ZN2nn3ngc6detail3SetD1Ev
NvOsSemaphoreDestroy
_ZN7android12ConsumerBaseD0Ev
_ZNKSt3__120__codecvt_utf8_utf16IDiE16do_always_noconvEv
ccos
_ZN2nn3mii11AppletInput14InitializeImplENS0_10AppletModeEi
_ZNK2nn5album24MovieMakerMovieParameter20GetAudioChannelCountEv
_ZN2nn4nifm17NetworkConnectionC1Ev
_ZN2nn4nifm23GetRequestClientPointerENS0_13RequestHandleE
_ZN2nn5srepo6StructC2Ev
NvOsGetSystemTime
_ZN2nn2sf4hipc6client24Hipc2ClientCoreProcessorILNS1_6detail11MessageTypeE6ENS0_4cmif6detail14CoreMethodInfoINSt3__15tupleIJNS7_18BufferArgumentInfoILi0ELi6ELm0EEENS7_18OutRawArgumentInfoILm1ELm1ELl0EEENS7_17InRawArgumentInfoILm8ELm8ELl8EEENSF_ILm4ELm4ELl0EEEEEELm16ELm1ELb1EEESI_E7ProcessEPNS2_26Hipc2ClientProxyBaseObjectENS6_6client24BufferClientArgumentTypeENSN_24OutRawClientArgumentTypeILm1ELm1EEENSN_23InRawClientArgumentTypeILm8ELm8EvEENSR_ILm4ELm4EvEEj
_ZN2nn4edid22GetAudioFormatBitDepthEPiPKNS0_15AudioFormatInfoE
update_sp_ep
_ZN2nn2fs4save22SaveDataFileSystemCore16HasDirectoryImplEPbRKNS1_4PathE
_ZN2nn2sf4cmif6client6detail13CmifProxyImplINS_3hid10IHidServerENS0_4hipc6client18Hipc2ProxyKindBaseILNS7_6detail11MessageTypeE6EEENS0_30MemoryResourceAllocationPolicyES6_NS3_19ProcessModifierImplINS2_21DefaultProxyFilterTagEEEE38_nn_sf_sync_SetAccelerometerParametersENS_6applet20AppletResourceUserIdENS5_19SixAxisSensorHandleEff
nnmem_nlib_memchr_lt_generic
_ZN2nn4nifm6detail39ConvertNetworkInterfaceInfoToNifmFromSfEPNS0_20NetworkInterfaceInfoERKNS1_2sf20NetworkInterfaceInfoE
_ZN2nn2sf4cmif6client34CmifDomainProxyClientCoreProcessorINS0_4hipc6client38Hipc2ClientSessionManagedProxyKindBaseINS5_18Hipc2ProxyKindBaseILNS4_6detail11MessageTypeE6EEEEENS1_6detail14CoreMethodInfoINSt3__15tupleIJNSC_18OutRawArgumentInfoILm2ELm2ELl0EEENSC_18BufferArgumentInfoILi0ELi21ELm64EEENSI_ILi1ELi5ELm0EEEEEELm0ELm2ELb0EEESL_E7ProcessEPNS2_23CmifDomainClientMessageISB_E15ProxyBaseObjectENS2_24OutRawClientArgumentTypeILm2ELm2EEENS2_24BufferClientArgumentTypeESU_j
_ZThn8_N7android12BnMemoryHeapD1Ev
nncodecLibopus_silk_decode_frame
_ZNSt3__118shared_timed_mutex6unlockEv
_ZN2nn2sf4cmif6client6detail13CmifProxyImplINS_7account4http15IOAuthProcedureENS2_19CmifDomainProxyKindINS0_4hipc6client38Hipc2ClientSessionManagedProxyKindBaseINSA_18Hipc2ProxyKindBaseILNS9_6detail11MessageTypeE6EEEEEEENS0_25StatelessAllocationPolicyINS0_22ExpHeapStaticAllocatorILm2048ENS5_6detail12ObjectHolder24ObjectHolderAllocatorTagEEEEENS5_3nas40IOAuthProcedureForNintendoAccountLinkageENS3_19ProcessModifierImplINS2_21DefaultProxyFilterTagEEEE19_nn_sf_sync_SuspendENS0_3OutINSK_4UuidEvEE
_ZN2nn2ec37ShowShopApplicationInformationForMenuENS0_5NsUidERKNS_7account3UidENS0_8SourceIdEPKc
_ZTIN2nn2sf6detail38ObjectImplFactoryWithStatefulAllocatorINS0_4cmif6client6detail9CmifProxyINS_6hidbus19IHidbusSystemServerENS0_4hipc6client18Hipc2ProxyKindBaseILNS9_6detail11MessageTypeE6EEENS0_30MemoryResourceAllocationPolicyENS5_19ProcessModifierImplINS4_21DefaultProxyFilterTagEEEvEESF_E6ObjectE
_ZN2nn2sf4cmif6client34CmifDomainProxyClientCoreProcessorINS0_4hipc6client38Hipc2ClientSessionManagedProxyKindBaseINS5_18Hipc2ProxyKindBaseILNS4_6detail11MessageTypeE6EEEEENS1_6detail14CoreMethodInfoINSt3__15tupleIJNSC_18OutRawArgumentInfoILm4ELm4ELl0EEENSG_ILm4ELm4ELl4EEENSG_ILm4ELm4ELl8EEENSC_18BufferArgumentInfoILi0ELi6ELm0EEENSC_17InRawArgumentInfoILm4ELm4ELl0EEEEEELm4ELm12ELb0EEESO_E7ProcessEPNS2_23CmifDomainClientMessageISB_E15ProxyBaseObjectENS2_24OutRawClientArgumentTypeILm4ELm4EEESW_SW_NS2_24BufferClientArgumentTypeENS2_23InRawClientArgumentTypeILm4ELm4EvEEj
_ZThn8_N2nn2sf4cmif6server23CmifServerDomainManager6Domain14UnReserveEntryEPKNS1_18CmifDomainObjectIdEi
_ZZN2nn2sf31SimpleAllInOneHipcClientManagerILm10EE27InitializeShimLibraryHolderINS_5visrv2sf18ISystemRootServiceENS0_4cmif6client6detail19ProcessModifierImplINS8_21DefaultProxyFilterTagEEEEENS_6ResultEPNS0_23ShimLibraryObjectHolderIT_EEPKcPNS_14MemoryResourceEENUlPNS0_13SharedPointerIS6_EEE_clESO_
nnmem_utf16chr_mb_simd
_ZNK2nn2sf4hipc6detail25HipcMessageBufferAccessor10GetPointerEi
_ZTVN2nn2sf6detail38ObjectImplFactoryWithStatefulAllocatorINS0_4cmif6client6detail9CmifProxyINS_5visrv2sf26IApplicationDisplayServiceENS0_4hipc6client18Hipc2ProxyKindBaseILNSA_6detail11MessageTypeE6EEENS0_30MemoryResourceAllocationPolicyENS5_19ProcessModifierImplINS4_21DefaultProxyFilterTagEEEvEESG_E6ObjectE
_ZN2nn2os16GetCurrentThreadEv
_ZN2nn2sf4cmif6client6detail13CmifProxyImplINS_4npns9INpnsUserENS0_4hipc6client18Hipc2ProxyKindBaseILNS7_6detail11MessageTypeE6EEENS0_30MemoryResourceAllocationPolicyENS5_11INpnsSystemENS3_19ProcessModifierImplINS2_21DefaultProxyFilterTagEEEE21_nn_sf_sync_ListenAllEv
NvRmGpuChannelReschedule
_ZN2nn5audio6server38CommandProcessingTimeEstimatorVersion28EstimateERKNS0_12DelayCommandE
_ZTIN2nn2os6detail34MultiWaitHolderOfInterProcessEventE
_ZTSN2nn2sf6detail19InterfaceInfoBottomINS0_14IServiceObjectEE4_tABINS0_13InterfaceInfoINS0_4hipc6detail12IHipcManagerEE5_tO2NINS7_6server2v134HipcServerSessionManagerWithDomain15HipcManagerImplEE4typeES9_E4typeE
_ZNSt3__113basic_ostreamIcNS_11char_traitsIcEEElsEPNS_15basic_streambufIcS2_EE
_ZN2nn4time11IsValidDateEiii
_ZN2nn5codec11OpusEncoderC1Ev
_ZN2nn3hid18VibrationConverterC1Ei
_ZN2nn2sf4cmif6client34CmifDomainProxyClientCoreProcessorINS0_4hipc6client38Hipc2ClientSessionManagedProxyKindBaseINS5_18Hipc2ProxyKindBaseILNS4_6detail11MessageTypeE6EEEEENS1_6detail14CoreMethodInfoINSt3__15tupleIJNSC_18OutRawArgumentInfoILm4ELm4ELl0EEENSG_ILm8ELm8ELl8EEENSC_18BufferArgumentInfoILi0ELi33ELm0EEENSC_17InRawArgumentInfoILm4ELm4ELl0EEEEEELm4ELm16ELb0EEESN_E7ProcessEPNS2_23CmifDomainClientMessageISB_E15ProxyBaseObjectENS2_24OutRawClientArgumentTypeILm4ELm4EEENSU_ILm8ELm8EEENS2_24BufferClientArgumentTypeENS2_23InRawClientArgumentTypeILm4ELm4EvEEj
_ZN2nn3mem17StandardAllocator10ReallocateEPvm
nnsocketGetPeerName
_ZN2nn3web19ShowYouTubeVideoArg19RequestUrlMaxLengthE
__nnmusl_ConsoleWrite
_ZN2nn2sf4cmif6client6detail13CmifProxyImplINS_7account4baas14IAdministratorENS2_19CmifDomainProxyKindINS0_4hipc6client38Hipc2ClientSessionManagedProxyKindBaseINSA_18Hipc2ProxyKindBaseILNS9_6detail11MessageTypeE6EEEEEEENS0_25StatelessAllocationPolicyINS0_22ExpHeapStaticAllocatorILm2048ENS5_6detail12ObjectHolder24ObjectHolderAllocatorTagEEEEES7_NS3_19ProcessModifierImplINS2_21DefaultProxyFilterTagEEEE24_nn_sf_sync_IsRegisteredENS0_3OutIbvEE
_ZN7android8String166appendEPKDsm
_ZN2nn2sf4cmif6client6detail13CmifProxyImplINS_7account19IAccountServiceBaseENS2_19CmifDomainProxyKindINS0_4hipc6client38Hipc2ClientSessionManagedProxyKindBaseINS9_18Hipc2ProxyKindBaseILNS8_6detail11MessageTypeE6EEEEEEENS0_25StatelessAllocationPolicyINS0_22ExpHeapStaticAllocatorILm2048ENS5_6detail12ObjectHolder24ObjectHolderAllocatorTagEEEEENS5_29IAccountServiceForApplicationENS3_19ProcessModifierImplINS2_21DefaultProxyFilterTagEEEE22_nn_sf_sync_GetProfileENS0_3OutINS0_13SharedPointerINS5_7profile8IProfileEEEvEERKNS5_3UidE
_ZTIN2nn5codec22OpusMultiStreamDecoderE
_ZTVN2nn2fs4save12SaveDataFileE
_ZTSN2nn3hid16IHidSystemServerE
_ZN2nn8irsensor6detail15IrSensorSession29AttachSharedMemoryIfNotMappedEv
_ZN2nn2sf4cmif6client6detail13CmifProxyImplINS_7timesrv6detail7service12ISystemClockENS2_19CmifDomainProxyKindINS0_4hipc6client38Hipc2ClientSessionManagedProxyKindBaseINSB_18Hipc2ProxyKindBaseILNSA_6detail11MessageTypeE6EEEEEEENS0_30MemoryResourceAllocationPolicyES8_NS3_19ProcessModifierImplINS2_21DefaultProxyFilterTagEEEE26_nn_sf_sync_GetCurrentTimeENS0_3OutINS_4time9PosixTimeEvEE
nvdcutilDsiPacketShortWrite
wcsxfrm
ecvt
_ZNSt3__113utf8_to_utf16IjEENS_9enable_ifIXoosr7is_sameIT_tEE5valuesr7is_sameIS2_jEE5valueENS_12codecvt_base6resultEE4typeEPKhS8_RS8_PS2_SA_RSA_mNS_12codecvt_modeE
_ZN2nn5codec25FreeRam_SbrDecWorkBuffer2EPPi
_ZN2nn2fs8MountRomEPKciPvm
_ZNKSt3__120__time_get_c_storageIwE3__xEv
cprojf
_ZN2nn2sf4cmif6client6detail13CmifProxyImplINS_7account31IAccountServiceForSystemServiceENS2_19CmifDomainProxyKindINS0_4hipc6client38Hipc2ClientSessionManagedProxyKindBaseINS9_18Hipc2ProxyKindBaseILNS8_6detail11MessageTypeE6EEEEEEENS0_25StatelessAllocationPolicyINS0_22ExpHeapStaticAllocatorILm2048ENS5_6detail12ObjectHolder24ObjectHolderAllocatorTagEEEEES6_NS3_19ProcessModifierImplINS2_21DefaultProxyFilterTagEEEE34_nn_sf_sync_DebugSetUserStateCloseERKNS5_3UidENS_3arp21ApplicationInstanceIdE
_ZN2nn2sf4cmif6client6detail13CmifProxyImplINS_2am7service22IAppletCommonFunctionsENS2_19CmifDomainProxyKindINS0_4hipc6client38Hipc2ClientSessionManagedProxyKindBaseINSA_18Hipc2ProxyKindBaseILNS9_6detail11MessageTypeE6EEEEEEENS0_30MemoryResourceAllocationPolicyES7_NS3_19ProcessModifierImplINS2_21DefaultProxyFilterTagEEEE43_nn_sf_sync_IsHomeButtonShortPressedBlockedENS0_3OutIbvEE
_ZN2nn3nfc6client27RequiredMcuVersionDataCountE
_ZNK2nn3ngc6detail3Set6ExportEPNS1_12BinaryWriterE
_ZNSt3__112ctype_bynameIcEC2ERKNS_12basic_stringIcNS_11char_traitsIcEENS_9allocatorIcEEEEm
_ZN2nn2sf4cmif6client6detail13CmifProxyImplINS_4nifm6detail15IGeneralServiceENS2_19CmifDomainProxyKindINS0_4hipc6client38Hipc2ClientSessionManagedProxyKindBaseINSA_18Hipc2ProxyKindBaseILNS9_6detail11MessageTypeE6EEEEEEENS0_30MemoryResourceAllocationPolicyES7_NS3_19ProcessModifierImplINS2_21DefaultProxyFilterTagEEEE42_nn_sf_sync_IsAnyForegroundRequestAcceptedENS0_3OutIbvEE
_ZN2nn3ntc4shim31CorrectionNetworkClockAsyncTask9GetResultEv
_ZN2nn2sf4cmif6client6detail13CmifProxyImplINS_7timesrv6detail7service16ITimeZoneServiceENS2_19CmifDomainProxyKindINS0_4hipc6client38Hipc2ClientSessionManagedProxyKindBaseINSB_18Hipc2ProxyKindBaseILNSA_6detail11MessageTypeE6EEEEEEENS0_30MemoryResourceAllocationPolicyES8_NS3_19ProcessModifierImplINS2_21DefaultProxyFilterTagEEEE31_nn_sf_sync_ParseTimeZoneBinaryENS0_3OutINS_4time12TimeZoneRuleEvEERKNS0_8InBufferE
_ZTSN2nn7account25UserRegistrationProcedureE
_ZN2nn6crypto6detail19RsaKeyPairGenerator8GenerateEv
_ZTSN2nn2fs4save18ExclusiveDirectoryE
_ZN2nn3hid6system32BindAudioControlStateChangeEventEPNS_2os15SystemEventTypeENS2_14EventClearModeE
nndetailImagePng_png_image_write_to_memory
_ZNK2nn3web21ShowSystemDataPageArg15PushToInChannelENS_6applet19LibraryAppletHandleE
_ZN7android8Composer7setSizeERKNS_2spINS_21SurfaceComposerClientEEERKNS1_INS_7IBinderEEEjj
__subvsi3
_ZN2nn2fs6detail24SaveDataExporterVersion230GetInitialDataMacKeyGenerationEPi
_ZN2nn2sf4cmif6client6detail13CmifProxyImplINS_3hid10IHidServerENS0_4hipc6client18Hipc2ProxyKindBaseILNS7_6detail11MessageTypeE6EEENS0_30MemoryResourceAllocationPolicyES6_NS3_19ProcessModifierImplINS2_21DefaultProxyFilterTagEEEE31_nn_sf_sync_SuspendPalmaFeatureENS5_21PalmaConnectionHandleENS_4util10BitFlagSetILi32ENS5_12PalmaFeatureEEE
_ZN2nn5image6detail20WritePngDataCallbackEP14png_struct_defPhm
_ZN2nn8settings6detail18GetXpadKeyboardMapEPNS0_20BasicXpadKeyboardMapEi
nnsocketShutdown
_ZNK2nn5audio15PerformanceInfo10GetEntriesEPi
_ZN2nn4http4json8JsonPathILi8ELi128ELb0EE7TryPushERKNS1_4NodeEPKc
_ZN2nn2sf4cmif6client34CmifDomainProxyClientCoreProcessorINS0_4hipc6client38Hipc2ClientSessionManagedProxyKindBaseINS5_18Hipc2ProxyKindBaseILNS4_6detail11MessageTypeE6EEEEENS1_6detail14CoreMethodInfoINSt3__15tupleIJNSC_18BufferArgumentInfoILi0ELi6ELm0EEENSG_ILi1ELi5ELm0EEENSG_ILi2ELi5ELm0EEENSC_17InRawArgumentInfoILm4ELm4ELl0EEEEEELm4ELm0ELb0EEESM_E7ProcessEPNS2_23CmifDomainClientMessageISB_E15ProxyBaseObjectENS2_24BufferClientArgumentTypeEST_ST_NS2_23InRawClientArgumentTypeILm4ELm4EvEEj
cprojl
nndetailRoGetRoDataStart
_ZN2nn5codec28CProgramConfig_LookupElementEPNS0_14CProgramConfigEjjjPhP18AUDIO_CHANNEL_TYPES3_S3_P14MP4_ELEMENT_IDS6_
_ZN2nn2fs6detail30FileSystemServiceObjectAdapter21DoGetFileTimeStampRawEPNS0_16FileTimeStampRawEPKc
pthread_setname_np
_ZNK2nn3mii6detail11CoreDataRaw13GetMouthColorEv
_ZN2nn3nsd18GetCurrentSaveDataEPNS0_8SaveDataE
_ZN2nn2sf4cmif6client6detail13CmifProxyImplINS_7account6detail13IAsyncContextENS2_19CmifDomainProxyKindINS0_4hipc6client38Hipc2ClientSessionManagedProxyKindBaseINSA_18Hipc2ProxyKindBaseILNS9_6detail11MessageTypeE6EEEEEEENS0_25StatelessAllocationPolicyINS0_22ExpHeapStaticAllocatorILm2048ENS6_12ObjectHolder24ObjectHolderAllocatorTagEEEEES7_NS3_19ProcessModifierImplINS2_21DefaultProxyFilterTagEEEE26_nn_sf_sync_GetSystemEventENS0_3OutINS0_12NativeHandleEvEE
_ZN2nn5codec13delayIndexQmfE
_ZN2nn4diag15OnResultRethrowENS_6ResultERKNS0_10SourceInfoE
nndetailImagePng_png_read_start_row
_ZN2nn3nfc9GetNpadIdEPjRKNS0_12DeviceHandleE
_ZN2nn2ro6detail8RoModule26InitializeArchitectureDataEv
_ZN2nn2sf4hipc6client24Hipc2ClientCoreProcessorILNS1_6detail11MessageTypeE6ENS0_4cmif6detail14CoreMethodInfoINSt3__15tupleIJNS7_18OutRawArgumentInfoILm72ELm4ELl0EEEEEELm0ELm72ELb0EEESD_E7ProcessEPNS2_26Hipc2ClientProxyBaseObjectENS6_6client24OutRawClientArgumentTypeILm72ELm4EEEj
_ZTIN2nn6capsrv2sf32IAlbumAccessorApplicationSessionE
_ZN2nn4edid6detail27GetDetailedTimingStereoModeEh
_ZN2nn3hid18VibrationConverterC1Ev
_ZTIN2nn2os6detail37MultiWaitHolderOfMessageQueueNotEmptyE
_ZN2nn2sf4cmif6client6detail13CmifProxyImplINS_8settings21ISystemSettingsServerENS0_4hipc6client18Hipc2ProxyKindBaseILNS7_6detail11MessageTypeE6EEENS0_30MemoryResourceAllocationPolicyES6_NS3_19ProcessModifierImplINS2_21DefaultProxyFilterTagEEEE28_nn_sf_sync_GetPctlReadyFlagENS0_3OutIbvEE
_ZN2nn2sf4hipc6client24Hipc2ClientCoreProcessorILNS1_6detail11MessageTypeE6ENS0_4cmif6detail14CoreMethodInfoINSt3__15tupleIJNS7_17InRawArgumentInfoILm4ELm4ELl0EEENSB_ILm4ELm4ELl4EEENS7_18BufferArgumentInfoILi0ELi33ELm0EEENSE_ILi1ELi34ELm0EEENSB_ILm4ELm4ELl8EEEEEELm12ELm0ELb0EEESI_E7ProcessEPNS2_26Hipc2ClientProxyBaseObjectENS6_6client23InRawClientArgumentTypeILm4ELm4EvEESP_NSN_24BufferClientArgumentTypeESQ_SP_j
_ZNSt3__113basic_ostreamIwNS_11char_traitsIwEEE6sentryD2Ev
_ZN2nn7account13ProfileEditoraSEOS1_
_ZTSN2nn2sf4cmif6client6detail9CmifProxyINS_3apm14ISystemManagerENS0_4hipc6client18Hipc2ProxyKindBaseILNS7_6detail11MessageTypeE6EEENS0_30MemoryResourceAllocationPolicyENS3_19ProcessModifierImplINS2_21DefaultProxyFilterTagEEEvEE
_ZN2nn5audio6server16UpsamplerManagerC2EiPNS0_13UpsamplerInfoEPa
_ZN2nn2la4auth26ShowParentalAuthenticationERKNS1_25ParentalAuthenticationArgE
_ZTVN2nn2os6detail22MultiWaitHolderOfEventE
NvUHashDeinit
_ZNSt3__18valarrayImED2Ev
_ZN2nn2sf4cmif6client34CmifDomainProxyClientCoreProcessorINS0_4hipc6client38Hipc2ClientSessionManagedProxyKindBaseINS5_18Hipc2ProxyKindBaseILNS4_6detail11MessageTypeE6EEEEENS1_6detail14CoreMethodInfoINSt3__15tupleIJNSC_18OutRawArgumentInfoILm8ELm8ELl0EEENSC_18BufferArgumentInfoILi0ELi6ELm0EEEEEELm0ELm8ELb0EEESK_E7ProcessEPNS2_23CmifDomainClientMessageISB_E15ProxyBaseObjectENS2_24OutRawClientArgumentTypeILm8ELm8EEENS2_24BufferClientArgumentTypeEj
_ZN2nn2vi9SetLayerZEPNS0_5LayerEi
_ZN7android6Parcel15restoreAllowFdsEb
_ZNSt3__16localeC1ERKS0_RKNS_12basic_stringIcNS_11char_traitsIcEENS_9allocatorIcEEEEi
fgetc_unlocked
nncodecLibopus_opus_packet_get_nb_channels
_ZThn16_N2nn2sf4cmif6client6detail13CmifProxyImplINS_4npns9INpnsUserENS0_4hipc6client18Hipc2ProxyKindBaseILNS7_6detail11MessageTypeE6EEENS0_30MemoryResourceAllocationPolicyENS5_11INpnsSystemENS3_19ProcessModifierImplINS2_21DefaultProxyFilterTagEEEE17GetCmifBaseObjectEv
_ZN2nn2sf4cmif6client6detail13CmifProxyImplINS_4pctl6detail3ipc23IParentalControlServiceENS2_19CmifDomainProxyKindINS0_4hipc6client38Hipc2ClientSessionManagedProxyKindBaseINSB_18Hipc2ProxyKindBaseILNSA_6detail11MessageTypeE6EEEEEEENS0_30MemoryResourceAllocationPolicyES8_NS3_19ProcessModifierImplINS2_21DefaultProxyFilterTagEEEE47_nn_sf_sync_FinishGetAccountMiiImageContentTypeENS0_3OutIjvEERKNS0_8OutArrayIcEENS6_9AsyncDataE
_ZTVSt16invalid_argument
lrint
_ZN2nn3hid13VibrationNode6UpdateEv
_ZN2nn4nifm4ScanEPKsiNS0_17RequirementPresetE
_ZNK7android16SortedVectorImpl7indexOfEPKv
_ZN2nn3hid6system6detail27CheckFirmwareUpdateRequiredEPNS1_28FirmwareUpdateRequiredReasonENS1_11UniquePadIdE
_ZN2nn8settings6detail23SetDataDeletionSettingsERKNS0_6system20DataDeletionSettingsE
_ZN2nn2sf4cmif6client6detail13CmifProxyImplINS_8settings22IFactorySettingsServerENS0_4hipc6client18Hipc2ProxyKindBaseILNS7_6detail11MessageTypeE6EEENS0_30MemoryResourceAllocationPolicyES6_NS3_19ProcessModifierImplINS2_21DefaultProxyFilterTagEEEE35_nn_sf_sync_SetOverlayDispProgramIdENS_3ncm9ProgramIdE
_ZN2nn4util10Executable7ExecuteEPvm
_ZNK7android7IMemory7pointerEv
_ZNK7android12ConsumerBase4dumpERNS_7String8EPKc
_ZTIN2nn7account7profile8IProfileE
_ZTSN2nn2sf4cmif6client6detail9CmifProxyINS_2am7service17IOverlayFunctionsENS2_19CmifDomainProxyKindINS0_4hipc6client38Hipc2ClientSessionManagedProxyKindBaseINSA_18Hipc2ProxyKindBaseILNS9_6detail11MessageTypeE6EEEEEEENS0_30MemoryResourceAllocationPolicyENS3_19ProcessModifierImplINS2_21DefaultProxyFilterTagEEEvEE
_ZNK2nn4bcat21DeliveryCacheProgress23GetCurrentDirectoryNameEv
ttf_read
_ZN2nn3hid6detail16GetKeyboardStateEPNS0_13KeyboardStateE
_ZN2nn4util10BitFlagSetILi256ENS_3hid11KeyboardKeyEE4FlagILi133EE4MaskE
_ZNK2nn3mii6detail11CoreDataRaw15GetEyebrowColorEv
_ZN2nn8settings6system30GetAnalogStickUserCalibrationLEPNS1_26AnalogStickUserCalibrationE
_ZN2nn4util6detail15AtanSampleTableE
strncasecmp
wcscspn
_ZN2nn6crypto23EncryptAes128CtrPartialEPvmPKvmS3_mlS3_m
nnmem_nlib_thread_setname
_ZN2nn5audio6server24AudioRendererManagerImplD1Ev
_ZN2nn6crypto6detail6BigNum3AddEPjPKjS5_i
_ZN2nn2sf4cmif6client6detail13CmifProxyImplINS_7account4http15IOAuthProcedureENS2_19CmifDomainProxyKindINS0_4hipc6client38Hipc2ClientSessionManagedProxyKindBaseINSA_18Hipc2ProxyKindBaseILNS9_6detail11MessageTypeE6EEEEEEENS0_25StatelessAllocationPolicyINS0_22ExpHeapStaticAllocatorILm2048ENS5_6detail12ObjectHolder24ObjectHolderAllocatorTagEEEEENS5_3nas34IOAuthProcedureForUserRegistrationENS3_19ProcessModifierImplINS2_21DefaultProxyFilterTagEEEE12GetProxyInfoEv
_ZN2nn9bluetooth4user14GetLeEventInfoEPNS0_12BleEventTypeEPhm
_ZNK2nn5image13ExifExtractor25ExtractEffectiveDimensionEPNS0_9DimensionE
_ZN2nn2sf4cmif6client6detail13CmifProxyImplINS_3ssl2sf14ISslConnectionENS2_19CmifDomainProxyKindINS0_4hipc6client38Hipc2ClientSessionManagedProxyKindBaseINSA_18Hipc2ProxyKindBaseILNS9_6detail11MessageTypeE6EEEEEEENS0_24StatefulAllocationPolicyINS0_16ExpHeapAllocatorEEES7_NS3_19ProcessModifierImplINS2_21DefaultProxyFilterTagEEEE21_nn_sf_sync_SetIoModeENS6_6IoModeE
__unorddf2
_ZN2nn5audio15GetAudioInStateEPKNS0_7AudioInE
_ZN2nn4bcat35ClearDeliveryTaskSubscriptionStatusEv
_ZN2nn2fs6detail12FileAccessorC2EONSt3__110unique_ptrINS0_3fsa5IFileENS3_14default_deleteIS6_EEEEPNS1_18FileSystemAccessorEi
_ZTSN2nn2sf6detail38ObjectImplFactoryWithStatefulAllocatorINS0_4cmif6client6detail9CmifProxyINS_3hid10IHidServerENS0_4hipc6client18Hipc2ProxyKindBaseILNS9_6detail11MessageTypeE6EEENS0_30MemoryResourceAllocationPolicyENS5_19ProcessModifierImplINS4_21DefaultProxyFilterTagEEEvEESF_E6ObjectE
nnmem_nlib_mempagesize
_ZN2nn3nfp6client21CreateSystemInterfaceEv
_ZN2nn3ngc6detail11InputStream5CloseEv
nnosInitializeMultiWaitHolderForSemaphore
_ZN2nn2sf4cmif6server23CmifServerDomainManager6Domain7ReleaseEv
_ZN2nn2sf4hipc6client24Hipc2ClientCoreProcessorILNS1_6detail11MessageTypeE6ENS0_4cmif6detail14CoreMethodInfoINSt3__15tupleIJNS7_17InRawArgumentInfoILm8ELm8ELl0EEENS7_18OutRawArgumentInfoILm8ELm8ELl0EEEEEELm8ELm8ELb0EEESF_E7ProcessEPNS2_26Hipc2ClientProxyBaseObjectENS6_6client23InRawClientArgumentTypeILm8ELm8EvEENSK_24OutRawClientArgumentTypeILm8ELm8EEEj
_ZN2nn2fs6detail29DirectoryServiceObjectAdapterD1Ev
_ZN2nn6socket8resolver11GetAddrInfoEPKcS3_PKNS0_8AddrInfoEPPS4_
_ZNKSt3__120__time_get_c_storageIwE3__rEv
_ZNSt3__16localeC2ERKS0_RKNS_12basic_stringIcNS_11char_traitsIcEENS_9allocatorIcEEEEi
_ZN2nn5codec22CProgramConfig_IsValidEPKNS0_14CProgramConfigE
_ZN2nn4pctl28SetPlayTimerSettingsForDebugERKNS0_17PlayTimerSettingsE
_ZN2nn2fs22GetSystemSaveDataFlagsEPjNS0_15SaveDataSpaceIdEmRKNS0_6UserIdE
_ZN2nn2sf4cmif6client6detail13CmifProxyImplINS_3hid16IHidSystemServerENS0_4hipc6client18Hipc2ProxyKindBaseILNS7_6detail11MessageTypeE6EEENS0_30MemoryResourceAllocationPolicyES6_NS3_19ProcessModifierImplINS2_21DefaultProxyFilterTagEEEE31_nn_sf_sync_AbortFirmwareUpdateEv
_ZN2nn6crypto6detail9GhashImpl22SwitchMessageSizeDigitEv
_ZN2nn2sf4cmif6client6detail13CmifProxyImplINS_3hid15IHidDebugServerENS0_4hipc6client18Hipc2ProxyKindBaseILNS7_6detail11MessageTypeE6EEENS0_30MemoryResourceAllocationPolicyES6_NS3_19ProcessModifierImplINS2_21DefaultProxyFilterTagEEEE34_nn_sf_sync_SetMouseAutoPilotStateERKNS5_5debug19MouseAutoPilotStateE
_ZN2nn2sf4cmif6client6detail13CmifProxyImplINS_4nifm6detail15IGeneralServiceENS2_19CmifDomainProxyKindINS0_4hipc6client38Hipc2ClientSessionManagedProxyKindBaseINSA_18Hipc2ProxyKindBaseILNS9_6detail11MessageTypeE6EEEEEEENS0_30MemoryResourceAllocationPolicyES7_NS3_19ProcessModifierImplINS2_21DefaultProxyFilterTagEEEE38_nn_sf_sync_EnumerateNetworkInterfacesERKNS0_8OutArrayINS6_2sf20NetworkInterfaceInfoEEENS0_3OutIivEEj
_ZN7android9BpRefBaseD2Ev
_ZN2nn2sf4cmif6client6detail13CmifProxyImplINS_2am7service18ICommonStateGetterENS2_19CmifDomainProxyKindINS0_4hipc6client38Hipc2ClientSessionManagedProxyKindBaseINSA_18Hipc2ProxyKindBaseILNS9_6detail11MessageTypeE6EEEEEEENS0_30MemoryResourceAllocationPolicyES7_NS3_19ProcessModifierImplINS2_21DefaultProxyFilterTagEEEE36_nn_sf_sync_ActivateMigrationServiceEv
_ZN2nn3hid6detail20GetTouchScreenStatesILm13EEENS_6ResultEPiPNS0_16TouchScreenStateIXT_EEEi
_ZN2nn6socket6detail4SendEiPKvmi
_ZNSt3__113shared_futureIvEaSERKS1_
_ZN2nn7account38ExternalNetworkServiceAccountRegistrarC2EPNS0_4baas28IFloatingRegistrationRequestE
_ZN2nn2sf4cmif6client6detail13CmifProxyImplINS_3hid15IHidDebugServerENS0_4hipc6client18Hipc2ProxyKindBaseILNS7_6detail11MessageTypeE6EEENS0_30MemoryResourceAllocationPolicyES6_NS3_19ProcessModifierImplINS2_21DefaultProxyFilterTagEEEE31_nn_sf_sync_ConnectUsbPadsAsyncEv
_ZN2nn3kpr6detail34GetKeyCodeComposerCompositionCountERKNS1_22KeyCodeComposerStorageE
_ZNSt11range_errorD0Ev
_ZN2nn7account12ListAllUsersEPiPNS0_3UidEi
_ZN2nn2fs10QueryRangeEPNS0_14QueryRangeInfoENS0_10FileHandleEll
_ZN2nn2fs6detail44OpenSaveDataTransferProhibiterForCloudBackUpEPNSt3__110unique_ptrINS0_40SaveDataTransferProhibiterForCloudBackUpENS2_14default_deleteIS4_EEEENS_3ncm13ApplicationIdE
_ZNSt3__120__threads_data_queueD1Ev
_ZNK7android6Region3endEv
copy_outline
_ZN2nn5swkbd14InlineKeyboard22SetMovedCursorCallbackEPFvPKNS0_14MovedCursorArgEE
_ZNSt3__112basic_stringIwNS_11char_traitsIwEENS_9allocatorIwEEE6assignEPKw
_ZN2nn2fs6detail22LruFileDataCacheSystem16DoCompactionCoreEPNS2_10PageRegionEii
_ZN2nn3hid17StopSixAxisSensorERKNS0_19SixAxisSensorHandleE
_ZN2nn2sf4cmif6server6detail34CmifProcessFunctionTableGetterImplINS0_4hipc6detail12IHipcManagerEE30Process_QueryPointerBufferSizeEPPNS1_13CmifOutHeaderEPS7_PNS2_17CmifServerMessageEONS0_6detail14PointerAndSizeE
_ZN2nn4util7Color4f11ConstantRedE
_ZN2nn6capsrv38GetAlbumContentsFileListForApplicationEPiPNS0_21ApplicationAlbumEntryEihNS0_17AlbumFileDateTimeES4_
_ZN2nn6applet28TryPopFromAppletBoundChannelEPNS0_13StorageHandleE
_ZNK2nn5audio6server14EffectInfoBase8GetUsageEv
_ZN2nn3hid14KeyboardLayout23ChineseTraditionalLatinE
_ZTSN2nn4util9IFunctionIFNS_6ResultEmmEEE
_ZN2nn6socket6SelectEiP6fd_setS2_S2_P7timeval
_ZN2nn6socket6detail11GetSockNameEiPNS0_8SockAddrEPj
_ZTSN2nn3ssl6detail22ISslServiceFactoryBaseE
nncodecLibopus_silk_InitEncoder
_ZN2nn3mii6detail12StoreDataRaw13SetRegionMoveEi
_ZN2nn2os15JamMessageQueueEPNS0_16MessageQueueTypeEm
_ZTINSt3__110__time_getE
_ZN2nn2fs6detail22PathBasedFileDataCache13FindHashIndexEPiPNS1_18FileSystemAccessorERKNS1_12FilePathHashEPKc
_ZN2nn2sf6detail38ObjectImplFactoryWithStatefulAllocatorINS0_4cmif6client6detail9CmifProxyINS_3nim6detail20IShopServiceAccessorENS0_4hipc6client18Hipc2ProxyKindBaseILNSA_6detail11MessageTypeE6EEENS0_30MemoryResourceAllocationPolicyENS5_19ProcessModifierImplINS4_21DefaultProxyFilterTagEEEvEESG_E6Object12AddReferenceEv
_ZN2nn3hid6system6detail23IsButtonConfigSupportedEPbRKNS1_11UniquePadIdE
_ZTSN2nn3ssl2sf11ISslContextE
_ZNSt3__112basic_stringIwNS_11char_traitsIwEENS_9allocatorIwEEE6__initEmw
_ZN2nn5audio32SetFinalOutputRecorderBufferInfoEPNS0_25FinalOutputRecorderBufferEPvmm
_ZTIN2nn7friends6detail3ipc20INotificationServiceE
_ZN2nn2fs24HierarchicalRomFileTable8OpenFileEPNS0_11RomFileInfoEi
_ZN2nn6socket7ConnectEiPKNS0_8SockAddrEj
_ZN2nn5audio16ApplyDelayEffectEPKNS0_14DelayParameterEPNS0_10DelayStateEbPPKiPPii
_ZN2nn5audio6server16CommandGenerator21GenerateVoiceCommandsEv
_ZN2nn5audio6server13CommandBuffer8GenerateINS1_7command14DataSourceBaseINS0_26TDataSourceCommandVersion2ILNS0_9CommandIdE6EEELNS0_24PerformanceSysDetailTypeE15EEEJPNS1_9VoiceInfoEPNS0_10VoiceStateERiSF_EEEPNT_3DefEjDpOT0_
_ZN2nn2sf4cmif6client6detail13CmifProxyImplINS_4bcat6detail3ipc30IDeliveryCacheDirectoryServiceENS2_19CmifDomainProxyKindINS0_4hipc6client38Hipc2ClientSessionManagedProxyKindBaseINSB_18Hipc2ProxyKindBaseILNSA_6detail11MessageTypeE6EEEEEEENS0_30MemoryResourceAllocationPolicyES8_NS3_19ProcessModifierImplINS2_21DefaultProxyFilterTagEEEE17GetCmifBaseObjectEv
_ZN2nn3mii6detail24NfpStoreDataExtentionRaw15SetEyebrowColorEi
_ZN2nn2sf4cmif6client34CmifDomainProxyClientCoreProcessorINS0_4hipc6client38Hipc2ClientSessionManagedProxyKindBaseINS5_18Hipc2ProxyKindBaseILNS4_6detail11MessageTypeE6EEEEENS1_6detail14CoreMethodInfoINSt3__15tupleIJNSC_18OutRawArgumentInfoILm1ELm1ELl0EEENSC_21OutHandleArgumentInfoILi0ELi1EEEEEELm0ELm1ELb0EEESK_E7ProcessEPNS2_23CmifDomainClientMessageISB_E15ProxyBaseObjectENS2_24OutRawClientArgumentTypeILm1ELm1EEENS2_27OutHandleClientArgumentTypeEj
_ZN2nn2sf4cmif6client6detail13CmifProxyImplINS_2am7service18ICommonStateGetterENS2_19CmifDomainProxyKindINS0_4hipc6client38Hipc2ClientSessionManagedProxyKindBaseINSA_18Hipc2ProxyKindBaseILNS9_6detail11MessageTypeE6EEEEEEENS0_30MemoryResourceAllocationPolicyES7_NS3_19ProcessModifierImplINS2_21DefaultProxyFilterTagEEEE27_nn_sf_sync_IsVrModeEnabledENS0_3OutIbvEE
_ZN2nn9bluetooth17TriggerConnectionERKNS0_7AddressEt
_ZN2nn8settings12LanguageCode8JapaneseEv
_ZdlPvRKSt9nothrow_t
_ZN2nn9bluetooth10DisableBleEv
_ZN2nn5codec8DecodePsEPNS0_6PS_DECEh
_ZZN3nne9rapidjson6WriterIN2nn2ec4json24NoAllocationOutputStreamENS0_4UTF8IcEES7_NS0_19MemoryPoolAllocatorINS2_4http4json23NoAllocatorForRapidJsonEEELj0EE11WriteStringEPKcjE9hexDigits
_ZN2nn8settings6detail32SetChineseTraditionalInputMethodENS0_29ChineseTraditionalInputMethodE
_ZN2nn3web19ShowYouTubeVideoArg18SetBootDisplayKindENS0_18WebBootDisplayKindE
_ZNSt3__113basic_istreamIwNS_11char_traitsIwEEE7getlineEPwlw
_ZZN2nn2sf40SimpleAllInOneHipcSubDomainClientManagerILm100EE27InitializeShimLibraryHolderINS_2am7service24IApplicationProxyServiceENS0_4cmif6client6detail19ProcessModifierImplINS8_21DefaultProxyFilterTagEEEEENS_6ResultEPNS0_23ShimLibraryObjectHolderIT_EEPKcPNS_14MemoryResourceEENKUlPvE_clESM_
_ZN2nn2fs11GetRightsIdEPNS0_8RightsIdEPKc
_ZN2nn2sf4cmif6client6detail13CmifProxyImplINS_2am7service15ISelfControllerENS2_19CmifDomainProxyKindINS0_4hipc6client38Hipc2ClientSessionManagedProxyKindBaseINSA_18Hipc2ProxyKindBaseILNS9_6detail11MessageTypeE6EEEEEEENS0_30MemoryResourceAllocationPolicyES7_NS3_19ProcessModifierImplINS2_21DefaultProxyFilterTagEEEE33_nn_sf_sync_GetCurrentIlluminanceENS0_3OutIfvEE
_ZN2nn3mii16GetEyeGreenColorENS0_9GammaTypeE
_ZN2nn2sf4cmif6client6detail13CmifProxyImplINS_4pctl6detail3ipc23IParentalControlServiceENS2_19CmifDomainProxyKindINS0_4hipc6client38Hipc2ClientSessionManagedProxyKindBaseINSB_18Hipc2ProxyKindBaseILNSA_6detail11MessageTypeE6EEEEEEENS0_30MemoryResourceAllocationPolicyES8_NS3_19ProcessModifierImplINS2_21DefaultProxyFilterTagEEEE30_nn_sf_sync_IsPlayTimerEnabledENS0_3OutIbvEE
_ZNKSt3__110__time_put8__do_putEPcRS1_PK2tmcc
_ZNKSt3__112basic_stringIwNS_11char_traitsIwEENS_9allocatorIwEEE12find_last_ofEPKwmm
_ZN2nn2ec28AsyncConsumeRightDataRequest7EndImplEPiPNS0_30ConsumableServiceItemRightDataEi
_ZN4nerd11Butterworth6Apply6EPKsPsmm
NvRmSyncCalculateSizeForInplaceSyncpoints
fdopen
_ZN2nn6socket8resolver11GetNameInfoEPKNS0_8SockAddrEjPcmS5_mNS0_12NameInfoFlagEPKNS0_14ResolverOptionEm
_ZN2nn2sf4hipc6client22QueryPointerBufferSizeEPtNS_3svc6HandleE
_ZN2nn2ec19ShopServiceAccessor13AsyncResponse6DetachEv
_ZN2nn2sf4cmif6client6detail13CmifProxyImplINS_3hid15IHidDebugServerENS0_4hipc6client18Hipc2ProxyKindBaseILNS7_6detail11MessageTypeE6EEENS0_30MemoryResourceAllocationPolicyES6_NS3_19ProcessModifierImplINS2_21DefaultProxyFilterTagEEEE30_nn_sf_sync_EnableWiredPairingEb
nnmem_nlib_strchr_simd
_ZN2nn4time6detail18SharedMemoryClient40GetStandardNetworkSystemClockCurrentTimeEPNS0_9PosixTimeE
_ZNK2nn4util14AsyncExecution13IsInitializedEv
nvdcutilDsiPacketLongWrite
_ZTSN2nn2sf4cmif6client6detail9CmifProxyINS_2ec21IPurchaseEventManagerENS0_4hipc6client18Hipc2ProxyKindBaseILNS7_6detail11MessageTypeE6EEENS0_30MemoryResourceAllocationPolicyENS3_19ProcessModifierImplINS2_21DefaultProxyFilterTagEEEvEE
nnosGetSystemTickOrdered
hdcp_enable
_ZNSt3__113shared_futureIvED1Ev
__mulosi4
__negti2
_ZN2nn8irsensor6detail20RunPointingProcessorERKNS0_14IrCameraHandleE
_ZNK2nn8irsensor6detail13StatusManager17GetTeraPluginLifoERKNS0_14IrCameraHandleE
_ZN2nn2os6detail17CallFiberFunctionEPFPNS0_9FiberTypeEPvES4_
_ZTSN2nn2sf4cmif6client6detail13CmifProxyImplINS_7timesrv6detail7service14IStaticServiceENS2_19CmifDomainProxyKindINS0_4hipc6client38Hipc2ClientSessionManagedProxyKindBaseINSB_18Hipc2ProxyKindBaseILNSA_6detail11MessageTypeE6EEEEEEENS0_30MemoryResourceAllocationPolicyES8_NS3_19ProcessModifierImplINS2_21DefaultProxyFilterTagEEEEE
_ZN2nn5audio17GetReverbLateGainEPKNS0_10ReverbTypeE
_ZN2nn2fs19SetSaveDataCommitIdENS0_15SaveDataSpaceIdEmRKl
_ZN2nn2lm6detail24LogPacketTransmitterBase13PushDataChunkENS1_15LogDataChunkKeyEPKvm
_ZN2nn2oe22PopNotificationMessageEv
_ZNSt3__18ios_base4InitD1Ev
_ZN2nn9bluetooth11FinalizeHidEv
_ZN2nn2sf4cmif6client6detail13CmifProxyImplINS_2lm11ILogServiceENS2_19CmifDomainProxyKindINS0_4hipc6client38Hipc2ClientSessionManagedProxyKindBaseINS9_18Hipc2ProxyKindBaseILNS8_6detail11MessageTypeE6EEEEEEENS0_30MemoryResourceAllocationPolicyES6_NS3_19ProcessModifierImplINS2_21DefaultProxyFilterTagEEEE17GetCmifBaseObjectEv
_ZN2nn2sf4cmif6client34CmifDomainProxyClientCoreProcessorINS0_4hipc6client38Hipc2ClientSessionManagedProxyKindBaseINS5_18Hipc2ProxyKindBaseILNS4_6detail11MessageTypeE6EEEEENS1_6detail14CoreMethodInfoINSt3__15tupleIJNSC_18OutRawArgumentInfoILm4ELm4ELl0EEENSG_ILm4ELm4ELl4EEENSC_17InRawArgumentInfoILm4ELm4ELl0EEENSC_18BufferArgumentInfoILi0ELi6ELm0EEENSJ_ILm4ELm4ELl4EEENSJ_ILm4ELm4ELl8EEENSJ_ILm16ELm8ELl16EEEEEELm32ELm8ELb0EEESQ_E7ProcessEPNS2_23CmifDomainClientMessageISB_E15ProxyBaseObjectENS2_24OutRawClientArgumentTypeILm4ELm4EEESY_NS2_23InRawClientArgumentTypeILm4ELm4EvEENS2_24BufferClientArgumentTypeES10_S10_NSZ_ILm16ELm8EvEEj
_ZNK2nn5audio6server15SplitterContext12GetDataCountEv
_ZN2nn2oe29SaveGamePlayRecordingForDebugENS_8TimeSpanE
_ZTIN2nn2sf4cmif6client6detail9CmifProxyINS_3ssl2sf14ISslConnectionENS2_19CmifDomainProxyKindINS0_4hipc6client38Hipc2ClientSessionManagedProxyKindBaseINSA_18Hipc2ProxyKindBaseILNS9_6detail11MessageTypeE6EEEEEEENS0_24StatefulAllocationPolicyINS0_16ExpHeapAllocatorEEENS3_19ProcessModifierImplINS2_21DefaultProxyFilterTagEEEvEE
_ZN2nn2vi11OpenDisplayEPPNS0_7DisplayEPKc
_ZN7android7BBinderD0Ev
_ZN2nn3hid6system6detail34SetTouchScreenDefaultConfigurationERKNS0_29TouchScreenConfigurationForNxE
_ZTIN2nn4nifm6detail15IGeneralServiceE
nnosAttachSystemEvent
_ZNK2nn2sf4hipc6detail25HipcMessageBufferAccessor6GetTagEv
nnsocketGetNameInfo
_ZN2nn5audio27GetFinalOutputRecorderStateEPKNS0_19FinalOutputRecorderE
_ZN2nn2sf4cmif6client6detail13CmifProxyImplINS_4bcat6detail3ipc25IDeliveryCacheFileServiceENS2_19CmifDomainProxyKindINS0_4hipc6client38Hipc2ClientSessionManagedProxyKindBaseINSB_18Hipc2ProxyKindBaseILNSA_6detail11MessageTypeE6EEEEEEENS0_30MemoryResourceAllocationPolicyES8_NS3_19ProcessModifierImplINS2_21DefaultProxyFilterTagEEEE12GetProxyInfoEv
strrchr
_ZN2nn5image6detail4jpeg21jpeg_destroy_compressEPNS2_20jpeg_compress_structE
_ZN2nn5prepo16SystemPlayReport3AddEPKcRKNS0_6StructE
_ZN2nn2sf6detail38ObjectImplFactoryWithStatefulAllocatorINS0_4cmif6client6detail9CmifProxyINS_6grcsrv11IMovieMakerENS4_19CmifDomainProxyKindINS0_4hipc6client38Hipc2ClientSessionManagedProxyKindBaseINSB_18Hipc2ProxyKindBaseILNSA_6detail11MessageTypeE6EEEEEEENS0_30MemoryResourceAllocationPolicyENS5_19ProcessModifierImplINS4_21DefaultProxyFilterTagEEEvEESJ_E6Object7ReleaseEv
_ZN2nn5audio23SetAuxLimiterParametersEPNS0_14AuxLimiterTypeEPKNS0_19LimiterParameterSetE
_ZTVN2nn2sf6detail38ObjectImplFactoryWithStatefulAllocatorINS0_13InterfaceInfoINS_5audio6detail14IAudioRendererEE4_tABINS7_5_tO2NINS4_6server24AudioRendererManagerImpl17AudioRendererImplEE4typeES6_E4typeENS0_24StatefulAllocationPolicyINS0_16ExpHeapAllocatorEEEE6ObjectE
_ZN2nn2sf4cmif6client6detail13CmifProxyImplINS_7friends6detail3ipc14IFriendServiceENS2_19CmifDomainProxyKindINS0_4hipc6client38Hipc2ClientSessionManagedProxyKindBaseINSB_18Hipc2ProxyKindBaseILNSA_6detail11MessageTypeE6EEEEEEENS0_30MemoryResourceAllocationPolicyES8_NS3_19ProcessModifierImplINS2_21DefaultProxyFilterTagEEEE61_nn_sf_sync_SendFriendRequestWithExternalApplicationCatalogIdERKNS_7account3UidENSO_23NetworkServiceAccountIdEiRKNS5_28ExternalApplicationCatalogIdERKNS5_15InAppScreenNameESY_
_ZN2nn9hidconfig22SetDefaultButtonConfigERKNS_3hid6system11UniquePadIdE
_ZNSt12experimental19bad_optional_accessD0Ev
_ZN2nn2fs3fsa8RegisterEPKcPNS1_18IMultiCommitTargetEONSt3__110unique_ptrINS1_11IFileSystemENS6_14default_deleteIS8_EEEEONS7_INS1_25ICommonMountNameGeneratorENS9_ISD_EEEEONS7_INS1_24ISaveDataAttributeGetterENS9_ISH_EEEEbb
_ZN2nn2os6detail26ThreadManagerImplByHorizon18ResumeThreadUnsafeEPNS0_10ThreadTypeE
_ZN2nn4util6detail7msgpack26WriteSignedIntegerAutoSizeEPNS0_17MessagePackWriter11StreamParamEl
_ZN2nn7account25ShowUserCreatorForStarterEv
_ZN2nn2os20TimedWaitSystemEventEPNS0_15SystemEventTypeENS_8TimeSpanE
_ZN2nn5audio8SinkInfoC2Ev
_ZN7android21SurfaceComposerClient17getDisplayConfigsERKNS_2spINS_7IBinderEEEPNS_6VectorINS_11DisplayInfoEEE
_ZN2nn2sf4cmif6client6detail13CmifProxyImplINS_7account4baas22IManagerForApplicationENS2_19CmifDomainProxyKindINS0_4hipc6client38Hipc2ClientSessionManagedProxyKindBaseINSA_18Hipc2ProxyKindBaseILNS9_6detail11MessageTypeE6EEEEEEENS0_25StatelessAllocationPolicyINS0_22ExpHeapStaticAllocatorILm2048ENS5_6detail12ObjectHolder24ObjectHolderAllocatorTagEEEEES7_NS3_19ProcessModifierImplINS2_21DefaultProxyFilterTagEEEE48_nn_sf_sync_EnsureIdTokenCacheForOnlinePlayAsyncENS0_3OutINS0_13SharedPointerINS6_34IAsyncContextForLoginForOnlinePlayEEEvEE
nncryptoAes192CtrEncryptorSwitchMessage
_ZTIN2nn3hid6detail24NpadSharedMemoryAccessorE
_ZN2nn2sf4hipc6client24Hipc2ClientCoreProcessorILNS1_6detail11MessageTypeE6ENS0_4cmif6detail14CoreMethodInfoINSt3__15tupleIJNS7_18OutRawArgumentInfoILm6ELm1ELl0EEENS7_17InRawArgumentInfoILm8ELm8ELl0EEEEEELm8ELm6ELb0EEESF_E7ProcessEPNS2_26Hipc2ClientProxyBaseObjectENS6_6client24OutRawClientArgumentTypeILm6ELm1EEENSK_23InRawClientArgumentTypeILm8ELm8EvEEj
nnmem_nlib_snprintf
_ZNK2nn3mii6detail15BufferAllocator13GetCurrentPtrEv
_ZN2nn3nfp18GetApplicationAreaEPvPmRKNS0_12DeviceHandleEm
_ZN2nn3nsd20GetNasServiceSettingEPNS0_17NasServiceSettingERKNS0_14NasServiceNameE
_ZN2nn2oe28SetFocusHandlingModeForDebugEbbbb
__cxa_unexpected_handler
_ZN2nn2sf4hipc6client34HipcSimpleClientSessionManagerBaseINS2_29DefaultSessionResourceManagerEE4Impl18InitializeByHandleINS_7account31IAccountServiceForSystemServiceENS0_25StatelessAllocationPolicyINS0_22ExpHeapStaticAllocatorILm2048ENS8_6detail12ObjectHolder24ObjectHolderAllocatorTagEEEEENS0_4cmif6client6detail19ProcessModifierImplINSI_21DefaultProxyFilterTagEEEEENS_6ResultEPNS0_13SharedPointerIT_EENS_3svc6HandleE
_ZTIN2nn4bcat6detail3ipc12IBcatServiceE
mbtowc
_ZN2nn5audio17GetFinalMixVolumeEPKNS0_12FinalMixTypeE
_ZN2nn4bcat6detail3ipc33CreateDeliveryCacheStorageServiceEPPNS2_28IDeliveryCacheStorageServiceE
_ZNKSt3__120__codecvt_utf8_utf16IDiE10do_unshiftER11__mbstate_tPcS4_RS4_
_ZNSt3__112basic_stringIcNS_11char_traitsIcEENS_9allocatorIcEEE7replaceEmmPKc
perror
_ZN2nn7account13ProfileEditorC2Ev
nnmem_nlib_utf16ncpy_
_ZN2nn7nlibsdk4heap13TlsHeapStatic11kSize2ClassE
_ZN2nn2sf4cmif6client6detail13CmifProxyImplINS_3ssl2sf14ISslConnectionENS2_19CmifDomainProxyKindINS0_4hipc6client38Hipc2ClientSessionManagedProxyKindBaseINSA_18Hipc2ProxyKindBaseILNS9_6detail11MessageTypeE6EEEEEEENS0_24StatefulAllocationPolicyINS0_16ExpHeapAllocatorEEES7_NS3_19ProcessModifierImplINS2_21DefaultProxyFilterTagEEEE29_nn_sf_sync_FlushSessionCacheEv
_ZN2nn4time6detail21GetSfClockSnapshotPtrEPNS0_13ClockSnapshotE
_ZN2nn7account31NintendoAccountLinkageProcedureC1Ev
_ZTIN2nn2fs22ISaveDataChunkExporterE
_ZTIN2nn2fs6detail21SaveDataChunkImporterE
_ZTIN2nn7account7profile14IProfileEditorE
_ZNK2nn2sf4hipc6server18Hipc2ServerMessage18GetInNativeHandlesEPNS0_12NativeHandleE
_ZN2nn2sf4cmif6client6detail13CmifProxyImplINS_5visrv2sf22IManagerDisplayServiceENS0_4hipc6client18Hipc2ProxyKindBaseILNS8_6detail11MessageTypeE6EEENS0_30MemoryResourceAllocationPolicyES7_NS3_19ProcessModifierImplINS2_21DefaultProxyFilterTagEEEE30_nn_sf_sync_DestroySharedLayerENS_2vi7fbshare17SharedLayerHandleE
cosf
_ZNK2nn5audio3dsp20CommandListProcessor19GetTargetSampleRateEv
_ZNKSt3__120__vector_base_commonILb1EE20__throw_out_of_rangeEv
_ZN2nn2sf4cmif6client6detail36GetClientProcessorImplWithObjectBaseINS2_19CmifDomainProxyKindINS0_4hipc6client38Hipc2ClientSessionManagedProxyKindBaseINS7_18Hipc2ProxyKindBaseILNS6_6detail11MessageTypeE6EEEEEEENS3_19ProcessModifierImplINS2_21DefaultProxyFilterTagEEEE14ObjectAssignerINS0_30MemoryResourceAllocationPolicyENS_14MemoryResourceEE14AllocateObjectINS_2am7service17IApplicationProxyEEEvi
_ZN2nn2sf4cmif6client6detail13CmifProxyImplINS_3apm14ISystemManagerENS0_4hipc6client18Hipc2ProxyKindBaseILNS7_6detail11MessageTypeE6EEENS0_30MemoryResourceAllocationPolicyES6_NS3_19ProcessModifierImplINS2_21DefaultProxyFilterTagEEEE32_nn_sf_sync_LoadAndApplySettingsEv
_ZN2nn5audio6server24AudioRendererManagerImpl17AudioRendererImpl21SetRenderingTimeLimitEi
_ZN2nn4lmem36GetExpHeapAllocationDirectionOfBlockEPKv
_ZNK2nn3mii8Database11IsAvailableEv
_ZN2nn8settings6detail12ReadSettingsEPmPhmi
cosh
silk_lsb_iCDF
_ZN2nn7friends6detail17ShimLibraryGlobal25CreateNotificationServiceEPPNS1_3ipc20INotificationServiceERKNS_7account3UidE
_ZNSt3__110__time_putC2ERKNS_12basic_stringIcNS_11char_traitsIcEENS_9allocatorIcEEEE
_ZN2nn2sf4hipc6client24Hipc2ClientCoreProcessorILNS1_6detail11MessageTypeE6ENS0_4cmif6detail14CoreMethodInfoINSt3__15tupleIJNS7_17InRawArgumentInfoILm1ELm1ELl0EEENSB_ILm6ELm1ELl1EEENSB_ILm1ELm1ELl7EEEEEELm8ELm0ELb0EEESF_E7ProcessEPNS2_26Hipc2ClientProxyBaseObjectENS6_6client23InRawClientArgumentTypeILm1ELm1EvEENSL_ILm6ELm1EvEESM_j
__nnmusl_GetPID
_ZN2nn2sf4cmif6client6detail13CmifProxyImplINS_3ntc6detail7service38IEnsureNetworkClockAvailabilityServiceENS0_4hipc6client18Hipc2ProxyKindBaseILNS9_6detail11MessageTypeE6EEENS0_30MemoryResourceAllocationPolicyES8_NS3_19ProcessModifierImplINS2_21DefaultProxyFilterTagEEEE21_nn_sf_sync_GetResultEv
nvdcFreeEventFds
_ZN2nn5audio6server10PoolMapperC1EjPNS1_14MemoryPoolInfoEib
_ZN2nn2fs8EraseMmcENS0_12MmcPartitionE
nnmem_nlib_realloc_
NvRmStreamPushIncr
cosl
_ZTIN2nn2sf4cmif6client6detail13CmifProxyImplINS_2lm7ILoggerENS2_19CmifDomainProxyKindINS0_4hipc6client38Hipc2ClientSessionManagedProxyKindBaseINS9_18Hipc2ProxyKindBaseILNS8_6detail11MessageTypeE6EEEEEEENS0_30MemoryResourceAllocationPolicyES6_NS3_19ProcessModifierImplINS2_21DefaultProxyFilterTagEEEEE
_ZN2nn2os19GenerateRandomBytesEPvm
_ZTVN2nn2sf6detail38ObjectImplFactoryWithStatefulAllocatorINS0_4cmif6client6detail9CmifProxyINS_5prepo6detail3ipc13IPrepoServiceENS4_19CmifDomainProxyKindINS0_4hipc6client38Hipc2ClientSessionManagedProxyKindBaseINSD_18Hipc2ProxyKindBaseILNSC_6detail11MessageTypeE6EEEEEEENS0_30MemoryResourceAllocationPolicyENS5_19ProcessModifierImplINS4_21DefaultProxyFilterTagEEEvEESL_E6ObjectE
_ZNSt3__125notify_all_at_thread_exitERNS_18condition_variableENS_11unique_lockINS_5mutexEEE
_ZNKSt3__114error_category23default_error_conditionEi
FsScratchSpace_release
_ZN2nn2sf4cmif6client6detail13CmifProxyImplINS_3ntc6detail7service14IStaticServiceENS0_4hipc6client18Hipc2ProxyKindBaseILNS9_6detail11MessageTypeE6EEENS0_30MemoryResourceAllocationPolicyES8_NS3_19ProcessModifierImplINS2_21DefaultProxyFilterTagEEEE52_nn_sf_sync_GetEnsureNetworkClockAvailabilityServiceENS0_3OutINS0_13SharedPointerINS7_38IEnsureNetworkClockAvailabilityServiceEEEvEEiNS_4nifm8ClientIdE
_ZN2nn2fs18RomFsFileDataCacheD1Ev
_ZN2nn8settings6detail19SetHostFsMountPointERKNS0_6system16HostFsMountPointE
_ZN2nn2sf4cmif6client6detail13CmifProxyImplINS_7timesrv6detail7service14IStaticServiceENS2_19CmifDomainProxyKindINS0_4hipc6client38Hipc2ClientSessionManagedProxyKindBaseINSB_18Hipc2ProxyKindBaseILNSA_6detail11MessageTypeE6EEEEEEENS0_30MemoryResourceAllocationPolicyES8_NS3_19ProcessModifierImplINS2_21DefaultProxyFilterTagEEEE64_nn_sf_sync_SetStandardUserSystemClockAutomaticCorrectionEnabledEb
__gnu_h2f_ieee
_ZNK2nn5audio6server16CommandGenerator19GetQForMixAndVolumeEv
_ZN2nn2fs27PathNormalizationFileSystemD2Ev
uselocale
_ZTVN2nn2sf6detail38ObjectImplFactoryWithStatefulAllocatorINS0_4cmif6client6detail9CmifProxyINS_2am7service31ISystemAppletControllerForDebugENS4_19CmifDomainProxyKindINS0_4hipc6client38Hipc2ClientSessionManagedProxyKindBaseINSC_18Hipc2ProxyKindBaseILNSB_6detail11MessageTypeE6EEEEEEENS0_30MemoryResourceAllocationPolicyENS5_19ProcessModifierImplINS4_21DefaultProxyFilterTagEEEvEESK_E6ObjectE
_ZN2nn3hid22RetrieveVibrationValueEPNS0_14VibrationValueEiPNS0_26VibrationFileParserContextE
nndetailImagePng_png_set_filter_heuristics_fixed
_ZTSN2nn4nifm6detail15IGeneralServiceE
_ZN2nn5swkbd6detail18InlineKeyboardImpl20CalcChangedStringV2_ENS_6applet13StorageHandleEmb
NvRmGpuDeviceChooseKind
_ZN7android7String85setToEPKc
_ZNSt3__14stofERKNS_12basic_stringIcNS_11char_traitsIcEENS_9allocatorIcEEEEPm
_ZN2nn7friends6detail20AsyncContextInternalD2Ev
_ZN2nn4lmem6detail20GetUnitHeapAlignmentEPNS1_8HeapHeadE
_ZN2nn3ngc15ProfanityFilterD0Ev
_ZTSN2nn2sf4cmif6client6detail13CmifProxyImplINS_3ngc1t6detail9INotifierENS0_4hipc6client18Hipc2ProxyKindBaseILNS9_6detail11MessageTypeE6EEENS0_30MemoryResourceAllocationPolicyES8_NS3_19ProcessModifierImplINS2_21DefaultProxyFilterTagEEEEE
_ZN2nn2sf4cmif6client6detail13CmifProxyImplINS_5prepo6detail3ipc13IPrepoServiceENS2_19CmifDomainProxyKindINS0_4hipc6client38Hipc2ClientSessionManagedProxyKindBaseINSB_18Hipc2ProxyKindBaseILNSA_6detail11MessageTypeE6EEEEEEENS0_30MemoryResourceAllocationPolicyES8_NS3_19ProcessModifierImplINS2_21DefaultProxyFilterTagEEEE40_nn_sf_sync_RequestImmediateTransmissionEv
_ZN2nn6socket4SendEiPKvmi
_ZN2nn5codec5fLog2Eii
_ZN2nn2ec28ConsumableServiceItemManager19MarkServiceProvidedERKNS0_23ConsumableServiceItemIdE
_ZN2nn2sf4hipc6client24Hipc2ClientCoreProcessorILNS1_6detail11MessageTypeE6ENS0_4cmif6detail14CoreMethodInfoINSt3__15tupleIJNS7_17InRawArgumentInfoILm8ELm8ELl16EEENS7_18BufferArgumentInfoILi0ELi5ELm0EEENSD_ILi1ELi6ELm0EEENSD_ILi2ELi6ELm0EEENSB_ILm4ELm4ELl0EEENS7_18OutRawArgumentInfoILm4ELm4ELl0EEENSB_ILm4ELm4ELl4EEENSD_ILi3ELi33ELm0EEENSB_ILm4ELm4ELl8EEENSI_ILm4ELm4ELl4EEENSI_ILm4ELm4ELl8EEEEEELm24ELm12ELb1EEESP_E7ProcessEPNS2_26Hipc2ClientProxyBaseObjectENS6_6client23InRawClientArgumentTypeILm8ELm8EvEENSU_24BufferClientArgumentTypeESX_SX_NSV_ILm4ELm4EvEENSU_24OutRawClientArgumentTypeILm4ELm4EEESY_SX_SY_S10_S10_j
_ZN2nn2sf4cmif6client6detail13CmifProxyImplINS_5visrv2sf22IManagerDisplayServiceENS0_4hipc6client18Hipc2ProxyKindBaseILNS8_6detail11MessageTypeE6EEENS0_30MemoryResourceAllocationPolicyES7_NS3_19ProcessModifierImplINS2_21DefaultProxyFilterTagEEEE51_nn_sf_sync_GetSharedLowLevelLayerSynchronizedEventENS0_3OutINS0_12NativeHandleEvEEm
_Z23hosGetSystemEventHandleijPN2nn2os15SystemEventTypeE
NvUHashInsert
nncodecLibopus_opus_encode
_ZN2nn6socket6detail21RegisterForStatisticsEPKcm
_ZN7android7BBinder17onGetNativeHandleEjRjRb
_ZNK2nn4bcat21DeliveryCacheProgress18GetWholeDownloadedEv
_ZThn16_N2nn2sf4cmif6client6detail13CmifProxyImplINS_6capsrv2sf32IAlbumAccessorApplicationSessionENS0_4hipc6client18Hipc2ProxyKindBaseILNS8_6detail11MessageTypeE6EEENS0_30MemoryResourceAllocationPolicyES7_NS3_19ProcessModifierImplINS2_21DefaultProxyFilterTagEEEE17GetCmifBaseObjectEv
_ZN2nn2fs18CreateCacheStorageENS_3ncm13ApplicationIdENS0_15SaveDataSpaceIdEmtllj
_ZTVN2nn5codec22OpusMultiStreamDecoderE
_ZN2nn3ngc1t21SetupForSystemServiceEv
_ZN2nn6socket8resolver13GetHostByAddrEPKvjjPKNS0_14ResolverOptionEm
_ZN2nn2sf4hipc6client24Hipc2ClientCoreProcessorILNS1_6detail11MessageTypeE6ENS0_4cmif6detail14CoreMethodInfoINSt3__15tupleIJNS7_18OutRawArgumentInfoILm4ELm4ELl0EEENS7_21OutHandleArgumentInfoILi0ELi1EEENS7_17InRawArgumentInfoILm4ELm4ELl0EEENSF_ILm4ELm4ELl4EEENSF_ILm8ELm8ELl16EEENS7_20InHandleArgumentInfoILi0ELi1EEENSF_ILm4ELm4ELl8EEEEEELm24ELm4ELb0EEESM_E7ProcessEPNS2_26Hipc2ClientProxyBaseObjectENS6_6client24OutRawClientArgumentTypeILm4ELm4EEENSR_27OutHandleClientArgumentTypeENSR_23InRawClientArgumentTypeILm4ELm4EvEESW_NSV_ILm8ELm8EvEENSR_26InHandleClientArgumentTypeESW_j
ftello64
pthread_barrierattr_destroy
_ZN2nn5audio6server22PerformanceManagerImplINS1_33PerformanceManagerImplVersion2TagENS0_6common30PerformanceFrameHeaderVersion2ENS4_24PerformanceEntryVersion2ENS4_25PerformanceDetailVersion2ENS0_20PerformanceSysDetailEE9CopyFrameEPS5_PKS5_bil
_ZN2nn2fs14SetPriorityRawEPNS_2os10ThreadTypeENS0_11PriorityRawE
_ZN2nn4util10BitFlagSetILi256ENS_3hid11KeyboardKeyEE4FlagILi16EE4MaskE
_ZN2nn2vi29InitializeForIndirectProducerEv
_ZNK7android5Fence7flattenERPvRmRPiS3_
_ZTSN2nn2sf6detail19InterfaceInfoBottomINS0_14IServiceObjectEE4_tABINS0_13InterfaceInfoINS_5audio6detail12IAudioDeviceEE5_tO2NINS7_6server24AudioRendererManagerImpl15AudioDeviceImplEE4typeES9_E4typeE
_ZN2nn4time23StandardUserSystemClock21GetSystemClockContextEPNS0_18SystemClockContextE
_ZN2nn2vi6detail18IndirectLayerTable8CapacityE
_ZTINSt3__110__time_putE
_ZN2nn5audio6server16CommandGenerator21GenerateSubMixCommandERNS1_7MixInfoE
_ZN2nn5codec4ifftEiPiS1_
_ZN2nn8irsensor6detail13StatusManagerD2Ev
_ZNK2nn3mii6detail12StoreDataRaw11GetCoreDataEv
_ZN2nn7account59ShowLicenseRequirementsForNetworkServiceForUnspecifiedUsersERKNS_3err9ErrorCodeE
_ZN2nn4lmem6detail12DumpHeapHeadEPKNS1_8HeapHeadE
_ZN2nn2os16ReleaseSemaphoreEPNS0_13SemaphoreTypeEi
_ZNKSt3__119__shared_weak_count13__get_deleterERKSt9type_info
fputwc
_ZN2nn6capsrv38PrecheckToCreateContentsForApplicationEhm
_ZN2nn9bluetooth19RespondToPinRequestERKNS0_7AddressEbRKNS0_16BluetoothPinCodeEi
_ZN2nn3err14SystemErrorArgC1ENS0_9ErrorCodeEPKcS4_RKNS_8settings12LanguageCodeE
_ZN2nn2fs17FileHandleStorage12OperateRangeEPvmNS0_11OperationIdEllPKvm
NvWsiGetFormatInfo
_ZN2nn3hid15VibrationTargetC2ERKNS0_21VibrationDeviceHandleE
_ZNSt3__110__time_getC2ERKNS_12basic_stringIcNS_11char_traitsIcEENS_9allocatorIcEEEE
setbuf
_ZTIN2nn2am7service15ISelfControllerE
_ZN2nn8settings6detail36GetDeviceTimeZoneLocationUpdatedTimeEPNS_4time20SteadyClockTimePointE
_ZTSN2nn2sf4cmif6server23CmifServerDomainManager6DomainE
_ZN2nn2sf4hipc6client24Hipc2ClientCoreProcessorILNS1_6detail11MessageTypeE6ENS0_4cmif6detail14CoreMethodInfoINSt3__15tupleIJNS7_17InRawArgumentInfoILm24ELm8ELl0EEEEEELm24ELm0ELb0EEESD_E7ProcessEPNS2_26Hipc2ClientProxyBaseObjectENS6_6client23InRawClientArgumentTypeILm24ELm8EvEEj
FDKfopen
_ZN2nn2sf4cmif6client6detail13CmifProxyImplINS_4npns9INpnsUserENS0_4hipc6client18Hipc2ProxyKindBaseILNS7_6detail11MessageTypeE6EEENS0_30MemoryResourceAllocationPolicyES6_NS3_19ProcessModifierImplINS2_21DefaultProxyFilterTagEEEE29_nn_sf_sync_QueryIsTokenValidENS0_3OutIbvEERKNS5_17NotificationTokenE
_ZTSPa
_ZN2nn2sf4cmif6client6detail13CmifProxyImplINS_2am7service20IApplicationAccessorENS2_19CmifDomainProxyKindINS0_4hipc6client38Hipc2ClientSessionManagedProxyKindBaseINSA_18Hipc2ProxyKindBaseILNS9_6detail11MessageTypeE6EEEEEEENS0_30MemoryResourceAllocationPolicyES7_NS3_19ProcessModifierImplINS2_21DefaultProxyFilterTagEEEE41_nn_sf_sync_GetApplicationControlPropertyERKNS0_9OutBufferE
_ZN2nn2sf4cmif6client6detail13CmifProxyImplINS_8irsensor21IIrSensorSystemServerENS0_4hipc6client18Hipc2ProxyKindBaseILNS7_6detail11MessageTypeE6EEENS0_25StatelessAllocationPolicyINS0_22ExpHeapStaticAllocatorILm16384ENS5_6detail20IrSensorSystemServerEEEEES6_NS3_19ProcessModifierImplINS2_21DefaultProxyFilterTagEEEE42_nn_sf_sync_UnregisterAppletResourceUserIdENS_6applet20AppletResourceUserIdE
_ZN2nn2lm21CreateLogGetterByHipcEv
_ZN2nn3mii8Database3GetEPiPNS0_15CharInfoElementEii
_ZTSPb
nnfontllFsTellFile
_ZN2nn2fs4save11IFileSystem34DeleteDirectoryRecursivelyInternalERKNS1_4PathEb
_ZN2nn3hid6system25GetUsbFirmwareUpdateStateEPNS1_19FirmwareUpdateStateEPiS4_
_ZNK2nn8irsensor6detail8RingLifoINS0_28PointingProcessorMarkerStateELi6EE4ReadEPS3_ij
_ZTIN2nn2sf6detail16ObjectHolderImplINS0_13InterfaceInfoINS0_4hipc6detail12IHipcManagerEE5_tO2NINS4_6server34HipcServerSessionManagerWithDomain15HipcManagerImplEE4typeEvEE
_ZTSPc
_ZN2nn6applet16PushToOutChannelENS0_23LibraryAppletSelfHandleENS0_13StorageHandleE
FDKprintf
_ZN2nn2sf4hipc6server6detail29HipcAllInOneServerManagerBase16ReceiveAsSessionEPNS_2os19MultiWaitHolderTypeE
_ZN2nn3web10WebSession8FinalizeEv
_ZNSt3__113basic_ostreamIcNS_11char_traitsIcEEE6sentryD1Ev
_ZTSPd
_ZN2nn2sf4cmif6client6detail13CmifProxyImplINS_2am7service18IHomeMenuFunctionsENS2_19CmifDomainProxyKindINS0_4hipc6client38Hipc2ClientSessionManagedProxyKindBaseINSA_18Hipc2ProxyKindBaseILNS9_6detail11MessageTypeE6EEEEEEENS0_30MemoryResourceAllocationPolicyES7_NS3_19ProcessModifierImplINS2_21DefaultProxyFilterTagEEEE47_nn_sf_sync_PopRequestLaunchApplicationForDebugENS0_3OutINS_3ncm13ApplicationIdEvEENSN_IivEERKNS0_8OutArrayINS_7account3UidEEE
_ZTIN2nn2am7service20IApplicationAccessorE
nncodecLibopus_opus_custom_encoder_ctl
_ZN2nn5srepo6detail14ArrayGenerator8AddValueEPmPKcPhmm
_ZNSt3__113basic_ostreamIwNS_11char_traitsIwEEE3putEw
_ZNSt14overflow_errorD2Ev
_ZTSPe
_Z22__nnmusl_duplicate_fd2ss
_ZN2nn7account28NetworkServiceAccountManagerD1Ev
_ZN2nn5audio6server16UpsamplerManager8AllocateEv
_ZN2nn5audio6server16BiquadFilterInfo6UpdateEPNS0_6common17BehaviorParameter9ErrorInfoEPKNS0_10EffectInfo11InParameterERNS1_10PoolMapperE
androidGetThreadId
_ZTSPf
_ZTSN2nn2sf4cmif6client6detail9CmifProxyINS_5codec6detail20IHardwareOpusDecoderENS2_19CmifDomainProxyKindINS0_4hipc6client38Hipc2ClientSessionManagedProxyKindBaseINSA_18Hipc2ProxyKindBaseILNS9_6detail11MessageTypeE6EEEEEEENS0_30MemoryResourceAllocationPolicyENS3_19ProcessModifierImplINS2_21DefaultProxyFilterTagEEEvEE
_ZTSPg
_ZN2nn2sf4cmif6client6detail13CmifProxyImplINS_7account7profile8IProfileENS2_19CmifDomainProxyKindINS0_4hipc6client38Hipc2ClientSessionManagedProxyKindBaseINSA_18Hipc2ProxyKindBaseILNS9_6detail11MessageTypeE6EEEEEEENS0_25StatelessAllocationPolicyINS0_22ExpHeapStaticAllocatorILm2048ENS5_6detail12ObjectHolder24ObjectHolderAllocatorTagEEEEENS6_14IProfileEditorENS3_19ProcessModifierImplINS2_21DefaultProxyFilterTagEEEE21_nn_sf_sync_LoadImageENS0_3OutIjvEERKNS0_9OutBufferE
_ZN2nn2ec28ShowShopConsumableItemDetailERKNS0_12ConsumableIdENS0_5NsUidERKNS_7account10UserHandleE
_ZTSPh
j0f
nncryptoAes192CtrEncryptorIvSize
nnmem_nlib_write_stdout
sleep
_ZNKSt3__115__codecvt_utf16IwLb0EE16do_always_noconvEv
isxdigit
_ZTSPi
__nnmusl_init_locks
_ZN2nn5audio32GetOscMessageNextArgumentAsFloatEPNS0_14OscMessageTypeE
_ZTSN2nn2sf6detail38ObjectImplFactoryWithStatefulAllocatorINS0_4cmif6client6detail9CmifProxyINS_3hid15IAppletResourceENS0_4hipc6client18Hipc2ProxyKindBaseILNS9_6detail11MessageTypeE6EEENS0_30MemoryResourceAllocationPolicyENS5_19ProcessModifierImplINS4_21DefaultProxyFilterTagEEEvEESF_E6ObjectE
_ZN2nn5image6detail4jpeg19jinit_marker_writerEPNS2_20jpeg_compress_structE
_ZN2nn4util30ConvertStringUtf16NativeToUtf8EPciPKDs
_ZTSPj
_ZTIN2nn7account4baas34IAsyncContextForLoginForOnlinePlayE
_ZN2nn2sf4cmif6client6detail13CmifProxyImplINS_3hid16IHidSystemServerENS0_4hipc6client18Hipc2ProxyKindBaseILNS7_6detail11MessageTypeE6EEENS0_30MemoryResourceAllocationPolicyES6_NS3_19ProcessModifierImplINS2_21DefaultProxyFilterTagEEEE41_nn_sf_sync_GetPlayReportControllerUsagesENS0_3OutIlvEERKNS0_8OutArrayINS5_6system25PlayReportControllerUsageEEE
_ZN2nn5swkbd12ShowKeyboardEPNS0_6StringERKNS0_15ShowKeyboardArgENS0_7TriggerE
_ZN2nn2sf4cmif6client6detail13CmifProxyImplINS_2am7service30IAllSystemAppletProxiesServiceENS2_19CmifDomainProxyKindINS0_4hipc6client38Hipc2ClientSessionManagedProxyKindBaseINSA_18Hipc2ProxyKindBaseILNS9_6detail11MessageTypeE6EEEEEEENS0_30MemoryResourceAllocationPolicyES7_NS3_19ProcessModifierImplINS2_21DefaultProxyFilterTagEEEE33_nn_sf_sync_OpenSystemAppletProxyENS0_3OutINS0_13SharedPointerINS6_18ISystemAppletProxyEEEvEEmONS0_12NativeHandleE
delete_kern
_ZN2nn2fs24HierarchicalRomFileTable8FindOpenEPNS1_12FindPositionERKNS1_8EntryKeyE
_ZN2nn4lmem14CreateUnitHeapEPvmmiiNS0_13InfoPlacementE
_ZSt19uncaught_exceptionsv
_ZTSPl
_ZTSPm
fputws
_ZN2nn5audio3dsp13ConvertFormatEPfPKii
_ZN2nn2sf4hipc6client24Hipc2ClientCoreProcessorILNS1_6detail11MessageTypeE6ENS0_4cmif6detail14CoreMethodInfoINSt3__15tupleIJNS7_18BufferArgumentInfoILi0ELi6ELm0EEENS7_18OutRawArgumentInfoILm1ELm1ELl0EEENS7_17InRawArgumentInfoILm8ELm8ELl0EEEEEELm8ELm1ELb1EEESH_E7ProcessEPNS2_26Hipc2ClientProxyBaseObjectENS6_6client24BufferClientArgumentTypeENSM_24OutRawClientArgumentTypeILm1ELm1EEENSM_23InRawClientArgumentTypeILm8ELm8EvEEj
_ZN2nn4htcs6detail25virtual_socket_collection4RecvEiPvmiRi
_ZN2nn6socket8RecvFromEiPvmNS0_7MsgFlagEPNS0_8SockAddrEPj
_ZNK7android7String816getPathExtensionEv
_ZTSPn
opterr
_ZN2nn2sf4cmif6client6detail13CmifProxyImplINS_2am7service21IStackableAppletProxyENS2_19CmifDomainProxyKindINS0_4hipc6client38Hipc2ClientSessionManagedProxyKindBaseINSA_18Hipc2ProxyKindBaseILNS9_6detail11MessageTypeE6EEEEEEENS0_30MemoryResourceAllocationPolicyENS6_18ISystemAppletProxyENS3_19ProcessModifierImplINS2_21DefaultProxyFilterTagEEEE35_nn_sf_sync_GetLibraryAppletCreatorENS0_3OutINS0_13SharedPointerINS6_21ILibraryAppletCreatorEEEvEE
_ZNK2nn3mii6detail11CoreDataRaw18GetFacelineWrinkleEv
_ZN2nn8settings6system21IsBluetoothAfhEnabledEv
_ZTSPo
_ZN2nn3ssl10Connection9SetOptionENS1_10OptionTypeEb
NvOsGetConfigU32
_ZNSt3__18ios_base9__xindex_E
_ZN2nn5codec24CBlock_ScaleSpectralDataEPNS0_22CAacDecoderChannelInfoEPNS0_16SamplingRateInfoE
_ZTCN7android23BnSurfaceComposerClientE0_NS_10IInterfaceE
iswgraph
_ZN2nn3hid6system6detail26GetXcdHandleForNpadWithNfcEPNS_3xcd12DeviceHandleERj
_ZNK2nn3hid15VibrationPlayer10IsPlayableEv
_ZN2nn2sf4cmif6client6detail13CmifProxyImplINS_3hid15IHidDebugServerENS0_4hipc6client18Hipc2ProxyKindBaseILNS7_6detail11MessageTypeE6EEENS0_30MemoryResourceAllocationPolicyES6_NS3_19ProcessModifierImplINS2_21DefaultProxyFilterTagEEEE35_nn_sf_sync_GetUniquePadDriverStateENS0_3OutINS_8hidtypes11PadRawStateEvEENS5_6system11UniquePadIdE
_ZNSt3__112basic_stringIcNS_11char_traitsIcEENS_9allocatorIcEEE6insertEmmc
_ZTSPs
_ZTSN2nn2sf4cmif6client6detail13CmifProxyImplINS_2am7service21IStackableAppletProxyENS2_19CmifDomainProxyKindINS0_4hipc6client38Hipc2ClientSessionManagedProxyKindBaseINSA_18Hipc2ProxyKindBaseILNS9_6detail11MessageTypeE6EEEEEEENS0_30MemoryResourceAllocationPolicyENS6_17IApplicationProxyENS3_19ProcessModifierImplINS2_21DefaultProxyFilterTagEEEEE
_ZN2nn3hid6system6detail18DeleteButtonConfigERKNS1_11UniquePadIdE
_ZTIN2nn2sf4cmif6client6detail9CmifProxyINS_6hidbus19IHidbusSystemServerENS0_4hipc6client18Hipc2ProxyKindBaseILNS7_6detail11MessageTypeE6EEENS0_30MemoryResourceAllocationPolicyENS3_19ProcessModifierImplINS2_21DefaultProxyFilterTagEEEvEE
_ZN2nn3ntc6detail4shim40EnsureNetworkClockAvailabilityClientImplC1ENS_2os14EventClearModeENS0_34EnsureNetworkClockAvailabilityModeE
_ZTSPt
_ZN2nn5audio24GetAuxLimiterInputOutputEPaS1_PiPKNS0_14AuxLimiterTypeEi
read_comp_parms_ttf
_ZN2nn2sf4cmif6client6detail13CmifProxyImplINS_8irsensor21IIrSensorSystemServerENS0_4hipc6client18Hipc2ProxyKindBaseILNS7_6detail11MessageTypeE6EEENS0_25StatelessAllocationPolicyINS0_22ExpHeapStaticAllocatorILm16384ENS5_6detail20IrSensorSystemServerEEEEES6_NS3_19ProcessModifierImplINS2_21DefaultProxyFilterTagEEEE34_nn_sf_sync_EnableAppletToGetInputENS_6applet20AppletResourceUserIdEb
_ZN2nn3mii12GetSkinColorEiNS0_9GammaTypeE
_ZNK2nn3mii21ParamCharInfoAccessor11GetNoseTypeEv
nnosSignalConditionVariable
_ZTSPv
_ZN2nn2sf4cmif6client6detail13CmifProxyImplINS_2am7service15IAppletAccessorENS2_19CmifDomainProxyKindINS0_4hipc6client38Hipc2ClientSessionManagedProxyKindBaseINSA_18Hipc2ProxyKindBaseILNS9_6detail11MessageTypeE6EEEEEEENS0_30MemoryResourceAllocationPolicyENS6_20IApplicationAccessorENS3_19ProcessModifierImplINS2_21DefaultProxyFilterTagEEEE17GetCmifBaseObjectEv
_ZN2nn2sf4cmif6client34CmifDomainProxyClientCoreProcessorINS0_4hipc6client38Hipc2ClientSessionManagedProxyKindBaseINS5_18Hipc2ProxyKindBaseILNS4_6detail11MessageTypeE6EEEEENS1_6detail14CoreMethodInfoINSt3__15tupleIJNSC_18OutRawArgumentInfoILm8ELm8ELl0EEENSC_18BufferArgumentInfoILi0ELi6ELm0EEENSC_17InRawArgumentInfoILm8ELm8ELl0EEEEEELm8ELm8ELb0EEESM_E7ProcessEPNS2_23CmifDomainClientMessageISB_E15ProxyBaseObjectENS2_24OutRawClientArgumentTypeILm8ELm8EEENS2_24BufferClientArgumentTypeENS2_23InRawClientArgumentTypeILm8ELm8EvEEj
_ZTSPw
_ZTSN2nn2sf6detail39ObjectImplFactoryWithStatelessAllocatorINS0_4cmif6client6detail9CmifProxyINS_7account31IAccountServiceForSystemServiceENS4_19CmifDomainProxyKindINS0_4hipc6client38Hipc2ClientSessionManagedProxyKindBaseINSB_18Hipc2ProxyKindBaseILNSA_6detail11MessageTypeE6EEEEEEENS0_25StatelessAllocationPolicyINS0_22ExpHeapStaticAllocatorILm2048ENS7_6detail12ObjectHolder24ObjectHolderAllocatorTagEEEEENS5_19ProcessModifierImplINS4_21DefaultProxyFilterTagEEEvEESP_E6ObjectE
_ZN2nn4bcat22DeliveryCacheDirectory5CloseEv
_ZN2nn2sf4cmif6client34CmifDomainProxyClientCoreProcessorINS0_4hipc6client38Hipc2ClientSessionManagedProxyKindBaseINS5_18Hipc2ProxyKindBaseILNS4_6detail11MessageTypeE6EEEEENS1_6detail14CoreMethodInfoINSt3__15tupleIJNSC_17InRawArgumentInfoILm8ELm8ELl0EEENSG_ILm16ELm8ELl8EEEEEELm24ELm0ELb0EEESJ_E7ProcessEPNS2_23CmifDomainClientMessageISB_E15ProxyBaseObjectENS2_23InRawClientArgumentTypeILm8ELm8EvEENSQ_ILm16ELm8EvEEj
_ZN2nn4pctl16GetUnlinkedEventEv
_ZN2nn8settings6system29IsForceMuteOnHeadphoneRemovedEv
_ZTSPx
_ZN2nn5audio3dsp13ConvertFormatEPiPKfii
_ZTSPy
__isoc99_sscanf
_ZN2nn2sf4cmif6client6detail13CmifProxyImplINS_2am7service30IAllSystemAppletProxiesServiceENS2_19CmifDomainProxyKindINS0_4hipc6client38Hipc2ClientSessionManagedProxyKindBaseINSA_18Hipc2ProxyKindBaseILNS9_6detail11MessageTypeE6EEEEEEENS0_30MemoryResourceAllocationPolicyES7_NS3_19ProcessModifierImplINS2_21DefaultProxyFilterTagEEEE34_nn_sf_sync_OpenOverlayAppletProxyENS0_3OutINS0_13SharedPointerINS6_19IOverlayAppletProxyEEEvEEmONS0_12NativeHandleE
_ZN2nn4diag14IsSystemSymbolEm
_ZTTNSt3__114basic_iostreamIcNS_11char_traitsIcEEEE
_ZTINSt3__17codecvtIDic11__mbstate_tEE
_ZN2nn7account23TrySelectUserImplicitlyEPNS0_3UidERKNS0_29ImplicitUserSelectionSettingsE
_ZN2nn2sf4cmif6client34CmifDomainProxyClientCoreProcessorINS0_4hipc6client38Hipc2ClientSessionManagedProxyKindBaseINS5_18Hipc2ProxyKindBaseILNS4_6detail11MessageTypeE6EEEEENS1_6detail14CoreMethodInfoINSt3__15tupleIJNSC_18OutRawArgumentInfoILm4ELm4ELl0EEENSC_18BufferArgumentInfoILi0ELi6ELm0EEENSC_17InRawArgumentInfoILm8ELm8ELl8EEENSK_ILm4ELm4ELl0EEENSK_ILm4ELm4ELl4EEEEEELm16ELm4ELb0EEESO_E7ProcessEPNS2_23CmifDomainClientMessageISB_E15ProxyBaseObjectENS2_24OutRawClientArgumentTypeILm4ELm4EEENS2_24BufferClientArgumentTypeENS2_23InRawClientArgumentTypeILm8ELm8EvEENSY_ILm4ELm4EvEES10_j
_ZN2nn2sf4cmif6client6detail13CmifProxyImplINS_3hid10IHidServerENS0_4hipc6client18Hipc2ProxyKindBaseILNS7_6detail11MessageTypeE6EEENS0_30MemoryResourceAllocationPolicyES6_NS3_19ProcessModifierImplINS2_21DefaultProxyFilterTagEEEE40_nn_sf_sync_ResetAccelerometerParametersENS_6applet20AppletResourceUserIdENS5_19SixAxisSensorHandleE
_ZN2nn2fs6detail33TryGetGlobalFileDataCacheAccessorEPNS1_48GlobalFileDataCacheAccessorReadableScopedPointerE
_ZTSN2nn3ngc6detail15NullInputStreamE
_ZN7android14StreamSplitter16onFrameAvailableERKNS_10BufferItemE
_ZN2nn3hid6system6detail26EnableUsbFullKeyControllerEb
_ZN2nn3jit12GenerateCodeEPNS0_9CodeRangeES2_NS0_9JitHandleEmPKvmRKS1_S7_S5_mPvm
NvRmMemGetSize
_ZNSt3__113basic_istreamIcNS_11char_traitsIcEEE7getlineEPclc
_ZN2nn7account12AsyncContext6CancelEv
_ZN2nn2fs8CheckUidERKNS_7account3UidE
_ZN2nn2os6detail18FiberImplByHorizon13MapAliasStackEPKvS4_m
_ZN7android10VectorImpl8insertAtEmm
_ZN2nn5audio6server24AudioRendererManagerImpl17AudioRendererImplD2Ev
_ZN2nn2sf4cmif6client6detail13CmifProxyImplINS_6hidbus19IHidbusSystemServerENS0_4hipc6client18Hipc2ProxyKindBaseILNS7_6detail11MessageTypeE6EEENS0_30MemoryResourceAllocationPolicyES6_NS3_19ProcessModifierImplINS2_21DefaultProxyFilterTagEEEE40_nn_sf_sync_RegisterAppletResourceUserIdENS_6applet20AppletResourceUserIdEi
nndetailImagePng_png_build_gamma_table
_ZNSt3__115basic_streambufIcNS_11char_traitsIcEEE10pubseekoffExNS_8ios_base7seekdirEj
_ZN2nn2sf4cmif6client34CmifDomainProxyClientCoreProcessorINS0_4hipc6client38Hipc2ClientSessionManagedProxyKindBaseINS5_18Hipc2ProxyKindBaseILNS4_6detail11MessageTypeE6EEEEENS1_6detail14CoreMethodInfoINSt3__15tupleIJNSC_17InRawArgumentInfoILm8ELm8ELl0EEEEEELm8ELm0ELb1EEESI_E7ProcessEPNS2_23CmifDomainClientMessageISB_E15ProxyBaseObjectENS2_23InRawClientArgumentTypeILm8ELm8EvEEj
_ZN2nn2sf4cmif6client6detail36GetClientProcessorImplWithObjectBaseINS2_19CmifDomainProxyKindINS0_4hipc6client38Hipc2ClientSessionManagedProxyKindBaseINS7_18Hipc2ProxyKindBaseILNS6_6detail11MessageTypeE6EEEEEEENS3_19ProcessModifierImplINS2_21DefaultProxyFilterTagEEEE14ObjectAssignerINS0_30MemoryResourceAllocationPolicyENS_14MemoryResourceEE14AllocateObjectINS_2am7service15IDebugFunctionsEEEvi
_ZTSN2nn2os6detail27MultiWaitHolderOfTimerEventE
_ZNK2nn5audio6server10PoolMapper3MapEjNS0_7CpuAddrEm
_ZN2nn3hid6system6detail24InitializeFirmwareUpdateEv
_ZN7android12ConsumerBase7setNameERKNS_7String8E
_ZNKSt3__120__codecvt_utf8_utf16IDiE5do_inER11__mbstate_tPKcS5_RS5_PDiS7_RS7_
_ZTSNSt3__17codecvtIDic11__mbstate_tEE
nnmem_nlib_dprintf
nnmem_nlib_threadpool_apply
_ZN2nn2sf6detail38ObjectImplFactoryWithStatefulAllocatorINS0_4cmif6client6detail9CmifProxyINS_12notification6server35INotificationServicesForApplicationENS4_19CmifDomainProxyKindINS0_4hipc6client38Hipc2ClientSessionManagedProxyKindBaseINSC_18Hipc2ProxyKindBaseILNSB_6detail11MessageTypeE6EEEEEEENS0_30MemoryResourceAllocationPolicyENS5_19ProcessModifierImplINS4_21DefaultProxyFilterTagEEEvEESK_E6Object12AddReferenceEv
_ZN2nn8settings6system28SetHeadphoneVolumeUpdateFlagEb
_ZTVN7android23BnSurfaceComposerClientE
_ZN7android16ISurfaceComposerD0Ev
__umoddi3
_ZN2nn2fs27RegisterProgramIndexMapInfoEPKNS0_19ProgramIndexMapInfoEi
_ZN2nn3ldn13CreateNetworkERKNS0_13NetworkConfigERKNS0_14SecurityConfigERKNS0_10UserConfigE
_ZTSNSt3__18__c_nodeE
cproj
_ZN2nn2sf4hipc6client24Hipc2ClientCoreProcessorILNS1_6detail11MessageTypeE6ENS0_4cmif6detail14CoreMethodInfoINSt3__15tupleIJNS7_17InRawArgumentInfoILm6ELm1ELl0EEENSB_ILm12ELm2ELl8EEENSB_ILm1ELm1ELl6EEEEEELm20ELm0ELb0EEESF_E7ProcessEPNS2_26Hipc2ClientProxyBaseObjectENS6_6client23InRawClientArgumentTypeILm6ELm1EvEENSL_ILm12ELm2EvEENSL_ILm1ELm1EvEEj
_ZNK2nn5image11ExifBuilder21GetAnalyzedOutputSizeEv
_ZN2nn2oe15RequestToRebootEv
_ZN2nn2sf4hipc6server2v16detail29HipcAllInOneServerManagerBase8LoopAutoEv
_ZN2nn5audio6common10NodeStates5StackC1Ev
nncodecLibopus_silk_control_SNR
_ZTIN2nn2sf4cmif6client6detail9CmifProxyINS_3nim6detail33IShopServiceAccessSystemInterfaceENS0_4hipc6client18Hipc2ProxyKindBaseILNS8_6detail11MessageTypeE6EEENS0_30MemoryResourceAllocationPolicyENS3_19ProcessModifierImplINS2_21DefaultProxyFilterTagEEEvEE
_ZN2nn2fs17RamDiskFileSystem19DoGetTotalSpaceSizeEPlPKc
_ZNSt3__113basic_istreamIcNS_11char_traitsIcEEE4peekEv
_ZNSt3__115basic_streambufIwNS_11char_traitsIwEEE9underflowEv
_ZN2nn2sf4cmif6client6detail13CmifProxyImplINS_7account4http15IOAuthProcedureENS2_19CmifDomainProxyKindINS0_4hipc6client38Hipc2ClientSessionManagedProxyKindBaseINSA_18Hipc2ProxyKindBaseILNS9_6detail11MessageTypeE6EEEEEEENS0_25StatelessAllocationPolicyINS0_22ExpHeapStaticAllocatorILm2048ENS5_6detail12ObjectHolder24ObjectHolderAllocatorTagEEEEENS5_3nas29IOAuthProcedureForExternalNsaENS3_19ProcessModifierImplINS2_21DefaultProxyFilterTagEEEE24_nn_sf_sync_PrepareAsyncENS0_3OutINS0_13SharedPointerINSK_13IAsyncContextEEEvEE
_ZN2nn7nlibsdk4heap11CentralHeap7ReallocEPvmPS3_
_ZNK2nn5audio6server12BehaviorInfo51IsAudioRenererProcessingTimeLimit75PercentSupportedEv
_ZN2nn5audio6server6detail26SetAudioDeviceOutputVolumeEPKNS0_15AudioDeviceNameEfRKNS_6applet20AppletResourceUserIdEj
_ZN2nn5codec11OpusEncoder14BindCodingModeENS0_14OpusCodingModeE
_ZTSN2nn2sf6detail38ObjectImplFactoryWithStatefulAllocatorINS0_4cmif6client6detail9CmifProxyINS_3ssl2sf11ISslServiceENS4_19CmifDomainProxyKindINS0_4hipc6client38Hipc2ClientSessionManagedProxyKindBaseINSC_18Hipc2ProxyKindBaseILNSB_6detail11MessageTypeE6EEEEEEENS0_24StatefulAllocationPolicyINS0_16ExpHeapAllocatorEEENS5_19ProcessModifierImplINS4_21DefaultProxyFilterTagEEEvEESM_E6ObjectE
j1f
FSS_free_char
_ZN2nn6hidbus6detail20ClientResourceHolder6DetachEv
_ZN2nn8irsensor20InitializeForLibraryERKNS0_14IrCameraHandleE
_ZN2nn3ngc6detail17MemoryInputStreamD1Ev
strncasecmp_l
_ZN2nn2sf4hipc6client24Hipc2ClientCoreProcessorILNS1_6detail11MessageTypeE6ENS0_4cmif6detail14CoreMethodInfoINSt3__15tupleIJNS7_17InRawArgumentInfoILm8ELm8ELl0EEENS7_18BufferArgumentInfoILi0ELi5ELm0EEEEEELm8ELm0ELb1EEESF_E7ProcessEPNS2_26Hipc2ClientProxyBaseObjectENS6_6client23InRawClientArgumentTypeILm8ELm8EvEENSK_24BufferClientArgumentTypeEj
FDK_Copy
_ZN2nn2sf4cmif6client34CmifDomainProxyClientCoreProcessorINS0_4hipc6client38Hipc2ClientSessionManagedProxyKindBaseINS5_18Hipc2ProxyKindBaseILNS4_6detail11MessageTypeE6EEEEENS1_6detail14CoreMethodInfoINSt3__15tupleIJNSC_17InRawArgumentInfoILm8ELm8ELl8EEENSC_18BufferArgumentInfoILi0ELi69ELm0EEENSG_ILm8ELm8ELl16EEENSG_ILm4ELm4ELl0EEEEEELm24ELm0ELb0EEESM_E7ProcessEPNS2_23CmifDomainClientMessageISB_E15ProxyBaseObjectENS2_23InRawClientArgumentTypeILm8ELm8EvEENS2_24BufferClientArgumentTypeESU_NST_ILm4ELm4EvEEj
_ZN2nn2sf13SharedPointerINS_3hid26IActiveVibrationDeviceListEED2Ev
_ZN2nn5srepo6detail16IsSameStructTypeEPKhmmS3_mm
_ZN2nn8settings6detail18GetAccountSettingsEPNS0_6system15AccountSettingsE
_ZN7android14SurfaceControlD2Ev
_ZNK2nn7account41CachedNintendoAccountInfoForSystemService27GetAnalyticsPermissionStateEv
_ZN2nn2fs17MountCacheStorageEPKci
_ZN2nn2fs24GetSaveDataAvailableSizeEPlNS0_15SaveDataSpaceIdEm
_ZN2nn2fs23CleanUpTemporaryStorageEv
_ZN2nn2sf4cmif6client6detail13CmifProxyImplINS_3hid16IHidSystemServerENS0_4hipc6client18Hipc2ProxyKindBaseILNS7_6detail11MessageTypeE6EEENS0_30MemoryResourceAllocationPolicyES6_NS3_19ProcessModifierImplINS2_21DefaultProxyFilterTagEEEE45_nn_sf_sync_ResetAnalogStickManualCalibrationENS5_6system11UniquePadIdEl
nnutilZlib_deflateInit_
_ZN2nn5codec20CJointStereo_ApplyMSEPPNS0_22CAacDecoderChannelInfoEPKsPKhiii
__nnmusl_stderr_lock_init
_ZN2nn5audio29InitializeAudioRendererConfigEPNS0_19AudioRendererConfigERKNS0_22AudioRendererParameterEPvm
_ZN2nn3hid20GetTouchScreenStatesILm5EEEiPNS0_16TouchScreenStateIXT_EEEi
_ZN2nn4lmem6detail12InitHeapHeadEPNS1_8HeapHeadEjPvS4_i
_ZN2nn2sf4cmif6client6detail13CmifProxyImplINS_4nifm6detail8IRequestENS2_19CmifDomainProxyKindINS0_4hipc6client38Hipc2ClientSessionManagedProxyKindBaseINSA_18Hipc2ProxyKindBaseILNS9_6detail11MessageTypeE6EEEEEEENS0_30MemoryResourceAllocationPolicyES7_NS3_19ProcessModifierImplINS2_21DefaultProxyFilterTagEEEE31_nn_sf_sync_SetNetworkProfileIdERKNS_4util4UuidE
_Z20hosSetupSystemEventsP10EventAsyncPP13NvOsThreadRecPKci
_ZN7android7RefBase13onLastWeakRefEPKv
_ZN2nn4bcat6detail17ShimLibraryGlobal25MountDeliveryCacheStorageENS_13ApplicationIdE
_ZN2nn5image6detail4jpeg17jinit_inverse_dctEPNS2_22jpeg_decompress_structE
_ZN2nn2ec6detail12GeneratePathERNS1_15ShowShopPageArgEPKcNS0_8SourceIdES5_S5_S5_z
_ZN2nn4util10BitFlagSetILi256ENS_3hid11KeyboardKeyEE4FlagILi31EE4MaskE
nnmem_nlib_memrchr_simd
__wcscoll_l
_ZN2nn7account28DeleteSaveDataThumbnailImageERKNS0_3UidERKNS_13ApplicationIdE
_ZN2nn8settings5fwdbg19SetWebInspectorFlagEb
_ZN2nn3web14ShowWebPageArg4DataEv
_ZN2nn2sf4cmif6client34CmifDomainProxyClientCoreProcessorINS0_4hipc6client38Hipc2ClientSessionManagedProxyKindBaseINS5_18Hipc2ProxyKindBaseILNS4_6detail11MessageTypeE6EEEEENS1_6detail14CoreMethodInfoINSt3__15tupleIJNSC_18OutRawArgumentInfoILm8ELm8ELl0EEENSC_17InRawArgumentInfoILm8ELm8ELl0EEENSC_18BufferArgumentInfoILi0ELi6ELm0EEEEEELm8ELm8ELb0EEESM_E7ProcessEPNS2_23CmifDomainClientMessageISB_E15ProxyBaseObjectENS2_24OutRawClientArgumentTypeILm8ELm8EEENS2_23InRawClientArgumentTypeILm8ELm8EvEENS2_24BufferClientArgumentTypeEj
_ZN2nn3mii6detail18GetMouthGreenColorENS0_11CommonColorENS0_9GammaTypeE
_ZN2nn5audio16IsDelayRemovableEPKNS0_9DelayTypeE
_ZNK2nn3mii13AppletManager11GetUsedUuidEv
_ZN2nn2sf6detail39ObjectImplFactoryWithStatelessAllocatorINS0_4cmif6client6detail9CmifProxyINS_7account4baas24IManagerForSystemServiceENS4_19CmifDomainProxyKindINS0_4hipc6client38Hipc2ClientSessionManagedProxyKindBaseINSC_18Hipc2ProxyKindBaseILNSB_6detail11MessageTypeE6EEEEEEENS0_25StatelessAllocationPolicyINS0_22ExpHeapStaticAllocatorILm2048ENS7_6detail12ObjectHolder24ObjectHolderAllocatorTagEEEEENS5_19ProcessModifierImplINS4_21DefaultProxyFilterTagEEEvEESQ_E6Object12AddReferenceEv
_ZN2nn2ec28ConsumableServiceItemManagerC2Ev
_ZNK2nn2ec23ConsumableServiceItemId7IsValidEv
nnmem_nlib_utf32cpy_
_ZN2nn2sf4cmif6client6detail13CmifProxyImplINS_3ssl2sf14ISslConnectionENS2_19CmifDomainProxyKindINS0_4hipc6client38Hipc2ClientSessionManagedProxyKindBaseINSA_18Hipc2ProxyKindBaseILNS9_6detail11MessageTypeE6EEEEEEENS0_24StatefulAllocationPolicyINS0_16ExpHeapAllocatorEEES7_NS3_19ProcessModifierImplINS2_21DefaultProxyFilterTagEEEE16_nn_sf_sync_PeekENS0_3OutIjvEERKNS0_9OutBufferE
_ZN2nn2sf4cmif6client6detail13CmifProxyImplINS_5visrv2sf22IManagerDisplayServiceENS0_4hipc6client18Hipc2ProxyKindBaseILNS8_6detail11MessageTypeE6EEENS0_30MemoryResourceAllocationPolicyES7_NS3_19ProcessModifierImplINS2_21DefaultProxyFilterTagEEEE48_nn_sf_sync_ExpandStartupLogoOnSharedFrameBufferENS_2vi7fbshare18SharedBufferHandleElRKNSK_19SharedTextureOptionE
_ZN2nn3web14ShowWebPageArg23SetMediaAutoPlayEnabledEb
NvRmGpuDeviceReadTimeNs
_ZNSt3__17collateIcED0Ev
_ZN2nn8settings6detail42GetConsoleSixAxisSensorAngularAccelerationEPNS0_6system39ConsoleSixAxisSensorAngularAccelerationE
__fbufsize
_ZN2nn4util17MessagePackWriter19WriteBinary16HeaderEt
nncryptoAes256GcmEncryptorBlockSize
_ZNSt3__112ctype_bynameIwED1Ev
_ZNSt3__115__libcpp_tl_setEN2nn2os7TlsSlotEPv
_ZN2nn5audio19SetVoiceDestinationEPNS0_19AudioRendererConfigEPNS0_9VoiceTypeEPNS0_12FinalMixTypeE
_ZN2nn3hid6system14IsUsbConnectedENS1_11UniquePadIdE
_ZN2nn5swkbd14InlineKeyboard6LaunchEv
nvcecInitAsyncEvents
_ZN2nn3hid6system15GetButtonConfigEPNS1_20ButtonConfigEmbeddedERKNS1_11UniquePadIdE
_ZN2nn2sf4cmif6client6detail13CmifProxyImplINS_3hid16IHidSystemServerENS0_4hipc6client18Hipc2ProxyKindBaseILNS7_6detail11MessageTypeE6EEENS0_30MemoryResourceAllocationPolicyES6_NS3_19ProcessModifierImplINS2_21DefaultProxyFilterTagEEEE46_nn_sf_sync_IsButtonConfigStorageEmbeddedEmptyENS0_3OutIbvEEi
_ZN2nn2sf6detail38ObjectImplFactoryWithStatefulAllocatorINS0_4cmif6client6detail9CmifProxyINS_3ngc1t6detail9INotifierENS0_4hipc6client18Hipc2ProxyKindBaseILNSB_6detail11MessageTypeE6EEENS0_30MemoryResourceAllocationPolicyENS5_19ProcessModifierImplINS4_21DefaultProxyFilterTagEEEvEESH_E6Object12AddReferenceEv
_ZN2nn2sf4cmif6client6detail13CmifProxyImplINS_3nsd6detail8IManagerENS0_4hipc6client18Hipc2ProxyKindBaseILNS8_6detail11MessageTypeE6EEENS0_30MemoryResourceAllocationPolicyES7_NS3_19ProcessModifierImplINS2_21DefaultProxyFilterTagEEEE17GetCmifBaseObjectEv
_ZN2nn2sf4cmif6client6detail13CmifProxyImplINS_4pctl6detail3ipc23IParentalControlServiceENS2_19CmifDomainProxyKindINS0_4hipc6client38Hipc2ClientSessionManagedProxyKindBaseINSB_18Hipc2ProxyKindBaseILNSA_6detail11MessageTypeE6EEEEEEENS0_30MemoryResourceAllocationPolicyES8_NS3_19ProcessModifierImplINS2_21DefaultProxyFilterTagEEEE17GetCmifBaseObjectEv
__udivmoddi4
lrand48
_ZN2nn8irsensor30GetImageTransferProcessorStateEPNS0_27ImageTransferProcessorStateEPvmRKNS0_14IrCameraHandleE
_ZNK2nn2la21CommonArgumentsWriter13GetExportSizeEv
_ZN2nn2vi24SetRecordingLayerEnabledEb
_ZNKSt3__17codecvtIwc11__mbstate_tE10do_unshiftERS1_PcS4_RS4_
_ZNSt3__129__libcpp_recursive_mutex_initEPN2nn2os9MutexTypeE
_ZN2nn2fs6detail22CreateTemporaryStorageENS_3ncm13ApplicationIdEmlj
_ZN2nn2fs40SaveDataTransferManagerForSaveDataRepair26OpenDeviceSaveDataImporterEPNSt3__110unique_ptrINS0_25ISaveDataDivisionImporterENS2_14default_deleteIS4_EEEERKNS0_19InitialDataVersion2ENS0_15SaveDataSpaceIdE
_ZN2nn2fs6detail24SaveDataImporterVersion223GetImportInitialDataAadEPNS1_14InitialDataAadE
silk_Resampler_2_3_COEFS
_ZNK2nn2ec6detail15ShowShopPageArg15PushToInChannelENS_6applet19LibraryAppletHandleE
_ZN2nn3hid6system6detail19IsJoyConRailEnabledEPb
_ZN2nn3nsd13GetNasApiFqdnEPNS0_4FqdnE
_ZTVNSt3__17num_getIcNS_19istreambuf_iteratorIcNS_11char_traitsIcEEEEEE
nndetailImagePng_png_reciprocal
_ZN2nn2sf4hipc6server6detail29HipcAllInOneServerManagerBase20ProcessInvokeRequestEPNS_2os19MultiWaitHolderTypeE
_ZTSNSt3__120__shared_ptr_pointerIPNS_21__horizon_thread_dataEPFvS2_ENS_9allocatorIS1_EEEE
_ZN2nn3hid32SetSixAxisSensorFusionParametersERKNS0_19SixAxisSensorHandleEff
_ZN2nn4nifm17NetworkConnection15IsRequestOnHoldEv
_ZN2nn4nifm24GetCurrentNetworkProfileEPNS0_18NetworkProfileDataE
_ZN2nn5srepo6detail15ReportGenerator19CheckKeyDuplicationEPKhmPKc
_ZN2nn5swkbd14SetInitialTextEPNS0_15ShowKeyboardArgEPKDs
_ZN2nn5audio23SplitterDestinationData18GetInParameterSizeEi
_ZN2nn2fs6detail12FileAccessorC1EONSt3__110unique_ptrINS0_3fsa5IFileENS3_14default_deleteIS6_EEEEPNS1_18FileSystemAccessorEi
_ZN2nn2os6detail38InternalConditionVariableImplByHorizonC1Ev
_ZN2nn2sf4hipc6client24Hipc2ClientCoreProcessorILNS1_6detail11MessageTypeE6ENS0_4cmif6detail14CoreMethodInfoINSt3__15tupleIJNS7_17InRawArgumentInfoILm1ELm1ELl0EEEEEELm1ELm0ELb0EEESD_E7ProcessEPNS2_26Hipc2ClientProxyBaseObjectENS6_6client23InRawClientArgumentTypeILm1ELm1EvEEj
_ZN2nn5audio17SetAudioOutVolumeEPNS0_8AudioOutEf
_ZN2nn2sf4hipc6client24Hipc2ClientCoreProcessorILNS1_6detail11MessageTypeE6ENS0_4cmif6detail14CoreMethodInfoINSt3__15tupleIJNS7_17InRawArgumentInfoILm1ELm1ELl0EEENSB_ILm20ELm4ELl4EEEEEELm24ELm0ELb0EEESE_E7ProcessEPNS2_26Hipc2ClientProxyBaseObjectENS6_6client23InRawClientArgumentTypeILm1ELm1EvEENSK_ILm20ELm4EvEEj
_ZTIN2nn2sf4cmif6client6detail13CmifProxyImplINS_4npns11INpnsSystemENS0_4hipc6client18Hipc2ProxyKindBaseILNS7_6detail11MessageTypeE6EEENS0_30MemoryResourceAllocationPolicyES6_NS3_19ProcessModifierImplINS2_21DefaultProxyFilterTagEEEEE
_ZN7android6Region13translateSelfEii
_ZN2nn3hid15KeyCodeComposer15EnqueueKeyCodesEPKti
_ZTSN2nn7account4http15IOAuthProcedureE
_ZN2nn3hid6detail19GetTouchScreenStateILm14EEENS_6ResultEPNS0_16TouchScreenStateIXT_EEE
_ZN2nn4util10BitFlagSetILi256ENS_3hid11KeyboardKeyEE4FlagILi75EE4MaskE
_ZN2nn8irsensor6detail13StatusManager9ClearLifoERKNS0_14IrCameraHandleE
_ZNK2nn3mii6detail11CoreDataRaw15GetFacelineMakeEv
_ZN2nn3mii6detail12StoreDataRaw9SetHeightEi
_ZN2nn8settings6system28SetButtonConfigSettingsRightEPKNS1_20ButtonConfigSettingsEi
_ZTVN2nn2sf6detail38ObjectImplFactoryWithStatefulAllocatorINS0_4cmif6client6detail9CmifProxyINS_2am7service18ISystemAppletProxyENS4_19CmifDomainProxyKindINS0_4hipc6client38Hipc2ClientSessionManagedProxyKindBaseINSC_18Hipc2ProxyKindBaseILNSB_6detail11MessageTypeE6EEEEEEENS0_30MemoryResourceAllocationPolicyENS5_19ProcessModifierImplINS4_21DefaultProxyFilterTagEEEvEESK_E6ObjectE
_ZTVN2nn2sf6detail38ObjectImplFactoryWithStatefulAllocatorINS0_4cmif6client6detail9CmifProxyINS_2am7service22IAppletCommonFunctionsENS4_19CmifDomainProxyKindINS0_4hipc6client38Hipc2ClientSessionManagedProxyKindBaseINSC_18Hipc2ProxyKindBaseILNSB_6detail11MessageTypeE6EEEEEEENS0_30MemoryResourceAllocationPolicyENS5_19ProcessModifierImplINS4_21DefaultProxyFilterTagEEEvEESK_E6ObjectE
_ZN2nn2os17FreeAddressRegionEm
_ZN2nn3grc22FinalizeForApplicationEv
_ZN2nn2sf4cmif6client6detail13CmifProxyImplINS_2am7service15IDebugFunctionsENS2_19CmifDomainProxyKindINS0_4hipc6client38Hipc2ClientSessionManagedProxyKindBaseINSA_18Hipc2ProxyKindBaseILNS9_6detail11MessageTypeE6EEEEEEENS0_30MemoryResourceAllocationPolicyES7_NS3_19ProcessModifierImplINS2_21DefaultProxyFilterTagEEEE57_nn_sf_sync_AlarmSettingNotificationEnableAppEventReserveENS0_13SharedPointerINS6_8IStorageEEENS_3ncm13ApplicationIdE
_ZN2nn2ec19ShopServiceAccessor6AttachEPNS1_13AsyncResponseE
_ZN2nn2fs16GetSaveDataFlagsEPjNS0_15SaveDataSpaceIdEm
_ZN2nn2sf4hipc6client24Hipc2ClientCoreProcessorILNS1_6detail11MessageTypeE6ENS0_4cmif6detail14CoreMethodInfoINSt3__15tupleIJNS7_21OutObjectArgumentInfoILi0ELi0EEENS7_20InHandleArgumentInfoILi0ELi1EEENSD_ILi1ELi1EEENS7_17InRawArgumentInfoILm8ELm8ELl0EEENSD_ILi2ELi1EEENSG_ILm8ELm8ELl8EEEEEELm16ELm0ELb0EEESK_E21ProcessWithOutObjectsEPNS2_26Hipc2ClientProxyBaseObjectENS6_6client27OutObjectClientArgumentTypeENSP_26InHandleClientArgumentTypeESR_NSP_23InRawClientArgumentTypeILm8ELm8EvEESR_ST_jPNS0_13SharedPointerINS0_14IServiceObjectEEE
_ZNK2nn2la21CommonArgumentsWriter6ExportEPvm
_ZN2nn3ngc6detail14ContentsReader16CheckMountPrefixEPKc
_ZN2nn3ngc1t26RequestResourceUpdateCheckEv
_ZN2nn2sf4cmif6client6detail13CmifProxyImplINS_7account31IAccountServiceForAdministratorENS2_19CmifDomainProxyKindINS0_4hipc6client38Hipc2ClientSessionManagedProxyKindBaseINS9_18Hipc2ProxyKindBaseILNS8_6detail11MessageTypeE6EEEEEEENS0_25StatelessAllocationPolicyINS0_22ExpHeapStaticAllocatorILm2048ENS5_6detail12ObjectHolder24ObjectHolderAllocatorTagEEEEES6_NS3_19ProcessModifierImplINS2_21DefaultProxyFilterTagEEEE58_nn_sf_sync_ProxyProcedureForGuestLoginWithNintendoAccountENS0_3OutINS0_13SharedPointerINS5_3nas29IOAuthProcedureForExternalNsaEEEvEERKNSJ_4UuidE
_ZN2nn5audio6server38CommandProcessingTimeEstimatorVersion18EstimateERKNS0_22DownMix6chTo2chCommandE
_ZN2nn3hid6detail27EnablePairedPalmaConnectionEv
_ZN2nn4nifm7RequestC1ERKNS0_17RequestParametersE
_ZN2nn8settings7factory39GetConsoleSixAxisSensorHorizontalOffsetEPNS1_36ConsoleSixAxisSensorHorizontalOffsetE
_ZNK2nn2sf4hipc6detail25HipcMessageBufferAccessor22GetPointerReceiveIndexEi
_ZN2nn4util9UriParser5ParseEPKcNS1_6OptionE
_ZNK7android6Region16isTriviallyEqualERKS0_
_ZTINSt3__15ctypeIcEE
_ZN2nn5audio6server24AudioRendererManagerImpl15AudioDeviceImpl26QueryAudioDeviceInputEventENS_2sf3OutINS4_12NativeHandleEvEE
nncryptoHmacSha1GeneratorBlockSize
_ZN2nn2sf4cmif6client6detail13CmifProxyImplINS_3ssl2sf14ISslConnectionENS2_19CmifDomainProxyKindINS0_4hipc6client38Hipc2ClientSessionManagedProxyKindBaseINSA_18Hipc2ProxyKindBaseILNS9_6detail11MessageTypeE6EEEEEEENS0_24StatefulAllocationPolicyINS0_16ExpHeapAllocatorEEES7_NS3_19ProcessModifierImplINS2_21DefaultProxyFilterTagEEEE32_nn_sf_sync_GetRenegotiationModeENS0_3OutINS6_17RenegotiationModeEvEE
_ZN7android8Composer8setFlagsERKNS_2spINS_21SurfaceComposerClientEEERKNS1_INS_7IBinderEEEjj
_ZN2nn5audio22GetI3dl2ReverbRoomGainEPKNS0_15I3dl2ReverbTypeE
_ZN2nn4util9VSNPrintfEPcmPKcSt9__va_list
_ZN7android6Parcel22writeDupFileDescriptorEi
_ZN2nn5codec13SineWindow512E
_ZN2nn3grc3dev22RegisterOffscreenLayerEmiii
_ZN2nn8settings6detail30SetAnalogStickUserCalibrationRERKNS0_6system26AnalogStickUserCalibrationE
_ZN2nn2sf4cmif6client6detail13CmifProxyImplINS_8settings21ISystemSettingsServerENS0_4hipc6client18Hipc2ProxyKindBaseILNS7_6detail11MessageTypeE6EEENS0_30MemoryResourceAllocationPolicyES6_NS3_19ProcessModifierImplINS2_21DefaultProxyFilterTagEEEE43_nn_sf_sync_SetAccountOnlineStorageSettingsERKNS0_7InArrayINS5_6system28AccountOnlineStorageSettingsEEE
_ZN2nn4util8Vector3f13ConstantUnitXE
_ZN7android16ISurfaceComposer11asInterfaceERKNS_2spINS_7IBinderEEE
_ZN2nn3hid23VibrationNodeConnectionC1EPNS0_13VibrationNodeES3_
_ZN2nn8settings6system38SetPushNotificationActivityModeOnSleepEi
_ZN2nn4util17BinaryBlockHeader12SetBlockSizeEm
__extendhfsf2
_ZNK2nn5audio6server12VoiceContext18GetChannelResourceEi
_ZN2nn3hid23GetActualVibrationValueEPNS0_14VibrationValueERKNS0_21VibrationDeviceHandleE
_ZN2nn2sf4hipc6client24Hipc2ClientCoreProcessorILNS1_6detail11MessageTypeE6ENS0_4cmif6detail14CoreMethodInfoINSt3__15tupleIJNS7_18OutRawArgumentInfoILm4ELm4ELl0EEENS7_18BufferArgumentInfoILi0ELi9ELm0EEENS7_17InRawArgumentInfoILm8ELm8ELl0EEEEEELm8ELm4ELb1EEESH_E7ProcessEPNS2_26Hipc2ClientProxyBaseObjectENS6_6client24OutRawClientArgumentTypeILm4ELm4EEENSM_24BufferClientArgumentTypeENSM_23InRawClientArgumentTypeILm8ELm8EvEEj
NvRmSurfaceComputeOffset
_ZN2nn5album22SaveAndShareScreenshotEPKvmNS0_9ImageSizeENS0_17AlbumReportOptionERKNS_7account3UidE
_ZN2nn4util6detail20FileOutputStreamImpl5CloseEv
_ZTIN2nn7account29IAccountServiceForApplicationE
_ZTIN2nn5audio6detail15IAudioInManagerE
_ZN2nn6hidbus6detail20ClientResourceHolder20IsSharedMemoryMappedEv
_ZN2nn3err6detail11ReadVersionEPNS0_27ErrorMessageDatabaseVersionE
_ZNK2nn12notification26WeeklyScheduleAlarmSetting10GetSettingENS_4time9DayOfWeekE
_ZTISt12domain_error
_ZNK2nn5audio6common10NodeStates8GetStateEi
nncodecLibopus_renormalise_vector
_ZN2nn3hid14VibrationMixer13SetCompressorERKNS1_19CompressorParameterE
_ZN2nn3hid6system21GetNpadSystemExtStyleEPNS1_18AppletFooterUiTypeEPNS1_21NpadSystemExtSubStyleERKj
nnmem_nlib_strto_int32_fallback
_ZN2nn2vi14GetDisplayModeEPNS0_15DisplayModeInfoEPKNS0_7DisplayE
_ZN2nn9bluetooth11GattServiceC1ERKNS0_17GattAttributeUuidEtjttb
_ZN2nn8settings6system19IsUsbFullKeyEnabledEv
_ZN2nn4util14AsyncExecutionD2Ev
_ZNSt3__124__libcpp_debug_exceptionC1Ev
_ZN22nerd_gillette_internal5otete7jaimev220DecodeHasNextHandROKERbPKhmPm
_ZN2nn3mii6detail13GetDefaultMiiEi
_ZN2nn3ngc15ProfanityFilterC1EPvm
_ZN2nn2sf4cmif6client6detail13CmifProxyImplINS_7timesrv6detail7service16ITimeZoneServiceENS2_19CmifDomainProxyKindINS0_4hipc6client38Hipc2ClientSessionManagedProxyKindBaseINSB_18Hipc2ProxyKindBaseILNSA_6detail11MessageTypeE6EEEEEEENS0_30MemoryResourceAllocationPolicyES8_NS3_19ProcessModifierImplINS2_21DefaultProxyFilterTagEEEE28_nn_sf_sync_LoadTimeZoneRuleENS0_3OutINS_4time12TimeZoneRuleEvEERKNSP_12LocationNameE
_ZTSNSt3__17num_getIcNS_19istreambuf_iteratorIcNS_11char_traitsIcEEEEEE
pthread_key_delete
_ZN2nn5codec9CHcr_ReadEPNS0_13FDK_BITSTREAMEPNS0_22CAacDecoderChannelInfoE
_ZN2nn2sf4cmif6client6detail13CmifProxyImplINS_3hid10IHidServerENS0_4hipc6client18Hipc2ProxyKindBaseILNS7_6detail11MessageTypeE6EEENS0_30MemoryResourceAllocationPolicyES6_NS3_19ProcessModifierImplINS2_21DefaultProxyFilterTagEEEE26_nn_sf_sync_DeactivateNpadENS_6applet20AppletResourceUserIdE
_ZN7android12ProcessState4selfEv
__fixsfdi
_ZN2nn5audio19RegisterBufferEventEPNS0_19FinalOutputRecorderEPNS_2os11SystemEventE
_ZN2nn2fs26FileStorageBasedFileSystemC1Ev
_ZN2nn4pctl18DisableAllFeaturesEv
_ZN2nn3hid6server18SharedMemoryHolderC1EOS2_
_ZN2nn4htcs6detail14virtual_socket9SetSocketENS_2sf13SharedPointerINS_3tma7ISocketEEERi
_ZN2nn4util6detail7msgpack9WriteBoolEPNS0_17MessagePackWriter11StreamParamEb
_ZN2nn5codec28CConcealment_InitChannelDataEPNS0_16CConcealmentInfoEPNS0_14CConcealParamsEi
_ZnamRKSt9nothrow_t
_ZN2nn8settings6detail31GetApplicationOwnKeyboardLayoutEPbPNS0_14KeyboardLayoutE
_ZN2nn2sf4hipc6server2v16detail29HipcAllInOneServerManagerBaseD2Ev
_ZN2nn5swkbd30InlineKeyboardForLibraryAppletD1Ev
_ZN2nn5audio3dsp6SignalEv
_ZTSN2nn5fssrv2sf25ISaveDataDivisionImporterE
_ZN2nn2sf4cmif6client34CmifDomainProxyClientCoreProcessorINS0_4hipc6client38Hipc2ClientSessionManagedProxyKindBaseINS5_18Hipc2ProxyKindBaseILNS4_6detail11MessageTypeE6EEEEENS1_6detail14CoreMethodInfoINSt3__15tupleIJNSC_18OutRawArgumentInfoILm1ELm1ELl0EEENSC_18BufferArgumentInfoILi0ELi25ELm4EEEEEELm0ELm1ELb0EEESK_E7ProcessEPNS2_23CmifDomainClientMessageISB_E15ProxyBaseObjectENS2_24OutRawClientArgumentTypeILm1ELm1EEENS2_24BufferClientArgumentTypeEj
_ZN2nn4pctl21PostEnableAllFeaturesEv
_ZN2nn2sf4cmif6client6detail13CmifProxyImplINS_5prepo6detail3ipc13IPrepoServiceENS2_19CmifDomainProxyKindINS0_4hipc6client38Hipc2ClientSessionManagedProxyKindBaseINSB_18Hipc2ProxyKindBaseILNSA_6detail11MessageTypeE6EEEEEEENS0_30MemoryResourceAllocationPolicyES8_NS3_19ProcessModifierImplINS2_21DefaultProxyFilterTagEEEE40_nn_sf_sync_SetUserAgreementCheckEnabledEb
NvRmMemGetIVCId
nndetailImagePng_png_do_packswap
_ZN2nn8settings6system20SetBacklightSettingsERKNS1_19BacklightSettingsExE
_ZNKSt3__18time_getIcNS_19istreambuf_iteratorIcNS_11char_traitsIcEEEEE11__get_year4ERiRS4_S4_RjRKNS_5ctypeIcEE
_ZNSt3__19__num_getIcE19__stage2_float_loopEcRbRcPcRS4_ccRKNS_12basic_stringIcNS_11char_traitsIcEENS_9allocatorIcEEEEPjRSE_RjS4_
_ZNSt3__19__num_putIcE23__widen_and_group_floatEPcS2_S2_S2_RS2_S3_RKNS_6localeE
_ZN2nn2la4auth25GetResultFromContextStackEPNS1_9ReturnArgENS_6applet13StorageHandleE
_ZTIN2nn3btm8IBtmUserE
ptrs_to_offsets
_ZN2nn2os6detail26ThreadManagerImplByHorizon14ChangePriorityEPNS0_10ThreadTypeEi
_ZN2nn4nifm22GetCurrentProxySettingEPNS0_12ProxySettingE
_ZN2nn2sf4cmif6client6detail13CmifProxyImplINS_2am7service15IStorageChannelENS2_19CmifDomainProxyKindINS0_4hipc6client38Hipc2ClientSessionManagedProxyKindBaseINSA_18Hipc2ProxyKindBaseILNS9_6detail11MessageTypeE6EEEEEEENS0_30MemoryResourceAllocationPolicyES7_NS3_19ProcessModifierImplINS2_21DefaultProxyFilterTagEEEE12GetProxyInfoEv
_ZN2nn4diag14OnResultHandleENS_6ResultERKNS0_10SourceInfoE
_ZN2nn2sf4cmif6client6detail13CmifProxyImplINS_7friends6detail3ipc20INotificationServiceENS2_19CmifDomainProxyKindINS0_4hipc6client38Hipc2ClientSessionManagedProxyKindBaseINSB_18Hipc2ProxyKindBaseILNSA_6detail11MessageTypeE6EEEEEEENS0_30MemoryResourceAllocationPolicyES8_NS3_19ProcessModifierImplINS2_21DefaultProxyFilterTagEEEE17_nn_sf_sync_ClearEv
_ZN2nn2fs11FileStorage5WriteElPKvm
_ZN2nn2sf4cmif6client34CmifDomainProxyClientCoreProcessorINS0_4hipc6client38Hipc2ClientSessionManagedProxyKindBaseINS5_18Hipc2ProxyKindBaseILNS4_6detail11MessageTypeE6EEEEENS1_6detail14CoreMethodInfoINSt3__15tupleIJNSC_18OutRawArgumentInfoILm13ELm1ELl0EEENSG_ILm9ELm1ELl13EEEEEELm0ELm22ELb0EEESJ_E7ProcessEPNS2_23CmifDomainClientMessageISB_E15ProxyBaseObjectENS2_24OutRawClientArgumentTypeILm13ELm1EEENSQ_ILm9ELm1EEEj
NvRmChannelSetModuleHighPriority
_ZN2nn2sf4cmif6client6detail13CmifProxyImplINS_2am7service22IAppletCommonFunctionsENS2_19CmifDomainProxyKindINS0_4hipc6client38Hipc2ClientSessionManagedProxyKindBaseINSA_18Hipc2ProxyKindBaseILNS9_6detail11MessageTypeE6EEEEEEENS0_30MemoryResourceAllocationPolicyES7_NS3_19ProcessModifierImplINS2_21DefaultProxyFilterTagEEEE29_nn_sf_sync_WriteThemeStorageEmRKNS0_8InBufferE
_ZTIN2nn2sf6detail38ObjectImplFactoryWithStatefulAllocatorINS0_4cmif6client6detail9CmifProxyINS_2am7service16IAudioControllerENS4_19CmifDomainProxyKindINS0_4hipc6client38Hipc2ClientSessionManagedProxyKindBaseINSC_18Hipc2ProxyKindBaseILNSB_6detail11MessageTypeE6EEEEEEENS0_30MemoryResourceAllocationPolicyENS5_19ProcessModifierImplINS4_21DefaultProxyFilterTagEEEvEESK_E6ObjectE
_ZTSN2nn2sf6detail16ObjectHolderImplINS0_13InterfaceInfoINS_5audio6detail14IAudioRendererEE5_tO2NINS4_6server24AudioRendererManagerImpl17AudioRendererImplEE4typeEvEE
_ZN2nn3hid6system6detail22SetButtonConfigStorageERKNS_9hidconfig17ButtonConfigRightEi
_ZN2nn4pctl20GetPlayTimerSettingsEPNS0_17PlayTimerSettingsE
_ZTSN2nn2sf6detail39ObjectImplFactoryWithStatelessAllocatorINS0_4cmif6client6detail9CmifProxyINS_7account6detail13IAsyncContextENS4_19CmifDomainProxyKindINS0_4hipc6client38Hipc2ClientSessionManagedProxyKindBaseINSC_18Hipc2ProxyKindBaseILNSB_6detail11MessageTypeE6EEEEEEENS0_25StatelessAllocationPolicyINS0_22ExpHeapStaticAllocatorILm2048ENS8_12ObjectHolder24ObjectHolderAllocatorTagEEEEENS5_19ProcessModifierImplINS4_21DefaultProxyFilterTagEEEvEESP_E6ObjectE
_ZN2nn3hid23VibrationNodeConnectionC1Ev
_ZN2nn2sf4cmif6client6detail36GetClientProcessorImplWithObjectBaseINS2_19CmifDomainProxyKindINS0_4hipc6client38Hipc2ClientSessionManagedProxyKindBaseINS7_18Hipc2ProxyKindBaseILNS6_6detail11MessageTypeE6EEEEEEENS3_19ProcessModifierImplINS2_21DefaultProxyFilterTagEEEE14ObjectAssignerINS0_30MemoryResourceAllocationPolicyENS_14MemoryResourceEE14AllocateObjectINS_4nifm6detail15IGeneralServiceEEEvi
_ZN2nn8settings6detail33GetButtonConfigRegisteredSettingsEPiPNS0_6system30ButtonConfigRegisteredSettingsEi
__duplocale
_ZN2nn3hid6system11ActivateNfcEjNS_6applet20AppletResourceUserIdE
_ZN2nn4htcs6detail25virtual_socket_collection13RealizeSocketEi
_ZNSt16invalid_argumentD1Ev
c16rtomb
_ZN2nn5audio6server18PerformanceManager12GetNextEntryEPNS1_25PerformanceEntryAddressesENS0_21PerformanceDetailTypeENS0_20PerformanceEntryTypeEj
_ZN2nn3hid16ReadPalmaPlayLogERKNS0_21PalmaConnectionHandleERKt
nndetailImagePng_png_get_eXIf_1
_ZN2nn2sf4cmif6client6detail13CmifProxyImplINS_8settings21ISystemSettingsServerENS0_4hipc6client18Hipc2ProxyKindBaseILNS7_6detail11MessageTypeE6EEENS0_30MemoryResourceAllocationPolicyES6_NS3_19ProcessModifierImplINS2_21DefaultProxyFilterTagEEEE34_nn_sf_sync_GetBluetoothEnableFlagENS0_3OutIbvEE
_ZN2nn2sf13InterfaceInfoINS0_4hipc6detail12IHipcManagerEE4_tABINS5_5_tO2NINS2_6server2v134HipcServerSessionManagerWithDomain15HipcManagerImplEE4typeES4_E4type34_nn_sf_sync_QueryPointerBufferSizeENS0_3OutItvEE
_ZTINSt3__124__libcpp_debug_exceptionE
_ZTVN2nn5audio6server16BiquadFilterInfoE
_ZTIN2nn2sf6detail38ObjectImplFactoryWithStatefulAllocatorINS0_4cmif6client6detail9CmifProxyINS_4bcat6detail3ipc16INotifierServiceENS4_19CmifDomainProxyKindINS0_4hipc6client38Hipc2ClientSessionManagedProxyKindBaseINSD_18Hipc2ProxyKindBaseILNSC_6detail11MessageTypeE6EEEEEEENS0_30MemoryResourceAllocationPolicyENS5_19ProcessModifierImplINS4_21DefaultProxyFilterTagEEEvEESL_E6ObjectE
_ZN2nn4edid16IsAudioSupportedEPKNS0_4EdidE
_ZN2nn3ngc6detail11BitVector32D2Ev
_ZN2nn3hid6system40BindPlayReportControllerUsageUpdateEventEPNS_2os15SystemEventTypeENS2_14EventClearModeE
_ZN2nn5image6detail4jpeg13jpeg_idct_9x9EPNS2_22jpeg_decompress_structEPNS2_19jpeg_component_infoEPsPPhi
_ZN2nn2sf4cmif6client6detail13CmifProxyImplINS_8irsensor21IIrSensorSystemServerENS0_4hipc6client18Hipc2ProxyKindBaseILNS7_6detail11MessageTypeE6EEENS0_25StatelessAllocationPolicyINS0_22ExpHeapStaticAllocatorILm16384ENS5_6detail20IrSensorSystemServerEEEEES6_NS3_19ProcessModifierImplINS2_21DefaultProxyFilterTagEEEE12GetProxyInfoEv
_ZN7android10BufferItemD2Ev
_ZNSt3__17num_getIwNS_19istreambuf_iteratorIwNS_11char_traitsIwEEEEE2idE
_ZN2nn2sf4cmif6client6detail13CmifProxyImplINS_7account31IAccountServiceForSystemServiceENS2_19CmifDomainProxyKindINS0_4hipc6client38Hipc2ClientSessionManagedProxyKindBaseINS9_18Hipc2ProxyKindBaseILNS8_6detail11MessageTypeE6EEEEEEENS0_25StatelessAllocationPolicyINS0_22ExpHeapStaticAllocatorILm2048ENS5_6detail12ObjectHolder24ObjectHolderAllocatorTagEEEEES6_NS3_19ProcessModifierImplINS2_21DefaultProxyFilterTagEEEE49_nn_sf_sync_GetBaasUserAvailabilityChangeNotifierENS0_3OutINS0_13SharedPointerINSJ_9INotifierEEEvEE
_ZNK2nn3mii6detail24NfpStoreDataExtentionRaw13GetMouthColorEv
_ZZN2nn2sf31SimpleAllInOneHipcClientManagerILm1EE27InitializeShimLibraryHolderINS_4npns9INpnsUserENS0_4cmif6client6detail19ProcessModifierImplINS7_21DefaultProxyFilterTagEEEEENS_6ResultEPNS0_23ShimLibraryObjectHolderIT_EEPKcPNS_14MemoryResourceEENUlPvE_8__invokeESL_
_ZNSt13exception_ptrC2ERKS_
_ZN2nn2sf4cmif6client6detail13CmifProxyImplINS_3hid15IHidDebugServerENS0_4hipc6client18Hipc2ProxyKindBaseILNS7_6detail11MessageTypeE6EEENS0_30MemoryResourceAllocationPolicyES6_NS3_19ProcessModifierImplINS2_21DefaultProxyFilterTagEEEE34_nn_sf_sync_EnableAnalogStickPowerEbNS5_6system11UniquePadIdE
_ZNK2nn12notification26WeeklyScheduleAlarmSetting9IsEnabledENS_4time9DayOfWeekE
_ZN2nn2oe23GetPreviousProgramIndexEv
_ZNKSt3__18time_getIcNS_19istreambuf_iteratorIcNS_11char_traitsIcEEEEE10__get_hourERiRS4_S4_RjRKNS_5ctypeIcEE
_ZN2nn2fs40SaveDataTransferManagerForSaveDataRepairC1Ev
_ZN2nn2sf4hipc6client24Hipc2ClientCoreProcessorILNS1_6detail11MessageTypeE6ENS0_4cmif6detail14CoreMethodInfoINSt3__15tupleIJNS7_18BufferArgumentInfoILi0ELi5ELm0EEENS7_17InRawArgumentInfoILm4ELm4ELl0EEEEEELm4ELm0ELb0EEESF_E7ProcessEPNS2_26Hipc2ClientProxyBaseObjectENS6_6client24BufferClientArgumentTypeENSK_23InRawClientArgumentTypeILm4ELm4EvEEj
_ZN2nn3err19ApplicationErrorArgC1EjPKcS3_RKNS_8settings12LanguageCodeE
_ZN2nn2sf4cmif6client6detail13CmifProxyImplINS_8settings15ISettingsServerENS0_4hipc6client18Hipc2ProxyKindBaseILNS7_6detail11MessageTypeE6EEENS0_30MemoryResourceAllocationPolicyES6_NS3_19ProcessModifierImplINS2_21DefaultProxyFilterTagEEEE25_nn_sf_sync_GetKeyCodeMapENS0_3OutINS_3kpr10KeyCodeMapEvEE
_ZN2nn2sf4hipc23InitializeInProcessPortEPNS_14MemoryResourceE
_ZN2nn3ssl10ConnectionD2Ev
_ZN2nn4util8Vector3f13ConstantUnitYE
NvRmSyncGetSemaphores
_ZNSt3__119__shared_mutex_baseC2Ev
_ZN2nn5audio6server11InfoUpdaterC1EmmmmjRNS1_12BehaviorInfoE
_ZN2nn9bluetooth13GattAttributeC2Ev
_ZN2nn8irsensor43GetAdaptiveClusteringProcessorDefaultConfigEPNS0_33AdaptiveClusteringProcessorConfigE
_ZN2nn2sf6detail38ObjectImplFactoryWithStatefulAllocatorINS0_4cmif6client6detail9CmifProxyINS_2lm7ILoggerENS4_19CmifDomainProxyKindINS0_4hipc6client38Hipc2ClientSessionManagedProxyKindBaseINSB_18Hipc2ProxyKindBaseILNSA_6detail11MessageTypeE6EEEEEEENS0_30MemoryResourceAllocationPolicyENS5_19ProcessModifierImplINS4_21DefaultProxyFilterTagEEEvEESJ_E6Object7ReleaseEv
_ZTSNSt3__124__libcpp_debug_exceptionE
_ZN2nn4nifm6detail29TemporaryNetworkProfileClientD2Ev
_ZNKSt3__18messagesIwE8do_closeEl
_ZN2nn4bcat21DeliveryCacheProgressC1Ev
_ZN2nn9bluetooth23RegisterGattHidDataPathERKNS0_17GattAttributeUuidE
_ZNK2nn3err14SystemErrorArg15GetErrorContextEv
_ZN2nn4util10Quaternion16ConstantIdentityE
_ZN2nn2sf4cmif6client6detail13CmifProxyImplINS_7account4http15IOAuthProcedureENS2_19CmifDomainProxyKindINS0_4hipc6client38Hipc2ClientSessionManagedProxyKindBaseINSA_18Hipc2ProxyKindBaseILNS9_6detail11MessageTypeE6EEEEEEENS0_25StatelessAllocationPolicyINS0_22ExpHeapStaticAllocatorILm2048ENS5_6detail12ObjectHolder24ObjectHolderAllocatorTagEEEEENS5_3nas29IOAuthProcedureForExternalNsaENS3_19ProcessModifierImplINS2_21DefaultProxyFilterTagEEEE19_nn_sf_sync_SuspendENS0_3OutINSK_4UuidEvEE
_ZN2nn2sf4cmif6client6detail13CmifProxyImplINS_2am7service15ISelfControllerENS2_19CmifDomainProxyKindINS0_4hipc6client38Hipc2ClientSessionManagedProxyKindBaseINSA_18Hipc2ProxyKindBaseILNS9_6detail11MessageTypeE6EEEEEEENS0_30MemoryResourceAllocationPolicyES7_NS3_19ProcessModifierImplINS2_21DefaultProxyFilterTagEEEE40_nn_sf_sync_IsSystemBufferSharingEnabledEv
_ZTSN2nn2sf13InterfaceInfoINS_5audio6detail12IAudioDeviceEE4_tABINS5_5_tO2NINS2_6server24AudioRendererManagerImpl15AudioDeviceImplEE4typeES4_E4typeE
_ZTIN2nn5audio6server12DetailAspectE
_ZN2nn3hid6system6detail22SetButtonConfigEnabledEbRKNS1_11UniquePadIdE
pthread_self
_ZN2nn2os6detail27TransferMemoryImplByHorizon5UnmapEjPvm
_ZN2nn2sf4hipc6client24Hipc2ClientCoreProcessorILNS1_6detail11MessageTypeE6ENS0_4cmif6detail14CoreMethodInfoINSt3__15tupleIJNS7_18OutRawArgumentInfoILm4ELm4ELl0EEENSB_ILm4ELm4ELl4EEENS7_18BufferArgumentInfoILi0ELi6ELm0EEENSE_ILi1ELi6ELm0EEENSE_ILi2ELi6ELm0EEENS7_17InRawArgumentInfoILm4ELm4ELl0EEEEEELm4ELm8ELb0EEESK_E7ProcessEPNS2_26Hipc2ClientProxyBaseObjectENS6_6client24OutRawClientArgumentTypeILm4ELm4EEESR_NSP_24BufferClientArgumentTypeESS_SS_NSP_23InRawClientArgumentTypeILm4ELm4EvEEj
_ZN2nn4npns7SuspendEv
_ZTIN2nn8settings24ISettingsItemKeyIteratorE
_ZN2nn5audio6server22PerformanceManagerImplINS1_33PerformanceManagerImplVersion1TagENS0_6common30PerformanceFrameHeaderVersion1ENS4_24PerformanceEntryVersion1ENS4_25PerformanceDetailVersion1ENS0_20PerformanceSysDetailEE12GetNextEntryEPNS1_25PerformanceEntryAddressesENS0_21PerformanceDetailTypeENS0_20PerformanceEntryTypeEj
_ZNK2nn5codec30HardwareOpusMultiStreamDecoder13GetSampleRateEv
_ZNKSt3__112basic_stringIwNS_11char_traitsIwEENS_9allocatorIwEEE4findEwm
_ZN2nn5audio20GetSplitterMixVolumeEPKNS0_12SplitterTypeEiPKNS0_12FinalMixTypeEii
_ZN2nn5audio19InitializeResamplerEPNS0_13ResamplerTypeEPvmiii
acos
_ZN2nn2fs13MountHostRootEv
_ZN2nn2sf4cmif6client6detail13CmifProxyImplINS_4pctl6detail3ipc23IParentalControlServiceENS2_19CmifDomainProxyKindINS0_4hipc6client38Hipc2ClientSessionManagedProxyKindBaseINSB_18Hipc2ProxyKindBaseILNSA_6detail11MessageTypeE6EEEEEEENS0_30MemoryResourceAllocationPolicyES8_NS3_19ProcessModifierImplINS2_21DefaultProxyFilterTagEEEE30_nn_sf_sync_GetAccountNicknameENS0_3OutIjvEERKNS0_8OutArrayIcEERKNS6_22PairingAccountInfoBaseE
_ZN7android7Surface20getQueuedFrameNumberERm
_ZNK7android10BufferItem16getFlattenedSizeEv
_ZN2nn3hid7utility29GetConsoleSixAxisSensorHandleEPNS0_26ConsoleSixAxisSensorHandleE
_ZNK2nn5audio6server12SinkInfoBase9GetNodeIdEv
_ZNK2nn5audio6server14MemoryPoolInfo11GetLocationEv
_ZN2nn4util17MessagePackWriter22WriteUnsignedInteger64Em
__nnmusl_FileAccess
_ZN2nn4bcat6detail17ShimLibraryGlobalC2Ev
_ZZN2nn2sf40SimpleAllInOneHipcSubDomainClientManagerILm14EE27InitializeShimLibraryHolderINS_7friends6detail3ipc15IServiceCreatorENS0_4cmif6client6detail19ProcessModifierImplINS9_21DefaultProxyFilterTagEEEEENS_6ResultEPNS0_23ShimLibraryObjectHolderIT_EEPKcPNS_14MemoryResourceEENUlPNS0_13SharedPointerIS7_EEE_clESP_
_ZNK2nn7account10UiSettings35GetNintendoAccountStartupDialogTypeEv
_ZN2nn5audio6server38CommandProcessingTimeEstimatorVersion18EstimateERKNS0_12DelayCommandE
_ZN2nn3web6detail14WebSessionImpl10tryReceiveEPNS1_23WebSessionMessageHeaderEPvmNS1_28WebSessionReceiveMessageKindE
_ZNSt3__113basic_istreamIcNS_11char_traitsIcEEE5seekgENS_4fposI11__mbstate_tEE
_ZTVN2nn2sf6detail39ObjectImplFactoryWithStatelessAllocatorINS0_4cmif6client6detail9CmifProxyINS_7account3nas29IOAuthProcedureForExternalNsaENS4_19CmifDomainProxyKindINS0_4hipc6client38Hipc2ClientSessionManagedProxyKindBaseINSC_18Hipc2ProxyKindBaseILNSB_6detail11MessageTypeE6EEEEEEENS0_25StatelessAllocationPolicyINS0_22ExpHeapStaticAllocatorILm2048ENS7_6detail12ObjectHolder24ObjectHolderAllocatorTagEEEEENS5_19ProcessModifierImplINS4_21DefaultProxyFilterTagEEEvEESQ_E6ObjectE
_ZN2nn5codec33FDK_sbrDecoder_sbr_frame_info1_15E
_ZN2nn3ldn11ScanPrivateEPNS0_11NetworkInfoEPiiRKNS0_10ScanFilterEi
_ZNK2nn3mii6detail12StoreDataRaw16GetMustacheScaleEv
_ZN2nn8settings6detail19GetSpeakerParameterEPNS0_7factory16SpeakerParameterE
_ZN2nn2sf4hipc6client24Hipc2ClientCoreProcessorILNS1_6detail11MessageTypeE6ENS0_4cmif6detail14CoreMethodInfoINSt3__15tupleIJNS7_17InRawArgumentInfoILm4ELm4ELl0EEENSB_ILm4ELm4ELl4EEENS7_18BufferArgumentInfoILi0ELi5ELm0EEENSE_ILi1ELi6ELm0EEENSB_ILm4ELm4ELl8EEEEEELm12ELm0ELb0EEESI_E7ProcessEPNS2_26Hipc2ClientProxyBaseObjectENS6_6client23InRawClientArgumentTypeILm4ELm4EvEESP_NSN_24BufferClientArgumentTypeESQ_SP_j
_ZN2nn7account34NetworkServiceAccountAdministratorD0Ev
_ZN2nn3btm4user13BleDisconnectEj
_ZN2nn5codec16ResetOpusDecoderEPNS0_15OpusDecoderTypeE
_ZN2nn2fs24HierarchicalRomFileTable20CheckSameEntryExistsERKNS1_8EntryKeyENS_6ResultE
_ZN2nn2sf4cmif6client6detail13CmifProxyImplINS_3nsd6detail8IManagerENS0_4hipc6client18Hipc2ProxyKindBaseILNS8_6detail11MessageTypeE6EEENS0_30MemoryResourceAllocationPolicyES7_NS3_19ProcessModifierImplINS2_21DefaultProxyFilterTagEEEE36_nn_sf_sync_GetEnvironmentIdentifierENS0_3OutINS5_21EnvironmentIdentifierEvEE
_ZTIN2nn2os6detail31MultiWaitHolderOfInterruptEventE
nvdcGetModeDB
_ZTINSt3__17num_getIcNS_19istreambuf_iteratorIcNS_11char_traitsIcEEEEEE
fgetwc_unlocked
_ZN2nn2fs27ConvertAccountUidToFsUserIdERKNS_7account3UidE
_ZN2nn8settings6system24GetInitialLaunchSettingsEPNS1_21InitialLaunchSettingsE
_ZN2nn2sf4cmif6client6detail13CmifProxyImplINS_8settings22IFactorySettingsServerENS0_4hipc6client18Hipc2ProxyKindBaseILNS7_6detail11MessageTypeE6EEENS0_30MemoryResourceAllocationPolicyES6_NS3_19ProcessModifierImplINS2_21DefaultProxyFilterTagEEEE31_nn_sf_sync_GetAmiiboEcqvBlsKeyENS0_3OutINS5_7factory16AmiiboEcqvBlsKeyEvEE
_ZN2nn2sf4hipc6client24Hipc2ClientCoreProcessorILNS1_6detail11MessageTypeE6ENS0_4cmif6detail14CoreMethodInfoINSt3__15tupleIJNS7_18OutRawArgumentInfoILm64ELm1ELl0EEEEEELm0ELm64ELb0EEESD_E7ProcessEPNS2_26Hipc2ClientProxyBaseObjectENS6_6client24OutRawClientArgumentTypeILm64ELm1EEEj
__nnmusl_libc_lock_init
_ZN2nn2fs17FileHandleStorageD0Ev
_ZN2nn2sf6detail38ObjectImplFactoryWithStatefulAllocatorINS0_4cmif6client6detail9CmifProxyINS_3hid15IAppletResourceENS0_4hipc6client18Hipc2ProxyKindBaseILNS9_6detail11MessageTypeE6EEENS0_30MemoryResourceAllocationPolicyENS5_19ProcessModifierImplINS4_21DefaultProxyFilterTagEEEvEESF_E6Object12AddReferenceEv
_ZN2nn5image10PngEncoder6EncodeEPmPvm
_ZTSN2nn2sf4cmif6client6detail13CmifProxyImplINS_5visrv2sf26IApplicationDisplayServiceENS0_4hipc6client18Hipc2ProxyKindBaseILNS8_6detail11MessageTypeE6EEENS0_30MemoryResourceAllocationPolicyES7_NS3_19ProcessModifierImplINS2_21DefaultProxyFilterTagEEEEE
_ZNK7android4Rect6reduceERKS0_
lgammal_r
_ZN2nn3hid7utility30MakeConsoleSixAxisSensorHandleEhi
_ZN2nn5srepo5Array3AddERKNS0_6StructE
_ZN2nn5audio6server24AudioRendererManagerImpl16AcquireSessionIdEv
_ZN2nn2sf4hipc6client24Hipc2ClientCoreProcessorILNS1_6detail11MessageTypeE6ENS0_4cmif6detail14CoreMethodInfoINSt3__15tupleIJNS7_18BufferArgumentInfoILi0ELi26ELm1152EEENSB_ILi1ELi10ELm0EEEEEELm0ELm0ELb0EEESE_E7ProcessEPNS2_26Hipc2ClientProxyBaseObjectENS6_6client24BufferClientArgumentTypeESK_j
_ZN2nn5prepo6detail3ipc10InitializeEv
__nnmusl_AllocateTlsSlot
_ZN2nn2sf4cmif6client6detail13CmifProxyImplINS_3apm8IManagerENS0_4hipc6client18Hipc2ProxyKindBaseILNS7_6detail11MessageTypeE6EEENS0_30MemoryResourceAllocationPolicyES6_NS3_19ProcessModifierImplINS2_21DefaultProxyFilterTagEEEE33_nn_sf_sync_IsCpuOverclockEnabledENS0_3OutIbvEE
strtoul
_ZZN2nn2sf31SimpleAllInOneHipcClientManagerILm1EE27InitializeShimLibraryHolderINS_3nsd6detail8IManagerENS0_4cmif6client6detail19ProcessModifierImplINS8_21DefaultProxyFilterTagEEEEENS_6ResultEPNS0_23ShimLibraryObjectHolderIT_EEPKcPNS_14MemoryResourceEENUlPvE_8__invokeESM_
_ZN2nn5image11JpegDecoderC1Ev
nndetailImagePng_png_write_chunk_data
_ZTIN2nn3nfp6detail7ISystemE
_ZTSN2nn2sf4cmif6client6detail9CmifProxyINS_3ngc1t6detail9INotifierENS0_4hipc6client18Hipc2ProxyKindBaseILNS9_6detail11MessageTypeE6EEENS0_30MemoryResourceAllocationPolicyENS3_19ProcessModifierImplINS2_21DefaultProxyFilterTagEEEvEE
_ZN7android11BufferQueue21ProxyConsumerListener16onFrameAvailableERKNS_10BufferItemE
_ZTv0_n24_N7android19IGraphicBufferAllocD0Ev
_ZNK2nn2lm6detail15LogPacketHeader11GetSeverityEv
_ZNK2nn4time6detail20MonotonicSystemClock21GetSystemClockContextEv
__nnmusl_socket_fcntl
catan
_ZN2nn5audio34SetAudioRendererRenderingTimeLimitENS0_19AudioRendererHandleEi
_ZN2nn7friends12UserPresence14SetDescriptionEPKc
_ZN2nn8settings6system28NeedsToUpdateHeadphoneVolumeEPbPab
_ZN2nn3ngc71AcquireProfanityWordDatabaseReloadRequestNotifierForPlatformRegionChinaEv
_ZN2nn2os6detail36GetReadableHandleOfInterProcessEventEPKNS1_21InterProcessEventTypeE
_ZN2nn3web14ShowWebPageArg18SetCallbackableUrlEPKc
_ZTVN2nn2sf6detail38ObjectImplFactoryWithStatefulAllocatorINS0_4cmif6client6detail9CmifProxyINS_2am7service17IOverlayFunctionsENS4_19CmifDomainProxyKindINS0_4hipc6client38Hipc2ClientSessionManagedProxyKindBaseINSC_18Hipc2ProxyKindBaseILNSB_6detail11MessageTypeE6EEEEEEENS0_30MemoryResourceAllocationPolicyENS5_19ProcessModifierImplINS4_21DefaultProxyFilterTagEEEvEESK_E6ObjectE
_ZN2nn3hid6detail32GetSixAxisSensorFusionParametersEPfS2_RKNS0_19SixAxisSensorHandleE
_ZN2nn3mii15GetEyeBlueColorENS0_11CommonColorENS0_9GammaTypeE
_ZN2nn3ngc6detail3Set5BuildEv
_ZTSN2nn2os6detail31MultiWaitHolderOfInterruptEventE
_ZN2nn2sf44InitializeForHipcServerSessionManagerHandlerEv
_ZN7android21SurfaceComposerClientC2Ev
_ZN2nn5audio9AddReverbEPNS0_19AudioRendererConfigEPNS0_10ReverbTypeEPvmPNS0_10SubMixTypeEi
_ZN2nn9bluetooth33RegisterGattOperationNotificationERKNS0_17GattAttributeUuidE
gmtime
_ZN2nn2sf4cmif6client6detail13CmifProxyImplINS_3ssl2sf11ISslServiceENS2_19CmifDomainProxyKindINS0_4hipc6client38Hipc2ClientSessionManagedProxyKindBaseINSA_18Hipc2ProxyKindBaseILNS9_6detail11MessageTypeE6EEEEEEENS0_24StatefulAllocationPolicyINS0_16ExpHeapAllocatorEEES7_NS3_19ProcessModifierImplINS2_21DefaultProxyFilterTagEEEE12GetProxyInfoEv
NvRmGpuAddressSpaceFlushDeferredMappings
_ZN2nn2sf6detail39ObjectImplFactoryWithStatelessAllocatorINS0_4cmif6client6detail9CmifProxyINS_7account4http15IOAuthProcedureENS4_19CmifDomainProxyKindINS0_4hipc6client38Hipc2ClientSessionManagedProxyKindBaseINSC_18Hipc2ProxyKindBaseILNSB_6detail11MessageTypeE6EEEEEEENS0_25StatelessAllocationPolicyINS0_22ExpHeapStaticAllocatorILm2048ENS7_6detail12ObjectHolder24ObjectHolderAllocatorTagEEEEENS5_19ProcessModifierImplINS4_21DefaultProxyFilterTagEEEvEESQ_E6Object12AddReferenceEv
_ZN2nn2pl31GetPlatformServiceManagerServerEv
_ZTVN2nn2os6detail31MultiWaitHolderOfInterruptEventE
nnosInitializeMultiWaitHolderForMessageQueue
NvOsMkdir
NvRmChannelModuleMutexUnlock
fnmatch
_ZN2nn5audio6common13NodeIdManager7BaseMaxE
_ZNK2nn2ec30ConsumableServiceItemRightData7IsValidEv
nndetailImagePng_png_set_check_for_invalid_index
nvgr_import_nvrmsurface
NvOsEventPoolLink
_ZNSt3__110moneypunctIwLb1EE4intlE
_ZNSt3__111regex_errorD1Ev
_ZTSN2nn2sf4cmif6client6detail13CmifProxyImplINS_12notification6server35INotificationServicesForApplicationENS2_19CmifDomainProxyKindINS0_4hipc6client38Hipc2ClientSessionManagedProxyKindBaseINSA_18Hipc2ProxyKindBaseILNS9_6detail11MessageTypeE6EEEEEEENS0_30MemoryResourceAllocationPolicyES7_NS3_19ProcessModifierImplINS2_21DefaultProxyFilterTagEEEEE
_ZN2nn5swkbd6detail18InlineKeyboardImpl19SetMovedTabCallbackEPFvPNS0_11MovedTabArgEE
_ZNK2nn4time13ClockSnapshot38GetStandardUserSystemClockCalendarTimeEv
_ZN2nn2vi17SetDisplayCmuLumaEPNS0_7DisplayEf
_ZNKSt3__112ctype_bynameIcE10do_toupperEc
scalb
FsLtt_read
_ZN2nn7friends13GetFriendListEPiPNS0_6FriendERKNS_7account3UidEiiRKNS0_12FriendFilterE
_ZTSN2nn2sf4cmif6client6detail13CmifProxyImplINS_8irsensor21IIrSensorSystemServerENS0_4hipc6client18Hipc2ProxyKindBaseILNS7_6detail11MessageTypeE6EEENS0_25StatelessAllocationPolicyINS0_22ExpHeapStaticAllocatorILm16384ENS5_6detail20IrSensorSystemServerEEEEES6_NS3_19ProcessModifierImplINS2_21DefaultProxyFilterTagEEEEE
_ZN2nn3web10WebSession5StartEPPNS_2os15SystemEventTypeERKNS0_14ShowWebPageArgE
_ZN7android18BnConsumerListener10onTransactEjRKNS_6ParcelEPS1_j
_ZN2nn5audio10MixManagerC2EPNS0_7MixInfoEiiii
_ZN2nn5audio6server22PerformanceManagerImplINS1_33PerformanceManagerImplVersion1TagENS0_6common30PerformanceFrameHeaderVersion1ENS4_24PerformanceEntryVersion1ENS4_25PerformanceDetailVersion1ENS0_20PerformanceSysDetailEE15SetDetailTargetEj
nndetailImagePng_png_set_gAMA_fixed
nndetailImagePng_png_set_write_status_fn
_ZN2nn5swkbd6detail18InlineKeyboardImpl18CalcFromReplyType_ENS0_9ReplyTypeENS_6applet13StorageHandleEm
_ZN2nn4util10BitFlagSetILi256ENS_3hid11KeyboardKeyEE4FlagILi90EE4MaskE
_ZN2nn8settings6detail24GetAmiiboEcqvCertificateEPNS0_7factory21AmiiboEcqvCertificateE
_ZTIN2nn2sf6detail38ObjectImplFactoryWithStatefulAllocatorINS0_4cmif6client6detail9CmifProxyINS_2am7service15IStorageChannelENS4_19CmifDomainProxyKindINS0_4hipc6client38Hipc2ClientSessionManagedProxyKindBaseINSC_18Hipc2ProxyKindBaseILNSB_6detail11MessageTypeE6EEEEEEENS0_30MemoryResourceAllocationPolicyENS5_19ProcessModifierImplINS4_21DefaultProxyFilterTagEEEvEESK_E6ObjectE
nncodecLibopus_silk_inner_prod16_aligned_64_c
_ZN2nn2sf4hipc6client24Hipc2ClientCoreProcessorILNS1_6detail11MessageTypeE6ENS0_4cmif6detail14CoreMethodInfoINSt3__15tupleIJNS7_17InRawArgumentInfoILm8ELm8ELl0EEEEEELm8ELm0ELb1EEESD_E7ProcessEPNS2_26Hipc2ClientProxyBaseObjectENS6_6client23InRawClientArgumentTypeILm8ELm8EvEEj
_ZN2nn2sf4hipc6client24Hipc2ClientCoreProcessorILNS1_6detail11MessageTypeE6ENS0_4cmif6detail14CoreMethodInfoINSt3__15tupleIJNS7_18BufferArgumentInfoILi0ELi21ELm84EEENS7_17InRawArgumentInfoILm4ELm4ELl0EEEEEELm4ELm0ELb0EEESF_E7ProcessEPNS2_26Hipc2ClientProxyBaseObjectENS6_6client24BufferClientArgumentTypeENSK_23InRawClientArgumentTypeILm4ELm4EvEEj
_ZN2nn3ssl5Debug5IoctlEPNS1_6OutputEPNS1_5InputENS1_12IoctlCommandE
_ZN2nn4util8Vector3f13ConstantUnitZE
_ZN2nn2sf4hipc6client24Hipc2ClientCoreProcessorILNS1_6detail11MessageTypeE6ENS0_4cmif6detail14CoreMethodInfoINSt3__15tupleIJNS7_18BufferArgumentInfoILi0ELi22ELm48EEENS7_17InRawArgumentInfoILm8ELm8ELl0EEEEEELm8ELm0ELb0EEESF_E7ProcessEPNS2_26Hipc2ClientProxyBaseObjectENS6_6client24BufferClientArgumentTypeENSK_23InRawClientArgumentTypeILm8ELm8EvEEj
_ZN2nn7nlibsdk4heap11CentralHeap17WalkAllocatedPtrsEPFiPvmS3_ES3_
_ZN2nn2sf4hipc6client24Hipc2ClientCoreProcessorILNS1_6detail11MessageTypeE6ENS0_4cmif6detail14CoreMethodInfoINSt3__15tupleIJNS7_18OutRawArgumentInfoILm1ELm1ELl0EEENSB_ILm1ELm1ELl1EEENSB_ILm1ELm1ELl2EEENS7_17InRawArgumentInfoILm1ELm1ELl0EEEEEELm1ELm3ELb0EEESH_E7ProcessEPNS2_26Hipc2ClientProxyBaseObjectENS6_6client24OutRawClientArgumentTypeILm1ELm1EEESO_SO_NSM_23InRawClientArgumentTypeILm1ELm1EvEEj
_ZN2nn4bcat6detail17ShimLibraryGlobal29IsDeliveryCacheStorageMountedEv
_ZN2nn8settings7factory23GetEciDeviceCertificateEPNS1_24Rsa2048DeviceCertificateE
lgammaf_r
_ZTSN2nn2sf6detail39ObjectImplFactoryWithStatelessAllocatorINS0_4cmif6client6detail9CmifProxyINS_7account4baas34IAsyncContextForLoginForOnlinePlayENS4_19CmifDomainProxyKindINS0_4hipc6client38Hipc2ClientSessionManagedProxyKindBaseINSC_18Hipc2ProxyKindBaseILNSB_6detail11MessageTypeE6EEEEEEENS0_25StatelessAllocationPolicyINS0_22ExpHeapStaticAllocatorILm2048ENS7_6detail12ObjectHolder24ObjectHolderAllocatorTagEEEEENS5_19ProcessModifierImplINS4_21DefaultProxyFilterTagEEEvEESQ_E6ObjectE
silk_Transition_LP_A_Q28
pthread_cond_init
_ZN2nn4util6detail20FileOutputStreamImpl5WriteEPKvm
_ZN2nn3web11ShowWebPageEPNS0_18WebPageReturnValueERKNS0_14ShowWebPageArgE
_ZN7android7IBinderD2Ev
_ZTSN2nn2sf6detail39ObjectImplFactoryWithStatelessAllocatorINS0_4cmif6client6detail9CmifProxyINS_7account6detail9INotifierENS4_19CmifDomainProxyKindINS0_4hipc6client38Hipc2ClientSessionManagedProxyKindBaseINSC_18Hipc2ProxyKindBaseILNSB_6detail11MessageTypeE6EEEEEEENS0_25StatelessAllocationPolicyINS0_22ExpHeapStaticAllocatorILm2048ENS8_12ObjectHolder24ObjectHolderAllocatorTagEEEEENS5_19ProcessModifierImplINS4_21DefaultProxyFilterTagEEEvEESP_E6ObjectE
_ZN7android6Region7xorSelfERKS0_ii
_ZNK2nn7account25CachedNintendoAccountInfo11GetBirthdayEPm
_ZN2nn2sf4cmif6client6detail36GetClientProcessorImplWithObjectBaseINS2_19CmifDomainProxyKindINS0_4hipc6client38Hipc2ClientSessionManagedProxyKindBaseINS7_18Hipc2ProxyKindBaseILNS6_6detail11MessageTypeE6EEEEEEENS3_19ProcessModifierImplINS2_21DefaultProxyFilterTagEEEE14ObjectAssignerINS0_30MemoryResourceAllocationPolicyENS_14MemoryResourceEE14AllocateObjectINS_2am7service17IOverlayFunctionsEEEvi
_ZTIN2nn2sf4cmif6client6detail9CmifProxyINS_2am7service22ILibraryAppletAccessorENS2_19CmifDomainProxyKindINS0_4hipc6client38Hipc2ClientSessionManagedProxyKindBaseINSA_18Hipc2ProxyKindBaseILNS9_6detail11MessageTypeE6EEEEEEENS0_30MemoryResourceAllocationPolicyENS3_19ProcessModifierImplINS2_21DefaultProxyFilterTagEEEvEE
_ZN2nn5codec24FreeRam_TransportDecoderEPPNS0_12TRANSPORTDECE
_ZN2nn2os21GetSharedMemoryHandleEPKNS0_16SharedMemoryTypeE
_ZN2nn3hid6system6detail30DeleteButtonConfigStorageRightEi
nndetailImagePng_png_set_tRNS
_ZNK2nn3mii6detail12StoreDataRaw9IsSpecialEv
_ZN2nn4time40SetStandardNetworkSystemClockCurrentTimeERKNS0_9PosixTimeE
_ZN2nn2sf4cmif6client6detail13CmifProxyImplINS_5visrv2sf22IManagerDisplayServiceENS0_4hipc6client18Hipc2ProxyKindBaseILNS8_6detail11MessageTypeE6EEENS0_30MemoryResourceAllocationPolicyES7_NS3_19ProcessModifierImplINS2_21DefaultProxyFilterTagEEEE49_nn_sf_sync_DisableLayerAutoClearTransitionBufferEm
_ZN2nn2sf4cmif6client34CmifDomainProxyClientCoreProcessorINS0_4hipc6client38Hipc2ClientSessionManagedProxyKindBaseINS5_18Hipc2ProxyKindBaseILNS4_6detail11MessageTypeE6EEEEENS1_6detail14CoreMethodInfoINSt3__15tupleIJNSC_18OutRawArgumentInfoILm4ELm4ELl0EEENSC_17InRawArgumentInfoILm16ELm8ELl0EEEEEELm16ELm4ELb0EEESK_E7ProcessEPNS2_23CmifDomainClientMessageISB_E15ProxyBaseObjectENS2_24OutRawClientArgumentTypeILm4ELm4EEENS2_23InRawClientArgumentTypeILm16ELm8EvEEj
_ZN2nn2sf4cmif6client6detail13CmifProxyImplINS_4pctl6detail3ipc23IParentalControlServiceENS2_19CmifDomainProxyKindINS0_4hipc6client38Hipc2ClientSessionManagedProxyKindBaseINSB_18Hipc2ProxyKindBaseILNSA_6detail11MessageTypeE6EEEEEEENS0_30MemoryResourceAllocationPolicyES8_NS3_19ProcessModifierImplINS2_21DefaultProxyFilterTagEEEE33_nn_sf_sync_PostEnableAllFeaturesENS0_3OutIbvEE
_ZN2nn8settings6system20SetUsbFullKeyEnabledEb
_ZN2nn2sf4cmif6client6detail13CmifProxyImplINS_8settings21ISystemSettingsServerENS0_4hipc6client18Hipc2ProxyKindBaseILNS7_6detail11MessageTypeE6EEENS0_30MemoryResourceAllocationPolicyES6_NS3_19ProcessModifierImplINS2_21DefaultProxyFilterTagEEEE45_nn_sf_sync_SetButtonConfigRegisteredSettingsERKNS0_7InArrayINS5_6system30ButtonConfigRegisteredSettingsEEE
_ZN2nn2fs3dbm23DirectoryObjectTemplateINS1_13DirectoryNameENS1_8FileNameEE8FindOpenEv
_ZN2nn4htcs6detail8shutdownENS_2sf13SharedPointerINS_3tma7ISocketEEEiRi
_ZN2nn3mem19NumberLineAllocator8AllocateEPiiiPvPFvS3_E
fmaf
_ZTIN2nn2sf4cmif6client6detail13CmifProxyImplINS_7friends6detail3ipc28IDaemonSuspendSessionServiceENS2_19CmifDomainProxyKindINS0_4hipc6client38Hipc2ClientSessionManagedProxyKindBaseINSB_18Hipc2ProxyKindBaseILNSA_6detail11MessageTypeE6EEEEEEENS0_30MemoryResourceAllocationPolicyES8_NS3_19ProcessModifierImplINS2_21DefaultProxyFilterTagEEEEE
_ZN2nn3hid6system11ActivateNfcEj
_ZN2nn3mii14UpdateMiiImageEPiRKNS_4util4UuidEPS4_i
sincos
FDKfwrite
_ZN2nn3hid15KeyCodeComposer14DequeueOutputsEPti
_ZN2nn3hid6system6detail20GetNpadInterfaceTypeEPhS3_RKj
_ZTIN2nn2sf4cmif6client6detail13CmifProxyImplINS_7account19IAccountServiceBaseENS2_19CmifDomainProxyKindINS0_4hipc6client38Hipc2ClientSessionManagedProxyKindBaseINS9_18Hipc2ProxyKindBaseILNS8_6detail11MessageTypeE6EEEEEEENS0_25StatelessAllocationPolicyINS0_22ExpHeapStaticAllocatorILm2048ENS5_6detail12ObjectHolder24ObjectHolderAllocatorTagEEEEENS5_29IAccountServiceForApplicationENS3_19ProcessModifierImplINS2_21DefaultProxyFilterTagEEEEE
_ZN2nn5codec31FreeAacDecoderStaticChannelInfoEPPNS0_28CAacDecoderStaticChannelInfoE
FDKstrchr
_ZNK2nn3mii8CoreDataneERKS1_
_ZNK2nn7account6detail18OAuthProcedureBase6GetPtrEv
_ZN2nn2sf4cmif6client6detail13CmifProxyImplINS_2am7service19ILibraryAppletProxyENS2_19CmifDomainProxyKindINS0_4hipc6client38Hipc2ClientSessionManagedProxyKindBaseINSA_18Hipc2ProxyKindBaseILNS9_6detail11MessageTypeE6EEEEEEENS0_30MemoryResourceAllocationPolicyES7_NS3_19ProcessModifierImplINS2_21DefaultProxyFilterTagEEEE41_nn_sf_sync_OpenLibraryAppletSelfAccessorENS0_3OutINS0_13SharedPointerINS6_26ILibraryAppletSelfAccessorEEEvEE
_ZN2nn5codec33FDK_sbrDecoder_sbr_frame_info1_16E
_ZN2nn3mii6detail11CoreDataRaw9SetMouthYEi
_ZTVNSt3__117moneypunct_bynameIwLb0EEE
_ZNK2nn7account13ProfileEditor19GetProfileImageSizeEPm
_ZN2nn5audio33GetAudioRendererElapsedFrameCountEPKNS0_19AudioRendererConfigE
_ZN2nn5audio6server6detail19FinalizeAudioDeviceERKNS_6applet20AppletResourceUserIdE
_ZN2nn2sf4cmif6client6detail13CmifProxyImplINS_3nsd6detail8IManagerENS0_4hipc6client18Hipc2ProxyKindBaseILNS8_6detail11MessageTypeE6EEENS0_30MemoryResourceAllocationPolicyES7_NS3_19ProcessModifierImplINS2_21DefaultProxyFilterTagEEEE29_nn_sf_sync_GetCurrentSettingENS0_3OutINS5_8SaveDataEvEE
nnResultGetModule
_ZN7android6Thread11_threadLoopEPv
_ZN2nn2sf4cmif6client6detail13CmifProxyImplINS_4npns9INpnsUserENS0_4hipc6client18Hipc2ProxyKindBaseILNS7_6detail11MessageTypeE6EEENS0_30MemoryResourceAllocationPolicyENS5_11INpnsSystemENS3_19ProcessModifierImplINS2_21DefaultProxyFilterTagEEEE25_nn_sf_sync_GetStatisticsERKNS0_9OutBufferE
fmal
wprintf
_ZN2nn5audio12SetDelayTimeEPNS0_9DelayTypeENS_8TimeSpanE
_ZNK2nn5audio6server13EffectContext7GetInfoEi
_ZN2nn2ec6detail33ShowShopInformationWithParamsImplENS1_10LaunchModeEPKcRKNS_7account3UidENS0_8SourceIdE
FDKstrncmp
_ZN2nn3mii6detail12StoreDataRaw11SetEyeColorEi
_ZN3nne4nlib15NullInputStreamC1Ev
_ZN2nn5audio6server11SinkContextC2Ev
_ZTINSt3__113basic_istreamIcNS_11char_traitsIcEEEE
_ZN2nn8irsensor22RunTeraPluginProcessorERKNS0_14IrCameraHandleERKNS0_25TeraPluginProcessorConfigE
_ZNSt3__113random_deviceD1Ev
_ZTSN2nn2fs6detail26EventNotifierObjectAdapterE
_ZTSN2nn2sf4cmif6client6detail13CmifProxyImplINS_6jitsrv11IJitServiceENS0_4hipc6client18Hipc2ProxyKindBaseILNS7_6detail11MessageTypeE6EEENS0_30MemoryResourceAllocationPolicyES6_NS3_19ProcessModifierImplINS2_21DefaultProxyFilterTagEEEEE
nnsslConnectionPending
_ZTSN2nn5visrv2sf21ISystemDisplayServiceE
_ZN2nn2sf4hipc6client34HipcSimpleClientSessionManagerBaseINS2_29DefaultSessionResourceManagerEE4Impl19SetSessionCountImplEi
_ZTIN2nn2sf4cmif6client6detail13CmifProxyImplINS_7account4baas24IManagerForSystemServiceENS2_19CmifDomainProxyKindINS0_4hipc6client38Hipc2ClientSessionManagedProxyKindBaseINSA_18Hipc2ProxyKindBaseILNS9_6detail11MessageTypeE6EEEEEEENS0_25StatelessAllocationPolicyINS0_22ExpHeapStaticAllocatorILm2048ENS5_6detail12ObjectHolder24ObjectHolderAllocatorTagEEEEES7_NS3_19ProcessModifierImplINS2_21DefaultProxyFilterTagEEEEE
_ZN2nn2sf4cmif6client6detail13CmifProxyImplINS_3hid16IHidSystemServerENS0_4hipc6client18Hipc2ProxyKindBaseILNS7_6detail11MessageTypeE6EEENS0_30MemoryResourceAllocationPolicyES6_NS3_19ProcessModifierImplINS2_21DefaultProxyFilterTagEEEE34_nn_sf_sync_SetDefaultButtonConfigENS5_6system11UniquePadIdE
_ZN2nn6socket30RegisterResourceStatisticsNameEPKcm
_ZNSt3__119__thread_local_dataEv
_ZNK2nn7friends6Friend11GetNicknameEv
_ZN2nn2ec9MakeNsUidEPKc
_ZN2nn2os6detail23SetMemoryPermissionImplEmmNS0_16MemoryPermissionE
NvRmMemHandleCreate
_ZTSNSt3__115__codecvt_utf16IwLb1EEE
_ZN2nn5audio6common19WorkBufferAllocatorC1EPvm
_ZTIN2nn5fssrv2sf8IStorageE
_ZN22nerd_gillette_internal5otete11ImageCodec213EncodeInPlaceERNS0_17MaxSizedBitStreamILm300EEERKNS_15StaticImageViewIhEE
_ZNK2nn3mii16CharInfoAccessor16GetFavoriteColorEv
_ZN2nn8settings6detail19GetConfigurationId1EPNS0_7factory16ConfigurationId1E
_ZN2nn8settings6detail12SetQuestFlagEb
_ZNK7android22IGraphicBufferConsumer10BufferItem16getFlattenedSizeEv
_ZN2nn5audio6common11SupportTags14InitialReleaseE
_ZN2nn2fs17SaveDataAttribute4MakeEPS1_NS_3ncm9ProgramIdENS0_12SaveDataTypeENS0_6UserIdEmt
_ZN2nn2fs3dbm29HierarchicalFileTableTemplateINS1_13DirectoryNameENS1_8FileNameENS1_6detail13DirectoryInfoENS5_8FileInfoEE28UpdateFileInformationFromKeyERKNS8_7FileKeyERKS7_
nnmem_nlib_vsnwprintf_fallback
__udivdi3
_ZN2nn2sf4cmif6client34CmifDomainProxyClientCoreProcessorINS0_4hipc6client38Hipc2ClientSessionManagedProxyKindBaseINS5_18Hipc2ProxyKindBaseILNS4_6detail11MessageTypeE6EEEEENS1_6detail14CoreMethodInfoINSt3__15tupleIJNSC_18OutRawArgumentInfoILm4ELm4ELl0EEENSG_ILm8ELm8ELl8EEENSG_ILm4ELm4ELl4EEENSC_18BufferArgumentInfoILi0ELi70ELm0EEENSK_ILi1ELi69ELm0EEENSC_17InRawArgumentInfoILm1ELm1ELl0EEEEEELm1ELm16ELb0EEESP_E7ProcessEPNS2_23CmifDomainClientMessageISB_E15ProxyBaseObjectENS2_24OutRawClientArgumentTypeILm4ELm4EEENSW_ILm8ELm8EEESX_NS2_24BufferClientArgumentTypeESZ_NS2_23InRawClientArgumentTypeILm1ELm1EvEEj
nnmem_nlib_taskgroup_submit
_ZN2nn8settings6detail27SetPtmCycleCountReliabilityENS0_6system24PtmCycleCountReliabilityE
_ZN2nn8settings6detail11GetThemeKeyEPNS_8fssystem13ArchiveMacKeyE
nnmem_nlib_int8_from_chars
_ZN2nn3mem22NumberLineAllocatorPrvD2Ev
_ZN2nn3ngc6detail2BpD2Ev
_ZN2nn8settings7factory13GetBatteryLotEPNS0_10BatteryLotE
_ZN2nn8settings6system23GetNxControllerSettingsEPNS1_20NxControllerSettingsEi
_ZTIN2nn2sf4hipc6server25HipcServerSessionManagerTINS0_4cmif6server20CmifServerObjectInfoEEE
_ZN2nn3web14ShowWebPageArg18SetWebAudioEnabledEb
NvOsVsnprintf
_ZTSSt15underflow_error
fmax
_ZNK2nn5audio6server12SinkInfoBase10ShouldSkipEv
_ZN2nn7friends6detail3ipc19CreateFriendServiceEPPNS2_14IFriendServiceE
_ZN2nn8settings6detail31CreateSystemSettingsServerProxyEPNS_2sf13SharedPointerINS0_21ISystemSettingsServerEEE
_ZTSNSt3__110moneypunctIcLb0EEE
__nx_pthread_detached_thread_register
_ZN2nn3grc23CompleteFinishMovieFileEPNS_6capsrv21ApplicationAlbumEntryEPNS0_10MovieLayerERKNS_2sf8InBufferES9_NS_5album9ImageSizeE
_ZN2nn5audio19SetVoiceDestinationEPNS0_19AudioRendererConfigEPNS0_9VoiceTypeEPNS0_12SplitterTypeE
_ZNK2nn6crypto6detail10Sha512Impl10GetContextEPNS0_13Sha512ContextE
_ZN2nn2sf4cmif6client6detail13CmifProxyImplINS_3hid10IHidServerENS0_4hipc6client18Hipc2ProxyKindBaseILNS7_6detail11MessageTypeE6EEENS0_30MemoryResourceAllocationPolicyES6_NS3_19ProcessModifierImplINS2_21DefaultProxyFilterTagEEEE40_nn_sf_sync_GetNpadOfHighestBatteryLevelENS0_3OutIjvEERKNS0_7InArrayIjEENS_6applet20AppletResourceUserIdE
pthread_mutexattr_settype
_ZTVN3nne4nlib15NullInputStreamE
_ZNKSt3__110moneypunctIwLb0EE16do_decimal_pointEv
_ZN2nn5audio23SplitterDestinationData8FinalizeEv
_ZNSt3__16futureIvE3getEv
_ZNSt3__110__time_getC2EPKc
_ZN2nn2sf4cmif6client6detail13CmifProxyImplINS_2am7service26ILibraryAppletSelfAccessorENS2_19CmifDomainProxyKindINS0_4hipc6client38Hipc2ClientSessionManagedProxyKindBaseINSA_18Hipc2ProxyKindBaseILNS9_6detail11MessageTypeE6EEEEEEENS0_30MemoryResourceAllocationPolicyES7_NS3_19ProcessModifierImplINS2_21DefaultProxyFilterTagEEEE17GetCmifBaseObjectEv
nndetailImagePng_png_get_unknown_chunks
_ZN2nn6socket8SendMMsgEiPNS0_7MMsgHdrEmNS0_7MsgFlagE
_ZN2nn4util9UriParser5ParseEPKcmNS1_6OptionE
strspn
nnResultGetDescription
_ZN2nn8settings7factory31SetInitialSystemAppletProgramIdERKNS_3ncm9ProgramIdE
strtold_l
_ZN2nn5audio22AudioRendererParameter12SinkCountMaxE
_ZN2nn5codec5f2PowEii
_ZN2nn3hid6detail13ReadPalmaStepERKNS0_21PalmaConnectionHandleE
_ZN2nn2sf4cmif6client6detail13CmifProxyImplINS_4npns21INotificationReceiverENS0_4hipc6client18Hipc2ProxyKindBaseILNS7_6detail11MessageTypeE6EEENS0_30MemoryResourceAllocationPolicyES6_NS3_19ProcessModifierImplINS2_21DefaultProxyFilterTagEEEE35_nn_sf_sync_ListenToMyApplicationIdEm
_ZN2nn2sf4hipc6client24Hipc2ClientCoreProcessorILNS1_6detail11MessageTypeE6ENS0_4cmif6detail14CoreMethodInfoINSt3__15tupleIJNS7_18OutRawArgumentInfoILm4ELm4ELl0EEENS7_17InRawArgumentInfoILm8ELm8ELl32EEENS7_20InHandleArgumentInfoILi0ELi1EEENSD_ILm8ELm8ELl40EEENSD_ILm32ELm4ELl0EEEEEELm48ELm4ELb1EEESJ_E7ProcessEPNS2_26Hipc2ClientProxyBaseObjectENS6_6client24OutRawClientArgumentTypeILm4ELm4EEENSO_23InRawClientArgumentTypeILm8ELm8EvEENSO_26InHandleClientArgumentTypeESS_NSR_ILm32ELm4EvEEj
_ZN2nn4time6detail7service27StaticServiceProviderClient8FinalizeEv
_ZN2nn5audio19SetReverbColorationEPNS0_10ReverbTypeEf
_ZN2nn6crypto6detail11XtsModeImplD1Ev
_ZN2nn2ec28AsyncConsumeRightDataRequest5BeginEv
strncat
_ZN2nn2vi13ObjectManager27CreateValidateDisplayHolderEmPKc
_ZN2nn4diag34InitializeApplicationAbortObserverEv
_ZN2nn7friends6detail13AsyncFunctionIJPNS1_3ipc14IFriendServiceENS_7account3UidENS6_23NetworkServiceAccountIdENS0_15InAppScreenNameES9_EED0Ev
_ZN2nn2sf4cmif6client6detail13CmifProxyImplINS_4npns9INpnsUserENS0_4hipc6client18Hipc2ProxyKindBaseILNS7_6detail11MessageTypeE6EEENS0_30MemoryResourceAllocationPolicyES6_NS3_19ProcessModifierImplINS2_21DefaultProxyFilterTagEEEE31_nn_sf_sync_GetStateChangeEventENS0_3OutINS0_12NativeHandleEvEE
__nnmusl_is_rooted_path
nncodecLibopus_amp2Log2
_ZN2nn2fs15RomFsFileSystem17GetFileBaseOffsetEPlPKc
_ZNK2nn3mii6detail16Ver3StoreDataRaw11GetMoleTypeEv
_ZZN2nn2sf40SimpleAllInOneHipcSubDomainClientManagerILm5EE27InitializeShimLibraryHolderINS_7timesrv6detail7service14IStaticServiceENS0_4cmif6client6detail19ProcessModifierImplINS9_21DefaultProxyFilterTagEEEEENS_6ResultEPNS0_23ShimLibraryObjectHolderIT_EEPKcPNS_14MemoryResourceEENKUlPvE_clESN_
_ZN3nne4nlib12OutputStreamD0Ev
_ZN2nn2sf4cmif6client6detail13CmifProxyImplINS_2am7service18IDisplayControllerENS2_19CmifDomainProxyKindINS0_4hipc6client38Hipc2ClientSessionManagedProxyKindBaseINSA_18Hipc2ProxyKindBaseILNS9_6detail11MessageTypeE6EEEEEEENS0_30MemoryResourceAllocationPolicyES7_NS3_19ProcessModifierImplINS2_21DefaultProxyFilterTagEEEE48_nn_sf_sync_AcquireLastForegroundCaptureBufferExENS0_3OutIbvEENSN_INS0_12NativeHandleEvEE
_ZNK2nn5audio6server10PoolMapper17ForceUnmapPointerEPNS1_11AddressInfoE
_ZN2nn3hid6system29GetAllowedBluetoothLinksCountEv
_ZN2nn3mii6detail12StoreDataRaw12SetNoseScaleEi
_ZN2nn4diag13OnResultCatchENS_6ResultERKNS0_10SourceInfoE
nnmem_nlib_strchr_generic
_ZNKSt3__17codecvtIcc11__mbstate_tE9do_lengthERS1_PKcS5_m
_ZTIN2nn2sf22UnitHeapMemoryResourceE
_ZN2nn2sf4cmif6client6detail13CmifProxyImplINS_3hid16IHidSystemServerENS0_4hipc6client18Hipc2ProxyKindBaseILNS7_6detail11MessageTypeE6EEENS0_30MemoryResourceAllocationPolicyES6_NS3_19ProcessModifierImplINS2_21DefaultProxyFilterTagEEEE37_nn_sf_sync_IsUsingCustomButtonConfigENS0_3OutIbvEENS5_6system11UniquePadIdE
_ZN2nn5swkbd6detail18InlineKeyboardImpl22SetMovedCursorCallbackEPFvPKNS0_14MovedCursorArgEbE
nvnBootstrapLoader
__nnmusl_DirClose
_ZN2nn2sf4hipc6client22Hipc2ClientMessageBase19WriteBufferDataImplEPNS1_6detail17HipcMessageWriterERKNS0_4cmif6client21CmifClientMessageInfoERKNS3_22SpecificMethodMetaInfoE
_ZN2nn5codec12KBDWindow120E
_ZN2nn8settings5fwdbg19SetHostFsMountPointERKNS0_6system16HostFsMountPointE
memset
nvgr_get_surfaces
_ZN2nn5audio6server24AudioRendererManagerImpl15AudioDeviceImpl23ListAudioDeviceNameAutoERKNS_2sf9OutBufferENS4_3OutIivEE
_ZTVN2nn5audio6detail21IAudioRendererManagerE
_ZN2nn2fs6detail24SaveDataExporterVersion2D0Ev
_ZN2nn3hid20GetTouchScreenStatesILm12EEEiPNS0_16TouchScreenStateIXT_EEEi
_ZTSN2nn6capsrv2sf32IAlbumAccessorApplicationSessionE
_ZN2nn4edid6detail31PhysicalAddressDataBlockVisitorEPKhmNS0_6cea8618BlockTagEPv
_ZN22nerd_gillette_internal5otete7jaimev127DecodeFullSilhouetteImplROKINS_15NumericalVectorIfLm2EEEPFS4_NS3_IsLm2EEEEEEbRNS_30ContiguousStorageContainerBaseIT_Lb1EEERNS0_14InputBitStreamERKNS1_23FullSilhouetteCodecDataET0_
_ZN2nn2ro6detail8RoModule8CallInitEv
_ZN2nn5audio6server12SplitterInfoC2Ei
_ZN2nn5audio6common17DumpCommandHeaderEPKNS0_13CommandHeaderE
_ZN2nn2sf4cmif6client6detail13CmifProxyImplINS_6capsrv2sf32IAlbumAccessorApplicationSessionENS0_4hipc6client18Hipc2ProxyKindBaseILNS8_6detail11MessageTypeE6EEENS0_30MemoryResourceAllocationPolicyES7_NS3_19ProcessModifierImplINS2_21DefaultProxyFilterTagEEEE17GetCmifBaseObjectEv
_ZN2nn5codec20DecodeAacInterleavedEPNS0_14AacDecoderTypeEPmPiPsmPKvm
nnmem_nlib_mlock
_ZN2nn2sf4cmif6client6detail13CmifProxyImplINS_5visrv2sf22IManagerDisplayServiceENS0_4hipc6client18Hipc2ProxyKindBaseILNS8_6detail11MessageTypeE6EEENS0_30MemoryResourceAllocationPolicyES7_NS3_19ProcessModifierImplINS2_21DefaultProxyFilterTagEEEE50_nn_sf_sync_BindSharedLowLevelLayerToIndirectLayerEmNS_6applet20AppletResourceUserIdE
NvOsSharedMemMap
_ZN2nn3btm4user21StartBleScanForPairedERKNS_9bluetooth27BleAdvertisePacketParameterE
_ZN2nn3ngc6detail14ContentsReader14GetVersionDataEPvj
_ZN2nn2sf4cmif6client6detail13CmifProxyImplINS_2am7service17IOverlayFunctionsENS2_19CmifDomainProxyKindINS0_4hipc6client38Hipc2ClientSessionManagedProxyKindBaseINSA_18Hipc2ProxyKindBaseILNS9_6detail11MessageTypeE6EEEEEEENS0_30MemoryResourceAllocationPolicyES7_NS3_19ProcessModifierImplINS2_21DefaultProxyFilterTagEEEE44_nn_sf_sync_TerminateApplicationAndSetReasonEj
_ZTSN2nn5audio6server13CommandBufferE
_ZN2nn5audio6common11DumpCommandEPKNS0_33PcmInt16DataSourceCommandVersion1E
_ZN2nn3hid6detail20SharedMemoryAccessor33SetResultActivationUpperLimitOverENS_6ResultE
_ZNKSt3__18numpunctIcE16do_thousands_sepEv
_ZTSN2nn2am7service24ITransferStorageAccessorE
FDKfflush
_ZN2nn4util12GenerateUuidEv
_ZN2nn3hid6system6detail15GetButtonConfigEPNS_9hidconfig16ButtonConfigFullERKNS1_11UniquePadIdE
NvOsEventWait
_ZN7android8String16C1ERKS0_mm
_ZN2nn14MemoryResourceD2Ev
_ZN2nn3ngc46EnableManagementFunctionForPlatformRegionChinaEv
_ZN2nn2sf4cmif6client34CmifDomainProxyClientCoreProcessorINS0_4hipc6client38Hipc2ClientSessionManagedProxyKindBaseINS5_18Hipc2ProxyKindBaseILNS4_6detail11MessageTypeE6EEEEENS1_6detail14CoreMethodInfoINSt3__15tupleIJNSC_18BufferArgumentInfoILi0ELi26ELm208EEENSC_17InRawArgumentInfoILm1ELm1ELl0EEEEEELm1ELm0ELb0EEESK_E7ProcessEPNS2_23CmifDomainClientMessageISB_E15ProxyBaseObjectENS2_24BufferClientArgumentTypeENS2_23InRawClientArgumentTypeILm1ELm1EvEEj
_ZN22nerd_gillette_internal5otete7jaimev123EncodeFullSilhouetteROKERNS0_17MaxSizedBitStreamILm300EEENS_20ContiguousMemoryViewIKNS_15NumericalVectorIsLm2EEELb0EEERKNS1_23FullSilhouetteCodecDataE
_ZN2nn5audio19ResampleOutputFrameEPNS0_16DownSamplerStateEiiPKiPsii
_ZTVN2nn3hid13VibrationNodeE
_ZN2nn3hid6system33ResetAnalogStickManualCalibrationENS1_11UniquePadIdENS1_19AnalogStickPositionE
_ZN2nn2sf4cmif6client6detail13CmifProxyImplINS_3nsd6detail8IManagerENS0_4hipc6client18Hipc2ProxyKindBaseILNS8_6detail11MessageTypeE6EEENS0_30MemoryResourceAllocationPolicyES7_NS3_19ProcessModifierImplINS2_21DefaultProxyFilterTagEEEE26_nn_sf_sync_GetSettingNameENS0_3OutINS5_11SettingNameEvEE
nncodecLibopus_downmix_int
_ZN2nn2sf4cmif6client6detail13CmifProxyImplINS_3hid16IHidSystemServerENS0_4hipc6client18Hipc2ProxyKindBaseILNS7_6detail11MessageTypeE6EEENS0_30MemoryResourceAllocationPolicyES6_NS3_19ProcessModifierImplINS2_21DefaultProxyFilterTagEEEE35_nn_sf_sync_GetRegisteredDevicesOldENS0_3OutIlvEERKNS0_8OutArrayINS5_6system19RegisteredDeviceOldEEE
NvRmChipGetCapabilityU32
_ZN2nn2fs6detail14InitialDataAad4SizeE
_ZN2nn2sf4cmif6client6detail13CmifProxyImplINS_3hid15IHidDebugServerENS0_4hipc6client18Hipc2ProxyKindBaseILNS7_6detail11MessageTypeE6EEENS0_30MemoryResourceAllocationPolicyES6_NS3_19ProcessModifierImplINS2_21DefaultProxyFilterTagEEEE39_nn_sf_sync_GetTouchScreenConfigurationENS0_3OutINS5_29TouchScreenConfigurationForNxEvEENS_6applet20AppletResourceUserIdE
_ZN2nn2sf4hipc6client24Hipc2ClientCoreProcessorILNS1_6detail11MessageTypeE6ENS0_4cmif6detail14CoreMethodInfoINSt3__15tupleIJNS7_18OutRawArgumentInfoILm9ELm1ELl0EEEEEELm0ELm9ELb0EEESD_E7ProcessEPNS2_26Hipc2ClientProxyBaseObjectENS6_6client24OutRawClientArgumentTypeILm9ELm1EEEj
_ZN2nn6crypto6detail6BigNum7ModMultEPjPKjS5_S5_iPNS2_14DigitAllocatorE
_ZN2nn4diag6detail19InvokeAbortObserverERKNS0_9AbortInfoE
_ZN2nn2sf4cmif6client6detail36GetClientProcessorImplWithObjectBaseINS0_4hipc6client18Hipc2ProxyKindBaseILNS5_6detail11MessageTypeE6EEENS3_19ProcessModifierImplINS2_21DefaultProxyFilterTagEEEE14ObjectAssignerINS0_30MemoryResourceAllocationPolicyENS_14MemoryResourceEE14AllocateObjectINS_3ngc1t6detail7IObjectEEEvi
_ZN2nn4nifm6detail29TemporaryNetworkProfileClientC1ERKNS0_18NetworkProfileDataE
_ZN2nn4npns19DestroyServiceProxyENS0_9PortIndexE
_ZN2nn2sf4cmif6client6detail13CmifProxyImplINS_8settings15ISettingsServerENS0_4hipc6client18Hipc2ProxyKindBaseILNS7_6detail11MessageTypeE6EEENS0_30MemoryResourceAllocationPolicyES6_NS3_19ProcessModifierImplINS2_21DefaultProxyFilterTagEEEE26_nn_sf_sync_GetKeyCodeMap2ENS0_3OutINS_3kpr10KeyCodeMapEvEE
_ZN2nn4util10Executable6UnlockEv
_ZN2nn2fs11RomPathTool10PathParser20GetNextDirectoryNameEPNS1_12RomEntryNameE
_ZN2nn3hid12GetNpadStateEPNS0_16NpadFullKeyStateERKj
_ZN2nn8irsensor6detail15IrSensorSession18IsProcessorStoppedERKNS0_14IrCameraHandleE
fflush_unlocked
memmem
_ZN2nn5audio16ProcessAuxReverbEPNS0_13AuxReverbTypeEPiPKij
_ZN2nn5codec8fDivNormEiiPi
_ZN2nn2fs15RsaEncryptedKey4SizeE
_ZN2nn3hid6system21SendConnectionTriggerENS_9bluetooth7AddressE
_ZN2nn2sf4cmif6client6detail13CmifProxyImplINS_4nifm6detail8IRequestENS2_19CmifDomainProxyKindINS0_4hipc6client38Hipc2ClientSessionManagedProxyKindBaseINSA_18Hipc2ProxyKindBaseILNS9_6detail11MessageTypeE6EEEEEEENS0_30MemoryResourceAllocationPolicyES7_NS3_19ProcessModifierImplINS2_21DefaultProxyFilterTagEEEE41_nn_sf_sync_GetSystemEventReadableHandlesENS0_3OutINS0_12NativeHandleEvEESP_
_ZN2nn7account12AsyncContextC2EPNS0_6detail13IAsyncContextERKNS0_3UidE
_ZZN2nn4bcat6detail17ShimLibraryGlobal11GetInstanceEvE10s_Instance
_ZN2nn4diag6detail17MemoryBlockParserC2Ev
_ZN2nn4util6detail7msgpack20WriteIntegerAutoSizeEPNS0_17MessagePackWriter11StreamParamEl
__adddf3
_ZTIN2nn5audio6server9DelayInfoE
_ZN2nn3hid15VibrationPlayer12SetLoopRangeEii
_ZN2nn5image6detail17PngStreamAccessor9GetOffsetEv
_Z21__nnmusl_duplicate_fds
_ZTIN2nn2sf4cmif6client6detail9CmifProxyINS_7account24IBaasAccessTokenAccessorENS2_19CmifDomainProxyKindINS0_4hipc6client38Hipc2ClientSessionManagedProxyKindBaseINS9_18Hipc2ProxyKindBaseILNS8_6detail11MessageTypeE6EEEEEEENS0_30MemoryResourceAllocationPolicyENS3_19ProcessModifierImplINS2_21DefaultProxyFilterTagEEEvEE
_ZTIN2nn2sf6detail38ObjectImplFactoryWithStatefulAllocatorINS0_4cmif6client6detail9CmifProxyINS_4bcat6detail3ipc30IDeliveryCacheDirectoryServiceENS4_19CmifDomainProxyKindINS0_4hipc6client38Hipc2ClientSessionManagedProxyKindBaseINSD_18Hipc2ProxyKindBaseILNSC_6detail11MessageTypeE6EEEEEEENS0_30MemoryResourceAllocationPolicyENS5_19ProcessModifierImplINS4_21DefaultProxyFilterTagEEEvEESL_E6ObjectE
_ZN2nn2ec4json7adaptor37ConsumableServiceItemRightDataAdaptor10UpdateImplERKNS_4http4json8JsonPathILi8ELi128ELb0EEEPKci
nndetailImagePng_png_get_cHRM_XYZ_fixed
_ZTSN2nn2am7service21IStackableAppletProxyE
_ZN2nn2sf4cmif6client6detail13CmifProxyImplINS_7friends6detail3ipc14IFriendServiceENS2_19CmifDomainProxyKindINS0_4hipc6client38Hipc2ClientSessionManagedProxyKindBaseINSB_18Hipc2ProxyKindBaseILNSA_6detail11MessageTypeE6EEEEEEENS0_30MemoryResourceAllocationPolicyES8_NS3_19ProcessModifierImplINS2_21DefaultProxyFilterTagEEEE31_nn_sf_sync_GetUserPresenceViewENS0_3OutINS6_20UserPresenceViewImplEvEERKNS_7account3UidE
_ZTIN2nn2sf4cmif6client6detail9CmifProxyINS_2am7service22IGlobalStateControllerENS2_19CmifDomainProxyKindINS0_4hipc6client38Hipc2ClientSessionManagedProxyKindBaseINSA_18Hipc2ProxyKindBaseILNS9_6detail11MessageTypeE6EEEEEEENS0_30MemoryResourceAllocationPolicyENS3_19ProcessModifierImplINS2_21DefaultProxyFilterTagEEEvEE
_ZN2nn5codec4fPowEiiiiPi
_ZN2nn2ec27ShowShopSubscriptionDetailsERKNS0_8CourseIdENS0_5NsUidE
_ZN2nn3hid6system6detail30PrepareHidsForNotificationWakeEPNS1_11UniquePadIdEm
_ZN2nn5swkbd15SetUserWordListEPNS0_15ShowKeyboardArgEPKNS0_8UserWordEi
nncodecLibopus_quant_energy_finalise
_ZNK2nn3hid15VibrationTarget22GetVibrationDeviceInfoEPNS0_19VibrationDeviceInfoE
_ZN2nn2sf4cmif6client6detail13CmifProxyImplINS_3hid15IHidDebugServerENS0_4hipc6client18Hipc2ProxyKindBaseILNS7_6detail11MessageTypeE6EEENS0_30MemoryResourceAllocationPolicyES6_NS3_19ProcessModifierImplINS2_21DefaultProxyFilterTagEEEE46_nn_sf_sync_SetAnalogStickModelDataTemporarilyERKNS5_5debug20AnalogStickModelDataENS5_6system11UniquePadIdEi
_ZN2nn5image10PngDecoder7AnalyzeEv
_ZN2nn12notification18UpdateAlarmSettingERKNS0_12AlarmSettingEPKvm
_ZTSN2nn2sf4hipc6server17IHipcObjectDomainE
_ZN2nn2sf4cmif6client6detail13CmifProxyImplINS_5visrv2sf26IApplicationDisplayServiceENS0_4hipc6client18Hipc2ProxyKindBaseILNS8_6detail11MessageTypeE6EEENS0_30MemoryResourceAllocationPolicyES7_NS3_19ProcessModifierImplINS2_21DefaultProxyFilterTagEEEE24_nn_sf_sync_ListDisplaysENS0_3OutIlvEERKNS0_8OutArrayINS_2vi11DisplayInfoEEE
_ZN7android9SingletonINS_22GraphicBufferAllocatorEE5sLockE
_ZN7android8String166appendERKS0_
__nnmusl_GetCurrentThread
_ZN2nn2sf4hipc6client24Hipc2ClientCoreProcessorILNS1_6detail11MessageTypeE6ENS0_4cmif6detail14CoreMethodInfoINSt3__15tupleIJNS7_18OutRawArgumentInfoILm4ELm4ELl0EEENS7_17InRawArgumentInfoILm8ELm8ELl0EEEEEELm8ELm4ELb0EEESF_E7ProcessEPNS2_26Hipc2ClientProxyBaseObjectENS6_6client24OutRawClientArgumentTypeILm4ELm4EEENSK_23InRawClientArgumentTypeILm8ELm8EvEEj
_ZN2nn2fs6detail22LruFileDataCacheSystemC1Ev
_ZN7android7BBinder11linkToDeathERKNS_2spINS_7IBinder14DeathRecipientEEEPvj
sem_trywait
_ZTSN2nn2sf4cmif6client6detail13CmifProxyImplINS_2lm10ILogGetterENS2_19CmifDomainProxyKindINS0_4hipc6client38Hipc2ClientSessionManagedProxyKindBaseINS9_18Hipc2ProxyKindBaseILNS8_6detail11MessageTypeE6EEEEEEENS0_30MemoryResourceAllocationPolicyES6_NS3_19ProcessModifierImplINS2_21DefaultProxyFilterTagEEEEE
_ZN2nn3mii6detail17PantsPresentColorE
_ZN2nn2sf4cmif6client6detail13CmifProxyImplINS_3ntc6detail7service38IEnsureNetworkClockAvailabilityServiceENS0_4hipc6client18Hipc2ProxyKindBaseILNS9_6detail11MessageTypeE6EEENS0_30MemoryResourceAllocationPolicyES8_NS3_19ProcessModifierImplINS2_21DefaultProxyFilterTagEEEE17GetCmifBaseObjectEv
android_atomic_and
_ZN2nn9bluetooth20DisconnectGattClientEh
_ZTIN2nn3btm12IBtmUserCoreE
_ZTIN2nn2sf4cmif6client6detail13CmifProxyImplINS_3nim6detail33IShopServiceAccessSystemInterfaceENS0_4hipc6client18Hipc2ProxyKindBaseILNS8_6detail11MessageTypeE6EEENS0_30MemoryResourceAllocationPolicyES7_NS3_19ProcessModifierImplINS2_21DefaultProxyFilterTagEEEEE
_ZN2nn3hid6detail19SuspendPalmaFeatureERKNS0_21PalmaConnectionHandleERKNS_4util10BitFlagSetILi32ENS0_12PalmaFeatureEEE
_ZTSN2nn2sf6detail38ObjectImplFactoryWithStatefulAllocatorINS0_4cmif6client6detail9CmifProxyINS_3ngc1t6detail7IObjectENS0_4hipc6client18Hipc2ProxyKindBaseILNSB_6detail11MessageTypeE6EEENS0_30MemoryResourceAllocationPolicyENS5_19ProcessModifierImplINS4_21DefaultProxyFilterTagEEEvEESH_E6ObjectE
_ZN7android21SurfaceComposerClient11getRGBRangeERKNS_2spINS_7IBinderEEERi
_ZN2nn5audio34GetFinalOutputRecorderSampleFormatEPKNS0_19FinalOutputRecorderE
_ZN2nn5codec11resetSbrDecEPNS0_7SBR_DECEPNS0_15SBR_HEADER_DATAEPNS0_19SBR_PREV_FRAME_DATAEii
_ZN2nn3mii6detail11CoreDataRaw16SetFavoriteColorEi
_ZNKSt3__120__time_get_c_storageIwE7__weeksEv
nnmem_nlib_swapendian_32_simd
_ZN2nn8settings6detail24SetPtmFuelGaugeParameterERKNS0_6system21PtmFuelGaugeParameterE
NvColorFormatToString
_ZN2nn2fs22SetGlobalAccessLogModeEj
_ZN2nn2os6detail20UserExceptionHandlerEv
_ZTSN2nn2sf4hipc6server2v125HipcServerSessionManagerTINS0_4cmif6server20CmifServerObjectInfoEEE
_ZNSt3__113basic_istreamIcNS_11char_traitsIcEEE3getEPclc
_ZTVN2nn2sf6detail38ObjectImplFactoryWithStatefulAllocatorINS0_4cmif6client6detail9CmifProxyINS_2am7service19ILibraryAppletProxyENS4_19CmifDomainProxyKindINS0_4hipc6client38Hipc2ClientSessionManagedProxyKindBaseINSC_18Hipc2ProxyKindBaseILNSB_6detail11MessageTypeE6EEEEEEENS0_30MemoryResourceAllocationPolicyENS5_19ProcessModifierImplINS4_21DefaultProxyFilterTagEEEvEESK_E6ObjectE
_ZN2nn8settings6detail23GetEciDeviceCertificateEPNS0_7factory24Rsa2048DeviceCertificateE
_ZN2nn4util6detail20FileOutputStreamImpl9SetBufferEPvm
_ZNSt3__115numpunct_bynameIwED1Ev
_ZNSt3__110adopt_lockE
_ZN22nerd_gillette_internal5otete7jaimev230GetSymmetricEquivalentSegmentsERKNS_15NumericalVectorIsLm2EEES5_RS3_S6_
_ZN2nn3mii6detail11UtilityImplC1Ev
_ZN2nn6socket10InitializeEPvmmi
_ZN2nn3web14ShowWebPageArgC2Ev
_ZNSt3__16__sortIRNS_6__lessIeeEEPeEEvT0_S5_T_
_ZN2nn5audio6server16CommandGenerator22GenerateSubMixCommandsEv
_ZN2nn9bluetooth4user23LeClientWriteDescriptorEjRKNS0_6GattIdEbS4_S4_PKvmh
_ZN2nn2fs17RamDiskFileSystemC2EONSt3__110unique_ptrINS0_8IStorageENS2_14default_deleteIS4_EEEE
NvRmMemReserve
_ZN7android6Parcel15writeWeakBinderERKNS_2wpINS_7IBinderEEE
_ZN2nn5codec6dst_IVEPiiS1_
nvgr_set_video_timestamp
_ZTSN2nn2sf4cmif6client6detail9CmifProxyINS_2am7service18IHomeMenuFunctionsENS2_19CmifDomainProxyKindINS0_4hipc6client38Hipc2ClientSessionManagedProxyKindBaseINSA_18Hipc2ProxyKindBaseILNS9_6detail11MessageTypeE6EEEEEEENS0_30MemoryResourceAllocationPolicyENS3_19ProcessModifierImplINS2_21DefaultProxyFilterTagEEEvEE
_ZTSN2nn5audio6detail26IAudioInManagerForDebuggerE
_ZN2nn5codec12FDKcrcGetCRCEPNS0_11FDK_CRCINFOE
_ZTSN2nn5fssrv2sf22ISaveDataChunkIteratorE
_ZN2nn3hid15VibrationTargetC1ERKNS0_21VibrationDeviceHandleE
_ZZN2nn2sf31SimpleAllInOneHipcClientManagerILm1EE27InitializeShimLibraryHolderINS_4npns11INpnsSystemENS0_4cmif6client6detail19ProcessModifierImplINS7_21DefaultProxyFilterTagEEEEENS_6ResultEPNS0_23ShimLibraryObjectHolderIT_EEPKcPNS_14MemoryResourceEENUlPvE_8__invokeESL_
_ZTIN10__cxxabiv116__shim_type_infoE
_ZN2nn3hid7utility25GetVibrationDeviceHandlesEPNS0_21VibrationDeviceHandleEPiijNS_4util10BitFlagSetILi32ENS0_12NpadStyleTagEEE
nndetailImagePng_png_colorspace_set_endpoints
_ZN2nn3nfp18DeleteRegisterInfoERKNS0_12DeviceHandleE
_ZN2nn5audio6server12VoiceContext8SortInfoEv
nnmem_nlib_memchr_mb_simd
NvOsDrvOpen
NvRmMemReserve64
_ZNSt3__112basic_stringIcNS_11char_traitsIcEENS_9allocatorIcEEE6assignEPKc
_ZTIN2nn2sf13InterfaceInfoINS_5audio6detail21IAudioRendererManagerEE4_tABINS5_5_tO2NINS2_6server24AudioRendererManagerImplEE4typeES4_E4typeE
_ZNK2nn2sf13SharedPointerINS_3btm8IBtmUserEE19FunctionForBoolTypeEv
_ZN2nn2fs11GetRightsIdEPNS0_8RightsIdENS_3ncm9ProgramIdENS3_9StorageIdE
__lshrti3
_ZN2nn2sf4cmif6client6detail13CmifProxyImplINS_7account19IAccountServiceBaseENS2_19CmifDomainProxyKindINS0_4hipc6client38Hipc2ClientSessionManagedProxyKindBaseINS9_18Hipc2ProxyKindBaseILNS8_6detail11MessageTypeE6EEEEEEENS0_25StatelessAllocationPolicyINS0_22ExpHeapStaticAllocatorILm2048ENS5_6detail12ObjectHolder24ObjectHolderAllocatorTagEEEEENS5_31IAccountServiceForSystemServiceENS3_19ProcessModifierImplINS2_21DefaultProxyFilterTagEEEE45_nn_sf_sync_DebugActivateOpenContextRetentionENS0_3OutINS0_13SharedPointerINSJ_14ISessionObjectEEEvEE
property_set
_ZN2nn3mem19NumberLineAllocator8AddRangeEii
iswgraph_l
_ZZN2nn2sf31SimpleAllInOneHipcClientManagerILm1EE27InitializeShimLibraryHolderINS_3apm14ISystemManagerENS0_4cmif6client6detail19ProcessModifierImplINS7_21DefaultProxyFilterTagEEEEENS_6ResultEPNS0_23ShimLibraryObjectHolderIT_EEPKcPNS_14MemoryResourceEENUlPvE_8__invokeESL_
_ZN2nn3hid21StartLrAssignmentModeEv
_ZN2nn2sf4cmif6client6detail13CmifProxyImplINS_3hid10IHidServerENS0_4hipc6client18Hipc2ProxyKindBaseILNS7_6detail11MessageTypeE6EEENS0_30MemoryResourceAllocationPolicyES6_NS3_19ProcessModifierImplINS2_21DefaultProxyFilterTagEEEE41_nn_sf_sync_GetNpadHandheldActivationModeENS_6applet20AppletResourceUserIdENS0_3OutIlvEE
_ZN2nn3mii6detail16Ver3StoreDataRaw13SetFontRegionEi
_ZN2nn8settings6system29GetDeviceTimeZoneLocationNameEPNS_4time12LocationNameE
_ZN2nn2vi13ObjectManager25CreateValidateLayerHolderEmPNS0_13DisplayHolderE
_ZN2nn7account48NintendoAccountApplicationAuthorizationProcedureC1EOS1_
_ZNKSt3__17codecvtIDic11__mbstate_tE10do_unshiftERS1_PcS4_RS4_
_ZN2nn2sf4hipc6client24Hipc2ClientCoreProcessorILNS1_6detail11MessageTypeE6ENS0_4cmif6detail14CoreMethodInfoINSt3__15tupleIJNS7_18BufferArgumentInfoILi0ELi21ELm456EEENS7_17InRawArgumentInfoILm8ELm8ELl0EEEEEELm8ELm0ELb0EEESF_E7ProcessEPNS2_26Hipc2ClientProxyBaseObjectENS6_6client24BufferClientArgumentTypeENSK_23InRawClientArgumentTypeILm8ELm8EvEEj
_ZNK2nn3web6detail22ShowLobbyPageArgWriter15PushToInChannelENS_6applet19LibraryAppletHandleE
_ZN2nn2oe28IsGamePlayRecordingSupportedEv
NvRmGpuClockCloseAsyncReq
_ZN7android23BnSurfaceComposerClient17onGetNativeHandleEjRjRb
_ZN7android10VectorImpl13editArrayImplEv
_ZTIN2nn2sf4cmif6client6detail13CmifProxyImplINS_7account4baas12IManagerBaseENS2_19CmifDomainProxyKindINS0_4hipc6client38Hipc2ClientSessionManagedProxyKindBaseINSA_18Hipc2ProxyKindBaseILNS9_6detail11MessageTypeE6EEEEEEENS0_25StatelessAllocationPolicyINS0_22ExpHeapStaticAllocatorILm2048ENS5_6detail12ObjectHolder24ObjectHolderAllocatorTagEEEEENS6_22IManagerForApplicationENS3_19ProcessModifierImplINS2_21DefaultProxyFilterTagEEEEE
_ZN2nn7account34NetworkServiceAccountAdministrator18UploadProfileAsyncEPNS0_12AsyncContextE
_ZTSN2nn2am7service11IMovieMakerE
_ZN2nn3nfc13SetNfcEnabledEb
NvRmGpuChannelSetPriority
androidSetThreadName
_ZTSN2nn2sf4cmif6client6detail13CmifProxyImplINS_6capsrv2sf29IScreenShotApplicationServiceENS0_4hipc6client18Hipc2ProxyKindBaseILNS8_6detail11MessageTypeE6EEENS0_30MemoryResourceAllocationPolicyES7_NS3_19ProcessModifierImplINS2_21DefaultProxyFilterTagEEEEE
_ZN2nn6crypto6detail10Sha512ImplD2Ev
_ZN2nn3ngc6detail12SwapEndian16EPtm
_ZN2nn3web14ShowWebPageArg29SetPageScrollIndicatorEnabledEb
__nnmusl_socket_poll
nncodecLibopus_silk_shell_decoder
_ZN2nn2fs6detail28IsGlobalFileDataCacheEnabledEv
_ZN2nn3hid18StartSixAxisSensorERKNS0_26ConsoleSixAxisSensorHandleE
_ZN2nn3ssl7Context9SetOptionENS1_13ContextOptionEi
_ZNSt3__15mutexD1Ev
_ZN2nn2sf6detail38ObjectImplFactoryWithStatefulAllocatorINS0_4cmif6client6detail9CmifProxyINS_2am7service7IWindowENS4_19CmifDomainProxyKindINS0_4hipc6client38Hipc2ClientSessionManagedProxyKindBaseINSC_18Hipc2ProxyKindBaseILNSB_6detail11MessageTypeE6EEEEEEENS0_30MemoryResourceAllocationPolicyENS5_19ProcessModifierImplINS4_21DefaultProxyFilterTagEEEvEESK_E6Object12AddReferenceEv
_ZN2nn2sf4hipc6client24Hipc2ClientCoreProcessorILNS1_6detail11MessageTypeE6ENS0_4cmif6detail14CoreMethodInfoINSt3__15tupleIJNS7_18BufferArgumentInfoILi0ELi33ELm0EEENS7_17InRawArgumentInfoILm8ELm8ELl0EEEEEELm8ELm0ELb0EEESF_E7ProcessEPNS2_26Hipc2ClientProxyBaseObjectENS6_6client24BufferClientArgumentTypeENSK_23InRawClientArgumentTypeILm8ELm8EvEEj
_ZN2nn2sf6detail38ObjectImplFactoryWithStatefulAllocatorINS0_4cmif6client6detail9CmifProxyINS_3nim6detail17IShopServiceAsyncENS0_4hipc6client18Hipc2ProxyKindBaseILNSA_6detail11MessageTypeE6EEENS0_30MemoryResourceAllocationPolicyENS5_19ProcessModifierImplINS4_21DefaultProxyFilterTagEEEvEESG_E6Object7ReleaseEv
_ZN2nn3ngc1t27CalculateContentFingerprintEPvm
_ZN2nn6socket6detail10InetNtohllEm
_ZN2nn2sf4cmif6client6detail13CmifProxyImplINS_4bcat6detail3ipc12IBcatServiceENS2_19CmifDomainProxyKindINS0_4hipc6client38Hipc2ClientSessionManagedProxyKindBaseINSB_18Hipc2ProxyKindBaseILNSA_6detail11MessageTypeE6EEEEEEENS0_30MemoryResourceAllocationPolicyES8_NS3_19ProcessModifierImplINS2_21DefaultProxyFilterTagEEEE29_nn_sf_sync_BlockDeliveryTaskENS_13ApplicationIdE
_ZN2nn2fs20DefaultResultHandlerENS_6ResultE
_ZN2nn2sf4cmif6client6detail13CmifProxyImplINS_3hid10IHidServerENS0_4hipc6client18Hipc2ProxyKindBaseILNS7_6detail11MessageTypeE6EEENS0_30MemoryResourceAllocationPolicyES6_NS3_19ProcessModifierImplINS2_21DefaultProxyFilterTagEEEE32_nn_sf_sync_StopLrAssignmentModeENS_6applet20AppletResourceUserIdE
_ZN2nn2sf4cmif6client6detail13CmifProxyImplINS_4bcat6detail3ipc12IBcatServiceENS2_19CmifDomainProxyKindINS0_4hipc6client38Hipc2ClientSessionManagedProxyKindBaseINSB_18Hipc2ProxyKindBaseILNSA_6detail11MessageTypeE6EEEEEEENS0_30MemoryResourceAllocationPolicyES8_NS3_19ProcessModifierImplINS2_21DefaultProxyFilterTagEEEE32_nn_sf_sync_SetDeliveryTaskTimerENS_13ApplicationIdEii
_ZN2nn4nifm11GetScanDataEPNS0_15AccessPointDataEPii
_ZTVN2nn5audio6server12SinkInfoBaseE
_ZN2nn4lmem14CreateUnitHeapEPvmmi
_ZN2nn3mii8DatabaseC1Ev
_ZN2nn2sf4hipc6server2v128HipcServerSessionManagerBase16CloseSessionBaseEPNS3_21HipcServerSessionBaseE
_ZNSt3__18messagesIcE2idE
_ZNSt3__127__insertion_sort_incompleteIRNS_6__lessIddEEPdEEbT0_S5_T_
_ZN2nn2am20GetCommonStateGetterEv
_ZN2nn9bluetooth14CircularBuffer17BufferNameSizeMaxE
_ZN2nn3web14ShowWebPageArg18SetPageFadeEnabledEb
_ZN2nn4diag6detail7LogImplERKNS0_11LogMetaDataEPKcz
_ZN2nn3mii6detail16Ver3StoreDataRaw12SetReserved1Ei
_ZNK2nn3mii6detail16Ver3StoreDataRaw12GetReserved1Ev
_ZN2nn3nsd37IsChangeEnvironmentIdentifierDisabledEv
_ZN2nn4pctl10GetPinCodeEPci
_ZTIN2nn2sf4cmif6client6detail13CmifProxyImplINS_5visrv2sf26IApplicationDisplayServiceENS0_4hipc6client18Hipc2ProxyKindBaseILNS8_6detail11MessageTypeE6EEENS0_30MemoryResourceAllocationPolicyES7_NS3_19ProcessModifierImplINS2_21DefaultProxyFilterTagEEEEE
strptime
_ZN2nn5audio17GetMemoryPoolSizeEPKNS0_14MemoryPoolTypeE
_ZNK2nn5audio6common10NodeStates5Stack5CountEv
_ZN2nn5codec15RotVectorImag60E
_ZN2nn2fs6detail12FileAccessor16UpdateLastResultENS_6ResultE
_ZN2nn5image10PngEncoderD1Ev
_ZN2nn5audio27UpdateReverbEffectParameterEPKNS0_15ReverbParameterEPNS0_11ReverbStateE
_ZN2nn7friends7ProfileC1Ev
_ZN2nn2sf4cmif6client6detail13CmifProxyImplINS_7friends6detail3ipc14IFriendServiceENS2_19CmifDomainProxyKindINS0_4hipc6client38Hipc2ClientSessionManagedProxyKindBaseINSB_18Hipc2ProxyKindBaseILNSA_6detail11MessageTypeE6EEEEEEENS0_30MemoryResourceAllocationPolicyES8_NS3_19ProcessModifierImplINS2_21DefaultProxyFilterTagEEEE31_nn_sf_sync_CancelFriendRequestERKNS_7account3UidENS5_9RequestIdE
_ZTVN2nn5image11JpegDecoderE
nndetailImagePng_png_read_filter_row_paeth4_neon
nndetailImagePng_png_sig_cmp
NvOsAllocLeak
fabs
_ZTIN2nn2ec21IPurchaseEventManagerE
_ZNK2nn3mii16CharInfoAccessor8GetBuildEv
_ZN2nn2sf4cmif6client6detail13CmifProxyImplINS_2am7service18IDisplayControllerENS2_19CmifDomainProxyKindINS0_4hipc6client38Hipc2ClientSessionManagedProxyKindBaseINSA_18Hipc2ProxyKindBaseILNS9_6detail11MessageTypeE6EEEEEEENS0_30MemoryResourceAllocationPolicyES7_NS3_19ProcessModifierImplINS2_21DefaultProxyFilterTagEEEE38_nn_sf_sync_TakeScreenShotOfOwnLayerExEibb
_ZN2nn8settings6detail31GetButtonConfigSettingsEmbeddedEPiPNS0_6system20ButtonConfigSettingsEi
_ZN2nn2vi17GetDisplayCmuLumaEPfPKNS0_7DisplayE
_ZNKSt3__17codecvtIDic11__mbstate_tE9do_lengthERS1_PKcS5_m
fsetpos64
_ZTSN2nn2sf4cmif6client6detail13CmifProxyImplINS_7account3nas21IAuthorizationRequestENS2_19CmifDomainProxyKindINS0_4hipc6client38Hipc2ClientSessionManagedProxyKindBaseINSA_18Hipc2ProxyKindBaseILNS9_6detail11MessageTypeE6EEEEEEENS0_25StatelessAllocationPolicyINS0_22ExpHeapStaticAllocatorILm2048ENS5_6detail12ObjectHolder24ObjectHolderAllocatorTagEEEEES7_NS3_19ProcessModifierImplINS2_21DefaultProxyFilterTagEEEEE
_ZThn32_N2nn2sf4cmif6client6detail13CmifProxyImplINS_7account4baas18IGuestLoginRequestENS2_19CmifDomainProxyKindINS0_4hipc6client38Hipc2ClientSessionManagedProxyKindBaseINSA_18Hipc2ProxyKindBaseILNS9_6detail11MessageTypeE6EEEEEEENS0_25StatelessAllocationPolicyINS0_22ExpHeapStaticAllocatorILm2048ENS5_6detail12ObjectHolder24ObjectHolderAllocatorTagEEEEES7_NS3_19ProcessModifierImplINS2_21DefaultProxyFilterTagEEEE17GetCmifBaseObjectEv
_ZN2nn5audio22SetSplitterDestinationEPNS0_19AudioRendererConfigEPNS0_12SplitterTypeEii
nnmem_nlib_thread_create
_ZTSN2nn2sf4cmif6client6detail9CmifProxyIN3nns9hosbinder16IHOSBinderDriverENS2_19CmifDomainProxyKindINS0_4hipc6client38Hipc2ClientSessionManagedProxyKindBaseINSA_18Hipc2ProxyKindBaseILNS9_6detail11MessageTypeE6EEEEEEENS0_30MemoryResourceAllocationPolicyENS3_19ProcessModifierImplINS2_21DefaultProxyFilterTagEEEvEE
_ZN2nn2sf4hipc6client24Hipc2ClientCoreProcessorILNS1_6detail11MessageTypeE6ENS0_4cmif6detail14CoreMethodInfoINSt3__15tupleIJNS7_21OutObjectArgumentInfoILi0ELi0EEENS7_17InRawArgumentInfoILm8ELm8ELl8EEENSD_ILm4ELm4ELl0EEEEEELm16ELm0ELb0EEESG_E21ProcessWithOutObjectsEPNS2_26Hipc2ClientProxyBaseObjectENS6_6client27OutObjectClientArgumentTypeENSL_23InRawClientArgumentTypeILm8ELm8EvEENSN_ILm4ELm4EvEEjPNS0_13SharedPointerINS0_14IServiceObjectEEE
_ZN2nn4util10BitFlagSetILi256ENS_3hid11KeyboardKeyEE4FlagILi26EE4MaskE
pthread_barrier_wait
nnosCreateThread
_ZN2nn2sf13SharedPointerINS_2sm6detail17IManagerInterfaceEED2Ev
_ZN7android8String16C1EPKDs
get_EBLC_partial
nndetailImagePng_png_handle_IEND
_ZN2nn2os16ReleaseSemaphoreEPNS0_13SemaphoreTypeE
nnmem_nlib_threadpool_submit
_ZTINSt3__112future_errorE
__nnmusl_FreeTlsSlot
_ZTSN2nn2sf4cmif6client6detail13CmifProxyImplINS_7account6detail14ISessionObjectENS2_19CmifDomainProxyKindINS0_4hipc6client38Hipc2ClientSessionManagedProxyKindBaseINSA_18Hipc2ProxyKindBaseILNS9_6detail11MessageTypeE6EEEEEEENS0_25StatelessAllocationPolicyINS0_22ExpHeapStaticAllocatorILm2048ENS6_12ObjectHolder24ObjectHolderAllocatorTagEEEEES7_NS3_19ProcessModifierImplINS2_21DefaultProxyFilterTagEEEEE
_ZTSN2nn3nfc6detail12IUserManagerE
_ZN2nn6socket6detail7SendMsgEiPK6msghdri
nncodecLibopus_silk_resampler_private_down_FIR
nndetailImagePng_png_set_sRGB_gAMA_and_cHRM
_ZNK2nn3mii6detail16Ver3StoreDataRaw16BuildToStoreDataEPNS1_12StoreDataRawEPNS1_11UtilityImplE
_ZNK2nn3ngc6detail2Bp5ToPosEj
__cxa_free_exception
_ZTSN2nn5fssrv2sf15IDeviceOperatorE
_ZN2nn4lmem11DumpExpHeapEPNS0_6detail8HeapHeadE
_ZN2nn3mii6detail16GetFavoriteColorENS0_13FavoriteColorENS0_9GammaTypeE
_ZN2nn2sf4cmif6client6detail13CmifProxyImplINS_8settings21ISystemSettingsServerENS0_4hipc6client18Hipc2ProxyKindBaseILNS7_6detail11MessageTypeE6EEENS0_30MemoryResourceAllocationPolicyES6_NS3_19ProcessModifierImplINS2_21DefaultProxyFilterTagEEEE42_nn_sf_sync_GetExternalSteadyClockSourceIdENS0_3OutINS_4util4UuidEvEE
NvRmGpuDeviceListTemperatureSensors
_ZNSt3__110moneypunctIcLb1EE4intlE
_ZN2nn2sf6detail39ObjectImplFactoryWithStatelessAllocatorINS0_4cmif6client6detail9CmifProxyINS_7account4baas34IAsyncContextForLoginForOnlinePlayENS4_19CmifDomainProxyKindINS0_4hipc6client38Hipc2ClientSessionManagedProxyKindBaseINSC_18Hipc2ProxyKindBaseILNSB_6detail11MessageTypeE6EEEEEEENS0_25StatelessAllocationPolicyINS0_22ExpHeapStaticAllocatorILm2048ENS7_6detail12ObjectHolder24ObjectHolderAllocatorTagEEEEENS5_19ProcessModifierImplINS4_21DefaultProxyFilterTagEEEvEESQ_E6Object12AddReferenceEv
nndetailImagePng_png_sRGB_delta
__strtoimax_internal
_ZN2nn2os22InitializeMessageQueueEPNS0_16MessageQueueTypeEPmm
_ZN2nn2sf4hipc6client24Hipc2ClientCoreProcessorILNS1_6detail11MessageTypeE6ENS0_4cmif6detail14CoreMethodInfoINSt3__15tupleIJNS7_17InRawArgumentInfoILm2ELm2ELl0EEENSB_ILm2ELm2ELl2EEEEEELm4ELm0ELb0EEESE_E7ProcessEPNS2_26Hipc2ClientProxyBaseObjectENS6_6client23InRawClientArgumentTypeILm2ELm2EvEESL_j
__nnmusl_get_number_uncalled_tls_dtors
_ZN2nn2sf4cmif6client6detail13CmifProxyImplINS_7account31IAccountServiceForSystemServiceENS2_19CmifDomainProxyKindINS0_4hipc6client38Hipc2ClientSessionManagedProxyKindBaseINS9_18Hipc2ProxyKindBaseILNS8_6detail11MessageTypeE6EEEEEEENS0_25StatelessAllocationPolicyINS0_22ExpHeapStaticAllocatorILm2048ENS5_6detail12ObjectHolder24ObjectHolderAllocatorTagEEEEENS5_31IAccountServiceForAdministratorENS3_19ProcessModifierImplINS2_21DefaultProxyFilterTagEEEE48_nn_sf_sync_CheckNetworkServiceAvailabilityAsyncENS0_3OutINS0_13SharedPointerINSJ_13IAsyncContextEEEvEERKNS5_27SystemProgramIdentificationEm
_ZN2nn2vi13ObjectManager12GetLayerLockEv
_ZN2nn2sf4cmif6client6detail13CmifProxyImplINS_2am7service18IHomeMenuFunctionsENS2_19CmifDomainProxyKindINS0_4hipc6client38Hipc2ClientSessionManagedProxyKindBaseINSA_18Hipc2ProxyKindBaseILNS9_6detail11MessageTypeE6EEEEEEENS0_30MemoryResourceAllocationPolicyES7_NS3_19ProcessModifierImplINS2_21DefaultProxyFilterTagEEEE43_nn_sf_sync_GetHomeButtonWriterLockAccessorENS0_3OutINS0_13SharedPointerINS6_13ILockAccessorEEEvEE
nnmem_nlib_strcat
NvRmGpuAddressSpaceAllocationCreate
FS_set_bold_pct
Libz_SigloMiddlewareInfo
_ZN2nn2sf4cmif6client6detail13CmifProxyImplINS_4nifm6detail8IRequestENS2_19CmifDomainProxyKindINS0_4hipc6client38Hipc2ClientSessionManagedProxyKindBaseINSA_18Hipc2ProxyKindBaseILNS9_6detail11MessageTypeE6EEEEEEENS0_30MemoryResourceAllocationPolicyES7_NS3_19ProcessModifierImplINS2_21DefaultProxyFilterTagEEEE12GetProxyInfoEv
_ZN2nn5swkbd6detail18InlineKeyboardImpl17UnsetCustomizeDicEv
_ZN2nn4util14AsyncExecutionC2EOS1_
_ZTCN7android20BnGraphicBufferAllocE0_NS_11BnInterfaceINS_19IGraphicBufferAllocEEE
_ZN2nn2sf4cmif6client6detail13CmifProxyImplINS_2am7service15ISelfControllerENS2_19CmifDomainProxyKindINS0_4hipc6client38Hipc2ClientSessionManagedProxyKindBaseINSA_18Hipc2ProxyKindBaseILNS9_6detail11MessageTypeE6EEEEEEENS0_30MemoryResourceAllocationPolicyES7_NS3_19ProcessModifierImplINS2_21DefaultProxyFilterTagEEEE47_nn_sf_sync_SetOperationModeChangedNotificationEb
_ZN2nn2sf4cmif6client6detail13CmifProxyImplINS_2am7service19IOverlayAppletProxyENS2_19CmifDomainProxyKindINS0_4hipc6client38Hipc2ClientSessionManagedProxyKindBaseINSA_18Hipc2ProxyKindBaseILNS9_6detail11MessageTypeE6EEEEEEENS0_30MemoryResourceAllocationPolicyES7_NS3_19ProcessModifierImplINS2_21DefaultProxyFilterTagEEEE36_nn_sf_sync_GetAppletCommonFunctionsENS0_3OutINS0_13SharedPointerINS6_22IAppletCommonFunctionsEEEvEE
_ZN2nn3hid6system6detail22InitializeAudioControlEv
nnosFinalizeConditionVariable
_ZN2nn3ngc6detail3Sbv5ResetEv
_ZNSt3__113basic_istreamIcNS_11char_traitsIcEEE3getEPcl
__isoc99_vfscanf
_ZN2nn5audio17SetFinalMixVolumeEPNS0_12FinalMixTypeEf
_ZN2nn5audio6server11InfoUpdater11UpdateSinksERNS1_11SinkContextEPNS1_14MemoryPoolInfoEi
_ZN2nn2sf4cmif6client34CmifDomainProxyClientCoreProcessorINS0_4hipc6client38Hipc2ClientSessionManagedProxyKindBaseINS5_18Hipc2ProxyKindBaseILNS4_6detail11MessageTypeE6EEEEENS1_6detail14CoreMethodInfoINSt3__15tupleIJNSC_17InRawArgumentInfoILm36ELm4ELl0EEEEEELm36ELm0ELb0EEESI_E7ProcessEPNS2_23CmifDomainClientMessageISB_E15ProxyBaseObjectENS2_23InRawClientArgumentTypeILm36ELm4EvEEj
_ZN2nn2sf4cmif6client6detail13CmifProxyImplINS_4pctl6detail3ipc23IParentalControlServiceENS2_19CmifDomainProxyKindINS0_4hipc6client38Hipc2ClientSessionManagedProxyKindBaseINSB_18Hipc2ProxyKindBaseILNSA_6detail11MessageTypeE6EEEEEEENS0_30MemoryResourceAllocationPolicyES8_NS3_19ProcessModifierImplINS2_21DefaultProxyFilterTagEEEE46_nn_sf_sync_GetAccountMiiImageContentTypeAsyncENS0_3OutINS6_9AsyncDataEvEENSO_INS0_12NativeHandleEvEENSO_IjvEERKNS0_8OutArrayIcEERKNS6_22PairingAccountInfoBaseE
_ZN2nn5swkbd6detail18InlineKeyboardImpl15SetUserWordInfoERKNS0_12UserWordInfoE
__register_frame
_ZN2nn5codec25CProgramConfig_GetDefaultEPNS0_14CProgramConfigEj
_ZN2nn4edid9CloseEdidEPNS0_4EdidE
_ZTVN2nn2fs26FileStorageBasedFileSystemE
_ZNSt3__129__libcpp_recursive_mutex_initEPNSt13__libcxx_shim19__libcxx_shim_ver_119__libcxx_shim_mutexE
__floatundidf
_ZN2nn2sf4cmif6client6detail13CmifProxyImplINS_7account29IAccountServiceForApplicationENS2_19CmifDomainProxyKindINS0_4hipc6client38Hipc2ClientSessionManagedProxyKindBaseINS9_18Hipc2ProxyKindBaseILNS8_6detail11MessageTypeE6EEEEEEENS0_25StatelessAllocationPolicyINS0_22ExpHeapStaticAllocatorILm2048ENS5_6detail12ObjectHolder24ObjectHolderAllocatorTagEEEEES6_NS3_19ProcessModifierImplINS2_21DefaultProxyFilterTagEEEE39_nn_sf_sync_InitializeApplicationInfoV0Em
_ZN2nn7account38ExternalNetworkServiceAccountRegistrar34RegisterNetworkServiceAccountAsyncEPNS0_12AsyncContextERKNS0_3UidE
_ZNK2nn5audio15PerformanceInfo28IsRenderingTimeLimitExceededEv
_ZN2nn5audio6server14DeviceSinkInfoC2Ev
_ZN2nn2fs4save20IExclusiveFileSystem7HasFileEPbRKNS1_4PathE
_ZN2nn2sf4cmif6client6detail13CmifProxyImplINS_3hid10IHidServerENS0_4hipc6client18Hipc2ProxyKindBaseILNS7_6detail11MessageTypeE6EEENS0_30MemoryResourceAllocationPolicyES6_NS3_19ProcessModifierImplINS2_21DefaultProxyFilterTagEEEE39_nn_sf_sync_ReadPalmaApplicationSectionENS5_21PalmaConnectionHandleEmm
_ZN2nn2sf4hipc6client24Hipc2ClientCoreProcessorILNS1_6detail11MessageTypeE6ENS0_4cmif6detail14CoreMethodInfoINSt3__15tupleIJNS7_17InRawArgumentInfoILm8ELm8ELl0EEENS7_18BufferArgumentInfoILi0ELi5ELm0EEEEEELm8ELm0ELb0EEESF_E7ProcessEPNS2_26Hipc2ClientProxyBaseObjectENS6_6client23InRawClientArgumentTypeILm8ELm8EvEENSK_24BufferClientArgumentTypeEj
_ZN2nn5audio6server38CommandProcessingTimeEstimatorVersion38EstimateERKNS0_33PcmFloatDataSourceCommandVersion1E
_ZN7android19GraphicBufferMapper10apiVersionEv
_ZN2nn2sf6detail38ObjectImplFactoryWithStatefulAllocatorINS0_4cmif6client6detail9CmifProxyINS_3nim6detail33IShopServiceAccessServerInterfaceENS0_4hipc6client18Hipc2ProxyKindBaseILNSA_6detail11MessageTypeE6EEENS0_30MemoryResourceAllocationPolicyENS5_19ProcessModifierImplINS4_21DefaultProxyFilterTagEEEvEESG_E6Object7ReleaseEv
_ZN2nn2sf6detail38ObjectImplFactoryWithStatefulAllocatorINS0_4cmif6client6detail9CmifProxyINS_7friends6detail3ipc15IServiceCreatorENS4_19CmifDomainProxyKindINS0_4hipc6client38Hipc2ClientSessionManagedProxyKindBaseINSD_18Hipc2ProxyKindBaseILNSC_6detail11MessageTypeE6EEEEEEENS0_30MemoryResourceAllocationPolicyENS5_19ProcessModifierImplINS4_21DefaultProxyFilterTagEEEvEESL_E6Object7ReleaseEv
nnutilZlib_deflate_copyright
_ZN2nn4pctl37RevertRestrictedSystemSettingsEnteredEv
_ZTSN2nn2ec4json29MemoryInputStreamForRapidJsonE
_ZN2nn3kpr15KeyCodeComposer7DequeueEPti
_ZN2nn2sf4cmif6client6detail13CmifProxyImplINS_4pctl6detail3ipc23IParentalControlServiceENS2_19CmifDomainProxyKindINS0_4hipc6client38Hipc2ClientSessionManagedProxyKindBaseINSB_18Hipc2ProxyKindBaseILNSA_6detail11MessageTypeE6EEEEEEENS0_30MemoryResourceAllocationPolicyES8_NS3_19ProcessModifierImplINS2_21DefaultProxyFilterTagEEEE29_nn_sf_sync_RequestPostEventsENS0_3OutIivEERKNS0_8OutArrayINS6_7service7watcher9EventDataEEE
property_get
_ZN2nn2sf4cmif6client6detail36GetClientProcessorImplWithObjectBaseINS2_19CmifDomainProxyKindINS0_4hipc6client38Hipc2ClientSessionManagedProxyKindBaseINS7_18Hipc2ProxyKindBaseILNS6_6detail11MessageTypeE6EEEEEEENS3_19ProcessModifierImplINS2_21DefaultProxyFilterTagEEEE14ObjectAssignerINS0_25StatelessAllocationPolicyINS0_22ExpHeapStaticAllocatorILm2048ENS_7account6detail12ObjectHolder24ObjectHolderAllocatorTagEEEEENS0_6detail23StatelessDummyAllocatorEE14AllocateObjectINSN_13IAsyncContextEEEvi
_ZN2nn5codec26GetOpusDecoderChannelCountEPKNS0_15OpusDecoderTypeE
_ZThn32_N2nn2sf4cmif6client6detail13CmifProxyImplINS_7friends6detail3ipc28IDaemonSuspendSessionServiceENS2_19CmifDomainProxyKindINS0_4hipc6client38Hipc2ClientSessionManagedProxyKindBaseINSB_18Hipc2ProxyKindBaseILNSA_6detail11MessageTypeE6EEEEEEENS0_30MemoryResourceAllocationPolicyES8_NS3_19ProcessModifierImplINS2_21DefaultProxyFilterTagEEEE17GetCmifBaseObjectEv
_ZN2nn2fs6detail9RomFsFileD1Ev
_ZN2nn2fs6detail24SaveDataImporterVersion2D2Ev
_ZN2nn2oe35BeginBlockingHomeButtonShortPressedEv
nnsocketSelect
_ZN2nn2sf33GetCurrentEffectiveMemoryResourceEv
_ZNK7android10IInterface8asBinderEv
nncryptoEncryptAes128Ctr
NvOsTlsAllocWithDestructor
_ZN2nn5audio16SharedRingBuffer28GetReleasedBufferForPlaybackEv
_ZN2nn5codec25FreeRam_SbrDecWorkBuffer1EPPi
_ZTIN2nn5fssrv2sf17ISaveDataImporterE
_ZN2nn2fs19GetCacheStorageSizeEPlS1_i
_ZN2nn2os21TimedAcquireSemaphoreEPNS0_13SemaphoreTypeENS_8TimeSpanE
_ZTSN2nn2sf4cmif6client6detail13CmifProxyImplINS_8settings24ISettingsItemKeyIteratorENS0_4hipc6client18Hipc2ProxyKindBaseILNS7_6detail11MessageTypeE6EEENS0_30MemoryResourceAllocationPolicyES6_NS3_19ProcessModifierImplINS2_21DefaultProxyFilterTagEEEEE
_ZN2nn3web14ShowWebPageArg16SetLeftStickModeENS0_16WebLeftStickModeE
pread
_ZN2nn2os6detail30InterProcessEventImplByHorizon7TryWaitEjb
_ZN2nn2sf4cmif6client6detail13CmifProxyImplINS_8settings28IFirmwareDebugSettingsServerENS0_4hipc6client18Hipc2ProxyKindBaseILNS7_6detail11MessageTypeE6EEENS0_30MemoryResourceAllocationPolicyES6_NS3_19ProcessModifierImplINS2_21DefaultProxyFilterTagEEEE31_nn_sf_sync_SetWebInspectorFlagEb
NvRmGpuLibOpen
_ZNKSt3__18time_getIwNS_19istreambuf_iteratorIwNS_11char_traitsIwEEEEE11__get_year4ERiRS4_S4_RjRKNS_5ctypeIwEE
_ZTINSt3__18time_getIcNS_19istreambuf_iteratorIcNS_11char_traitsIcEEEEEE
TYPESET_destroy
_ZN7android22ISurfaceComposerClientD2Ev
FDKstrncpy
_ZN2nn2fs6detail7KeySeed4SizeE
_ZNK2nn3mii21ParamCharInfoAccessor9IsSpecialEv
_ZN2nn2sf4hipc6server24HipcServerSessionManager14ProcessMessageEPNS2_21HipcServerSessionBaseEPKNS1_6detail25HipcMessageBufferAccessorEPKNS6_21HipcMessageHeaderInfoEPvm
_ZNK7android6Region14mergeExclusiveERKNS_4RectE
_ZNKSt3__115__codecvt_utf16IwLb1EE5do_inER11__mbstate_tPKcS5_RS5_PwS7_RS7_
send
_ZNK2nn3hid15VibrationPlayer18GetCurrentPositionEv
_ZNSt3__115recursive_mutex6unlockEv
_ZN2nn5audio18GetAuxDelayTimeMaxEPKNS0_12AuxDelayTypeE
_ZN2nn3hid14KeyboardLayout12KoreanHangulE
_ZN2nn7nlibsdk4heap12TlsHeapCache14AllocFuncMode0INSt3__117integral_constantIbLb1EEEEEPvPS2_m
_ZN2nn2sf4cmif6client6detail13CmifProxyImplINS_12notification6server35INotificationServicesForApplicationENS2_19CmifDomainProxyKindINS0_4hipc6client38Hipc2ClientSessionManagedProxyKindBaseINSA_18Hipc2ProxyKindBaseILNS9_6detail11MessageTypeE6EEEEEEENS0_30MemoryResourceAllocationPolicyES7_NS3_19ProcessModifierImplINS2_21DefaultProxyFilterTagEEEE22_nn_sf_sync_InitializeEm
_ZN2nn8settings6detail17GetGyroscopeScaleEPNS0_7factory14GyroscopeScaleE
__uselocale
_ZN2nn2sf4cmif6client6detail13CmifProxyImplINS_2am7service22ILibraryAppletAccessorENS2_19CmifDomainProxyKindINS0_4hipc6client38Hipc2ClientSessionManagedProxyKindBaseINSA_18Hipc2ProxyKindBaseILNS9_6detail11MessageTypeE6EEEEEEENS0_30MemoryResourceAllocationPolicyES7_NS3_19ProcessModifierImplINS2_21DefaultProxyFilterTagEEEE30_nn_sf_sync_GetPopOutDataEventENS0_3OutINS0_12NativeHandleEvEE
_ZTSN2nn2sf6detail38ObjectImplFactoryWithStatefulAllocatorINS0_4cmif6client6detail9CmifProxyINS_3apm8IManagerENS0_4hipc6client18Hipc2ProxyKindBaseILNS9_6detail11MessageTypeE6EEENS0_30MemoryResourceAllocationPolicyENS5_19ProcessModifierImplINS4_21DefaultProxyFilterTagEEEvEESF_E6ObjectE
_ZN2nn5audio6common10NodeStates10ResetStateEv
FSS_add_font
unw_regname
_ZN2nn2sf4cmif6client6detail13CmifProxyImplINS_7account4baas14IAdministratorENS2_19CmifDomainProxyKindINS0_4hipc6client38Hipc2ClientSessionManagedProxyKindBaseINSA_18Hipc2ProxyKindBaseILNS9_6detail11MessageTypeE6EEEEEEENS0_25StatelessAllocationPolicyINS0_22ExpHeapStaticAllocatorILm2048ENS5_6detail12ObjectHolder24ObjectHolderAllocatorTagEEEEES7_NS3_19ProcessModifierImplINS2_21DefaultProxyFilterTagEEEE29_nn_sf_sync_ImportAsyncForWinENS0_3OutINS0_13SharedPointerINSK_13IAsyncContextEEEvEENS5_23NetworkServiceAccountIdEmRKNS0_8InBufferE
_ZN2nn5codec29Hcr_State_BODY_SIGN_ESC__SIGNEPNS0_13FDK_BITSTREAMEPv
_ZTIN2nn3hid14VibrationMixerE
nnutilZlib__tr_align
_ZN2nn3jit20CreateJitEnvironmentEPNS0_9JitHandleERKNS0_27JitEnvironmentConfigurationERKNS0_13JitPluginInfoEPvm
nnmem_nlib_utf16_to_utf32char
_ZTv0_n24_N7android18GraphicBufferAllocD1Ev
_ZN7android12ConsumerBase26setBuffersReleasedListenerERKNS_2wpINS0_23BuffersReleasedListenerEEE
__cxa_decrement_exception_refcount
_ZN2nn2sf4cmif6client6detail13CmifProxyImplINS_7account29IAccountServiceForApplicationENS2_19CmifDomainProxyKindINS0_4hipc6client38Hipc2ClientSessionManagedProxyKindBaseINS9_18Hipc2ProxyKindBaseILNS8_6detail11MessageTypeE6EEEEEEENS0_25StatelessAllocationPolicyINS0_22ExpHeapStaticAllocatorILm2048ENS5_6detail12ObjectHolder24ObjectHolderAllocatorTagEEEEES6_NS3_19ProcessModifierImplINS2_21DefaultProxyFilterTagEEEE34_nn_sf_sync_StoreSaveDataThumbnailERKNS5_3UidERKNS0_8InBufferE
_ZN2nn2ec6detail22GetNsUidLengthAsStringENS0_5NsUidE
_ZN2nn8irsensor6detail23GetImageProcessorStatusEPNS0_20ImageProcessorStatusERKbRKNS0_14IrCameraHandleE
_ZNK2nn4util7UriPart9GetLengthEv
_ZNK7android6Region9translateEii
_ZN2nn4npns6detail24AttachServiceProxySystemENS_2sf13SharedPointerINS0_11INpnsSystemEEE
NvRmGpuAddressSpaceAllocationClose
_ZTINSt3__113basic_ostreamIwNS_11char_traitsIwEEEE
_ZN2nn2sf4cmif6client6detail13CmifProxyImplINS_2am7service18IDisplayControllerENS2_19CmifDomainProxyKindINS0_4hipc6client38Hipc2ClientSessionManagedProxyKindBaseINSA_18Hipc2ProxyKindBaseILNS9_6detail11MessageTypeE6EEEEEEENS0_30MemoryResourceAllocationPolicyES7_NS3_19ProcessModifierImplINS2_21DefaultProxyFilterTagEEEE47_nn_sf_sync_AcquireLastApplicationCaptureBufferENS0_3OutINS0_12NativeHandleEvEE
_ZN2nn2fs17GetTotalSpaceSizeEPlPKc
_ZN2nn8irsensor6detail15IrSensorSession37GetImageTransferProcessorStateDefaultEPNS0_27ImageTransferProcessorStateEPvmRKNS0_14IrCameraHandleE
_ZN2nn12notification33WeeklyScheduleAlarmSettingBuilderC1ERKNS0_12AlarmSettingE
nnosWaitInterruptEvent
_ZNK2nn5audio6server14EffectInfoBase26ShouldUpdateWorkBufferInfoEPKNS0_10EffectInfo11InParameterE
_ZN2nn3hid6system6detail15SetButtonConfigERKNS1_17ButtonConfigRightERKNS1_11UniquePadIdE
_ZN2nn2sf4cmif6client6detail13CmifProxyImplINS_3hid16IHidSystemServerENS0_4hipc6client18Hipc2ProxyKindBaseILNS7_6detail11MessageTypeE6EEENS0_30MemoryResourceAllocationPolicyES6_NS3_19ProcessModifierImplINS2_21DefaultProxyFilterTagEEEE45_nn_sf_sync_StartAnalogStickManualCalibrationENS5_6system11UniquePadIdEl
_ZN10__cxxabiv119__setExceptionClassEP17_Unwind_Exceptionm
_ZN2nn2sf4cmif6client6detail13CmifProxyImplINS_2am7service18IHomeMenuFunctionsENS2_19CmifDomainProxyKindINS0_4hipc6client38Hipc2ClientSessionManagedProxyKindBaseINSA_18Hipc2ProxyKindBaseILNS9_6detail11MessageTypeE6EEEEEEENS0_30MemoryResourceAllocationPolicyES7_NS3_19ProcessModifierImplINS2_21DefaultProxyFilterTagEEEE17GetCmifBaseObjectEv
_ZN2nn2sf4cmif6client6detail13CmifProxyImplINS_7friends6detail3ipc14IFriendServiceENS2_19CmifDomainProxyKindINS0_4hipc6client38Hipc2ClientSessionManagedProxyKindBaseINSB_18Hipc2ProxyKindBaseILNSA_6detail11MessageTypeE6EEEEEEENS0_30MemoryResourceAllocationPolicyES8_NS3_19ProcessModifierImplINS2_21DefaultProxyFilterTagEEEE38_nn_sf_sync_IsFriendListCacheAvailableENS0_3OutIbvEERKNS_7account3UidE
nndetailImagePng_png_chunk_error
_ZN2nn2sf4cmif6client6detail13CmifProxyImplINS_8settings21ISystemSettingsServerENS0_4hipc6client18Hipc2ProxyKindBaseILNS7_6detail11MessageTypeE6EEENS0_30MemoryResourceAllocationPolicyES6_NS3_19ProcessModifierImplINS2_21DefaultProxyFilterTagEEEE36_nn_sf_sync_SetUsb30DeviceEnableFlagEb
_ZN2nn5audio6server6detail33GetAudioSystemMasterVolumeSettingEPKNS0_15AudioDeviceNameE
compose_trans
_ZN2nn8settings6system17SetLockScreenFlagEb
_ZN2nn8settings6system14IsUsb30EnabledEv
_ZNK2nn4time6detail20MonotonicSystemClock14GetCurrentTimeEPNS0_9PosixTimeE
_ZTIN2nn2sf4cmif6client6detail13CmifProxyImplINS_2am7service18IHomeMenuFunctionsENS2_19CmifDomainProxyKindINS0_4hipc6client38Hipc2ClientSessionManagedProxyKindBaseINSA_18Hipc2ProxyKindBaseILNS9_6detail11MessageTypeE6EEEEEEENS0_30MemoryResourceAllocationPolicyES7_NS3_19ProcessModifierImplINS2_21DefaultProxyFilterTagEEEEE
_ZN2nn3nfp6client22IsCreatedUserInterfaceEv
_ZN7android13GraphicBufferC2Ejjij
_ZN2nn5audio6server38CommandProcessingTimeEstimatorVersion38EstimateERKNS0_17DeviceSinkCommandE
_ZN2nn7friends12UserPresence5ClearEv
_ZN2nn2fs15RomFsFileSystemD2Ev
_ZTVN2nn2os6detail36MultiWaitHolderOfMessageQueueNotFullE
_ZN2nn2fs24HierarchicalRomFileTable10InitializeENS0_10SubStorageES2_S2_S2_
_ZN2nn8irsensor35GetClusteringProcessorDefaultConfigEPNS0_25ClusteringProcessorConfigE
_ZN2nn2oe17EnableCrashReportEv
_ZNSt3__112basic_stringIwNS_11char_traitsIwEENS_9allocatorIwEEE6insertEmPKwm
_ZN2nn5codec11OpusEncoder15SetWaveformTypeENS0_16OpusWaveformTypeE
_ZN2nn9hidconfig22GetButtonConfigStorageEPNS0_17ButtonConfigRightEi
pthread_key_create
_ZN2nn2sf4cmif6client34CmifDomainProxyClientCoreProcessorINS0_4hipc6client38Hipc2ClientSessionManagedProxyKindBaseINS5_18Hipc2ProxyKindBaseILNS4_6detail11MessageTypeE6EEEEENS1_6detail14CoreMethodInfoINSt3__15tupleIJNSC_18OutRawArgumentInfoILm4ELm4ELl0EEENSC_18BufferArgumentInfoILi0ELi6ELm0EEENSC_17InRawArgumentInfoILm2ELm2ELl0EEEEEELm2ELm4ELb0EEESM_E7ProcessEPNS2_23CmifDomainClientMessageISB_E15ProxyBaseObjectENS2_24OutRawClientArgumentTypeILm4ELm4EEENS2_24BufferClientArgumentTypeENS2_23InRawClientArgumentTypeILm2ELm2EvEEj
NvRmGpuDeviceGetInfo
_nnmusl_socket_IsNnmuslFileDescriptor
_ZN2nn8settings7factory22GetAccelerometerOffsetEPNS1_19AccelerometerOffsetE
_ZN2nn4htcs6detail25virtual_socket_collectionC2Ev
__atomic_exchange_1
_ZN2nn5audio13EffectManager21UpdateEffectOutStatusEPNS0_10EffectInfo9OutStatusE
_ZN2nn3hid15KeyCodeComposer15EnqueueAltCodesEPKii
_ZNK2nn3ngc6detail2Bp11PrevSiblingEj
__atomic_exchange_2
_ZN2nn2sf4hipc6client24Hipc2ClientCoreProcessorILNS1_6detail11MessageTypeE6ENS0_4cmif6detail14CoreMethodInfoINSt3__15tupleIJNS7_21OutHandleArgumentInfoILi0ELi1EEENS7_21OutObjectArgumentInfoILi0ELi0EEENS7_17InRawArgumentInfoILm32ELm8ELl0EEEEEELm32ELm0ELb0EEESH_E21ProcessWithOutObjectsEPNS2_26Hipc2ClientProxyBaseObjectENS6_6client27OutHandleClientArgumentTypeENSM_27OutObjectClientArgumentTypeENSM_23InRawClientArgumentTypeILm32ELm8EvEEjPNS0_13SharedPointerINS0_14IServiceObjectEEE
_ZN2nn2sf4cmif6client6detail13CmifProxyImplINS_3hid15IHidDebugServerENS0_4hipc6client18Hipc2ProxyKindBaseILNS7_6detail11MessageTypeE6EEENS0_30MemoryResourceAllocationPolicyES6_NS3_19ProcessModifierImplINS2_21DefaultProxyFilterTagEEEE33_nn_sf_sync_SetKuinaUartClockTrimENS5_6system11UniquePadIdEh
_ZN2nn5audio28ClearPerformanceDetailTargetEPNS0_19AudioRendererConfigE
_ZN2nn5image6detail4jpeg15jpeg_idct_islowEPNS2_22jpeg_decompress_structEPNS2_19jpeg_component_infoEPsPPhi
nndetailImagePng_png_reciprocal2
_ZN2nn2sf4cmif6client6detail13CmifProxyImplINS_4npns11INpnsSystemENS0_4hipc6client18Hipc2ProxyKindBaseILNS7_6detail11MessageTypeE6EEENS0_30MemoryResourceAllocationPolicyES6_NS3_19ProcessModifierImplINS2_21DefaultProxyFilterTagEEEE26_nn_sf_sync_SubscribeTopicERKNS0_7InArrayIcEE
_ZN2nn2sf6detail38ObjectImplFactoryWithStatefulAllocatorINS0_4cmif6client6detail9CmifProxyINS_4pctl6detail3ipc23IParentalControlServiceENS4_19CmifDomainProxyKindINS0_4hipc6client38Hipc2ClientSessionManagedProxyKindBaseINSD_18Hipc2ProxyKindBaseILNSC_6detail11MessageTypeE6EEEEEEENS0_30MemoryResourceAllocationPolicyENS5_19ProcessModifierImplINS4_21DefaultProxyFilterTagEEEvEESL_E6Object12AddReferenceEv
NvRmHostTriggerEventPollFd
__atomic_exchange_4
_ZN2nn5audio6server16CommandGenerator19GenerateMixCommandsERNS1_7MixInfoE
nncodecLibopus_isqrt32
_ZN2nn2fs6detail24SaveDataImporterVersion216InitializeImportEPll
nndetailImagePng_png_do_write_interlace
_ZTSN2nn2sf6detail38ObjectImplFactoryWithStatefulAllocatorINS0_4cmif6client6detail9CmifProxyINS_4nifm6detail14IStaticServiceENS4_19CmifDomainProxyKindINS0_4hipc6client38Hipc2ClientSessionManagedProxyKindBaseINSC_18Hipc2ProxyKindBaseILNSB_6detail11MessageTypeE6EEEEEEENS0_30MemoryResourceAllocationPolicyENS5_19ProcessModifierImplINS4_21DefaultProxyFilterTagEEEvEESK_E6ObjectE
nnmuslThreadPointerDestroyer
__addvti3
_ZTSN2nn2sf4cmif6client6detail13CmifProxyImplINS_7account4baas14IAdministratorENS2_19CmifDomainProxyKindINS0_4hipc6client38Hipc2ClientSessionManagedProxyKindBaseINSA_18Hipc2ProxyKindBaseILNS9_6detail11MessageTypeE6EEEEEEENS0_25StatelessAllocationPolicyINS0_22ExpHeapStaticAllocatorILm2048ENS5_6detail12ObjectHolder24ObjectHolderAllocatorTagEEEEES7_NS3_19ProcessModifierImplINS2_21DefaultProxyFilterTagEEEEE
_ZN2nn4edid6detail19GetManufacturerCodeEPNS0_11DisplayInfoEt
_ZN2nn2fs24HierarchicalRomFileTable24ConvertPathToDirectoryIdEPiPKc
_ZNK2nn3mii6detail11CoreDataRaw8GetMoleXEv
_ZTVN2nn2sf6detail38ObjectImplFactoryWithStatefulAllocatorINS0_4cmif6client6detail9CmifProxyINS_3nsd6detail8IManagerENS0_4hipc6client18Hipc2ProxyKindBaseILNSA_6detail11MessageTypeE6EEENS0_30MemoryResourceAllocationPolicyENS5_19ProcessModifierImplINS4_21DefaultProxyFilterTagEEEvEESG_E6ObjectE
_ZN2nn2oe37GetHdcpAuthenticationStateChangeEventEPNS_2os11SystemEventE
_ZN7android5Fence9unflattenERPKvRmRPKiS4_
_ZNSt3__118shared_timed_mutexC2Ev
__nnmusl_TimerWait
_ZN2nn2fs3dbm15AllocationTable10WriteBlockEPKNS2_12TableElementEj
_ZNK2nn3mii6detail12StoreDataRaw13GetFontRegionEv
_ZN2nn3nsd6detail3ipc19GetNasRequestFqdnExEPNS_6ResultEPNS0_4FqdnE
_ZTSNSt3__113basic_istreamIwNS_11char_traitsIwEEEE
_ZNKSt3__115__codecvt_utf16IwLb1EE13do_max_lengthEv
FsLtt_new
_ZN2nn2fs21MountSaveDataForDebugEPKc
_ZN2nn4nifm6detail13RequestClient24SetRequirementBySubmitIdEj
__atomic_exchange_8
_ZN2nn5audio6server22PerformanceManagerImplINS1_33PerformanceManagerImplVersion1TagENS0_6common30PerformanceFrameHeaderVersion1ENS4_24PerformanceEntryVersion1ENS4_25PerformanceDetailVersion1ENS0_20PerformanceSysDetailEE12GetNextEntryEPNS1_25PerformanceEntryAddressesENS0_20PerformanceEntryTypeEj
_ZN2nn2fs6detail21SaveDataChunkExporter18GetRestRawDataSizeEv
_ZTSN2nn6jitsrv11IJitServiceE
_ZN2nn3mii6detail11CoreDataRaw16SetEyebrowRotateEi
_ZNKSt3__112basic_stringIwNS_11char_traitsIwEENS_9allocatorIwEEE13find_first_ofEPKwmm
_ZTSN2nn9bluetooth14IBluetoothUserE
nncodecLibopus_opus_repacketizer_cat
_ZN2nn2fs6detail24SaveDataImporterVersion216GetImportContextEPNS0_25ISaveDataDivisionImporter13ImportContextE
_ZN2nn4util10BitFlagSetILi256ENS_3hid11KeyboardKeyEE4FlagILi227EE4MaskE
_ZN2nn5audio19SplitterInfoManager36GetSplitterDestinationWorkBufferSizeEi
_ZN2nn5audio16RemoveDeviceSinkEPNS0_19AudioRendererConfigEPNS0_14DeviceSinkTypeEPNS0_12FinalMixTypeE
_ZN2nn3hid14KeyboardLayout10PortugueseE
_ZN2nn2sf4cmif6client6detail13CmifProxyImplINS_7account19IAccountServiceBaseENS2_19CmifDomainProxyKindINS0_4hipc6client38Hipc2ClientSessionManagedProxyKindBaseINS9_18Hipc2ProxyKindBaseILNS8_6detail11MessageTypeE6EEEEEEENS0_25StatelessAllocationPolicyINS0_22ExpHeapStaticAllocatorILm2048ENS5_6detail12ObjectHolder24ObjectHolderAllocatorTagEEEEENS5_31IAccountServiceForAdministratorENS3_19ProcessModifierImplINS2_21DefaultProxyFilterTagEEEE24_nn_sf_sync_ListAllUsersERKNS0_8OutArrayINS5_3UidEEE
_ZNK2nn5audio6server10PoolMapper17IsForceMapEnabledEv
_ZN2nn2fs19MountContentStorageENS0_16ContentStorageIdE
_ZN2nn4util10BitFlagSetILi256ENS_3hid11KeyboardKeyEE4FlagILi41EE4MaskE
_ZTIN2nn2sf4cmif6client6detail13CmifProxyImplINS_4nifm6detail14IStaticServiceENS2_19CmifDomainProxyKindINS0_4hipc6client38Hipc2ClientSessionManagedProxyKindBaseINSA_18Hipc2ProxyKindBaseILNS9_6detail11MessageTypeE6EEEEEEENS0_30MemoryResourceAllocationPolicyES7_NS3_19ProcessModifierImplINS2_21DefaultProxyFilterTagEEEEE
_ZN2nn6socket8InetNtopENS0_6FamilyEPKvPcj
_ZTSN2nn2sf4cmif6client6detail13CmifProxyImplINS_7account6detail13IAsyncContextENS2_19CmifDomainProxyKindINS0_4hipc6client38Hipc2ClientSessionManagedProxyKindBaseINSA_18Hipc2ProxyKindBaseILNS9_6detail11MessageTypeE6EEEEEEENS0_30MemoryResourceAllocationPolicyES7_NS3_19ProcessModifierImplINS2_21DefaultProxyFilterTagEEEEE
_ZN2nn2sf4hipc6client24Hipc2ClientCoreProcessorILNS1_6detail11MessageTypeE6ENS0_4cmif6detail14CoreMethodInfoINSt3__15tupleIJNS7_18OutRawArgumentInfoILm8ELm8ELl0EEENS7_18BufferArgumentInfoILi0ELi6ELm0EEENS7_17InRawArgumentInfoILm1ELm1ELl0EEENSF_ILm8ELm2ELl2EEENSF_ILm8ELm2ELl10EEENSF_ILm8ELm8ELl24EEEEEELm32ELm8ELb1EEESK_E7ProcessEPNS2_26Hipc2ClientProxyBaseObjectENS6_6client24OutRawClientArgumentTypeILm8ELm8EEENSP_24BufferClientArgumentTypeENSP_23InRawClientArgumentTypeILm1ELm1EvEENST_ILm8ELm2EvEESV_NST_ILm8ELm8EvEEj
_ZN2nn5codec21sbrdecUpdateFreqScaleEPhS1_jPNS0_15SBR_HEADER_DATAEj
_ZN2nn3htc13ServiceHolder17SetCradleAttachedEb
_ZThn8_N7android23BnGraphicBufferProducer17onGetNativeHandleEjRjRb
_ZTINSt3__114__num_get_baseE
_unw_remove_dynamic_fde
_ZN2nn2sf4cmif6client6detail13CmifProxyImplINS_2am7service15IStorageChannelENS2_19CmifDomainProxyKindINS0_4hipc6client38Hipc2ClientSessionManagedProxyKindBaseINSA_18Hipc2ProxyKindBaseILNS9_6detail11MessageTypeE6EEEEEEENS0_30MemoryResourceAllocationPolicyES7_NS3_19ProcessModifierImplINS2_21DefaultProxyFilterTagEEEE17_nn_sf_sync_UnpopENS0_13SharedPointerINS6_8IStorageEEE
_ZTSN2nn2sf13InterfaceInfoINS_5audio6detail14IAudioRendererEE4_tABINS5_5_tO2NINS2_6server24AudioRendererManagerImpl17AudioRendererImplEE4typeES4_E4typeE
_ZNK2nn7friends14FriendPresence17GetLastOnlineTimeEv
_ZN2nn8settings6system15GetSerialNumberEPNS1_12SerialNumberE
_ZTSN2nn2sf4cmif6server22CmifDomainServerObject23CmifDomainServerMessageE
NvOsFwrite
_ZN7android7RefBaseD2Ev
_ZN2nn3err6detail29DefaultErrorMessageDataExistsEj
nndetailImagePng_png_sRGB_base
_ZNSt3__16chrono12system_clock3nowEv
pthread_rwlock_unlock
_ZN2nn5audio31ProcessPolyphaseResamplerBufferEPNS0_22PolyphaseResamplerTypeEPiPsmPKsi
_ZTVN2nn2sf6detail38ObjectImplFactoryWithStatefulAllocatorINS0_13InterfaceInfoINS_5audio6detail12IAudioDeviceEE4_tABINS7_5_tO2NINS4_6server24AudioRendererManagerImpl15AudioDeviceImplEE4typeES6_E4typeENS0_24StatefulAllocationPolicyINS0_16ExpHeapAllocatorEEEE6ObjectE
nncodecLibopus_silk_process_gains_FIX
_ZN2nn2fs25OpenAccessFailureResolverEPNSt3__110unique_ptrINS0_21AccessFailureResolverENS1_14default_deleteIS3_EEEEmb
_ZN2nn3hid14KeyboardLayout8JapaneseE
_ZNK2nn4pctl18PairingAccountInfo15IsInstanceValidEv
_ZNSt3__121__libcpp_execute_onceEPNS_9once_flagEPFvvE
setlinebuf
_ZN2nn2sf6detail39ObjectImplFactoryWithStatelessAllocatorINS0_4cmif6client6detail9CmifProxyINS_7account6detail9INotifierENS4_19CmifDomainProxyKindINS0_4hipc6client38Hipc2ClientSessionManagedProxyKindBaseINSC_18Hipc2ProxyKindBaseILNSB_6detail11MessageTypeE6EEEEEEENS0_25StatelessAllocationPolicyINS0_22ExpHeapStaticAllocatorILm2048ENS8_12ObjectHolder24ObjectHolderAllocatorTagEEEEENS5_19ProcessModifierImplINS4_21DefaultProxyFilterTagEEEvEESP_E6Object7ReleaseEv
_ZN2nn7account38ExternalNetworkServiceAccountRegistrarC2Ev
_ZN2nn2fs6detail12FileAccessor7GetSizeEPl
_ZN2nn2sf4cmif6client6detail13CmifProxyImplINS_8settings21ISystemSettingsServerENS0_4hipc6client18Hipc2ProxyKindBaseILNS7_6detail11MessageTypeE6EEENS0_30MemoryResourceAllocationPolicyES6_NS3_19ProcessModifierImplINS2_21DefaultProxyFilterTagEEEE45_nn_sf_sync_GetButtonConfigRegisteredSettingsENS0_3OutIivEERKNS0_8OutArrayINS5_6system30ButtonConfigRegisteredSettingsEEE
_ZN2nn8settings6detail28SetHeadphoneVolumeUpdateFlagEb
_ZNSt3__112basic_stringIwNS_11char_traitsIwEENS_9allocatorIwEEE9push_backEw
_ZN2nn3mii6detail12StoreDataRaw8SetBuildEi
_ZN2nn8settings6system30SetAnalogStickUserCalibrationLERKNS1_26AnalogStickUserCalibrationE
_ZN2nn2os6detail26MultiWaitHolderOfSemaphore15AddToObjectListEv
_ZN7android6Region13operationSelfERKS0_iii
_ZN22nerd_gillette_internal5otete7jaimev221GetTanHalfFieldOfViewEPfS2_
_ZN2nn8settings5fwdbg18IsDebugModeEnabledEv
_ZNKSt3__17num_getIcNS_19istreambuf_iteratorIcNS_11char_traitsIcEEEEE6do_getES4_S4_RNS_8ios_baseERjRPv
_ZTINSt3__118__time_get_storageIwEE
_ZTIN2nn2sf4cmif6client6detail13CmifProxyImplINS_7account3nas21IAuthorizationRequestENS2_19CmifDomainProxyKindINS0_4hipc6client38Hipc2ClientSessionManagedProxyKindBaseINSA_18Hipc2ProxyKindBaseILNS9_6detail11MessageTypeE6EEEEEEENS0_25StatelessAllocationPolicyINS0_22ExpHeapStaticAllocatorILm2048ENS5_6detail12ObjectHolder24ObjectHolderAllocatorTagEEEEES7_NS3_19ProcessModifierImplINS2_21DefaultProxyFilterTagEEEEE
nncodecLibopus_silk_biquad_alt
_ZN2nn2fs16SaveDataExporter11GetRestSizeEv
_ZN2nn7friends6detail17ShimLibraryGlobalC1Ev
_ZNK2nn3mii8CreateIdeqERKS1_
_ZN2nn3ngc15ProfanityFilter24MaskProfanityWordsInTextEPiPDsj
_ZN2nn4util6detail7msgpack10WriteMap16EPNS0_17MessagePackWriter11StreamParamEt
localtime
_ZN2nn2sf4cmif6client6detail13CmifProxyImplINS_2am7service15IAppletAccessorENS2_19CmifDomainProxyKindINS0_4hipc6client38Hipc2ClientSessionManagedProxyKindBaseINSA_18Hipc2ProxyKindBaseILNS9_6detail11MessageTypeE6EEEEEEENS0_30MemoryResourceAllocationPolicyES7_NS3_19ProcessModifierImplINS2_21DefaultProxyFilterTagEEEE12GetProxyInfoEv
_ZN2nn2sf4cmif6client6detail13CmifProxyImplINS_2am7service18IAppletProxyCommonENS2_19CmifDomainProxyKindINS0_4hipc6client38Hipc2ClientSessionManagedProxyKindBaseINSA_18Hipc2ProxyKindBaseILNS9_6detail11MessageTypeE6EEEEEEENS0_30MemoryResourceAllocationPolicyENS6_19IOverlayAppletProxyENS3_19ProcessModifierImplINS2_21DefaultProxyFilterTagEEEE30_nn_sf_sync_GetAudioControllerENS0_3OutINS0_13SharedPointerINS6_16IAudioControllerEEEvEE
_ZTSN2nn2am7service8IStorageE
_ZNK2nn3mii6detail16Ver3StoreDataRaw11GetPadding8Ev
__nnmusl_WaitThread
silk_CB_lags_stage2
strstr
_ZN2nn2sf4cmif6server6detail34CmifProcessFunctionTableGetterImplINS0_4hipc6detail12IHipcManagerEE29Process_CopyFromCurrentDomainEPPNS1_13CmifOutHeaderEPS7_PNS2_17CmifServerMessageEONS0_6detail14PointerAndSizeE
_ZN2nn3web38ShowApplicationLegalInformationPageArgC2Ev
silk_CB_lags_stage3
_ZN2nn5codec6dct_IVEPiiS1_
_ZN2nn5prepo10PlayReport4SaveEv
_ZN2nn5audio23GetAudioOutChannelCountEPKNS0_8AudioOutE
_ZN2nn4pctl18IsPlayTimerEnabledEv
_ZN7android6Parcel11finishWriteEm
_ZN2nn5audio6server24AudioRendererManagerImpl15AudioDeviceImpl26SetAudioDeviceOutputVolumeERKNS_2sf8InBufferEf
_ZN2nn8settings6detail30GetHeadphoneVolumeWarningCountEPi
_ZN2nn8settings6system20SetBacklightSettingsERKNS1_17BacklightSettingsE
_ZN7android7RefBase15onLastStrongRefEPKv
_ZN2nn2sf4cmif6client6detail13CmifProxyImplINS_8settings21ISystemSettingsServerENS0_4hipc6client18Hipc2ProxyKindBaseILNS7_6detail11MessageTypeE6EEENS0_30MemoryResourceAllocationPolicyES6_NS3_19ProcessModifierImplINS2_21DefaultProxyFilterTagEEEE48_nn_sf_sync_GetExternalSteadyClockInternalOffsetENS0_3OutIlvEE
_ZN2nn2sf4cmif6client6detail13CmifProxyImplINS_5visrv2sf26IApplicationDisplayServiceENS0_4hipc6client18Hipc2ProxyKindBaseILNS8_6detail11MessageTypeE6EEENS0_30MemoryResourceAllocationPolicyES7_NS3_19ProcessModifierImplINS2_21DefaultProxyFilterTagEEEE32_nn_sf_sync_GetDisplayResolutionENS0_3OutIlvEESK_m
NvRmMemHandleExportForAruid
_ZN2nn2sf4cmif6client6detail13CmifProxyImplINS_3hid15IHidDebugServerENS0_4hipc6client18Hipc2ProxyKindBaseILNS7_6detail11MessageTypeE6EEENS0_30MemoryResourceAllocationPolicyES6_NS3_19ProcessModifierImplINS2_21DefaultProxyFilterTagEEEE39_nn_sf_sync_SetHomeButtonAutoPilotStateENS5_5debug24HomeButtonAutoPilotStateE
_ZN2nn5album14ShowAlbumFilesEv
_ZN2nn5audio6server24AudioRendererManagerImpl15AudioDeviceImplD2Ev
_ZN2nn4lmem12CheckExpHeapEPNS0_6detail8HeapHeadEi
NvRmChannelSetModuleClockRate
_ZNKSt3__111__libcpp_db8__find_cEPv
_ZN2nn5audio3dsp25MailBoxImplByMessageQueue20g_MessageQueueBufferE
_ZN2nn5codec21deleteSbrEnvelopeCalcEPNS0_22SBR_CALCULATE_ENVELOPEE
_ZNK2nn6crypto6detail7AesImplILm24EE12DecryptBlockEPvmPKvm
_ZN2nn2sf4cmif6client6detail13CmifProxyImplINS_5visrv2sf21ISystemDisplayServiceENS0_4hipc6client18Hipc2ProxyKindBaseILNS8_6detail11MessageTypeE6EEENS0_30MemoryResourceAllocationPolicyES7_NS3_19ProcessModifierImplINS2_21DefaultProxyFilterTagEEEE33_nn_sf_sync_DisconnectSharedLayerENS_2vi7fbshare17SharedLayerHandleE
_ZNKSt3__120__time_get_c_storageIcE7__weeksEv
_ZTSN2nn2am7service25IProcessWindingControllerE
FDKstrcmp
_ZN2nn6crypto6detail11CtrModeImplINS0_12AesEncryptorILm16EEEE16IncrementCounterEv
_ZN2nn8irsensor6detail13StatusManager18AllocateMomentLifoERKNS0_14IrCameraHandleE
_ZThn32_N2nn2sf4cmif6client6detail13CmifProxyImplINS_4nifm6detail12IScanRequestENS2_19CmifDomainProxyKindINS0_4hipc6client38Hipc2ClientSessionManagedProxyKindBaseINSA_18Hipc2ProxyKindBaseILNS9_6detail11MessageTypeE6EEEEEEENS0_30MemoryResourceAllocationPolicyES7_NS3_19ProcessModifierImplINS2_21DefaultProxyFilterTagEEEE17GetCmifBaseObjectEv
_ZN2nn2sf4cmif6client6detail13CmifProxyImplINS_8settings15ISettingsServerENS0_4hipc6client18Hipc2ProxyKindBaseILNS7_6detail11MessageTypeE6EEENS0_30MemoryResourceAllocationPolicyES6_NS3_19ProcessModifierImplINS2_21DefaultProxyFilterTagEEEE37_nn_sf_sync_GetAvailableLanguageCodesENS0_3OutIivEERKNS0_8OutArrayINS5_12LanguageCodeEEE
_ZN2nn5audio6common11DumpCommandEPKNS0_14MixRampCommandE
_ZN2nn4util10BitFlagSetILi256ENS_3hid11KeyboardKeyEE4FlagILi85EE4MaskE
_ZN2nn3hid15KeyCodeComposer21SetRomajiHiraganaModeEb
_ZN2nn4util17MessagePackWriter19WriteVerifiedStringEPKcj
__nnmusl_SignalConditionVariable
_ZZN3nne9rapidjson13GenericReaderINS0_4UTF8IcEES3_N2nn4http4json23NoAllocatorForRapidJsonEE19ParseStringToStreamILj11ES3_S3_NS4_2ec4json29MemoryInputStreamForRapidJsonESC_EEvRT2_RT3_E6escape
_ZNK2nn3mii6detail24NfpStoreDataExtentionRaw7IsValidEv
_ZN2nn8settings6detail41GetButtonConfigRegisteredSettingsEmbeddedEPNS0_6system30ButtonConfigRegisteredSettingsE
_ZTIN3nne4nlib11InputStreamE
_ZN2nn5album12LibraryState8FinalizeEv
_ZN2nn5audio6server24AudioRendererManagerImpl17OpenAudioRendererENS_2sf3OutINS3_13SharedPointerINS0_6detail14IAudioRendererEEEvEERKNS6_30AudioRendererParameterInternalENS3_12NativeHandleESD_mNS_6applet20AppletResourceUserIdE
_ZN2nn3ldn22SetStationAcceptPolicyENS0_12AcceptPolicyE
_ZTI10BaseAspectIN2nn5audio6server16CommandGeneratorEE
_ZN2nn4util6TinyMt10InitializeEPKji
_ZN2nn2sf4hipc6server2v110ClientInfo13NewClientInfoEv
_ZN2nn6applet31TryPopFromInteractiveOutChannelEPNS0_13StorageHandleENS0_19LibraryAppletHandleE
_ZN2nn5codec36GetHardwareOpusDecoderProcessingTimeEPKNS0_23HardwareOpusDecoderTypeE
_ZN2nn6crypto6detail10CbcMacImpl20ProcessRemainingDataEPKvm
_ZN2nn4diag6detail21GetProcessNamePointerEPPKcPm
_ZTVN2nn2sf6detail38ObjectImplFactoryWithStatefulAllocatorINS0_4cmif6client6detail9CmifProxyINS_3hid26IActiveVibrationDeviceListENS0_4hipc6client18Hipc2ProxyKindBaseILNS9_6detail11MessageTypeE6EEENS0_30MemoryResourceAllocationPolicyENS5_19ProcessModifierImplINS4_21DefaultProxyFilterTagEEEvEESF_E6ObjectE
__nnmusl_pthread_rwlock_rdlock
_ZNK2nn7friends6Friend11GetPresenceEv
_ZN2nn3hid15VibrationPlayer23SetVibrationFileAddressEPKvm
_ZN2nn4lmem6detail14DestroyExpHeapEPNS1_8HeapHeadE
ftrylockfile
_ZN2nn5audio17SetVoiceMixVolumeEPNS0_9VoiceTypeEPNS0_12FinalMixTypeEfii
_ZN2nn2fs6detail34OutputAccessLogUnlessResultSuccessENS_6ResultENS_2os4TickES4_PKcPKvS6_z
_ZN2nn2sf4cmif6client6detail13CmifProxyImplINS_3hid16IHidSystemServerENS0_4hipc6client18Hipc2ProxyKindBaseILNS7_6detail11MessageTypeE6EEENS0_30MemoryResourceAllocationPolicyES6_NS3_19ProcessModifierImplINS2_21DefaultProxyFilterTagEEEE36_nn_sf_sync_InitializeFirmwareUpdateEv
nndetailImagePng_png_init_io
_ZN2nn3ldn11OpenStationEv
_ZN2nn7account29InitializeForMicroApplicationEv
_ZTSN2nn2sf4cmif6client6detail13CmifProxyImplINS_2am7service19IOverlayAppletProxyENS2_19CmifDomainProxyKindINS0_4hipc6client38Hipc2ClientSessionManagedProxyKindBaseINSA_18Hipc2ProxyKindBaseILNS9_6detail11MessageTypeE6EEEEEEENS0_30MemoryResourceAllocationPolicyES7_NS3_19ProcessModifierImplINS2_21DefaultProxyFilterTagEEEEE
_ZN2nn2sf4cmif6client34CmifDomainProxyClientCoreProcessorINS0_4hipc6client38Hipc2ClientSessionManagedProxyKindBaseINS5_18Hipc2ProxyKindBaseILNS4_6detail11MessageTypeE6EEEEENS1_6detail14CoreMethodInfoINSt3__15tupleIJNSC_18BufferArgumentInfoILi0ELi5ELm0EEENSC_17InRawArgumentInfoILm8ELm8ELl0EEEEEELm8ELm0ELb0EEESK_E7ProcessEPNS2_23CmifDomainClientMessageISB_E15ProxyBaseObjectENS2_24BufferClientArgumentTypeENS2_23InRawClientArgumentTypeILm8ELm8EvEEj
_ZN2nn4lmem6detail16GetHeapTotalSizeEPNS1_8HeapHeadE
_ZNK2nn2sf13SharedPointerINS_5visrv2sf21ISystemDisplayServiceEE19FunctionForBoolTypeEv
_ZN2nn5audio26CreateAudioRendererManagerEb
_ZN2nn2sf4cmif6client6detail13CmifProxyImplINS_4nifm6detail14IStaticServiceENS2_19CmifDomainProxyKindINS0_4hipc6client38Hipc2ClientSessionManagedProxyKindBaseINSA_18Hipc2ProxyKindBaseILNS9_6detail11MessageTypeE6EEEEEEENS0_30MemoryResourceAllocationPolicyES7_NS3_19ProcessModifierImplINS2_21DefaultProxyFilterTagEEEE32_nn_sf_sync_CreateGeneralServiceENS0_3OutINS0_13SharedPointerINS6_15IGeneralServiceEEEvEEm
_ZTVSt18bad_variant_access
FDKrewind
get_phased_graymap
_ZN2nn3hid6system34SetFirmwareHotfixUpdateSkipEnabledEb
nndetailImagePng_png_handle_iTXt
_ZNK2nn3mii6detail11CoreDataRaw11GetNoseTypeEv
_ZN2nn2sf6detail38ObjectImplFactoryWithStatefulAllocatorINS0_4cmif6client6detail9CmifProxyINS_2am7service17IWindowControllerENS4_19CmifDomainProxyKindINS0_4hipc6client38Hipc2ClientSessionManagedProxyKindBaseINSC_18Hipc2ProxyKindBaseILNSB_6detail11MessageTypeE6EEEEEEENS0_30MemoryResourceAllocationPolicyENS5_19ProcessModifierImplINS4_21DefaultProxyFilterTagEEEvEESK_E6Object7ReleaseEv
_ZN2nn5audio30ResampleOutputGetNextFrameSizeEPKNS0_14ResamplerStateEi
_ZNK2nn3mii6detail16Ver3StoreDataRaw11GetPadding2Ev
_ZN2nn9bluetooth18GattCharacteristicC2Ev
nncodecLibopus_silk_stereo_decode_pred
_ZN2nn5codec21qmfSynthesisFilteringEPNS0_15QMF_FILTER_BANKEPPiS4_PKNS0_16QMF_SCALE_FACTOREiPsiS3_
_ZN2nn2fs8OpenFileEPNS0_10FileHandleEPKci
_ZN2nn2fs19RegisterExternalKeyERKNS0_8RightsIdERKNS_3spl9AccessKeyE
_ZN2nn3hid6system6detail15SetButtonConfigERKNS_9hidconfig20ButtonConfigEmbeddedERKNS1_11UniquePadIdE
_ZN2nn2vi6buffer11BufferQueueC1Ev
_ZN2nn2sf4cmif6client6detail13CmifProxyImplINS_7account31IAccountServiceForSystemServiceENS2_19CmifDomainProxyKindINS0_4hipc6client38Hipc2ClientSessionManagedProxyKindBaseINS9_18Hipc2ProxyKindBaseILNS8_6detail11MessageTypeE6EEEEEEENS0_25StatelessAllocationPolicyINS0_22ExpHeapStaticAllocatorILm2048ENS5_6detail12ObjectHolder24ObjectHolderAllocatorTagEEEEENS5_31IAccountServiceForAdministratorENS3_19ProcessModifierImplINS2_21DefaultProxyFilterTagEEEE30_nn_sf_sync_ListQualifiedUsersERKNS0_8OutArrayINS5_3UidEEENS_13ApplicationIdE
_ZTSN2nn2sf4cmif6client6detail9CmifProxyINS_5codec6detail27IHardwareOpusDecoderManagerENS2_19CmifDomainProxyKindINS0_4hipc6client38Hipc2ClientSessionManagedProxyKindBaseINSA_18Hipc2ProxyKindBaseILNS9_6detail11MessageTypeE6EEEEEEENS0_30MemoryResourceAllocationPolicyENS3_19ProcessModifierImplINS2_21DefaultProxyFilterTagEEEvEE
nndetailImagePng_png_write_sCAL_s
nnmem_nlib_printf
_ZN2nn2os33DetachReadableHandleOfSystemEventEPNS0_15SystemEventTypeE
_ZN2nn6socket8resolver10serializer13DNSSerializer8ToBufferIcEElPhmPPT_
_ZN2nn2sf4cmif6client6detail13CmifProxyImplINS_5visrv2sf21ISystemDisplayServiceENS0_4hipc6client18Hipc2ProxyKindBaseILNS8_6detail11MessageTypeE6EEENS0_30MemoryResourceAllocationPolicyES7_NS3_19ProcessModifierImplINS2_21DefaultProxyFilterTagEEEE35_nn_sf_sync_CancelSharedFrameBufferENS_2vi7fbshare17SharedLayerHandleEl
_ZN2nn2sf6detail38ObjectImplFactoryWithStatefulAllocatorINS0_4cmif6client6detail9CmifProxyINS_2am7service11IMovieMakerENS4_19CmifDomainProxyKindINS0_4hipc6client38Hipc2ClientSessionManagedProxyKindBaseINSC_18Hipc2ProxyKindBaseILNSB_6detail11MessageTypeE6EEEEEEENS0_30MemoryResourceAllocationPolicyENS5_19ProcessModifierImplINS4_21DefaultProxyFilterTagEEEvEESK_E6Object12AddReferenceEv
nnutilZlib_zError
_ZTSN2nn2sf6detail38ObjectImplFactoryWithStatefulAllocatorINS0_4cmif6client6detail9CmifProxyINS_3mii6detail16IDatabaseServiceENS4_19CmifDomainProxyKindINS0_4hipc6client38Hipc2ClientSessionManagedProxyKindBaseINSC_18Hipc2ProxyKindBaseILNSB_6detail11MessageTypeE6EEEEEEENS0_30MemoryResourceAllocationPolicyENS5_19ProcessModifierImplINS4_21DefaultProxyFilterTagEEEvEESK_E6ObjectE
_ZTVN2nn2sf6detail38ObjectImplFactoryWithStatefulAllocatorINS0_4cmif6client6detail9CmifProxyINS_3ssl2sf11ISslContextENS4_19CmifDomainProxyKindINS0_4hipc6client38Hipc2ClientSessionManagedProxyKindBaseINSC_18Hipc2ProxyKindBaseILNSB_6detail11MessageTypeE6EEEEEEENS0_24StatefulAllocationPolicyINS0_16ExpHeapAllocatorEEENS5_19ProcessModifierImplINS4_21DefaultProxyFilterTagEEEvEESM_E6ObjectE
NvRmMemCacheListSyncForDevice64
_ZTVN2nn2sf6detail39ObjectImplFactoryWithStatelessAllocatorINS0_4cmif6client6detail9CmifProxyINS_7account4http15IOAuthProcedureENS4_19CmifDomainProxyKindINS0_4hipc6client38Hipc2ClientSessionManagedProxyKindBaseINSC_18Hipc2ProxyKindBaseILNSB_6detail11MessageTypeE6EEEEEEENS0_25StatelessAllocationPolicyINS0_22ExpHeapStaticAllocatorILm2048ENS7_6detail12ObjectHolder24ObjectHolderAllocatorTagEEEEENS5_19ProcessModifierImplINS4_21DefaultProxyFilterTagEEEvEESQ_E6ObjectE
_ZN2nn4util6detail19FileInputStreamImpl4OpenEPKc
__fpurge
_ZN2nn2sf4cmif6client6detail13CmifProxyImplINS_2am7service19IApplicationCreatorENS2_19CmifDomainProxyKindINS0_4hipc6client38Hipc2ClientSessionManagedProxyKindBaseINSA_18Hipc2ProxyKindBaseILNS9_6detail11MessageTypeE6EEEEEEENS0_30MemoryResourceAllocationPolicyES7_NS3_19ProcessModifierImplINS2_21DefaultProxyFilterTagEEEE17GetCmifBaseObjectEv
_ZN2nn6crypto6detail11XtsModeImpl20ProcessBlocksGenericEPhPKhi
_ZNK2nn3hid15KeyCodeComposer14GetDeadKeyModeEv
_ZNSt8bad_castD0Ev
_ZN2nn5audio14GetVoiceVolumeEPKNS0_9VoiceTypeE
silk_LTP_vq_sizes
nndetailImagePng_png_get_sBIT
_ZN2nn2os21SdkRecursiveMutexType6UnlockEv
_ZTVN2nn2fs3dbm22AllocationTableStorageE
NvOsFflush
_ZN2nn5audio6server13CommandBuffer8GenerateINS1_7command8UpsampleEJRiRPNS0_13UpsamplerInfoERKiRA6_KaSB_SB_SB_EEEPNT_3DefEjDpOT0_
_ZTIN2nn2sf6detail38ObjectImplFactoryWithStatefulAllocatorINS0_4cmif6client6detail9CmifProxyINS_6capsrv2sf29IScreenShotApplicationServiceENS0_4hipc6client18Hipc2ProxyKindBaseILNSA_6detail11MessageTypeE6EEENS0_30MemoryResourceAllocationPolicyENS5_19ProcessModifierImplINS4_21DefaultProxyFilterTagEEEvEESG_E6ObjectE
_ZN2nn2sf4cmif6client34CmifDomainProxyClientCoreProcessorINS0_4hipc6client38Hipc2ClientSessionManagedProxyKindBaseINS5_18Hipc2ProxyKindBaseILNS4_6detail11MessageTypeE6EEEEENS1_6detail14CoreMethodInfoINSt3__15tupleIJNSC_18OutRawArgumentInfoILm4ELm4ELl0EEENSG_ILm4ELm4ELl4EEENSC_18BufferArgumentInfoILi0ELi33ELm0EEENSC_17InRawArgumentInfoILm4ELm4ELl0EEEEEELm4ELm8ELb0EEESN_E7ProcessEPNS2_23CmifDomainClientMessageISB_E15ProxyBaseObjectENS2_24OutRawClientArgumentTypeILm4ELm4EEESV_NS2_24BufferClientArgumentTypeENS2_23InRawClientArgumentTypeILm4ELm4EvEEj
_ZN2nn2fs6detail8AllocateEm
_ZNK2nn2fs6detail22LruFileDataCacheSystem14GetPageOfIndexEi
_ZN2nn5audio19ResetAuxI3dl2ReverbEPNS0_18AuxI3dl2ReverbTypeE
_ZN2nn4diag6detail20DefaultAbortObserverERKNS0_9AbortInfoE
_ZN3nne9rapidjson4UTF8IcE8ValidateIN2nn2ec4json29MemoryInputStreamForRapidJsonES7_EEbRT_RT0_
_ZN2nn2sf4cmif6client6detail13CmifProxyImplINS_3hid15IHidDebugServerENS0_4hipc6client18Hipc2ProxyKindBaseILNS7_6detail11MessageTypeE6EEENS0_30MemoryResourceAllocationPolicyES6_NS3_19ProcessModifierImplINS2_21DefaultProxyFilterTagEEEE37_nn_sf_sync_ResetAnalogStickModelDataENS5_6system11UniquePadIdEi
_ZN7android21SurfaceComposerClient7setCropERKNS_2spINS_7IBinderEEERKNS_4RectE
_ZN7android19IGraphicBufferAllocD0Ev
_ZNSt3__18numpunctIcED0Ev
_ZN2nn2sf6detail38ObjectImplFactoryWithStatefulAllocatorINS0_4cmif6client6detail9CmifProxyINS_3mii6detail14IStaticServiceENS4_19CmifDomainProxyKindINS0_4hipc6client38Hipc2ClientSessionManagedProxyKindBaseINSC_18Hipc2ProxyKindBaseILNSB_6detail11MessageTypeE6EEEEEEENS0_30MemoryResourceAllocationPolicyENS5_19ProcessModifierImplINS4_21DefaultProxyFilterTagEEEvEESK_E6Object12AddReferenceEv
_ZN2nn8settings6detail26ResetDebugPadGenericPadMapEv
_ZN2nn5audio18OpenDefaultAudioInEPNS0_7AudioInEPNS_2os11SystemEventERKNS0_16AudioInParameterE
_ZN2nn2sf4cmif6client6detail13CmifProxyImplINS_7friends6detail3ipc14IFriendServiceENS2_19CmifDomainProxyKindINS0_4hipc6client38Hipc2ClientSessionManagedProxyKindBaseINSB_18Hipc2ProxyKindBaseILNSA_6detail11MessageTypeE6EEEEEEENS0_30MemoryResourceAllocationPolicyES8_NS3_19ProcessModifierImplINS2_21DefaultProxyFilterTagEEEE51_nn_sf_sync_GetReceivedFriendInvitationDetailedInfoENS0_3OutINS6_25FriendInvitationGroupImplEvEERKNS_7account3UidENS5_23FriendInvitationGroupIdE
_ZTIN2nn2sf4cmif6client6detail9CmifProxyINS_4nifm6detail15INetworkProfileENS2_19CmifDomainProxyKindINS0_4hipc6client38Hipc2ClientSessionManagedProxyKindBaseINSA_18Hipc2ProxyKindBaseILNS9_6detail11MessageTypeE6EEEEEEENS0_30MemoryResourceAllocationPolicyENS3_19ProcessModifierImplINS2_21DefaultProxyFilterTagEEEvEE
nncryptoAes256CtrDecryptorUpdate
_ZN2nn6crypto6detail19RsaKeyPairGenerator10InitializeEmPvm
BAZOutlineSmooth
_ZN2nn2sf4cmif6client6detail13CmifProxyImplINS_3hid16IHidSystemServerENS0_4hipc6client18Hipc2ProxyKindBaseILNS7_6detail11MessageTypeE6EEENS0_30MemoryResourceAllocationPolicyES6_NS3_19ProcessModifierImplINS2_21DefaultProxyFilterTagEEEE31_nn_sf_sync_StartFirmwareUpdateENS0_3OutINS5_6system26FirmwareUpdateDeviceHandleEvEENSJ_11UniquePadIdE
_ZN2nn8settings6detail38CreateFirmwareDebugSettingsServerProxyEPNS_2sf13SharedPointerINS0_28IFirmwareDebugSettingsServerEEE
_ZNKSt3__16locale4nameEv
_ZNK2nn5audio6server10PoolMapper16GetProcessHandleEPKNS1_14MemoryPoolInfoE
_ZN2nn5codec11OpusDecoderD2Ev
_ZN2nn2sf4cmif6client6detail13CmifProxyImplINS_7friends6detail3ipc14IFriendServiceENS2_19CmifDomainProxyKindINS0_4hipc6client38Hipc2ClientSessionManagedProxyKindBaseINSB_18Hipc2ProxyKindBaseILNSA_6detail11MessageTypeE6EEEEEEENS0_30MemoryResourceAllocationPolicyES8_NS3_19ProcessModifierImplINS2_21DefaultProxyFilterTagEEEE33_nn_sf_sync_AddFacedFriendRequestERKNS_7account3UidERKNS5_33FacedFriendRequestRegistrationKeyERKNSO_8NicknameERKNS0_8InBufferE
_ZN2nn2sf4cmif6client34CmifDomainProxyClientCoreProcessorINS0_4hipc6client38Hipc2ClientSessionManagedProxyKindBaseINS5_18Hipc2ProxyKindBaseILNS4_6detail11MessageTypeE6EEEEENS1_6detail14CoreMethodInfoINSt3__15tupleIJNSC_21OutObjectArgumentInfoILi0ELi0EEENSC_18BufferArgumentInfoILi0ELi25ELm769EEEEEELm0ELm0ELb0EEESK_E21ProcessWithOutObjectsEPNS2_23CmifDomainClientMessageISB_E15ProxyBaseObjectENS2_27OutObjectClientArgumentTypeENS2_24BufferClientArgumentTypeEjPNS0_13SharedPointerINS0_14IServiceObjectEEE
_ZN2nn3ssl10Connection15GetConnectionIdEPm
_ZN2nn4util6TinyMt9SaveStateEPNS1_5StateE
_ZN2nn2vi13ObjectManager13m_DisplayLockE
_ZN2nn2sf13InterfaceInfoINS_5audio6detail14IAudioRendererEE4_tABINS5_5_tO2NINS2_6server24AudioRendererManagerImpl17AudioRendererImplEE4typeES4_E4type33_nn_sf_sync_SetRenderingTimeLimitEi
_ZNK2nn6crypto6detail7AesImplILm16EE11GetRoundKeyEv
_ZN2nn2sf4hipc6client24Hipc2ClientCoreProcessorILNS1_6detail11MessageTypeE6ENS0_4cmif6detail14CoreMethodInfoINSt3__15tupleIJNS7_17InRawArgumentInfoILm1ELm1ELl0EEENS7_18BufferArgumentInfoILi0ELi5ELm0EEENSD_ILi1ELi5ELm0EEENSB_ILm4ELm4ELl4EEENSB_ILm4ELm4ELl8EEEEEELm12ELm0ELb0EEESI_E7ProcessEPNS2_26Hipc2ClientProxyBaseObjectENS6_6client23InRawClientArgumentTypeILm1ELm1EvEENSN_24BufferClientArgumentTypeESQ_NSO_ILm4ELm4EvEESR_j
_ZN2nn2sf4cmif6client6detail13CmifProxyImplINS_7timesrv6detail7service16ITimeZoneServiceENS2_19CmifDomainProxyKindINS0_4hipc6client38Hipc2ClientSessionManagedProxyKindBaseINSB_18Hipc2ProxyKindBaseILNSA_6detail11MessageTypeE6EEEEEEENS0_30MemoryResourceAllocationPolicyES8_NS3_19ProcessModifierImplINS2_21DefaultProxyFilterTagEEEE26_nn_sf_sync_ToCalendarTimeENS0_3OutINS_4time12CalendarTimeEvEENSO_INSP_2sf22CalendarAdditionalInfoEvEENSP_9PosixTimeERKNSP_12TimeZoneRuleE
_ZN2nn2sf4cmif6client6detail13CmifProxyImplINS_5visrv2sf22IManagerDisplayServiceENS0_4hipc6client18Hipc2ProxyKindBaseILNS8_6detail11MessageTypeE6EEENS0_30MemoryResourceAllocationPolicyES7_NS3_19ProcessModifierImplINS2_21DefaultProxyFilterTagEEEE44_nn_sf_sync_AttachSharedLayerToLowLevelLayerENS_2vi7fbshare17SharedLayerHandleEmRKNSK_27SharedLayerTextureIndexListE
_ZN2nn2sf4cmif6client6detail13CmifProxyImplINS_3mii6detail16IDatabaseServiceENS2_19CmifDomainProxyKindINS0_4hipc6client38Hipc2ClientSessionManagedProxyKindBaseINSA_18Hipc2ProxyKindBaseILNS9_6detail11MessageTypeE6EEEEEEENS0_30MemoryResourceAllocationPolicyES7_NS3_19ProcessModifierImplINS2_21DefaultProxyFilterTagEEEE18_nn_sf_sync_ImportERKNS0_8InBufferE
_ZN2nn4nifm23TemporaryNetworkProfileD1Ev
_ZTINSt3__111__money_getIwEE
_ZTVNSt3__15ctypeIwEE
vfwprintf
_ZN2nn7account16GetUserExistenceEPbRKNS0_3UidE
_ZN2nn5audio3dsp13ApplyMixRamp4EPfPKfffi
_ZN2nn2sf4cmif6client34CmifDomainProxyClientCoreProcessorINS0_4hipc6client38Hipc2ClientSessionManagedProxyKindBaseINS5_18Hipc2ProxyKindBaseILNS4_6detail11MessageTypeE6EEEEENS1_6detail14CoreMethodInfoINSt3__15tupleIJNSC_17InRawArgumentInfoILm64ELm8ELl8EEENSG_ILm1ELm1ELl0EEENSC_18BufferArgumentInfoILi0ELi5ELm0EEENSJ_ILi1ELi5ELm0EEEEEELm72ELm0ELb0EEESM_E7ProcessEPNS2_23CmifDomainClientMessageISB_E15ProxyBaseObjectENS2_23InRawClientArgumentTypeILm64ELm8EvEENST_ILm1ELm1EvEENS2_24BufferClientArgumentTypeESW_j
_ZN2nn2sf4cmif6client6detail13CmifProxyImplINS_3hid16IHidSystemServerENS0_4hipc6client18Hipc2ProxyKindBaseILNS7_6detail11MessageTypeE6EEENS0_30MemoryResourceAllocationPolicyES6_NS3_19ProcessModifierImplINS2_21DefaultProxyFilterTagEEEE29_nn_sf_sync_GetPlatformConfigENS0_3OutINS5_6server14PlatformConfigEvEE
_ZNKSt3__115__codecvt_utf16IDsLb1EE11do_encodingEv
fnt_SuperRound
_ZN2nn2fs3fsa11IFileSystem12DoQueryEntryEPcmPKcmNS1_7QueryIdES5_
_Z34__nnmusl_get_descriptor_table_infot
_ZN2nn2sf4cmif6client6detail13CmifProxyImplINS_3hid15IHidDebugServerENS0_4hipc6client18Hipc2ProxyKindBaseILNS7_6detail11MessageTypeE6EEENS0_30MemoryResourceAllocationPolicyES6_NS3_19ProcessModifierImplINS2_21DefaultProxyFilterTagEEEE36_nn_sf_sync_RequestKuinaUartClockCalENS5_6system11UniquePadIdE
_ZNKSt3__117moneypunct_bynameIcLb0EE13do_pos_formatEv
_ZNSt3__115numpunct_bynameIwEC2ERKNS_12basic_stringIcNS_11char_traitsIcEENS_9allocatorIcEEEEm
_ZN2nn2ec6detail31ShowShopSubscriptionDetailsImplENS1_10LaunchModeENS_4util8optionalINS_13ApplicationIdEEERKNS0_8CourseIdENS0_5NsUidERKNS_7account3UidENS0_8SourceIdE
_ZN2nn2fs15RenameDirectoryEPKcS2_
_ZN2nn4util10BitFlagSetILi256ENS_3hid11KeyboardKeyEE4FlagILi138EE4MaskE
nndetailImagePng_png_app_error
_ZN2nn3ngc6detail14ContentsReader13MakeMountPathEPcmNS2_6AcTypeEi
_ZN2nn6socket8resolver10serializer13DNSSerializer10FromBufferINS0_14ResolverOptionEEElPT_mPKhmm
_ZN2nn4util6Base6414ToBase64StringEPcmPKvmNS1_4ModeE
_ZNK2nn4util13StringBuilder3GetEv
_ZN2nn2fs18IsSaveDataExistingEPbRKNS_7account3UidE
_ZN2nn3hid6system6detail15GetButtonConfigEPNS_9hidconfig20ButtonConfigEmbeddedERKNS1_11UniquePadIdE
nndetailImagePng_png_check_fp_number
_ZN2nn3ngc6detail3Sbv16ReleaseAllocatorEv
_ZTSN2nn2os6detail19MultiWaitHolderBaseE
_ZN7android23BnGraphicBufferConsumer17onGetNativeHandleEjRjRb
_ZN2nn2sf13InterfaceInfoINS_5audio6detail14IAudioRendererEE4_tABINS5_5_tO2NINS2_6server24AudioRendererManagerImpl17AudioRendererImplEE4typeES4_E4type28_nn_sf_sync_QuerySystemEventENS0_3OutINS0_12NativeHandleEvEE
_ZN2nn5codec12SineWindow32E
_ZN2nn6crypto6detail7Md5Impl10InitializeEv
_ZN2nn2sf4cmif6client6detail13CmifProxyImplINS_3nim6detail17IShopServiceAsyncENS0_4hipc6client18Hipc2ProxyKindBaseILNS8_6detail11MessageTypeE6EEENS0_30MemoryResourceAllocationPolicyES7_NS3_19ProcessModifierImplINS2_21DefaultProxyFilterTagEEEE12GetProxyInfoEv
nnmem_nlib_log_vprint
_ZNKSt3__18time_getIwNS_19istreambuf_iteratorIwNS_11char_traitsIwEEEEE17__get_weekdaynameERiRS4_S4_RjRKNS_5ctypeIwEE
__nnmusl_chdirIsSet
_ZTVN2nn2sf6detail38ObjectImplFactoryWithStatefulAllocatorINS0_4cmif6client6detail9CmifProxyINS_4bcat6detail3ipc30IDeliveryCacheDirectoryServiceENS4_19CmifDomainProxyKindINS0_4hipc6client38Hipc2ClientSessionManagedProxyKindBaseINSD_18Hipc2ProxyKindBaseILNSC_6detail11MessageTypeE6EEEEEEENS0_30MemoryResourceAllocationPolicyENS5_19ProcessModifierImplINS4_21DefaultProxyFilterTagEEEvEESL_E6ObjectE
nndetailImagePng_png_set_filter
NvRmGpuDeviceGetVoltage
_ZTISt9exception
timegm
NvRmSyncMerge
nnutilZlib_deflateResetKeep
_ZN2nn4pctl26RequestUpdateExemptionListENS_3ncm13ApplicationIdE
_ZN2nn2sf13InterfaceInfoINS0_4hipc6detail12IHipcManagerEE4_tABINS5_5_tO2NINS2_6server2v134HipcServerSessionManagerWithDomain15HipcManagerImplEE4typeES4_E4type32_nn_sf_sync_CloneCurrentObjectExENS0_3OutINS0_12NativeHandleEvEEj
_ZN2nn2ec34AsyncGetConsumableRightDataRequest9BeginImplEii
_ZN2nn2sf4cmif6client6detail13CmifProxyImplINS_2am7service26ILibraryAppletSelfAccessorENS2_19CmifDomainProxyKindINS0_4hipc6client38Hipc2ClientSessionManagedProxyKindBaseINSA_18Hipc2ProxyKindBaseILNS9_6detail11MessageTypeE6EEEEEEENS0_30MemoryResourceAllocationPolicyES7_NS3_19ProcessModifierImplINS2_21DefaultProxyFilterTagEEEE35_nn_sf_sync_GetPopExtraStorageEventENS0_3OutINS0_12NativeHandleEvEE
_ZTSN2nn2am7service18IHomeMenuFunctionsE
_ZN2nn4htcs4BindEiPKNS0_12SockAddrHtcsE
nncodecLibopus_spreading_decision
nnmem_nlib_sleep
_ZN2nn2pl8IsVrModeEv
__cxa_call_unexpected
_ZN2nn2am24SetLibraryAppletResolverEPFvvE
_ZN2nn2sf4cmif6client6detail13CmifProxyImplINS_7friends6detail3ipc14IFriendServiceENS2_19CmifDomainProxyKindINS0_4hipc6client38Hipc2ClientSessionManagedProxyKindBaseINSB_18Hipc2ProxyKindBaseILNSA_6detail11MessageTypeE6EEEEEEENS0_30MemoryResourceAllocationPolicyES8_NS3_19ProcessModifierImplINS2_21DefaultProxyFilterTagEEEE32_nn_sf_sync_SendFriendInvitationERKNS_7account3UidERKNS0_7InArrayINSO_23NetworkServiceAccountIdEEERKNS5_35FriendInvitationGameModeDescriptionERKNS5_15ApplicationInfoERKNS0_8InBufferEb
_ZN2nn2vi20RemoveFromLayerStackEPNS0_5LayerENS0_10LayerStackE
_ZN2nn5audio3dsp20DspExceptionNotifier11AddObserverEPFvPvES3_
_ZTSN2nn2sf4cmif6client6detail13CmifProxyImplINS_4bcat6detail3ipc12IBcatServiceENS2_19CmifDomainProxyKindINS0_4hipc6client38Hipc2ClientSessionManagedProxyKindBaseINSB_18Hipc2ProxyKindBaseILNSA_6detail11MessageTypeE6EEEEEEENS0_30MemoryResourceAllocationPolicyES8_NS3_19ProcessModifierImplINS2_21DefaultProxyFilterTagEEEEE
_ZN2nn2sf4cmif6client6detail13CmifProxyImplINS_6capsrv2sf32IAlbumAccessorApplicationSessionENS0_4hipc6client18Hipc2ProxyKindBaseILNS8_6detail11MessageTypeE6EEENS0_30MemoryResourceAllocationPolicyES7_NS3_19ProcessModifierImplINS2_21DefaultProxyFilterTagEEEE47_nn_sf_sync_GetAlbumMovieReadStreamBrokenReasonEm
_ZN2nn3hid6detail24SetSupportedNpadStyleSetENS_4util10BitFlagSetILi32ENS0_12NpadStyleTagEEE
_ZN2nn8settings6system28GetHeadphoneVolumeUpdateFlagEv
_ZN2nn2sf4cmif6client34CmifDomainProxyClientCoreProcessorINS0_4hipc6client38Hipc2ClientSessionManagedProxyKindBaseINS5_18Hipc2ProxyKindBaseILNS4_6detail11MessageTypeE6EEEEENS1_6detail14CoreMethodInfoINSt3__15tupleIJNSC_18BufferArgumentInfoILi0ELi25ELm16EEENSC_17InRawArgumentInfoILm8ELm8ELl0EEEEEELm8ELm0ELb1EEESK_E7ProcessEPNS2_23CmifDomainClientMessageISB_E15ProxyBaseObjectENS2_24BufferClientArgumentTypeENS2_23InRawClientArgumentTypeILm8ELm8EvEEj
_ZN2nn3mii18GetMouthGreenColorENS0_11CommonColorENS0_9GammaTypeE
_ZN2nn2sf4cmif6client6detail13CmifProxyImplINS_4pctl6detail3ipc23IParentalControlServiceENS2_19CmifDomainProxyKindINS0_4hipc6client38Hipc2ClientSessionManagedProxyKindBaseINSB_18Hipc2ProxyKindBaseILNSA_6detail11MessageTypeE6EEEEEEENS0_30MemoryResourceAllocationPolicyES8_NS3_19ProcessModifierImplINS2_21DefaultProxyFilterTagEEEE32_nn_sf_sync_CancelNetworkRequestEv
_ZN2nn2sf4cmif6client6detail13CmifProxyImplINS_7account4baas24IManagerForSystemServiceENS2_19CmifDomainProxyKindINS0_4hipc6client38Hipc2ClientSessionManagedProxyKindBaseINSA_18Hipc2ProxyKindBaseILNS9_6detail11MessageTypeE6EEEEEEENS0_25StatelessAllocationPolicyINS0_22ExpHeapStaticAllocatorILm2048ENS5_6detail12ObjectHolder24ObjectHolderAllocatorTagEEEEENS6_14IAdministratorENS3_19ProcessModifierImplINS2_21DefaultProxyFilterTagEEEE56_nn_sf_sync_GetServiceEntryRequirementCacheForOnlinePlayENS0_3OutIjvEENS_13ApplicationIdE
_ZN2nn2ec39ShowShopApplicationInformationForAppletENS_3ncm13ApplicationIdE
_ZN2nn2fs40SaveDataTransferManagerForSaveDataRepair20OpenSaveDataImporterEPNSt3__110unique_ptrINS0_25ISaveDataDivisionImporterENS2_14default_deleteIS4_EEEERKNS0_19InitialDataVersion2ERKNS_7account3UidENS0_15SaveDataSpaceIdE
_ZN2nn4nifm6detail13RequestClient6CancelEv
iswxdigit_l
_ZN2nn2sf6detail38ObjectImplFactoryWithStatefulAllocatorINS0_13InterfaceInfoINS_5audio6detail14IAudioRendererEE4_tABINS7_5_tO2NINS4_6server24AudioRendererManagerImpl17AudioRendererImplEE4typeES6_E4typeENS0_24StatefulAllocationPolicyINS0_16ExpHeapAllocatorEEEE6Object12AddReferenceEv
do_hints
_ZN2nn3hid6system6detail13DeactivateNfcERjNS_6applet20AppletResourceUserIdE
_ZN2nn2sf4cmif6client6detail13CmifProxyImplINS_3hid16IHidSystemServerENS0_4hipc6client18Hipc2ProxyKindBaseILNS7_6detail11MessageTypeE6EEENS0_30MemoryResourceAllocationPolicyES6_NS3_19ProcessModifierImplINS2_21DefaultProxyFilterTagEEEE28_nn_sf_sync_GetUniquePadTypeENS0_3OutIlvEENS5_6system11UniquePadIdE
NvOsFremove
_ZN2nn5album12LibraryState20EnsureAlbumAvailableEv
_ZN2nn5codec13quantizedIIDsE
_ZN2nn3mii6detail16Ver3StoreDataRaw11SetBirthDayEi
_ZN2nn2sf4cmif6client6detail13CmifProxyImplINS_3mii6detail14IStaticServiceENS2_19CmifDomainProxyKindINS0_4hipc6client38Hipc2ClientSessionManagedProxyKindBaseINSA_18Hipc2ProxyKindBaseILNS9_6detail11MessageTypeE6EEEEEEENS0_30MemoryResourceAllocationPolicyES7_NS3_19ProcessModifierImplINS2_21DefaultProxyFilterTagEEEE17GetCmifBaseObjectEv
_ZN2nn5audio6server22PerformanceManagerImplINS1_33PerformanceManagerImplVersion2TagENS0_6common30PerformanceFrameHeaderVersion2ENS4_24PerformanceEntryVersion2ENS4_25PerformanceDetailVersion2ENS0_20PerformanceSysDetailEE15SetDetailTargetEj
_ZN2nn3hid6detail43IsUsbFullKeyControllerEnabledForApplicationEPb
_ZN22nerd_gillette_internal5otete7jaimev219DecodeSilhouetteROKEPNS0_11OteteFloat2ERmmPKhmPm
nndetailDiagAbortFormatImpl
_ZTSNSt3__114codecvt_bynameIwc11__mbstate_tEE
_ZN2nn7account49ExternalNetworkServiceAccountIntroducingProcedureC2EOS1_
_ZN2nn2sf4cmif6client6detail13CmifProxyImplINS_2am7service15IDebugFunctionsENS2_19CmifDomainProxyKindINS0_4hipc6client38Hipc2ClientSessionManagedProxyKindBaseINSA_18Hipc2ProxyKindBaseILNS9_6detail11MessageTypeE6EEEEEEENS0_30MemoryResourceAllocationPolicyES7_NS3_19ProcessModifierImplINS2_21DefaultProxyFilterTagEEEE63_nn_sf_sync_RequestLaunchApplicationWithUserAndArgumentForDebugENS_3ncm13ApplicationIdERKNS0_7InArrayINS_7account3UidEEEbRKNS0_8InBufferE
_ZN2nn2fs16SaveDataIteratorC1EONS_2sf13SharedPointerINS_5fssrv2sf19ISaveDataInfoReaderEEE
_ZN2nn2oe33PerformCaptureButtonShortPressingEv
__ldexp_cexp
_ZTSN2nn2sf6detail38ObjectImplFactoryWithStatefulAllocatorINS0_4cmif6client6detail9CmifProxyINS_2am7service8IStorageENS4_19CmifDomainProxyKindINS0_4hipc6client38Hipc2ClientSessionManagedProxyKindBaseINSC_18Hipc2ProxyKindBaseILNSB_6detail11MessageTypeE6EEEEEEENS0_30MemoryResourceAllocationPolicyENS5_19ProcessModifierImplINS4_21DefaultProxyFilterTagEEEvEESK_E6ObjectE
swscanf
_ZN2nn5album23LoadAlbumThumbnailImageEPiS1_PNS0_18AlbumFileAttributeEPmPvmS5_mS5_mRKNS0_14AlbumFileEntryE
interpolatingFilter
_ZN2nn2sf4cmif6client6detail13CmifProxyImplINS_3hid10IHidServerENS0_4hipc6client18Hipc2ProxyKindBaseILNS7_6detail11MessageTypeE6EEENS0_30MemoryResourceAllocationPolicyES6_NS3_19ProcessModifierImplINS2_21DefaultProxyFilterTagEEEE36_nn_sf_sync_GetSupportedNpadStyleSetENS_6applet20AppletResourceUserIdENS0_3OutINS_4util10BitFlagSetILi32ENS5_12NpadStyleTagEEEvEE
_ZNK2nn4nifm6detail13RequestClient14GetRequirementEPNS0_11RequirementE
_ZN2nn3web6detail14WebSessionImpl30SendSystemMessageGroupCountMaxE
_ZN2nn2os17SignalSystemEventEPNS0_15SystemEventTypeE
_ZN22nerd_gillette_internal5otete11ImageCodec213DecodeInPlaceItEEbRKNS_15StaticImageViewIT_EERNS0_14InputBitStreamEf
_ZN2nn2sf4cmif6client6detail13CmifProxyImplINS_4npns9INpnsUserENS0_4hipc6client18Hipc2ProxyKindBaseILNS7_6detail11MessageTypeE6EEENS0_30MemoryResourceAllocationPolicyENS5_11INpnsSystemENS3_19ProcessModifierImplINS2_21DefaultProxyFilterTagEEEE23_nn_sf_sync_CreateTokenENS0_3OutINS5_17NotificationTokenEvEERKNS_7account3UidEm
_ZN2nn2sf4cmif6client6detail13CmifProxyImplINS_7account4http15IOAuthProcedureENS2_19CmifDomainProxyKindINS0_4hipc6client38Hipc2ClientSessionManagedProxyKindBaseINSA_18Hipc2ProxyKindBaseILNS9_6detail11MessageTypeE6EEEEEEENS0_25StatelessAllocationPolicyINS0_22ExpHeapStaticAllocatorILm2048ENS5_6detail12ObjectHolder24ObjectHolderAllocatorTagEEEEES7_NS3_19ProcessModifierImplINS2_21DefaultProxyFilterTagEEEE25_nn_sf_sync_ApplyResponseERKNS0_7InArrayIcEE
_ZN2nn5codec21HcrMuteErroneousLinesEPNS0_10CErHcrInfoE
_ZN2nn8settings6system41SetButtonConfigRegisteredSettingsEmbeddedERKNS1_30ButtonConfigRegisteredSettingsE
_ZTIN2nn2sf4cmif6server17CmifServerMessageE
_ZN7android13GraphicBuffer14lockAsyncYCbCrEjRKNS_4RectEP13android_ycbcri
wctype_l
sqrt
_ZN2nn2sf4cmif6client6detail13CmifProxyImplINS_3hid15IHidDebugServerENS0_4hipc6client18Hipc2ProxyKindBaseILNS7_6detail11MessageTypeE6EEENS0_30MemoryResourceAllocationPolicyES6_NS3_19ProcessModifierImplINS2_21DefaultProxyFilterTagEEEE21_nn_sf_sync_GetWhoAmIENS0_3OutINS5_5debug11WhoAmIValueEvEENS_6applet20AppletResourceUserIdE
_ZN2nn5audio17MemoryPoolManagerC2EPNS0_14MemoryPoolInfoEiPvm
_ZTSN2nn2sf6detail38ObjectImplFactoryWithStatefulAllocatorINS0_4cmif6client6detail9CmifProxyINS_7friends6detail3ipc20INotificationServiceENS4_19CmifDomainProxyKindINS0_4hipc6client38Hipc2ClientSessionManagedProxyKindBaseINSD_18Hipc2ProxyKindBaseILNSC_6detail11MessageTypeE6EEEEEEENS0_30MemoryResourceAllocationPolicyENS5_19ProcessModifierImplINS4_21DefaultProxyFilterTagEEEvEESL_E6ObjectE
_ZN2nn3hid6detail22GetNpadControllerColorEPNS0_19NpadControllerColorERKj
_ZTCN7android17BnSurfaceComposerE0_NS_11BnInterfaceINS_16ISurfaceComposerEEE
_ZNK7android7String811getBasePathEv
_ZNKSt3__115basic_streambufIcNS_11char_traitsIcEEE6getlocEv
_ZN2nn7account13ProfileEditorC1EOS1_
_ZN2nn2sf4cmif6client6detail13CmifProxyImplINS_4bcat6detail3ipc16INotifierServiceENS2_19CmifDomainProxyKindINS0_4hipc6client38Hipc2ClientSessionManagedProxyKindBaseINSB_18Hipc2ProxyKindBaseILNSA_6detail11MessageTypeE6EEEEEEENS0_30MemoryResourceAllocationPolicyES8_NS3_19ProcessModifierImplINS2_21DefaultProxyFilterTagEEEE17GetCmifBaseObjectEv
_ZN2nn9bluetooth16GetBleScanResultEPNS0_13BleScanResultEi
_ZTSN2nn2fs10SubStorageE
_ZTSN2nn2sf4cmif6client6detail9CmifProxyINS_4nifm6detail15INetworkProfileENS2_19CmifDomainProxyKindINS0_4hipc6client38Hipc2ClientSessionManagedProxyKindBaseINSA_18Hipc2ProxyKindBaseILNS9_6detail11MessageTypeE6EEEEEEENS0_30MemoryResourceAllocationPolicyENS3_19ProcessModifierImplINS2_21DefaultProxyFilterTagEEEvEE
_ZNK2nn5audio3dsp20CommandListProcessor24GetProcessedCommandCountEv
nndetailImagePng_png_set_strip_16
_ZN2nn2sf4cmif6client6detail13CmifProxyImplINS_3ngc1t6detail8IServiceENS0_4hipc6client18Hipc2ProxyKindBaseILNS9_6detail11MessageTypeE6EEENS0_30MemoryResourceAllocationPolicyES8_NS3_19ProcessModifierImplINS2_21DefaultProxyFilterTagEEEE17_nn_sf_sync_MatchENS0_3OutIbvEERKNS0_7InArrayIcEE
nnsslConnectionSetIoMode
_ZN2nn4time23StandardUserSystemClock9to_time_tERKNSt3__16chrono10time_pointINS0_17SystemClockTraitsENS3_8durationIlNS2_5ratioILl1ELl1EEEEEEE
_ZN2nn7account28NetworkServiceAccountManager29RefreshNotificationTokenAsyncEPNS0_12AsyncContextE
_ZThn8_N2nn2fs4save17SaveDataDirectory12NotifyDeleteElb
_ZN2nn2lm6detail24LogPacketTransmitterBaseC2EPvmPFbPKhmEhhmbb
_ZN2nn2sf4cmif6client34CmifDomainProxyClientCoreProcessorINS0_4hipc6client38Hipc2ClientSessionManagedProxyKindBaseINS5_18Hipc2ProxyKindBaseILNS4_6detail11MessageTypeE6EEEEENS1_6detail14CoreMethodInfoINSt3__15tupleIJNSC_18BufferArgumentInfoILi0ELi21ELm64EEENSG_ILi1ELi5ELm0EEEEEELm0ELm0ELb0EEESJ_E7ProcessEPNS2_23CmifDomainClientMessageISB_E15ProxyBaseObjectENS2_24BufferClientArgumentTypeESQ_j
_ZN2nn2sf4hipc6client24Hipc2ClientCoreProcessorILNS1_6detail11MessageTypeE6ENS0_4cmif6detail14CoreMethodInfoINSt3__15tupleIJNS7_18OutRawArgumentInfoILm12ELm4ELl0EEENS7_17InRawArgumentInfoILm8ELm8ELl0EEEEEELm8ELm12ELb0EEESF_E7ProcessEPNS2_26Hipc2ClientProxyBaseObjectENS6_6client24OutRawClientArgumentTypeILm12ELm4EEENSK_23InRawClientArgumentTypeILm8ELm8EvEEj
nnmem_nlib_semaphore_post
_ZTv0_n24_N7android7BBinderD0Ev
_ZN2nn3hid22StopSevenSixAxisSensorEv
_ZN2nn6hidbus6detail20ClientResourceHolderC2Ev
_ZN7android6Parcel12writeCStringEPKc
_ZN7android5Fence4waitEj
_ZTSSt12length_error
_ZN2nn2sf4hipc6client24Hipc2ClientCoreProcessorILNS1_6detail11MessageTypeE6ENS0_4cmif6detail14CoreMethodInfoINSt3__15tupleIJNS7_17InRawArgumentInfoILm4ELm4ELl0EEENSB_ILm4ELm4ELl4EEEEEELm8ELm0ELb0EEESE_E7ProcessEPNS2_26Hipc2ClientProxyBaseObjectENS6_6client23InRawClientArgumentTypeILm4ELm4EvEESL_j
_ZN2nn5codec9CTns_ReadEPNS0_13FDK_BITSTREAMEPNS0_8CTnsDataEPKNS0_8CIcsInfoEj
_ZN2nn2fs6detail18FileSystemAccessorC2EPKcPNS0_3fsa18IMultiCommitTargetEONSt3__110unique_ptrINS5_11IFileSystemENS8_14default_deleteISA_EEEEONS9_INS5_25ICommonMountNameGeneratorENSB_ISF_EEEEONS9_INS5_24ISaveDataAttributeGetterENSB_ISJ_EEEE
_ZN2nn5image11JpegDecoder11GetExifDataEPPKvPmS3_m
nndetailImagePng_png_icc_check_header
_ZN2nn8irsensor6detail15IrSensorSession17DeactivateServiceEv
_ZN2nn2sf4hipc6client24Hipc2ClientCoreProcessorILNS1_6detail11MessageTypeE6ENS0_4cmif6detail14CoreMethodInfoINSt3__15tupleIJNS7_18OutRawArgumentInfoILm4ELm4ELl0EEENS7_17InRawArgumentInfoILm1ELm1ELl0EEENSD_ILm1ELm1ELl1EEENSD_ILm1ELm1ELl2EEENSD_ILm22ELm2ELl36EEENSD_ILm16ELm1ELl3EEENSD_ILm16ELm1ELl19EEENS7_18BufferArgumentInfoILi0ELi5ELm0EEENSK_ILi1ELi5ELm0EEEEEELm58ELm4ELb0EEESN_E7ProcessEPNS2_26Hipc2ClientProxyBaseObjectENS6_6client24OutRawClientArgumentTypeILm4ELm4EEENSS_23InRawClientArgumentTypeILm1ELm1EvEESW_SW_NSV_ILm22ELm2EvEENSV_ILm16ELm1EvEESY_NSS_24BufferClientArgumentTypeESZ_j
_ZN2nn5codec32transportDec_RegisterSbrCallbackEPNS0_12TRANSPORTDECEPFiPvPNS0_13FDK_BITSTREAMEiii17AUDIO_OBJECT_TYPE14MP4_ELEMENT_IDiES3_
_ZN2nn6crypto6detail7Md5Impl7GetHashEPvm
NvRmSyncCreateFromSemaphores
_ZNSt3__114__shared_count16__release_sharedEv
_ZNSt3__111regex_errorC1ENS_15regex_constants10error_typeE
_ZN2nn4bcat6detail17ShimLibraryGlobal36DecrementDeliveryCacheDirectoryCountEv
FDK_pushBack
_ZN2nn3ngc1t5MatchEPKcm
_ZN2nn2sf4hipc6server6detail29HipcAllInOneServerManagerBase29ProcessInvokeRequestWithDeferEPNS_2os19MultiWaitHolderTypeE
_ZTSN2nn2sf4cmif6client6detail13CmifProxyImplINS_3ssl2sf11ISslServiceENS2_19CmifDomainProxyKindINS0_4hipc6client38Hipc2ClientSessionManagedProxyKindBaseINSA_18Hipc2ProxyKindBaseILNS9_6detail11MessageTypeE6EEEEEEENS0_24StatefulAllocationPolicyINS0_16ExpHeapAllocatorEEES7_NS3_19ProcessModifierImplINS2_21DefaultProxyFilterTagEEEEE
_ZN2nn2sf4cmif6client6detail13CmifProxyImplINS_7friends6detail3ipc14IFriendServiceENS2_19CmifDomainProxyKindINS0_4hipc6client38Hipc2ClientSessionManagedProxyKindBaseINSB_18Hipc2ProxyKindBaseILNSA_6detail11MessageTypeE6EEEEEEENS0_30MemoryResourceAllocationPolicyES8_NS3_19ProcessModifierImplINS2_21DefaultProxyFilterTagEEEE41_nn_sf_sync_GetExternalApplicationCatalogENS0_3OutINS5_26ExternalApplicationCatalogEvEERKNS5_28ExternalApplicationCatalogIdENS_8settings12LanguageCodeE
_ZN2nn2fs15RomFsFileSystem18DoGetFreeSpaceSizeEPlPKc
_ZN2nn3hid13VibrationNode14DisconnectFromEPS1_
_ZN2nn3hid6system21GetUniquePadButtonSetERKNS1_11UniquePadIdE
_ZN2nn2fs6detail9RomFsFile26ConvertToApplicationResultENS_6ResultE
_ZN2nn2sf4cmif6client6detail13CmifProxyImplINS_5prepo6detail3ipc13IPrepoServiceENS2_19CmifDomainProxyKindINS0_4hipc6client38Hipc2ClientSessionManagedProxyKindBaseINSB_18Hipc2ProxyKindBaseILNSA_6detail11MessageTypeE6EEEEEEENS0_30MemoryResourceAllocationPolicyES8_NS3_19ProcessModifierImplINS2_21DefaultProxyFilterTagEEEE24_nn_sf_sync_ClearStorageEv
_ZN2nn4util16IntrusiveDicNode11InsertChildEPPS1_PiRKNS0_17basic_string_viewIcNSt3__111char_traitsIcEEEE
_ZNSt3__115future_categoryEv
_ZN2nn8settings6system17SetDeviceNickNameERKNS1_14DeviceNickNameE
_ZN2nn4util16BinaryFileHeader16SetByteOrderMarkENS0_13ByteOrderMarkE
NvRmGpuRegOpsSessionLazyAllocReservedPa
_ZN2nn3aoc17CountAddOnContentEv
_ZNK2nn5audio6common10NodeStates12GetNodeCountEv
_ZN2nn2sf4cmif6client6detail13CmifProxyImplINS_7account4baas18IGuestLoginRequestENS2_19CmifDomainProxyKindINS0_4hipc6client38Hipc2ClientSessionManagedProxyKindBaseINSA_18Hipc2ProxyKindBaseILNS9_6detail11MessageTypeE6EEEEEEENS0_25StatelessAllocationPolicyINS0_22ExpHeapStaticAllocatorILm2048ENS5_6detail12ObjectHolder24ObjectHolderAllocatorTagEEEEENS6_28IFloatingRegistrationRequestENS3_19ProcessModifierImplINS2_21DefaultProxyFilterTagEEEE38_nn_sf_sync_GetLinkedNintendoAccountIdENS0_3OutINS5_17NintendoAccountIdEvEE
_ZN2nn2sf4cmif6client6detail13CmifProxyImplINS_7account7profile8IProfileENS2_19CmifDomainProxyKindINS0_4hipc6client38Hipc2ClientSessionManagedProxyKindBaseINSA_18Hipc2ProxyKindBaseILNS9_6detail11MessageTypeE6EEEEEEENS0_25StatelessAllocationPolicyINS0_22ExpHeapStaticAllocatorILm2048ENS5_6detail12ObjectHolder24ObjectHolderAllocatorTagEEEEES7_NS3_19ProcessModifierImplINS2_21DefaultProxyFilterTagEEEE19_nn_sf_sync_GetBaseENS0_3OutINS6_11ProfileBaseEvEE
nncodecLibopus_clt_mdct_backward_c
_ZN2nn5codec23CBlock_ReadSpectralDataEPNS0_13FDK_BITSTREAMEPNS0_22CAacDecoderChannelInfoEPKNS0_16SamplingRateInfoEj
_ZN2nn2sf4cmif6client34CmifDomainProxyClientCoreProcessorINS0_4hipc6client38Hipc2ClientSessionManagedProxyKindBaseINS5_18Hipc2ProxyKindBaseILNS4_6detail11MessageTypeE6EEEEENS1_6detail14CoreMethodInfoINSt3__15tupleIJNSC_18BufferArgumentInfoILi0ELi6ELm0EEENSC_17InRawArgumentInfoILm8ELm8ELl0EEEEEELm8ELm0ELb0EEESK_E7ProcessEPNS2_23CmifDomainClientMessageISB_E15ProxyBaseObjectENS2_24BufferClientArgumentTypeENS2_23InRawClientArgumentTypeILm8ELm8EvEEj
nnosInitializeMutex
_ZN2nn3web22ShowOfflineHtmlPageArgC2ERKNS_13ApplicationIdEPKc
_ZN7android10VectorImplD1Ev
_ZNKSt3__110moneypunctIwLb0EE14do_curr_symbolEv
_ZN2nn2ec19ShopServiceAccessor10InitializeERKNS0_11ShopServiceE
_ZN2nn6fontll6detail10ReadClass1EPiPNS0_15OtfKerningTableEPKvtttttt
_ZN2nn2sf4cmif6client6detail13CmifProxyImplINS_3mii6detail16IDatabaseServiceENS2_19CmifDomainProxyKindINS0_4hipc6client38Hipc2ClientSessionManagedProxyKindBaseINSA_18Hipc2ProxyKindBaseILNS9_6detail11MessageTypeE6EEEEEEENS0_30MemoryResourceAllocationPolicyES7_NS3_19ProcessModifierImplINS2_21DefaultProxyFilterTagEEEE23_nn_sf_sync_BuildRandomENS0_3OutINS5_8CharInfoEvEEiii
_ZN2nn3nfp6client27RequiredMcuVersionDataCountE
_ZN2nn4npns10InitializeEv
_ZNSt3__117__assoc_sub_state12__make_readyEv
_ZN2nn2sf4cmif6client6detail13CmifProxyImplINS_7account4baas14IAdministratorENS2_19CmifDomainProxyKindINS0_4hipc6client38Hipc2ClientSessionManagedProxyKindBaseINSA_18Hipc2ProxyKindBaseILNS9_6detail11MessageTypeE6EEEEEEENS0_25StatelessAllocationPolicyINS0_22ExpHeapStaticAllocatorILm2048ENS5_6detail12ObjectHolder24ObjectHolderAllocatorTagEEEEES7_NS3_19ProcessModifierImplINS2_21DefaultProxyFilterTagEEEE52_nn_sf_sync_CreateProcedureToLinkWithNintendoAccountENS0_3OutINS0_13SharedPointerINS5_3nas40IOAuthProcedureForNintendoAccountLinkageEEEvEE
FDK_InitBitBuffer
_ZN2nn7friends6detail15CheckUserStatusERKNS_7account3UidE
_ZNK2nn3hid6server8RingLifoINS0_16TouchScreenStateILm16EEELi16ENS1_29TouchScreenStateAtomicStorageEE8ReadImplINS3_ILm7EEEEEiPT_i
_ZN2nn5album12LibraryStateC2Ev
_ZTIN2nn9bluetooth14GattDescriptorE
_ZN2nn2sf4cmif6client34CmifDomainProxyClientCoreProcessorINS0_4hipc6client38Hipc2ClientSessionManagedProxyKindBaseINS5_18Hipc2ProxyKindBaseILNS4_6detail11MessageTypeE6EEEEENS1_6detail14CoreMethodInfoINSt3__15tupleIJNSC_17InRawArgumentInfoILm16ELm8ELl104EEENSG_ILm64ELm1ELl0EEENSG_ILm33ELm1ELl64EEENSC_18BufferArgumentInfoILi0ELi5ELm0EEEEEELm120ELm0ELb0EEESM_E7ProcessEPNS2_23CmifDomainClientMessageISB_E15ProxyBaseObjectENS2_23InRawClientArgumentTypeILm16ELm8EvEENST_ILm64ELm1EvEENST_ILm33ELm1EvEENS2_24BufferClientArgumentTypeEj
_ZN2nn5image6detail4jpeg22jinit_c_master_controlEPNS2_20jpeg_compress_structEb
_ZN2nn8irsensor48GetHandAnalysisSilhouetteStateWithFullFrameShapeEPNS0_45HandAnalysisSilhouetteStateWithFullFrameShapeEPiilRKNS0_14IrCameraHandleE
_ZN2nn3mii6detail26ImageServiceProviderClient36GetImageDatabaseServiceSharedPointerEPNS_2sf13SharedPointerINS1_21IImageDatabaseServiceEEE
_ZN2nn2sf4cmif6client6detail13CmifProxyImplINS_3hid10IHidServerENS0_4hipc6client18Hipc2ProxyKindBaseILNS7_6detail11MessageTypeE6EEENS0_30MemoryResourceAllocationPolicyES6_NS3_19ProcessModifierImplINS2_21DefaultProxyFilterTagEEEE33_nn_sf_sync_ActivateSixAxisSensorENS5_11BasicXpadIdE
_ZN2nn3mii6detail16Ver3StoreDataRaw14SetCreatorNameERKNS0_8NicknameE
_ZN2nn2sf4cmif6client6detail13CmifProxyImplINS_12notification6server27INotificationServicesCommonENS2_19CmifDomainProxyKindINS0_4hipc6client38Hipc2ClientSessionManagedProxyKindBaseINSA_18Hipc2ProxyKindBaseILNS9_6detail11MessageTypeE6EEEEEEENS0_30MemoryResourceAllocationPolicyENS6_35INotificationServicesForApplicationENS3_19ProcessModifierImplINS2_21DefaultProxyFilterTagEEEE30_nn_sf_sync_UpdateAlarmSettingERKNS5_12AlarmSettingERKNS0_8InBufferE
_ZNSt3__113basic_ostreamIcNS_11char_traitsIcEEE5seekpExNS_8ios_base7seekdirE
strlcat
_ZN2nn5audio12SplitterInfo18GetInParameterSizeEi
_ZN2nn6crypto6detail6BigNum6ModInvEPKS2_S4_PNS2_14DigitAllocatorE
_ZN2nn2sf6detail38ObjectImplFactoryWithStatefulAllocatorINS0_13InterfaceInfoINS_5audio6detail14IAudioRendererEE4_tABINS7_5_tO2NINS4_6server24AudioRendererManagerImpl17AudioRendererImplEE4typeES6_E4typeENS0_24StatefulAllocationPolicyINS0_16ExpHeapAllocatorEEEE6Object7ReleaseEv
_ZN2nn2sf4cmif6client6detail13CmifProxyImplINS_8irsensor15IIrSensorServerENS0_4hipc6client18Hipc2ProxyKindBaseILNS7_6detail11MessageTypeE6EEENS0_25StatelessAllocationPolicyINS0_22ExpHeapStaticAllocatorILm16384ENS5_6detail14IrSensorServerEEEEES6_NS3_19ProcessModifierImplINS2_21DefaultProxyFilterTagEEEE34_nn_sf_sync_RunTeraPluginProcessorENS_6applet20AppletResourceUserIdENS5_14IrCameraHandleENS5_31PackedTeraPluginProcessorConfigE
_ZN2nn2sf4cmif6client6detail13CmifProxyImplINS_3nsd6detail8IManagerENS0_4hipc6client18Hipc2ProxyKindBaseILNS8_6detail11MessageTypeE6EEENS0_30MemoryResourceAllocationPolicyES7_NS3_19ProcessModifierImplINS2_21DefaultProxyFilterTagEEEE47_nn_sf_sync_GetApplicationServerEnvironmentTypeENS0_3OutIhvEE
_ZN2nn3hid6system6detail36IsHandheldButtonPressedOnConsoleModeEPb
_ZN2nn2sf4hipc6client24Hipc2ClientCoreProcessorILNS1_6detail11MessageTypeE6ENS0_4cmif6detail14CoreMethodInfoINSt3__15tupleIJNS7_17InRawArgumentInfoILm128ELm8ELl8EEENSB_ILm4ELm4ELl0EEEEEELm136ELm0ELb0EEESE_E7ProcessEPNS2_26Hipc2ClientProxyBaseObjectENS6_6client23InRawClientArgumentTypeILm128ELm8EvEENSK_ILm4ELm4EvEEj
_ZN2nn2sm17UnregisterServiceEPKcm
sinhf
_ZN2nn5album24MovieMakerMovieParameter15GetDefaultValueEv
_ZTIN2nn2sf4cmif6client6detail9CmifProxyINS_6capsrv2sf29IScreenShotApplicationServiceENS0_4hipc6client18Hipc2ProxyKindBaseILNS8_6detail11MessageTypeE6EEENS0_30MemoryResourceAllocationPolicyENS3_19ProcessModifierImplINS2_21DefaultProxyFilterTagEEEvEE
_ZN2nn3hid6detail17GetDigitizerStateEPNS0_14DigitizerStateE
_ZN2nn3ngc6detail11CalcSelect1EjjPKjS3_PKh
_ZN7android8Composer19getLayerStateLockedERKNS_2spINS_21SurfaceComposerClientEEERKNS1_INS_7IBinderEEE
_ZN2nn2sf4cmif6client6detail13CmifProxyImplINS_6grcsrv11IMovieMakerENS2_19CmifDomainProxyKindINS0_4hipc6client38Hipc2ClientSessionManagedProxyKindBaseINS9_18Hipc2ProxyKindBaseILNS8_6detail11MessageTypeE6EEEEEEENS0_30MemoryResourceAllocationPolicyES6_NS3_19ProcessModifierImplINS2_21DefaultProxyFilterTagEEEE34_nn_sf_sync_GetOffscreenLayerErrorEm
_ZN2nn5audio6server38CommandProcessingTimeEstimatorVersion18EstimateERKNS0_30AdpcmDataSourceCommandVersion1E
_ZN2nn5audio3dsp7MailBox8FinalizeEv
_ZN2nn3hid6system25DisableNpadSystemExtStateEv
_ZdaPv
__nnmusl_call_tls_dtors_for_module
_ZNKSt3__18time_getIwNS_19istreambuf_iteratorIwNS_11char_traitsIwEEEEE12__get_minuteERiRS4_S4_RjRKNS_5ctypeIwEE
_ZN2nn2sf4cmif6client6detail13CmifProxyImplINS_4bcat6detail3ipc12IBcatServiceENS2_19CmifDomainProxyKindINS0_4hipc6client38Hipc2ClientSessionManagedProxyKindBaseINSB_18Hipc2ProxyKindBaseILNSA_6detail11MessageTypeE6EEEEEEENS0_30MemoryResourceAllocationPolicyES8_NS3_19ProcessModifierImplINS2_21DefaultProxyFilterTagEEEE25_nn_sf_sync_SetPassphraseENS_13ApplicationIdERKNS0_7InArrayIcEE
_ZN2nn2sf4cmif6client6detail13CmifProxyImplINS_3hid16IHidSystemServerENS0_4hipc6client18Hipc2ProxyKindBaseILNS7_6detail11MessageTypeE6EEENS0_30MemoryResourceAllocationPolicyES6_NS3_19ProcessModifierImplINS2_21DefaultProxyFilterTagEEEE43_nn_sf_sync_GetXcdHandleForNpadWithIrSensorEjNS0_3OutINS_3xcd12DeviceHandleEvEENS_6applet20AppletResourceUserIdE
_ZN2nn2sf6detail38ObjectImplFactoryWithStatefulAllocatorINS0_4cmif6client6detail9CmifProxyINS_4bcat6detail3ipc28IDeliveryCacheStorageServiceENS4_19CmifDomainProxyKindINS0_4hipc6client38Hipc2ClientSessionManagedProxyKindBaseINSD_18Hipc2ProxyKindBaseILNSC_6detail11MessageTypeE6EEEEEEENS0_30MemoryResourceAllocationPolicyENS5_19ProcessModifierImplINS4_21DefaultProxyFilterTagEEEvEESL_E6Object12AddReferenceEv
_ZN2nn2sf13SharedPointerINS_5fssrv2sf16IProgramRegistryEED2Ev
_ZN2nn2sf4cmif6client6detail13CmifProxyImplINS_2am7service22ILibraryAppletAccessorENS2_19CmifDomainProxyKindINS0_4hipc6client38Hipc2ClientSessionManagedProxyKindBaseINSA_18Hipc2ProxyKindBaseILNS9_6detail11MessageTypeE6EEEEEEENS0_30MemoryResourceAllocationPolicyES7_NS3_19ProcessModifierImplINS2_21DefaultProxyFilterTagEEEE41_nn_sf_sync_GetPopInteractiveOutDataEventENS0_3OutINS0_12NativeHandleEvEE
_ZN2nn3btm4user24AcquireBleMtuConfigEventEPNS_2os15SystemEventTypeE
_ZN2nn2ec6detail19ShopPageReturnValueC2Ev
_ZN2nn4edid6detail22PhysicalAddressVisitorEPKhmPv
_ZN2nn2sf4cmif6client6detail13CmifProxyImplINS_3hid10IHidServerENS0_4hipc6client18Hipc2ProxyKindBaseILNS7_6detail11MessageTypeE6EEENS0_30MemoryResourceAllocationPolicyES6_NS3_19ProcessModifierImplINS2_21DefaultProxyFilterTagEEEE36_nn_sf_sync_SendVibrationValueInBoolENS_6applet20AppletResourceUserIdENS5_21VibrationDeviceHandleEb
sinhl
_ZN2nn2sf4cmif6client6detail36GetClientProcessorImplWithObjectBaseINS2_19CmifDomainProxyKindINS0_4hipc6client38Hipc2ClientSessionManagedProxyKindBaseINS7_18Hipc2ProxyKindBaseILNS6_6detail11MessageTypeE6EEEEEEENS3_19ProcessModifierImplINS2_21DefaultProxyFilterTagEEEE14ObjectAssignerINS0_30MemoryResourceAllocationPolicyENS_14MemoryResourceEE14AllocateObjectINS_2am7service21IApplicationFunctionsEEEvi
nndetailImagePng_png_warning_parameter_signed
asinf
_ZN2nn5audio24StartFinalOutputRecorderEPNS0_19FinalOutputRecorderE
_ZN2nn5audio34GetFinalOutputRecorderChannelCountEPKNS0_19FinalOutputRecorderE
_ZN2nn3mii6detail14GetCommonColorENS0_11CommonColorENS0_9GammaTypeE
_ZNKSt3__18time_getIcNS_19istreambuf_iteratorIcNS_11char_traitsIcEEEEE16do_get_monthnameES4_S4_RNS_8ios_baseERjP2tm
_ZN2nn7account28NetworkServiceAccountManager4SwapERS1_
_ZN2nn6capsrv46ReadDataFromAlbumMovieReadStreamForApplicationEPmPvmNS0_26AlbumMovieReadStreamHandleEl
_ZN2nn3aoc19PrepareAddOnContentEi
pcmDmx_GetParam
_ZNSt3__113basic_ostreamIwNS_11char_traitsIwEEE5seekpExNS_8ios_base7seekdirE
asinh
_ZTIN2nn3htc4tenv8IServiceE
_ZN2nn8settings6detail22SetUsb30HostEnableFlagEb
__lgammal_r
_ZN2nn9bluetooth12StartInquiryEv
_ZN2nn5prepo5Array3AddEPKc
_ZN2nn2sf4hipc6client24Hipc2ClientCoreProcessorILNS1_6detail11MessageTypeE6ENS0_4cmif6detail14CoreMethodInfoINSt3__15tupleIJNS7_17InRawArgumentInfoILm8ELm8ELl64EEENSB_ILm64ELm1ELl0EEENSB_ILm8ELm8ELl72EEEEEELm80ELm0ELb1EEESF_E7ProcessEPNS2_26Hipc2ClientProxyBaseObjectENS6_6client23InRawClientArgumentTypeILm8ELm8EvEENSL_ILm64ELm1EvEESM_j
_ZN2nn3mii13ImageDatabase10ImportFileEPKvm
_ZN2nn5srepo6detail15ReportGenerator11AddKeyValueEPmPKcbPhmmm
_ZNK2nn5prepo10PlayReport7GetSizeEv
asinl
_ZN2nn7account13PushOpenUsersEv
_ZN2nn9bluetooth14GattDescriptorC1ERKNS0_17GattAttributeUuidEtj
trim_bitmap
_ZN2nn3web6detail14WebSessionImpl18StorageHandleQueue2atEi
__nnmusl_pthread_setaffinity_np
_ZN2nn3ngc6detail12OutputStream5CloseEv
_ZN2nn5audio15StopCpuProfilerEv
_ZN2nn2fs29GetCustomStorageDirectoryNameENS0_15CustomStorageIdE
_ZTSN2nn2fs6detail24FileServiceObjectAdapterE
_ZN7android21SurfaceComposerClient12setUnderscanERKNS_2spINS_7IBinderEEEi
nncodecLibopus_get_left_channel
_ZN7android12ConsumerBase13abandonLockedEv
gai_strerror
_ZN2nn4htcs8FdSetClrEiPNS0_5FdSetE
_ZNK2nn8irsensor6detail19StatusManagerHolder16GetStatusManagerEv
_ZN2nn2sf4cmif6client34CmifDomainProxyClientCoreProcessorINS0_4hipc6client38Hipc2ClientSessionManagedProxyKindBaseINS5_18Hipc2ProxyKindBaseILNS4_6detail11MessageTypeE6EEEEENS1_6detail14CoreMethodInfoINSt3__15tupleIJNSC_18OutRawArgumentInfoILm8ELm8ELl0EEENSC_17InRawArgumentInfoILm8ELm8ELl0EEEEEELm8ELm8ELb1EEESK_E7ProcessEPNS2_23CmifDomainClientMessageISB_E15ProxyBaseObjectENS2_24OutRawClientArgumentTypeILm8ELm8EEENS2_23InRawClientArgumentTypeILm8ELm8EvEEj
_ZN2nn2sf4cmif6client6detail36GetClientProcessorImplWithObjectBaseINS2_19CmifDomainProxyKindINS0_4hipc6client38Hipc2ClientSessionManagedProxyKindBaseINS7_18Hipc2ProxyKindBaseILNS6_6detail11MessageTypeE6EEEEEEENS3_19ProcessModifierImplINS2_21DefaultProxyFilterTagEEEE14ObjectAssignerINS0_30MemoryResourceAllocationPolicyENS_14MemoryResourceEE14AllocateObjectINS_2am7service21ILibraryAppletCreatorEEEvi
_ZN2nn5audio6server24AudioRenderSystemManager14ThreadFunctionEPv
_ZN2nn2sf4cmif6client34CmifDomainProxyClientCoreProcessorINS0_4hipc6client38Hipc2ClientSessionManagedProxyKindBaseINS5_18Hipc2ProxyKindBaseILNS4_6detail11MessageTypeE6EEEEENS1_6detail14CoreMethodInfoINSt3__15tupleIJNSC_17InRawArgumentInfoILm4ELm4ELl4EEENSG_ILm4ELm4ELl8EEENSG_ILm1ELm1ELl0EEEEEELm12ELm0ELb0EEESK_E7ProcessEPNS2_23CmifDomainClientMessageISB_E15ProxyBaseObjectENS2_23InRawClientArgumentTypeILm4ELm4EvEESS_NSR_ILm1ELm1EvEEj
_ZN2nn2sf4hipc6client24Hipc2ClientCoreProcessorILNS1_6detail11MessageTypeE6ENS0_4cmif6detail14CoreMethodInfoINSt3__15tupleIJNS7_18OutRawArgumentInfoILm40ELm1ELl0EEENS7_17InRawArgumentInfoILm16ELm8ELl0EEENSD_ILm8ELm8ELl16EEEEEELm24ELm40ELb0EEESG_E7ProcessEPNS2_26Hipc2ClientProxyBaseObjectENS6_6client24OutRawClientArgumentTypeILm40ELm1EEENSL_23InRawClientArgumentTypeILm16ELm8EvEENSO_ILm8ELm8EvEEj
_ZNSt3__115basic_streambufIcNS_11char_traitsIcEEED1Ev
_ZN2nn2sf4cmif6client6detail13CmifProxyImplINS_2am7service22IGlobalStateControllerENS2_19CmifDomainProxyKindINS0_4hipc6client38Hipc2ClientSessionManagedProxyKindBaseINSA_18Hipc2ProxyKindBaseILNS9_6detail11MessageTypeE6EEEEEEENS0_30MemoryResourceAllocationPolicyES7_NS3_19ProcessModifierImplINS2_21DefaultProxyFilterTagEEEE30_nn_sf_sync_StartSleepSequenceEb
nncodecLibopus_silk_schur64
_ZN2nn2fs24HierarchicalRomFileTable22QueryRomFileSystemSizeEPlS2_
nnmem_nlib_semaphore_wait
nnosGetTlsValue
nnsslConnectionDoHandshake
_ZN2nn9bluetooth17AddGattDescriptorEhRKNS0_17GattAttributeUuidES3_t
_ZN2nn2sf4hipc6client24Hipc2ClientCoreProcessorILNS1_6detail11MessageTypeE6ENS0_4cmif6detail14CoreMethodInfoINSt3__15tupleIJNS7_18BufferArgumentInfoILi0ELi9ELm0EEEEEELm0ELm0ELb0EEESD_E7ProcessEPNS2_26Hipc2ClientProxyBaseObjectENS6_6client24BufferClientArgumentTypeEj
_ZN2nn5prepo10PlayReportC2EPKc
iswpunct
nncryptoAes128CtrDecryptorIvSize
FSS_get_kerning
_ZN2nn2sf4cmif6client6detail13CmifProxyImplINS_3hid10IHidServerENS0_4hipc6client18Hipc2ProxyKindBaseILNS7_6detail11MessageTypeE6EEENS0_30MemoryResourceAllocationPolicyES6_NS3_19ProcessModifierImplINS2_21DefaultProxyFilterTagEEEE38_nn_sf_sync_DeactivateJoySixAxisSensorENS5_9JoyXpadIdE
_ZN2nn3mem17StandardAllocator6ShrinkEPvm
_ZN2nn2sf6detail38ObjectImplFactoryWithStatefulAllocatorINS0_4cmif6client6detail9CmifProxyINS_4npns9INpnsUserENS0_4hipc6client18Hipc2ProxyKindBaseILNS9_6detail11MessageTypeE6EEENS0_30MemoryResourceAllocationPolicyENS5_19ProcessModifierImplINS4_21DefaultProxyFilterTagEEEvEESF_E6Object12AddReferenceEv
_ZN2nn6socket6detail15DuplicateSocketEim
_ZNSt3__114codecvt_bynameIcc11__mbstate_tED0Ev
_ZN2nn2sf4cmif6client34CmifDomainProxyClientCoreProcessorINS0_4hipc6client38Hipc2ClientSessionManagedProxyKindBaseINS5_18Hipc2ProxyKindBaseILNS4_6detail11MessageTypeE6EEEEENS1_6detail14CoreMethodInfoINSt3__15tupleIJNSC_18BufferArgumentInfoILi0ELi33ELm0EEEEEELm0ELm0ELb0EEESI_E7ProcessEPNS2_23CmifDomainClientMessageISB_E15ProxyBaseObjectENS2_24BufferClientArgumentTypeEj
_ZNK2nn5audio6server10PoolMapper5UnmapEjNS0_7CpuAddrEm
_ZN2nn6crypto6detail6BigNumD1Ev
_ZN2nn3ngc6detail11AhoCorasick5ResetEv
_ZN2nn5prepo10PlayReport13BufferSizeMaxE
_ZN7android13GraphicBuffer11free_handleEv
_ZNK7android6Region9intersectERKNS_4RectE
_ZN2nn5image13ExifExtractor17GetWorkBufferSizeEv
_ZN2nn2sf4hipc6client24Hipc2ClientCoreProcessorILNS1_6detail11MessageTypeE6ENS0_4cmif6detail14CoreMethodInfoINSt3__15tupleIJNS7_18OutRawArgumentInfoILm4ELm4ELl0EEENS7_18BufferArgumentInfoILi0ELi6ELm0EEENS7_17InRawArgumentInfoILm4ELm4ELl0EEEEEELm4ELm4ELb0EEESH_E7ProcessEPNS2_26Hipc2ClientProxyBaseObjectENS6_6client24OutRawClientArgumentTypeILm4ELm4EEENSM_24BufferClientArgumentTypeENSM_23InRawClientArgumentTypeILm4ELm4EvEEj
_ZN2nn2sf4hipc24CloseServerSessionHandleENS_3svc6HandleE
fmin
_ZN2nn2sf13InterfaceInfoINS_5audio6detail12IAudioDeviceEE4_tABINS5_5_tO2NINS2_6server24AudioRendererManagerImpl15AudioDeviceImplEE4typeES4_E4type42_nn_sf_sync_SetAudioDeviceOutputVolumeAutoERKNS0_8InBufferEf
_ZN2nn5codec14initHeaderDataEPNS0_15SBR_HEADER_DATAEiiij
nnmem_nlib_utf32char_to_utf16
_ZN2nn3mii6detail33CommonColorOrderIndexToColorIndexE
_ZN2nn4nifm38SetWirelessCommunicationEnabledForTestEb
NvRmGpuChannelSetInterleave
_ZN7android6Parcel8growDataEm
_ZN2nn5audio6server38CommandProcessingTimeEstimatorVersion38EstimateERKNS0_26TDataSourceCommandVersion2ILNS0_9CommandIdE6EEE
FDKstrcpy
_ZN2nn2sf4cmif6client6detail13CmifProxyImplINS_3hid15IHidDebugServerENS0_4hipc6client18Hipc2ProxyKindBaseILNS7_6detail11MessageTypeE6EEENS0_30MemoryResourceAllocationPolicyES6_NS3_19ProcessModifierImplINS2_21DefaultProxyFilterTagEEEE42_nn_sf_sync_SetCaptureButtonAutoPilotStateENS5_5debug27CaptureButtonAutoPilotStateE
_ZN2nn2sf4cmif6client6detail13CmifProxyImplINS_8settings22IFactorySettingsServerENS0_4hipc6client18Hipc2ProxyKindBaseILNS7_6detail11MessageTypeE6EEENS0_30MemoryResourceAllocationPolicyES6_NS3_19ProcessModifierImplINS2_21DefaultProxyFilterTagEEEE29_nn_sf_sync_GetSslCertificateENS0_3OutINS5_7factory14SslCertificateEvEE
_ZdlPvm
_ZN2nn5album34SaveAndShareScreenshotWithUserDataEPKvmNS0_9ImageSizeENS0_16ImageOrientationENS0_17AlbumReportOptionERKNS_7account3UidEPKcS2_m
_ZN2nn2os6detail26g_CommandLineParameterArgvE
_ZN2nn5audio14AddI3dl2ReverbEPNS0_19AudioRendererConfigEPNS0_15I3dl2ReverbTypeEPvmPNS0_12FinalMixTypeEi
_ZTIN2nn2sf6detail38ObjectImplFactoryWithStatefulAllocatorINS0_4cmif6client6detail9CmifProxyINS_3mii6detail21IImageDatabaseServiceENS0_4hipc6client18Hipc2ProxyKindBaseILNSA_6detail11MessageTypeE6EEENS0_30MemoryResourceAllocationPolicyENS5_19ProcessModifierImplINS4_21DefaultProxyFilterTagEEEvEESG_E6ObjectE
_ZN2nn2os13LockBusyMutexEPNS0_13BusyMutexTypeE
_ZN2nn8settings6detail23GetNxControllerSettingsEPiPNS0_6system20NxControllerSettingsEi
_ZN2nn5audio6server22PerformanceManagerImplINS1_33PerformanceManagerImplVersion2TagENS0_6common30PerformanceFrameHeaderVersion2ENS4_24PerformanceEntryVersion2ENS4_25PerformanceDetailVersion2ENS0_20PerformanceSysDetailEE12UpdateHeaderEPS5_PKS5_imii
_ZN2nn2sf4cmif6client6detail13CmifProxyImplINS_3hid15IHidDebugServerENS0_4hipc6client18Hipc2ProxyKindBaseILNS7_6detail11MessageTypeE6EEENS0_30MemoryResourceAllocationPolicyES6_NS3_19ProcessModifierImplINS2_21DefaultProxyFilterTagEEEE32_nn_sf_sync_AttachHdlsWorkBufferEONS0_12NativeHandleEm
nnmem_nlib_utf16cplen_ex_simd
_ZN2nn8settings6system22GetHomeMenuSchemeModelEPj
__lgammaf_r
_ZTIN2nn5audio6server10EffectInfoILNS0_10EffectTypeE4ENS0_15ReverbParameterEEE
_ZTIN7android7IBinderE
_ZN2nn2sf6detail38ObjectImplFactoryWithStatefulAllocatorINS0_4cmif6client6detail9CmifProxyINS_2am7service15IAppletAccessorENS4_19CmifDomainProxyKindINS0_4hipc6client38Hipc2ClientSessionManagedProxyKindBaseINSC_18Hipc2ProxyKindBaseILNSB_6detail11MessageTypeE6EEEEEEENS0_30MemoryResourceAllocationPolicyENS5_19ProcessModifierImplINS4_21DefaultProxyFilterTagEEEvEESK_E6Object7ReleaseEv
_ZN2nn5audio3dsp25MailBoxImplByMessageQueue16InvalidMailBoxIdE
_ZN2nn5codec22CAacDecoder_AncDataGetEPNS0_8CAncDataEiPPhPi
_ZTIN2nn3hid15IAppletResourceE
_ZN2nn2fs6detail31IsSessionForRealtimeOnlyEnabledEv
_ZN2nn3ldn20AddAcceptFilterEntryENS0_10MacAddressE
_ZN2nn3ngc19ProfanityFilterBase16IsIncludesAtSignEPKDsi
_ZTSN2nn2sf6detail38ObjectImplFactoryWithStatefulAllocatorINS0_4cmif6client6detail9CmifProxyINS_3ngc1t6detail9INotifierENS0_4hipc6client18Hipc2ProxyKindBaseILNSB_6detail11MessageTypeE6EEENS0_30MemoryResourceAllocationPolicyENS5_19ProcessModifierImplINS4_21DefaultProxyFilterTagEEEvEESH_E6ObjectE
_ZN2nn9bluetooth5debug16EnableAfhSettingEb
_ZN2nn2sf4cmif6client6detail13CmifProxyImplINS_2am7service22IGlobalStateControllerENS2_19CmifDomainProxyKindINS0_4hipc6client38Hipc2ClientSessionManagedProxyKindBaseINSA_18Hipc2ProxyKindBaseILNS9_6detail11MessageTypeE6EEEEEEENS0_30MemoryResourceAllocationPolicyES7_NS3_19ProcessModifierImplINS2_21DefaultProxyFilterTagEEEE42_nn_sf_sync_UpdateDefaultDisplayResolutionEv
_ZN2nn5audio6server38CommandProcessingTimeEstimatorVersion28EstimateERKNS0_30AdpcmDataSourceCommandVersion1E
_ZN2nn5image6detail4jpeg17jpeg_set_defaultsEPNS2_20jpeg_compress_structE
_ZN2nn2os14AllocateMemoryEPmm
_ZN2nn8settings6detail25CreateSettingsServerProxyEPNS_2sf13SharedPointerINS0_15ISettingsServerEEE
_ZN3nne4nlib11InputStream12GoBackToMarkEv
_ZN2nn5audio3dsp17ApplyBiquadFilterEPfPKfPKsS6_PNS0_17BiquadFilterStateEi
_ZThn16_N2nn2sf4cmif6client6detail13CmifProxyImplINS_3nim6detail24IShopServiceAccessServerENS0_4hipc6client18Hipc2ProxyKindBaseILNS8_6detail11MessageTypeE6EEENS0_30MemoryResourceAllocationPolicyES7_NS3_19ProcessModifierImplINS2_21DefaultProxyFilterTagEEEE17GetCmifBaseObjectEv
_ZN2nn3hid6detail21InitializeTouchScreenEv
_ZN2nn3mii6detail13NoselineColorE
_ZN2nn4util17MessagePackWriter18WriteBinary8HeaderEh
_ZNSt20bad_array_new_lengthC2Ev
iscntrl
_ZN2nn5audio6common10EdgeMatrixC2Ev
_ZN7android18BufferItemConsumerC2ERKNS_2spINS_22IGraphicBufferConsumerEEEjib
_ZN2nn2sf4cmif6client6detail13CmifProxyImplINS_4bcat6detail3ipc28IDeliveryCacheStorageServiceENS2_19CmifDomainProxyKindINS0_4hipc6client38Hipc2ClientSessionManagedProxyKindBaseINSB_18Hipc2ProxyKindBaseILNSA_6detail11MessageTypeE6EEEEEEENS0_30MemoryResourceAllocationPolicyES8_NS3_19ProcessModifierImplINS2_21DefaultProxyFilterTagEEEE17GetCmifBaseObjectEv
_ZN2nn3hid6detail24NpadSharedMemoryAccessor27EnableControlPadRestrictionERKNS_4util10BitFlagSetILi32ENS0_12NpadStyleTagEEEb
_ZN2nn3mii13ImageDatabaseC1Ev
_ZN2nn2sf4cmif6client6detail13CmifProxyImplINS_8settings28IFirmwareDebugSettingsServerENS0_4hipc6client18Hipc2ProxyKindBaseILNS7_6detail11MessageTypeE6EEENS0_30MemoryResourceAllocationPolicyES6_NS3_19ProcessModifierImplINS2_21DefaultProxyFilterTagEEEE17GetCmifBaseObjectEv
_ZN2nn9bluetooth24SetBleAdvertiseParameterERKNS0_7AddressEtt
_ZN2nn3mii6detail19GetMouthColorToVer3ENS0_11CommonColorE
NvRmMemWrite
_ZTSN2nn2sf4cmif6client6detail13CmifProxyImplINS_2ec21IPurchaseEventManagerENS0_4hipc6client18Hipc2ProxyKindBaseILNS7_6detail11MessageTypeE6EEENS0_30MemoryResourceAllocationPolicyES6_NS3_19ProcessModifierImplINS2_21DefaultProxyFilterTagEEEEE
_ZTSN2nn2ec4json7adaptor11AdaptorBaseILi8ELi128EEE
_ZN2nn3mii13ImageDatabase10ExportFileEPvm
_ZN2nn2sf6detail39ObjectImplFactoryWithStatelessAllocatorINS0_4cmif6client6detail9CmifProxyINS_7account3nas34IOAuthProcedureForUserRegistrationENS4_19CmifDomainProxyKindINS0_4hipc6client38Hipc2ClientSessionManagedProxyKindBaseINSC_18Hipc2ProxyKindBaseILNSB_6detail11MessageTypeE6EEEEEEENS0_25StatelessAllocationPolicyINS0_22ExpHeapStaticAllocatorILm2048ENS7_6detail12ObjectHolder24ObjectHolderAllocatorTagEEEEENS5_19ProcessModifierImplINS4_21DefaultProxyFilterTagEEEvEESQ_E6Object12AddReferenceEv
__cxa_pure_virtual
NvOsLibraryLoad
_ZNSt3__17promiseIvEC1Ev
_ZN2nn6applet36CreateLibraryAppletHandleOnUnwindingENS_2sf13SharedPointerINS_2am7service22ILibraryAppletAccessorEEE
_ZN2nn4edid6detail23GetEstablishedTimingIIIEPFbPKNS0_15DisplayModeInfoEPKNS0_17DisplayTimingInfoEPKNS0_13ImageSizeInfoEPvESB_h
_ZN2nn4util27ConvertCharacterUtf8ToUtf32EPjPKc
_ZN2nn2vi17GetZOrderCountMaxEPKNS0_7DisplayE
_ZTVNSt3__115__codecvt_utf16IDsLb1EEE
_ZN2nn3ngc6detail15NullInputStreamC2Ev
_ZN2nn8settings6detail22SetDebugPadKeyboardMapERKNS0_19DebugPadKeyboardMapE
nvcecGetPAddr
_ZNK2nn5codec22OpusMultiStreamDecoder19GetTotalStreamCountEv
_ZN2nn2sf4cmif6client6detail13CmifProxyImplINS_4pctl6detail3ipc23IParentalControlServiceENS2_19CmifDomainProxyKindINS0_4hipc6client38Hipc2ClientSessionManagedProxyKindBaseINSB_18Hipc2ProxyKindBaseILNSA_6detail11MessageTypeE6EEEEEEENS0_30MemoryResourceAllocationPolicyES8_NS3_19ProcessModifierImplINS2_21DefaultProxyFilterTagEEEE33_nn_sf_sync_AuthorizePairingAsyncENS0_3OutINS6_9AsyncDataEvEENSO_INS0_12NativeHandleEvEERKNS6_15PairingInfoBaseE
_ZN7android12ProcessState15startThreadPoolEv
isblank_l
_ZN2nn4lmem20AllocateFromUnitHeapEPNS0_6detail8HeapHeadE
_ZN2nn5codec12KBDWindow128E
_ZTVN2nn2fs6detail27StorageServiceObjectAdapterINS_5fssrv2sf8IStorageEEE
_ZZN2nn2sf40SimpleAllInOneHipcSubDomainClientManagerILm1EE27InitializeShimLibraryHolderINS_5prepo6detail3ipc13IPrepoServiceENS0_4cmif6client6detail19ProcessModifierImplINS9_21DefaultProxyFilterTagEEEEENS_6ResultEPNS0_23ShimLibraryObjectHolderIT_EEPKcPNS_14MemoryResourceEENUlPvE_8__invokeESN_
_ZN2nn3hid6detail21GenerateVibrationFileEPmPhmRKNS0_23VibrationValueArrayInfoEPKNS0_14VibrationValueE
_ZN2nn6socket8resolver11GetAddrInfoEPKcS3_PK8addrinfoPPS4_PKNS0_14ResolverOptionEm
_ZTSN2nn2sf4cmif6client6detail13CmifProxyImplINS_2am7service18IDisplayControllerENS2_19CmifDomainProxyKindINS0_4hipc6client38Hipc2ClientSessionManagedProxyKindBaseINSA_18Hipc2ProxyKindBaseILNS9_6detail11MessageTypeE6EEEEEEENS0_30MemoryResourceAllocationPolicyES7_NS3_19ProcessModifierImplINS2_21DefaultProxyFilterTagEEEEE
_ZN2nn3err6detail15ReadMessageFileEPDsPimNS0_9ErrorCodeENS_8settings12LanguageCodeENS1_11MessageKindE
_ZN2nn3hid6system6detail22GetButtonConfigStorageEPNS_9hidconfig16ButtonConfigLeftEi
_ZNK2nn3kpr15KeyCodeComposer7GetModeEv
_ZN2nn3nfp29StartNicknameAndOwnerSettingsEPNS0_7TagInfoEPNS0_12DeviceHandleEPbPNS0_12RegisterInfoERKNS0_24AmiiboSettingsStartParamE
_ZN2nn2sf4cmif6client6detail13CmifProxyImplINS_8settings21ISystemSettingsServerENS0_4hipc6client18Hipc2ProxyKindBaseILNS7_6detail11MessageTypeE6EEENS0_30MemoryResourceAllocationPolicyES6_NS3_19ProcessModifierImplINS2_21DefaultProxyFilterTagEEEE28_nn_sf_sync_SetSleepSettingsERKNS5_6system13SleepSettingsE
_ZN2nn5audio20IsMemoryPoolAttachedEPKNS0_14MemoryPoolTypeE
_ZN2nn5audio6server38CommandProcessingTimeEstimatorVersion38EstimateERKNS0_30AdpcmDataSourceCommandVersion1E
_ZNK2nn2sf13SharedPointerINS_6capsrv2sf32IAlbumAccessorApplicationSessionEE19FunctionForBoolTypeEv
_ZN2nn5codec24rvlcReadBitFromBitstreamEPNS0_13FDK_BITSTREAMEPth
_ZN2nn6fontll18ScalableFontEngine8FinalizeEv
_ZN2nn8irsensor6detail13StatusManager22SetIrSensorAruidStatusERKNS_6applet20AppletResourceUserIdENS_4util10BitFlagSetILi32ENS1_16AppletStatusFlagEEE
_ZN2nn2sf4cmif6client6detail13CmifProxyImplINS_4pctl6detail3ipc23IParentalControlServiceENS2_19CmifDomainProxyKindINS0_4hipc6client38Hipc2ClientSessionManagedProxyKindBaseINSB_18Hipc2ProxyKindBaseILNSA_6detail11MessageTypeE6EEEEEEENS0_30MemoryResourceAllocationPolicyES8_NS3_19ProcessModifierImplINS2_21DefaultProxyFilterTagEEEE34_nn_sf_sync_GetSettingsLastUpdatedENS0_3OutINS_4time9PosixTimeEvEE
_ZN2nn8settings6detail23GetUsbFullKeyEnableFlagEPb
_ZTVNSt3__110istrstreamE
_ZN2nn2fs15GetMmcSpeedModeEPNS0_12MmcSpeedModeE
_ZN2nn2sf4cmif6client6detail13CmifProxyImplINS_6jitsrv19IJitEnvironmentBaseENS0_4hipc6client18Hipc2ProxyKindBaseILNS7_6detail11MessageTypeE6EEENS0_30MemoryResourceAllocationPolicyENS5_15IJitEnvironmentENS3_19ProcessModifierImplINS2_21DefaultProxyFilterTagEEEE22_nn_sf_sync_LoadPluginERKNS0_8InBufferESL_ONS0_12NativeHandleEm
_ZTSN2nn3nfc6detail7ISystemE
_ZN2nn6socket6detail16CopyFromPlatformEPNS0_10SockAddrInEPK11sockaddr_in
_ZN2nn3ssl10Connection13GetCipherInfoEPNS1_10CipherInfoE
_ZN2nn4util6detail7msgpack12WriteFloat64EPNS0_17MessagePackWriter11StreamParamEd
_ZNKSt3__120__codecvt_utf8_utf16IDsE13do_max_lengthEv
_ZNSt3__16__sortIRPFbRKN2nn6fontll15OtfKerningTable11KerningPairES6_EPS4_EEvT0_SB_T_
_ZN2nn4util18MatrixRowMajor4x4f12ConstantZeroE
_ZN2nn2sf4cmif6client34CmifDomainProxyClientCoreProcessorINS0_4hipc6client38Hipc2ClientSessionManagedProxyKindBaseINS5_18Hipc2ProxyKindBaseILNS4_6detail11MessageTypeE6EEEEENS1_6detail14CoreMethodInfoINSt3__15tupleIJNSC_18BufferArgumentInfoILi0ELi26ELm4EEEEEELm0ELm0ELb0EEESI_E7ProcessEPNS2_23CmifDomainClientMessageISB_E15ProxyBaseObjectENS2_24BufferClientArgumentTypeEj
_ZN2nn2os6detail13ThreadManagerC2Ev
_ZN2nn2sf4cmif6client6detail13CmifProxyImplINS_3ssl2sf11ISslServiceENS2_19CmifDomainProxyKindINS0_4hipc6client38Hipc2ClientSessionManagedProxyKindBaseINSA_18Hipc2ProxyKindBaseILNS9_6detail11MessageTypeE6EEEEEEENS0_24StatefulAllocationPolicyINS0_16ExpHeapAllocatorEEES7_NS3_19ProcessModifierImplINS2_21DefaultProxyFilterTagEEEE31_nn_sf_sync_SetInterfaceVersionEj
_ZN2nn2sf4cmif6client6detail13CmifProxyImplINS_3apm8ISessionENS0_4hipc6client18Hipc2ProxyKindBaseILNS7_6detail11MessageTypeE6EEENS0_30MemoryResourceAllocationPolicyES6_NS3_19ProcessModifierImplINS2_21DefaultProxyFilterTagEEEE39_nn_sf_sync_GetPerformanceConfigurationENS0_3OutINS5_24PerformanceConfigurationEvEENS5_15PerformanceModeE
_ZNK2nn5codec10AacDecoder13GetSampleRateEv
_ZNK2nn2sf13SharedPointerINS_3nim6detail33IShopServiceAccessSystemInterfaceEE19FunctionForBoolTypeEv
_ZTSN2nn2fs3fsa18IMultiCommitTargetE
_ZN2nn2sf6detail38ObjectImplFactoryWithStatefulAllocatorINS0_4cmif6client6detail9CmifProxyINS_3hid15IHidDebugServerENS0_4hipc6client18Hipc2ProxyKindBaseILNS9_6detail11MessageTypeE6EEENS0_30MemoryResourceAllocationPolicyENS5_19ProcessModifierImplINS4_21DefaultProxyFilterTagEEEvEESF_E6Object7ReleaseEv
_ZN2nn5image11JpegEncoder16SetSamplingRatioENS0_17JpegSamplingRatioE
_ZN2nn2os6detail36InternalCriticalSectionImplByHorizon10InitializeEv
_ZN2nn2sf4cmif6client6detail13CmifProxyImplINS_8settings21ISystemSettingsServerENS0_4hipc6client18Hipc2ProxyKindBaseILNS7_6detail11MessageTypeE6EEENS0_30MemoryResourceAllocationPolicyES6_NS3_19ProcessModifierImplINS2_21DefaultProxyFilterTagEEEE53_nn_sf_sync_SetButtonConfigRegisteredSettingsEmbeddedERKNS5_6system30ButtonConfigRegisteredSettingsE
_ZN2nn5swkbd6detail18InlineKeyboardImplC1Ev
tsearch
_ZN2nn2sf4cmif6client6detail13CmifProxyImplINS_2am7service18IDisplayControllerENS2_19CmifDomainProxyKindINS0_4hipc6client38Hipc2ClientSessionManagedProxyKindBaseINSA_18Hipc2ProxyKindBaseILNS9_6detail11MessageTypeE6EEEEEEENS0_30MemoryResourceAllocationPolicyES7_NS3_19ProcessModifierImplINS2_21DefaultProxyFilterTagEEEE41_nn_sf_sync_GetCallerAppletCaptureImageExENS0_3OutIbvEERKNS0_9OutBufferE
_ZN2nn2sf4cmif6client6detail13CmifProxyImplINS_3hid16IHidSystemServerENS0_4hipc6client18Hipc2ProxyKindBaseILNS7_6detail11MessageTypeE6EEENS0_30MemoryResourceAllocationPolicyES6_NS3_19ProcessModifierImplINS2_21DefaultProxyFilterTagEEEE37_nn_sf_sync_EndPermitVibrationSessionEv
_ZN2nn2os6detail24DestroyInterProcessEventEPNS1_21InterProcessEventTypeE
_ZN2nn2os18GetThreadStackInfoEPmS1_PKNS0_10ThreadTypeE
_ZN2nn4util26StreamingDecompressDeflateEPmS1_PvmPKvmPNS0_30StreamingDecompressZlibContextE
_ZN2nn5audio6server6detail26GetAudioDeviceOutputVolumeEPKNS0_15AudioDeviceNameERKNS_6applet20AppletResourceUserIdEj
FDK_pushForward
_ZN2nn8irsensor6detail14SessionManagerD1Ev
_ZN2nn7nlibsdk4heap14TlsHeapCentral7IsCleanEv
_ZN2nn5srepo6detail14ArrayGenerator8AddValueEPmlPhmm
swprintf
__strtold_l
fputws_unlocked
_ZN2nn5album20ReadAlbumMovieStreamEPmPvmNS0_17MovieStreamHandleEl
_ZN2nn2ec24ShowShopSubscriptionListERKNS0_8CourseIdERKNS_7account10UserHandleE
_ZN2nn2sf4cmif6client6detail36GetClientProcessorImplWithObjectBaseINS0_4hipc6client18Hipc2ProxyKindBaseILNS5_6detail11MessageTypeE6EEENS3_19ProcessModifierImplINS2_21DefaultProxyFilterTagEEEE14ObjectAssignerINS0_30MemoryResourceAllocationPolicyENS_14MemoryResourceEE14AllocateObjectIN3nns9hosbinder16IHOSBinderDriverEEEvi
_ZN2nn8settings6detail21GetFullKeyKeyboardMapEPNS0_18FullKeyKeyboardMapENS0_12FullKeyIndexE
nvgr_is_protected
_ZNSt3__112basic_stringIwNS_11char_traitsIwEENS_9allocatorIwEEE9__grow_byEmmmmmm
_ZN2nn2sf4cmif6client34CmifDomainProxyClientCoreProcessorINS0_4hipc6client38Hipc2ClientSessionManagedProxyKindBaseINS5_18Hipc2ProxyKindBaseILNS4_6detail11MessageTypeE6EEEEENS1_6detail14CoreMethodInfoINSt3__15tupleIJNSC_18BufferArgumentInfoILi0ELi26ELm128EEEEEELm0ELm0ELb0EEESI_E7ProcessEPNS2_23CmifDomainClientMessageISB_E15ProxyBaseObjectENS2_24BufferClientArgumentTypeEj
_ZN2nn6applet24ActivateMigrationServiceEv
_ZN2nn3mii12GetMoleColorENS0_9GammaTypeE
_ZN2nn8settings6detail24SetVibrationMasterVolumeEf
_ZN2nn7account25CachedNintendoAccountInfoC1Ev
_ZN2nn2sf4cmif6client6detail13CmifProxyImplINS_3hid16IHidSystemServerENS0_4hipc6client18Hipc2ProxyKindBaseILNS7_6detail11MessageTypeE6EEENS0_30MemoryResourceAllocationPolicyES6_NS3_19ProcessModifierImplINS2_21DefaultProxyFilterTagEEEE43_nn_sf_sync_GetConnectableRegisteredDevicesENS0_3OutIlvEERKNS0_8OutArrayINS5_6system16RegisteredDeviceEEE
_ZN2nn2vi6detail22ServiceReferenceHolder16SetSystemServiceERKNS_2sf13SharedPointerINS_5visrv2sf21ISystemDisplayServiceEEE
_ZN2nn5audio6server17AudioRenderSystem15GenerateCommandEPvm
_ZN2nn4lmem15CreateFrameHeapEPvmi
nndetailImagePng_png_read_rows
_ZTSN2nn3nfp6detail13IDebugManagerE
_ZN2nn4time26StandardNetworkSystemClock21GetSystemClockContextEPNS0_18SystemClockContextE
_ZN2nn3err15ShowErrorViewerENS_6ResultE
_ZN2nn4npns28RequestChangeStateForceAsyncENS0_5StateE
_ZN2nn2os27DefaultUserExceptionHandlerEPNS0_17UserExceptionInfoE
_ZN2nn2sf4cmif6client6detail13CmifProxyImplINS_6hidbus13IHidbusServerENS0_4hipc6client18Hipc2ProxyKindBaseILNS7_6detail11MessageTypeE6EEENS0_25StatelessAllocationPolicyINS0_22ExpHeapStaticAllocatorILm16384ENS5_6server12HidbusServerEEEEES6_NS3_19ProcessModifierImplINS2_21DefaultProxyFilterTagEEEE12GetProxyInfoEv
_ZN2nn7nlibsdk4heap12TlsHeapCache14AllocFuncMode0INSt3__117integral_constantIbLb0EEEEEPvPS2_m
_ZTIN2nn2sf4cmif6server23CmifServerDomainManagerE
_ZN2nn6applet17JoinLibraryAppletENS0_19LibraryAppletHandleE
_ZN2nn4htcs4RecvEiPvmi
_ZN2nn2sf4hipc6client24Hipc2ClientCoreProcessorILNS1_6detail11MessageTypeE6ENS0_4cmif6detail14CoreMethodInfoINSt3__15tupleIJNS7_18BufferArgumentInfoILi0ELi26ELm256EEEEEELm0ELm0ELb0EEESD_E7ProcessEPNS2_26Hipc2ClientProxyBaseObjectENS6_6client24BufferClientArgumentTypeEj
_ZN2nn5audio6server38CommandProcessingTimeEstimatorVersion28EstimateERKNS0_19DepopPrepareCommandE
_ZN2nn2sf4cmif6client6detail13CmifProxyImplINS_4nifm6detail15IGeneralServiceENS2_19CmifDomainProxyKindINS0_4hipc6client38Hipc2ClientSessionManagedProxyKindBaseINSA_18Hipc2ProxyKindBaseILNS9_6detail11MessageTypeE6EEEEEEENS0_30MemoryResourceAllocationPolicyES7_NS3_19ProcessModifierImplINS2_21DefaultProxyFilterTagEEEE29_nn_sf_sync_SetNetworkProfileENS0_3OutINS_4util4UuidEvEERKNS6_2sf18NetworkProfileDataE
_ZNK2nn5prepo10PlayReport8GetCountEv
_ZTISt20bad_array_new_length
_ZN2nn2fs17RamDiskFileSystem21DoCommitProvisionallyEl
_ZN2nn2fs31SaveDataTransferManagerVersion224OpenSaveDataDiffExporterEPNSt3__110unique_ptrINS0_25ISaveDataDivisionExporterENS2_14default_deleteIS4_EEEERKNS0_19InitialDataVersion2ENS0_15SaveDataSpaceIdEm
_ZN2nn3hid17ResetPalmaPlayLogERKNS0_21PalmaConnectionHandleERKt
_ZN2nn8irsensor6detail15IrSensorSession24IsOwnerExclusionViolatedERKNS0_14IrCameraHandleEb
_ZN2nn3ngc59IsProfanityWordDatabaseReloadRequiredForPlatformRegionChinaEv
_ZN2nn2sf4cmif6client6detail13CmifProxyImplINS_8settings21ISystemSettingsServerENS0_4hipc6client18Hipc2ProxyKindBaseILNS7_6detail11MessageTypeE6EEENS0_30MemoryResourceAllocationPolicyES6_NS3_19ProcessModifierImplINS2_21DefaultProxyFilterTagEEEE41_nn_sf_sync_GetErrorReportSharePermissionENS0_3OutIivEE
_ZN2nn2sf6detail38ObjectImplFactoryWithStatefulAllocatorINS0_4cmif6client6detail9CmifProxyINS_7timesrv6detail7service16ITimeZoneServiceENS4_19CmifDomainProxyKindINS0_4hipc6client38Hipc2ClientSessionManagedProxyKindBaseINSD_18Hipc2ProxyKindBaseILNSC_6detail11MessageTypeE6EEEEEEENS0_30MemoryResourceAllocationPolicyENS5_19ProcessModifierImplINS4_21DefaultProxyFilterTagEEEvEESL_E6Object7ReleaseEv
creat64
_ZN2nn3web6detail24ShowOfflinePageArgDetail16SetLeftStickModeEPhRKNS0_20OfflineLeftStickModeE
_ZNSt3__111__money_putIcE13__gather_infoEbbRKNS_6localeERNS_10money_base7patternERcS8_RNS_12basic_stringIcNS_11char_traitsIcEENS_9allocatorIcEEEESF_SF_Ri
load_kerning
_ZN2nn2fs6detail24SaveDataExporterVersion212CancelExportEv
_ZN2nn3hid6detail19WritePalmaWaveEntryERKNS0_21PalmaConnectionHandleERKNS0_12PalmaWaveSetERKtPKvmm
_ZN2nn3hid6system17DisableJoyConRailEv
_ZN2nn2sf4hipc6client24Hipc2ClientCoreProcessorILNS1_6detail11MessageTypeE6ENS0_4cmif6detail14CoreMethodInfoINSt3__15tupleIJNS7_18OutRawArgumentInfoILm1ELm1ELl0EEENS7_18BufferArgumentInfoILi0ELi21ELm48EEEEEELm0ELm1ELb0EEESF_E7ProcessEPNS2_26Hipc2ClientProxyBaseObjectENS6_6client24OutRawClientArgumentTypeILm1ELm1EEENSK_24BufferClientArgumentTypeEj
_ZN2nn4time10DateToDaysEiii
_ZNK2nn5audio6server17AudioRenderSystem13GetSampleRateEv
_ZN2nn2sf4cmif6client6detail13CmifProxyImplINS_6hidbus13IHidbusServerENS0_4hipc6client18Hipc2ProxyKindBaseILNS7_6detail11MessageTypeE6EEENS0_25StatelessAllocationPolicyINS0_22ExpHeapStaticAllocatorILm16384ENS5_6server12HidbusServerEEEEES6_NS3_19ProcessModifierImplINS2_21DefaultProxyFilterTagEEEE28_nn_sf_sync_SendCommandAsyncERKNS0_8InBufferENS5_9BusHandleE
_ZNK7android11DisplayEDID7getDataEv
_ZNSt3__117iostream_categoryEv
_ZN2nn3hid6system15GetButtonConfigEPNS1_16ButtonConfigLeftERKNS1_11UniquePadIdE
_ZN2nn2sf4cmif6client6detail13CmifProxyImplIN3nns9hosbinder16IHOSBinderDriverENS2_19CmifDomainProxyKindINS0_4hipc6client38Hipc2ClientSessionManagedProxyKindBaseINSA_18Hipc2ProxyKindBaseILNS9_6detail11MessageTypeE6EEEEEEENS0_30MemoryResourceAllocationPolicyES7_NS3_19ProcessModifierImplINS2_21DefaultProxyFilterTagEEEE26_nn_sf_sync_AdjustRefcountEiii
_ZN2nn6applet15SetCpuBoostModeEi
nncryptoDecryptAes128Gcm
_ZN2nn4edid6detail17VideoBlockVisitorEPKhmNS0_6cea8618BlockTagEPv
_ZN2nn7friends6Friend6UpdateEv
_ZN22nerd_gillette_internal5otete7jaimev217SerializePositionINS0_15BitStreamReaderINS0_14InputBitStreamEEEEEbRNS0_11OteteFloat2ERT_
_ZN2nn5audio6server24AudioRendererManagerImpl17AudioRendererImpl10InitializeERKNS0_6detail30AudioRendererParameterInternalERNS_2sf12NativeHandleESA_mRKNS_6applet20AppletResourceUserIdEi
nndetailImagePng_png_write_sBIT
_ZN2nn4npns9AttachJidEPKcS2_
_ZN2nn4pctl21IsAllFeaturesDisabledEPb
FixSqrt
_ZN7android6Parcel16writeNoExceptionEv
_ZN7android18GraphicBufferAllocD1Ev
_ZTSN2nn5codec22OpusMultiStreamDecoderE
_ZN2nn8settings6system20GetPtmBatteryVersionEPh
_ZNKSt3__120__time_get_c_storageIwE8__monthsEv
_ZN2nn2sf4cmif6client6detail13CmifProxyImplINS_4bcat6detail3ipc15IServiceCreatorENS2_19CmifDomainProxyKindINS0_4hipc6client38Hipc2ClientSessionManagedProxyKindBaseINSB_18Hipc2ProxyKindBaseILNSA_6detail11MessageTypeE6EEEEEEENS0_30MemoryResourceAllocationPolicyES8_NS3_19ProcessModifierImplINS2_21DefaultProxyFilterTagEEEE12GetProxyInfoEv
_ZN2nn2sf4hipc6client24Hipc2ClientCoreProcessorILNS1_6detail11MessageTypeE6ENS0_4cmif6detail14CoreMethodInfoINSt3__15tupleIJNS7_18OutRawArgumentInfoILm4ELm4ELl68EEENS7_21OutObjectArgumentInfoILi0ELi0EEENSB_ILm66ELm2ELl0EEEEEELm0ELm72ELb0EEESG_E21ProcessWithOutObjectsEPNS2_26Hipc2ClientProxyBaseObjectENS6_6client24OutRawClientArgumentTypeILm4ELm4EEENSL_27OutObjectClientArgumentTypeENSM_ILm66ELm2EEEjPNS0_13SharedPointerINS0_14IServiceObjectEEE
_ZN3nne4nlib15NullInputStream11FillBuffer_EPvm
_ZN2nn2sf4cmif6client6detail13CmifProxyImplINS_2am7service18IDisplayControllerENS2_19CmifDomainProxyKindINS0_4hipc6client38Hipc2ClientSessionManagedProxyKindBaseINSA_18Hipc2ProxyKindBaseILNS9_6detail11MessageTypeE6EEEEEEENS0_30MemoryResourceAllocationPolicyES7_NS3_19ProcessModifierImplINS2_21DefaultProxyFilterTagEEEE46_nn_sf_sync_AcquireCallerAppletCaptureBufferExENS0_3OutIbvEENSN_INS0_12NativeHandleEvEE
_ZN2nn5codec35GetRequiredMemRam_SbrDecWorkBuffer2Ev
nnmem_nlib_strchr
_ZNK2nn3ngc6detail2Bp10FirstChildEj
_ZNK2nn7account12AsyncContext16GetPointerUnsafeEv
nncodecLibopus_opus_multistream_encode
_ZN2nn5codec8p2_13_20E
_ZN2nn2fs6detail18FileSystemAccessorD2Ev
nnutilZlib_inflate
_ZTIN2nn2sf4cmif6client6detail9CmifProxyINS_4nifm6detail14IStaticServiceENS2_19CmifDomainProxyKindINS0_4hipc6client38Hipc2ClientSessionManagedProxyKindBaseINSA_18Hipc2ProxyKindBaseILNS9_6detail11MessageTypeE6EEEEEEENS0_30MemoryResourceAllocationPolicyENS3_19ProcessModifierImplINS2_21DefaultProxyFilterTagEEEvEE
NvRmSyncExtractSemaphore
_ZN2nn2sf4cmif6client6detail13CmifProxyImplINS_2am7service16IStorageAccessorENS2_19CmifDomainProxyKindINS0_4hipc6client38Hipc2ClientSessionManagedProxyKindBaseINSA_18Hipc2ProxyKindBaseILNS9_6detail11MessageTypeE6EEEEEEENS0_30MemoryResourceAllocationPolicyES7_NS3_19ProcessModifierImplINS2_21DefaultProxyFilterTagEEEE16_nn_sf_sync_ReadElRKNS0_9OutBufferE
_ZN2nn7nlibsdk17VsnPrintfFallbackEPDimPKDiSt9__va_list
_ZN2nn4npns7ReceiveEPNS0_16NotificationDataE
NvRmSurfaceDumpJson
_ZN2nn2sf4cmif6client6detail13CmifProxyImplINS_2am7service21IApplicationFunctionsENS2_19CmifDomainProxyKindINS0_4hipc6client38Hipc2ClientSessionManagedProxyKindBaseINSA_18Hipc2ProxyKindBaseILNS9_6detail11MessageTypeE6EEEEEEENS0_30MemoryResourceAllocationPolicyES7_NS3_19ProcessModifierImplINS2_21DefaultProxyFilterTagEEEE30_nn_sf_sync_PopLaunchParameterENS0_3OutINS0_13SharedPointerINS6_8IStorageEEEvEEj
_ZN2nn2oe22SetCpuOverclockEnabledEb
_ZN2nn8settings6detail20GetBacklightSettingsEPNS0_6system19BacklightSettingsExE
_ZN2nn2sf4cmif6client6detail36GetClientProcessorImplWithObjectBaseINS2_19CmifDomainProxyKindINS0_4hipc6client38Hipc2ClientSessionManagedProxyKindBaseINS7_18Hipc2ProxyKindBaseILNS6_6detail11MessageTypeE6EEEEEEENS3_19ProcessModifierImplINS2_21DefaultProxyFilterTagEEEE14ObjectAssignerINS0_24StatefulAllocationPolicyINS0_16ExpHeapAllocatorEEESL_E14AllocateObjectINS_3ssl2sf14ISslConnectionEEEvi
_ZN2nn4util8BitArray10RightShiftEPS1_RKS1_i
nvdcutilClose
_ZThn8_N7android12BnMemoryHeap10onTransactEjRKNS_6ParcelEPS1_j
_ZTIN2nn2sf6detail38ObjectImplFactoryWithStatefulAllocatorINS0_4cmif6client6detail9CmifProxyINS_2am7service18ISystemAppletProxyENS4_19CmifDomainProxyKindINS0_4hipc6client38Hipc2ClientSessionManagedProxyKindBaseINSC_18Hipc2ProxyKindBaseILNSB_6detail11MessageTypeE6EEEEEEENS0_30MemoryResourceAllocationPolicyENS5_19ProcessModifierImplINS4_21DefaultProxyFilterTagEEEvEESK_E6ObjectE
FDK_getBitCnt
_ZN7android21SurfaceComposerClient11setPositionERKNS_2spINS_7IBinderEEEff
_ZNSt3__19__num_putIwE21__widen_and_group_intEPcS2_S2_PwRS3_S4_RKNS_6localeE
_ZTVNSt3__114codecvt_bynameIcc11__mbstate_tEE
_ZN2nn4lmem23GetRequiredUnitHeapSizeEmiib
_ZN2nn2sf4cmif6client6detail13CmifProxyImplINS_4pctl6detail3ipc23IParentalControlServiceENS2_19CmifDomainProxyKindINS0_4hipc6client38Hipc2ClientSessionManagedProxyKindBaseINSB_18Hipc2ProxyKindBaseILNSA_6detail11MessageTypeE6EEEEEEENS0_30MemoryResourceAllocationPolicyES8_NS3_19ProcessModifierImplINS2_21DefaultProxyFilterTagEEEE40_nn_sf_sync_IsFreeCommunicationAvailableEv
_ZTSN2nn2sf4cmif6client6detail9CmifProxyINS_8settings22IFactorySettingsServerENS0_4hipc6client18Hipc2ProxyKindBaseILNS7_6detail11MessageTypeE6EEENS0_30MemoryResourceAllocationPolicyENS3_19ProcessModifierImplINS2_21DefaultProxyFilterTagEEEvEE
_ZN2nn6socket6detail8InetNtoaENS0_6InAddrE
_ZN2nn2sf6detail38ObjectImplFactoryWithStatefulAllocatorINS0_4cmif6client6detail9CmifProxyINS_3ssl2sf14ISslConnectionENS4_19CmifDomainProxyKindINS0_4hipc6client38Hipc2ClientSessionManagedProxyKindBaseINSC_18Hipc2ProxyKindBaseILNSB_6detail11MessageTypeE6EEEEEEENS0_24StatefulAllocationPolicyINS0_16ExpHeapAllocatorEEENS5_19ProcessModifierImplINS4_21DefaultProxyFilterTagEEEvEESM_E6Object12AddReferenceEv
_ZNK7android19IGraphicBufferAlloc22getInterfaceDescriptorEv
fileno_unlocked
IDIV
_ZN2nn2fs5IsUncEPKc
_ZN2nn2fs3fsa11IFileSystem21DoGetFileTimeStampRawEPNS0_16FileTimeStampRawEPKc
_ZN2nn2am28IsInitializedAsLibraryAppletEv
_ZTVN2nn2sf6detail38ObjectImplFactoryWithStatefulAllocatorINS0_4cmif6client6detail9CmifProxyINS_2am7service19IOverlayAppletProxyENS4_19CmifDomainProxyKindINS0_4hipc6client38Hipc2ClientSessionManagedProxyKindBaseINSC_18Hipc2ProxyKindBaseILNSB_6detail11MessageTypeE6EEEEEEENS0_30MemoryResourceAllocationPolicyENS5_19ProcessModifierImplINS4_21DefaultProxyFilterTagEEEvEESK_E6ObjectE
nncodecLibopus_opus_fft_c
_ZN2nn3hid6system6detail25GetUsbFirmwareUpdateStateEPNS1_19FirmwareUpdateStateEPiS5_
_ZN2nn2sf4hipc6client24Hipc2ClientCoreProcessorILNS1_6detail11MessageTypeE6ENS0_4cmif6detail14CoreMethodInfoINSt3__15tupleIJNS7_18OutRawArgumentInfoILm4ELm4ELl0EEENS7_18BufferArgumentInfoILi0ELi6ELm0EEENSD_ILi1ELi5ELm0EEEEEELm0ELm4ELb0EEESG_E7ProcessEPNS2_26Hipc2ClientProxyBaseObjectENS6_6client24OutRawClientArgumentTypeILm4ELm4EEENSL_24BufferClientArgumentTypeESO_j
_ZN7android6Region13operationSelfERKS0_i
_ZN2nn3mii8Database6ImportEPKvm
_ZN2nn3web38ShowApplicationLegalInformationPageArg21DocumentPathMaxLengthE
_ZN7android15BufferQueueCore20freeAllBuffersLockedEv
_ZN2nn4util10BitFlagSetILi256ENS_3hid11KeyboardKeyEE4FlagILi36EE4MaskE
_ZN2nn2ec28AsyncRecoverRightDataRequest9BeginImplEPKNS0_30ConsumableServiceItemRightDataEi
_ZN2nn4lmem23GetExpHeapTotalFreeSizeEPNS0_6detail8HeapHeadE
silk_LTPScales_table_Q14
_ZN2nn5codec19HardwareOpusDecoderC1Ei
_ZN2nn2fs6detail9MountDataEPKcNS_3ncm6DataIdENS4_9StorageIdE
_ZN2nn2sf4hipc6server6detail29HipcAllInOneServerManagerBase16ReceiveAsSessionEPNS_2os19MultiWaitHolderTypeEPvm
NvDdkVicConfigureFilterCoefficients
_ZN2nn6capsrv45GetAlbumMovieReadStreamDataSizeForApplicationEPmNS0_26AlbumMovieReadStreamHandleE
_ZN2nn2sf4cmif6client6detail13CmifProxyImplINS_2am7service20IApplicationAccessorENS2_19CmifDomainProxyKindINS0_4hipc6client38Hipc2ClientSessionManagedProxyKindBaseINSA_18Hipc2ProxyKindBaseILNS9_6detail11MessageTypeE6EEEEEEENS0_30MemoryResourceAllocationPolicyES7_NS3_19ProcessModifierImplINS2_21DefaultProxyFilterTagEEEE48_nn_sf_sync_RequestForApplicationToGetForegroundEv
_ZN2nn5audio30RequestSuspendAudioInsForDebugENS_6applet20AppletResourceUserIdE
_ZN2nn5codec18aacDecoder_drcInitEPNS0_8CDrcInfoE
_ZN2nn8settings6system13GetColorSetIdEv
_ZNK2nn5audio3dsp20CommandListProcessor14GetSampleCountEv
_ZN2nn2sf4cmif6client6detail13CmifProxyImplINS_4pctl6detail3ipc23IParentalControlServiceENS2_19CmifDomainProxyKindINS0_4hipc6client38Hipc2ClientSessionManagedProxyKindBaseINSB_18Hipc2ProxyKindBaseILNSA_6detail11MessageTypeE6EEEEEEENS0_30MemoryResourceAllocationPolicyES8_NS3_19ProcessModifierImplINS2_21DefaultProxyFilterTagEEEE52_nn_sf_sync_FinishSynchronizeParentalControlSettingsENS6_9AsyncDataE
_Z19__nnmusl_release_fdsbP19__nnmuslCloseHandlePb21close_constraint_type
_ZN2nn2fs6detail22LruFileDataCacheSystem34ReserveFreePagesByGatherCompactionEPNS0_8IStorageElm
nndetailImagePng_png_get_io_ptr
_ZN2nn3mii6detail11CoreDataRaw11SetMoleTypeEi
_ZTIN2nn4nifm6detail8IRequestE
nvgr_get_usage
thrd_current
FSS_add_font_with_offset
_ZN2nn2sf4cmif6client6detail13CmifProxyImplINS_5visrv2sf22IManagerDisplayServiceENS0_4hipc6client18Hipc2ProxyKindBaseILNS8_6detail11MessageTypeE6EEENS0_30MemoryResourceAllocationPolicyES7_NS3_19ProcessModifierImplINS2_21DefaultProxyFilterTagEEEE30_nn_sf_sync_SetLayerVisibilityEmb
_ZNK2nn2fs3dbm20KeyValueListTemplateINS1_29HierarchicalFileTableTemplateINS1_13DirectoryNameENS1_8FileNameENS1_6detail13DirectoryInfoENS6_8FileInfoEE7FileKeyENS9_9FileEntryEE12FindInternalEPjSD_PNSC_14StorageElementERKSA_
nndetailImagePng_png_set_invalid
_ZN2nn2fs4save22SaveDataFileSystemCoreD0Ev
_ZTSN2nn3mii6detail14IStaticServiceE
_ZN2nn5swkbd14InlineKeyboardD2Ev
_ZNK7android6Parcel24readParcelFileDescriptorERi
_ZN2nn3ssl10Connection5WriteEPKcj
_ZNSt3__119__shared_weak_count4lockEv
fsg_RunFontProgram
_ZN2nn2fs13MemoryStorage5WriteElPKvm
_ZN2nn5swkbd14InlineKeyboard24SetDecidedCancelCallbackEPFvvE
_ZN2nn3ntc4shim29ResumeAutonomicTimeCorrectionEv
_ZNSt3__115numpunct_bynameIcEC2ERKNS_12basic_stringIcNS_11char_traitsIcEENS_9allocatorIcEEEEm
_ZN2nn3err11ExecuteJumpENS0_26ErrorViewerJumpDestinationE
_ZN2nn8irsensor6detail19CheckInternalStatusERKNS0_14IrCameraHandleE
_ZN2nn3ngc6detail9SbvSelect6ImportEPNS1_12BinaryReaderE
_ZTSN2nn2sf4cmif6client6detail13CmifProxyImplINS_7account19IAccountServiceBaseENS2_19CmifDomainProxyKindINS0_4hipc6client38Hipc2ClientSessionManagedProxyKindBaseINS9_18Hipc2ProxyKindBaseILNS8_6detail11MessageTypeE6EEEEEEENS0_25StatelessAllocationPolicyINS0_22ExpHeapStaticAllocatorILm2048ENS5_6detail12ObjectHolder24ObjectHolderAllocatorTagEEEEENS5_29IAccountServiceForApplicationENS3_19ProcessModifierImplINS2_21DefaultProxyFilterTagEEEEE
_ZN2nn2sf6detail38ObjectImplFactoryWithStatefulAllocatorINS0_4cmif6client6detail9CmifProxyIN3nns9hosbinder16IHOSBinderDriverENS4_19CmifDomainProxyKindINS0_4hipc6client38Hipc2ClientSessionManagedProxyKindBaseINSC_18Hipc2ProxyKindBaseILNSB_6detail11MessageTypeE6EEEEEEENS0_30MemoryResourceAllocationPolicyENS5_19ProcessModifierImplINS4_21DefaultProxyFilterTagEEEvEESK_E6Object7ReleaseEv
_ZN2nn5audio13SetVoicePitchEPNS0_9VoiceTypeEf
_ZN2nn5codec22OpusMultiStreamDecoder5ResetEv
_ZN2nn2os21TimedSendMessageQueueEPNS0_16MessageQueueTypeEmNS_8TimeSpanE
nncodecLibopus_silk_find_LPC_FIX
_ZNK2nn3web20LobbyPageReturnValue10GetLastUrlEv
_ZN2nn2sf13SharedPointerINS_3mii6detail21IImageDatabaseServiceEED2Ev
_ZN2nn7account6detail24SimpleOAuthProcedureBaseC1ERKNS0_3UidEPNS0_4http15IOAuthProcedureE
_ZTVN2nn4util6detail19FileInputStreamImplE
nnmem_nlib_memwide_to_utf8
_ZN2nn6socket8resolver10serializer13DNSSerializer8ToBufferI11sockaddr_inEElPhmRKT_
unw_get_reg
nncryptoAes128GcmEncryptorGetMac
_ZTSN2nn5fssrv2sf14IEventNotifierE
_ZN2nn2fs29EnsureApplicationCacheStorageEPlNS_3ncm13ApplicationIdERKNS_2ns26ApplicationControlPropertyE
_ZN22nerd_gillette_internal17OnAssertionFailedEPbPKciS2_S2_z
_ZTIN2nn8irsensor15IIrSensorServerE
_ZNSt3__111__libcpp_dbC2Ev
_ZN2nn4lmem15CreateFrameHeapEPvmiPNS0_6detail8HeapHeadE
nvdcInitAsyncEvents
_ZN2nn3hid6detail19GetTouchScreenStateILm6EEENS_6ResultEPNS0_16TouchScreenStateIXT_EEE
_ZN2nn3mii6detail15BufferAllocator13GetCurrentPtrEv
_ZNK2nn4util7UriPart12ParseIntegerEPt
_ZN2nn2sf4cmif6client6detail13CmifProxyImplINS_7account4baas24IManagerForSystemServiceENS2_19CmifDomainProxyKindINS0_4hipc6client38Hipc2ClientSessionManagedProxyKindBaseINSA_18Hipc2ProxyKindBaseILNS9_6detail11MessageTypeE6EEEEEEENS0_25StatelessAllocationPolicyINS0_22ExpHeapStaticAllocatorILm2048ENS5_6detail12ObjectHolder24ObjectHolderAllocatorTagEEEEES7_NS3_19ProcessModifierImplINS2_21DefaultProxyFilterTagEEEE61_nn_sf_sync_CalculateNintendoAccountAuthenticationFingerprintENS0_3OutINS5_40NintendoAccountAuthenticationFingerprintEvEE
_ZNK2nn5audio6server22PerformanceManagerImplINS1_33PerformanceManagerImplVersion1TagENS0_6common30PerformanceFrameHeaderVersion1ENS4_24PerformanceEntryVersion1ENS4_25PerformanceDetailVersion1ENS0_20PerformanceSysDetailEE14IsDetailTargetEj
nncodecLibopus_compute_frame_size
_ZN2nn2la21CommonArgumentsWriterD2Ev
_ZTIN2nn2sf4cmif6client6detail13CmifProxyImplINS_3mii6detail21IImageDatabaseServiceENS0_4hipc6client18Hipc2ProxyKindBaseILNS8_6detail11MessageTypeE6EEENS0_30MemoryResourceAllocationPolicyES7_NS3_19ProcessModifierImplINS2_21DefaultProxyFilterTagEEEEE
_ZNSt3__111timed_mutexC1Ev
_ZTIN2nn2sf13InterfaceInfoINS_5audio6detail21IAudioRendererManagerEE5_tO2NINS2_6server24AudioRendererManagerImplEE4typeE
_ZNK2nn4diag6detail17SymbolTableParser10GetAddressEv
_ZN2nn6socket8resolver3tls6Client24ClientThreadLocalStorageD2Ev
NvRmMemPin
_ZTVN2nn2fs6detail24SaveDataExporterVersion2E
_ZTIN2nn2os6detail31MultiWaitHolderOfUserWaitObjectE
_ZN2nn2sf4cmif6client6detail13CmifProxyImplINS_8settings28IFirmwareDebugSettingsServerENS0_4hipc6client18Hipc2ProxyKindBaseILNS7_6detail11MessageTypeE6EEENS0_30MemoryResourceAllocationPolicyES6_NS3_19ProcessModifierImplINS2_21DefaultProxyFilterTagEEEE41_nn_sf_sync_CreateSettingsItemKeyIteratorENS0_3OutINS0_13SharedPointerINS5_24ISettingsItemKeyIteratorEEEvEERKNS5_12SettingsNameE
_ZTINSt3__17codecvtIcc11__mbstate_tEE
unw_is_fpreg
_ZN2nn2os33DetachWritableHandleOfSystemEventEPNS0_15SystemEventTypeE
_ZTSN2nn2sf6detail38ObjectImplFactoryWithStatefulAllocatorINS0_4cmif6client6detail9CmifProxyINS_7account6detail13IAsyncContextENS4_19CmifDomainProxyKindINS0_4hipc6client38Hipc2ClientSessionManagedProxyKindBaseINSC_18Hipc2ProxyKindBaseILNSB_6detail11MessageTypeE6EEEEEEENS0_30MemoryResourceAllocationPolicyENS5_19ProcessModifierImplINS4_21DefaultProxyFilterTagEEEvEESK_E6ObjectE
_ZN2nn2am17GetSelfControllerEv
_ZN2nn8settings5fwdbg20SetSettingsItemValueEPKcS3_PKvm
_ZN2nn5audio6common11DumpCommandEPKNS0_10AuxCommandE
_ZTSN2nn3tma7ISocketE
_ZNSt3__115basic_streambufIcNS_11char_traitsIcEEE5sgetnEPcl
_ZN2nn2fs9MountLogoEPKcS2_NS_3ncm9ProgramIdE
_ZN2nn3hid13GetNpadStatesEPNS0_13NpadLarkStateEiRKj
_ZN2nn3hid6system6detail32BindJoyDetachOnBluetoothOffEventEPNS_2os15SystemEventTypeENS3_14EventClearModeE
_ZN2nn2sf4cmif6client6detail13CmifProxyImplINS_3hid16IHidSystemServerENS0_4hipc6client18Hipc2ProxyKindBaseILNS7_6detail11MessageTypeE6EEENS0_30MemoryResourceAllocationPolicyES6_NS3_19ProcessModifierImplINS2_21DefaultProxyFilterTagEEEE31_nn_sf_sync_HasLeftRightBatteryENS0_3OutIbvEESJ_j
_ZN2nn3mii6detail25CalculateSizeAndAlignment20AddSizeWithAlignmentEmm
_ZN2nn2sf4cmif6client6detail13CmifProxyImplINS_4nifm6detail8IRequestENS2_19CmifDomainProxyKindINS0_4hipc6client38Hipc2ClientSessionManagedProxyKindBaseINSA_18Hipc2ProxyKindBaseILNS9_6detail11MessageTypeE6EEEEEEENS0_30MemoryResourceAllocationPolicyES7_NS3_19ProcessModifierImplINS2_21DefaultProxyFilterTagEEEE22_nn_sf_sync_SetInstantEb
_ZN2nn4timeplERKNS0_12CalendarTimeERKNS_8TimeSpanE
_ZN2nn3web14ShowWebPageArg22OverrideWebAudioVolumeEf
_ZTv0_n40_N7android8BpBinder15onLastStrongRefEPKv
pthread_attr_setschedpolicy
__nnmusl_socket_GetHErrno
_ZTSN2nn5audio6detail8IAudioInE
_ZN2nn2sf4cmif6client34CmifDomainProxyClientCoreProcessorINS0_4hipc6client38Hipc2ClientSessionManagedProxyKindBaseINS5_18Hipc2ProxyKindBaseILNS4_6detail11MessageTypeE6EEEEENS1_6detail14CoreMethodInfoINSt3__15tupleIJNSC_17InRawArgumentInfoILm32ELm1ELl0EEENSG_ILm32ELm1ELl32EEEEEELm64ELm0ELb0EEESJ_E7ProcessEPNS2_23CmifDomainClientMessageISB_E15ProxyBaseObjectENS2_23InRawClientArgumentTypeILm32ELm1EvEESR_j
_ZN2nn2sf4cmif6client6detail13CmifProxyImplINS_7friends6detail3ipc15IServiceCreatorENS2_19CmifDomainProxyKindINS0_4hipc6client38Hipc2ClientSessionManagedProxyKindBaseINSB_18Hipc2ProxyKindBaseILNSA_6detail11MessageTypeE6EEEEEEENS0_30MemoryResourceAllocationPolicyES8_NS3_19ProcessModifierImplINS2_21DefaultProxyFilterTagEEEE12GetProxyInfoEv
_ZN3nne4nlib11InputStreamD0Ev
_ZN7android19GraphicBufferMapper16unregisterBufferEPK13native_handle
_ZN2nn2sf4cmif6client6detail13CmifProxyImplINS_7account31IAccountServiceForSystemServiceENS2_19CmifDomainProxyKindINS0_4hipc6client38Hipc2ClientSessionManagedProxyKindBaseINS9_18Hipc2ProxyKindBaseILNS8_6detail11MessageTypeE6EEEEEEENS0_25StatelessAllocationPolicyINS0_22ExpHeapStaticAllocatorILm2048ENS5_6detail12ObjectHolder24ObjectHolderAllocatorTagEEEEES6_NS3_19ProcessModifierImplINS2_21DefaultProxyFilterTagEEEE34_nn_sf_sync_ClearSaveDataThumbnailERKNS5_3UidENS_13ApplicationIdE
FsLttComponent_getAdjustment
_ZTSN2nn3hid6detail24NpadSharedMemoryAccessorE
_ZN2nn4nifm6detail29TemporaryNetworkProfileClient7PersistEv
_ZN2nn8settings6detail26GetWirelessLanCountryCodesEPiPNS0_7factory11CountryCodeEi
_ZN2nn2sf4cmif6client34CmifDomainProxyClientCoreProcessorINS0_4hipc6client38Hipc2ClientSessionManagedProxyKindBaseINS5_18Hipc2ProxyKindBaseILNS4_6detail11MessageTypeE6EEEEENS1_6detail14CoreMethodInfoINSt3__15tupleIJNSC_18OutRawArgumentInfoILm56ELm8ELl0EEENSC_18BufferArgumentInfoILi0ELi26ELm128EEEEEELm0ELm56ELb0EEESK_E7ProcessEPNS2_23CmifDomainClientMessageISB_E15ProxyBaseObjectENS2_24OutRawClientArgumentTypeILm56ELm8EEENS2_24BufferClientArgumentTypeEj
_ZN2nn2sf4hipc6client24Hipc2ClientCoreProcessorILNS1_6detail11MessageTypeE6ENS0_4cmif6detail14CoreMethodInfoINSt3__15tupleIJNS7_18OutRawArgumentInfoILm4ELm4ELl0EEEEEELm0ELm4ELb0EEESD_E7ProcessEPNS2_26Hipc2ClientProxyBaseObjectENS6_6client24OutRawClientArgumentTypeILm4ELm4EEEj
_ZN2nn2sf4cmif6client6detail13CmifProxyImplINS_4bcat6detail3ipc12IBcatServiceENS2_19CmifDomainProxyKindINS0_4hipc6client38Hipc2ClientSessionManagedProxyKindBaseINSB_18Hipc2ProxyKindBaseILNSA_6detail11MessageTypeE6EEEEEEENS0_30MemoryResourceAllocationPolicyES8_NS3_19ProcessModifierImplINS2_21DefaultProxyFilterTagEEEE37_nn_sf_sync_ClearDeliveryCacheStorageENS_13ApplicationIdE
_ZN2nn2fs3dbm15AllocationTable11UpdateChainEjjjjj
_ZN2nn2sf4cmif6client6detail13CmifProxyImplINS_3hid16IHidSystemServerENS0_4hipc6client18Hipc2ProxyKindBaseILNS7_6detail11MessageTypeE6EEENS0_30MemoryResourceAllocationPolicyES6_NS3_19ProcessModifierImplINS2_21DefaultProxyFilterTagEEEE41_nn_sf_sync_DeleteButtonConfigStorageLeftEi
_ZN2nn2sf6detail38ObjectImplFactoryWithStatefulAllocatorINS0_4cmif6client6detail9CmifProxyINS_4npns9INpnsUserENS0_4hipc6client18Hipc2ProxyKindBaseILNS9_6detail11MessageTypeE6EEENS0_30MemoryResourceAllocationPolicyENS5_19ProcessModifierImplINS4_21DefaultProxyFilterTagEEEvEESF_E6Object7ReleaseEv
NvOsConditionWaitTimeout
_ZN2nn2sf6detail38ObjectImplFactoryWithStatefulAllocatorINS0_4cmif6client6detail9CmifProxyINS_7account6detail13IAsyncContextENS4_19CmifDomainProxyKindINS0_4hipc6client38Hipc2ClientSessionManagedProxyKindBaseINSC_18Hipc2ProxyKindBaseILNSB_6detail11MessageTypeE6EEEEEEENS0_30MemoryResourceAllocationPolicyENS5_19ProcessModifierImplINS4_21DefaultProxyFilterTagEEEvEESK_E6Object12AddReferenceEv
_ZN2nn3hid6detail30SetNpadJoyAssignmentModeSingleERKjNS0_17NpadJoyDeviceTypeE
_ZN2nn2sf4cmif6client6detail13CmifProxyImplINS_8settings28IFirmwareDebugSettingsServerENS0_4hipc6client18Hipc2ProxyKindBaseILNS7_6detail11MessageTypeE6EEENS0_30MemoryResourceAllocationPolicyES6_NS3_19ProcessModifierImplINS2_21DefaultProxyFilterTagEEEE34_nn_sf_sync_SetMemoryUsageRateFlagEb
_ZN2nn2sf4cmif6client6detail13CmifProxyImplINS_2am7service26ILibraryAppletSelfAccessorENS2_19CmifDomainProxyKindINS0_4hipc6client38Hipc2ClientSessionManagedProxyKindBaseINSA_18Hipc2ProxyKindBaseILNS9_6detail11MessageTypeE6EEEEEEENS0_30MemoryResourceAllocationPolicyES7_NS3_19ProcessModifierImplINS2_21DefaultProxyFilterTagEEEE33_nn_sf_sync_CanUseApplicationCoreENS0_3OutIbvEE
nndetailImagePng_png_handle_bKGD
_ZN2nn2sf4cmif6server22CmifDomainServerObject18ProcessMessageImplEPNS2_17CmifServerMessageEPNS2_16CmifServerDomainENS0_6detail14PointerAndSizeE
_ZN2nn3nsd6detail3ipc37IsChangeEnvironmentIdentifierDisabledEPb
_ZTSN2nn2os6detail31MultiWaitHolderOfUserWaitObjectE
_ZN2nn3ssl10Connection16GetNextAlpnProtoEPNS1_14AlpnProtoStateEPhPjj
_ZN2nn2sf4cmif6client6detail13CmifProxyImplINS_7timesrv6detail7service12ISystemClockENS2_19CmifDomainProxyKindINS0_4hipc6client38Hipc2ClientSessionManagedProxyKindBaseINSB_18Hipc2ProxyKindBaseILNSA_6detail11MessageTypeE6EEEEEEENS0_30MemoryResourceAllocationPolicyES8_NS3_19ProcessModifierImplINS2_21DefaultProxyFilterTagEEEE26_nn_sf_sync_SetCurrentTimeENS_4time9PosixTimeE
_ZN2nn5codec24GetOpusDecoderSampleRateEPKNS0_15OpusDecoderTypeE
nncryptoAes128GcmDecryptorReset
_ZN2nn2sf4cmif6client6detail13CmifProxyImplINS_3hid15IHidDebugServerENS0_4hipc6client18Hipc2ProxyKindBaseILNS7_6detail11MessageTypeE6EEENS0_30MemoryResourceAllocationPolicyES6_NS3_19ProcessModifierImplINS2_21DefaultProxyFilterTagEEEE33_nn_sf_sync_UpdateControllerColorENS_4util8Unorm8x4ESJ_NS5_6system11UniquePadIdE
_ZN2nn2oe29BeginAutoSleepDisabledSectionEv
_ZN2nn2sf4cmif6client6detail13CmifProxyImplINS_8settings21ISystemSettingsServerENS0_4hipc6client18Hipc2ProxyKindBaseILNS7_6detail11MessageTypeE6EEENS0_30MemoryResourceAllocationPolicyES6_NS3_19ProcessModifierImplINS2_21DefaultProxyFilterTagEEEE28_nn_sf_sync_GetPtmBatteryLotENS0_3OutINS5_10BatteryLotEvEE
_ZN7android6Parcel10appendFromEPKS0_mm
_ZNSt3__122__libcpp_mutex_destroyEPN2nn2os9MutexTypeE
_ZN2nn2sf6detail39ObjectImplFactoryWithStatelessAllocatorINS0_4cmif6client6detail9CmifProxyINS_7account7profile14IProfileEditorENS4_19CmifDomainProxyKindINS0_4hipc6client38Hipc2ClientSessionManagedProxyKindBaseINSC_18Hipc2ProxyKindBaseILNSB_6detail11MessageTypeE6EEEEEEENS0_25StatelessAllocationPolicyINS0_22ExpHeapStaticAllocatorILm2048ENS7_6detail12ObjectHolder24ObjectHolderAllocatorTagEEEEENS5_19ProcessModifierImplINS4_21DefaultProxyFilterTagEEEvEESQ_E6Object7ReleaseEv
_ZTIN2nn2sf4cmif6client6detail9CmifProxyINS_2am7service18ISystemAppletProxyENS2_19CmifDomainProxyKindINS0_4hipc6client38Hipc2ClientSessionManagedProxyKindBaseINSA_18Hipc2ProxyKindBaseILNS9_6detail11MessageTypeE6EEEEEEENS0_30MemoryResourceAllocationPolicyENS3_19ProcessModifierImplINS2_21DefaultProxyFilterTagEEEvEE
_ZN2nn8settings6system15GetProductModelEv
_ZNSt3__16futureIvED2Ev
_ZN2nn2sf4cmif6client6detail13CmifProxyImplINS_2am7service24IApplicationProxyServiceENS2_19CmifDomainProxyKindINS0_4hipc6client38Hipc2ClientSessionManagedProxyKindBaseINSA_18Hipc2ProxyKindBaseILNS9_6detail11MessageTypeE6EEEEEEENS0_30MemoryResourceAllocationPolicyES7_NS3_19ProcessModifierImplINS2_21DefaultProxyFilterTagEEEE12GetProxyInfoEv
nncodecLibopus_opus_multistream_packet_pad
_ZN2nn8irsensor6detail15IrSensorSession11CreateProxyEv
fix_fnt
apply_transformation
_ZN2nn3mii6detail16Ver3StoreDataRaw14SetMouthAspectEi
_ZN2nn4util6detail7msgpack11WriteBinaryEPNS0_17MessagePackWriter11StreamParamEPKvj
_ZN2nn5audio16SharedRingBuffer16ClearSharedStateEv
_ZN2nn5audio3dsp17WriteAuxBufferDspEPNS0_10AuxInfoDspEmjPKijjj
_ZN2nn6crypto6detail7AesImplILm32EED2Ev
_ZNK2nn3mii8Database8GetIndexEPiRKNS0_8CharInfoE
_ZN2nn8settings6system12IsNfcEnabledEv
_ZNKSt3__17codecvtIDsc11__mbstate_tE13do_max_lengthEv
scalbln
nncodecLibopus_celt_sqrt
_ZNK2nn8irsensor6detail8RingLifoINS0_24ClusteringProcessorStateELi5EE4ReadEPS3_ij
_ZN2nn4time27EphemeralNetworkSystemClock9to_time_tERKNSt3__16chrono10time_pointINS0_17SystemClockTraitsENS3_8durationIlNS2_5ratioILl1ELl1EEEEEEE
_ZN7android14IPCThreadState16threadDestructorEPv
_ZNSt3__110__time_getC1EPKc
_ZN2nn2os26BroadcastConditionVariableEPNS0_21ConditionVariableTypeE
_ZTSN2nn2sf4cmif6client6detail13CmifProxyImplINS_2am7service19ILibraryAppletProxyENS2_19CmifDomainProxyKindINS0_4hipc6client38Hipc2ClientSessionManagedProxyKindBaseINSA_18Hipc2ProxyKindBaseILNS9_6detail11MessageTypeE6EEEEEEENS0_30MemoryResourceAllocationPolicyES7_NS3_19ProcessModifierImplINS2_21DefaultProxyFilterTagEEEEE
_ZN2nn2sf4hipc6client24Hipc2ClientCoreProcessorILNS1_6detail11MessageTypeE6ENS0_4cmif6detail14CoreMethodInfoINSt3__15tupleIJNS7_17InRawArgumentInfoILm8ELm8ELl24EEENSB_ILm4ELm4ELl0EEENSB_ILm16ELm4ELl4EEEEEELm32ELm0ELb1EEESF_E7ProcessEPNS2_26Hipc2ClientProxyBaseObjectENS6_6client23InRawClientArgumentTypeILm8ELm8EvEENSL_ILm4ELm4EvEENSL_ILm16ELm4EvEEj
nndetailImagePng_png_colorspace_set_chromaticities
_ZN2nn8irsensor6detail15IrSensorSession26IsLibraryAppletCallEnabledERKNS0_22IrCameraInternalStatusERKNS0_14IrCameraHandleE
NvOsDrvIoctl2
_ZN2nn9hidconfig21IsDefaultButtonConfigERKNS0_17ButtonConfigRightE
_ZN2nn4util17MessagePackWriter11WriteBinaryEPKvj
NvOsDrvIoctl3
_ZN7android12BnMemoryHeap10onTransactEjRKNS_6ParcelEPS1_j
_ZN2nn7account23AuthenticateApplicationEPNS0_12AsyncContextENS_3arp21ApplicationInstanceIdE
_ZN2nn3ngc1t6ReloadEv
_ZTVN3nne4nlib12OutputStreamE
_ZN2nn2sf4cmif6client6detail13CmifProxyImplINS_3hid10IHidServerENS0_4hipc6client18Hipc2ProxyKindBaseILNS7_6detail11MessageTypeE6EEENS0_30MemoryResourceAllocationPolicyES6_NS3_19ProcessModifierImplINS2_21DefaultProxyFilterTagEEEE53_nn_sf_sync_IsFirmwareUpdateAvailableForSixAxisSensorENS0_3OutIbvEENS_6applet20AppletResourceUserIdENS5_19SixAxisSensorHandleE
_ZN2nn3mii6detail11UtilityImpl21SetRandomSeedForDebugEl
_ZN2nn2sf4cmif6client6detail13CmifProxyImplINS_7account6detail13IAsyncContextENS2_19CmifDomainProxyKindINS0_4hipc6client38Hipc2ClientSessionManagedProxyKindBaseINSA_18Hipc2ProxyKindBaseILNS9_6detail11MessageTypeE6EEEEEEENS0_25StatelessAllocationPolicyINS0_22ExpHeapStaticAllocatorILm2048ENS6_12ObjectHolder24ObjectHolderAllocatorTagEEEEES7_NS3_19ProcessModifierImplINS2_21DefaultProxyFilterTagEEEE17GetCmifBaseObjectEv
FsLtt_getGroupType
_ZN2nn8irsensor6detail17GetIrCameraHandleEPNS0_14IrCameraHandleERKj
_ZN2nn3kpr15KeyCodeComposer6RemoveEPti
_ZNK2nn3mii6detail11CoreDataRaw7GetEyeXEv
_ZN2nn8settings6system29GetErrorReportSharePermissionEv
_ZTIN2nn5audio6server7AuxInfoE
nnsslConnectionGetSocketDescriptor
_ZN2nn5audio9AddReverbEPNS0_19AudioRendererConfigEPNS0_10ReverbTypeEPvmPNS0_12FinalMixTypeEi
_ZN2nn5audio3dsp14ConvertFormat1EPfPKiii
_ZN2nn3hid20GetTouchScreenStatesILm2EEEiPNS0_16TouchScreenStateIXT_EEEi
_ZN2nn2sf4cmif6client6detail13CmifProxyImplINS_3hid15IHidDebugServerENS0_4hipc6client18Hipc2ProxyKindBaseILNS7_6detail11MessageTypeE6EEENS0_30MemoryResourceAllocationPolicyES6_NS3_19ProcessModifierImplINS2_21DefaultProxyFilterTagEEEE39_nn_sf_sync_AcquireOperationEventHandleENS0_3OutINS0_12NativeHandleEvEENS5_6system11UniquePadIdE
_ZTSN2nn2sf4cmif6client6detail13CmifProxyImplINS_7account4baas12IManagerBaseENS2_19CmifDomainProxyKindINS0_4hipc6client38Hipc2ClientSessionManagedProxyKindBaseINSA_18Hipc2ProxyKindBaseILNS9_6detail11MessageTypeE6EEEEEEENS0_25StatelessAllocationPolicyINS0_22ExpHeapStaticAllocatorILm2048ENS5_6detail12ObjectHolder24ObjectHolderAllocatorTagEEEEENS6_14IAdministratorENS3_19ProcessModifierImplINS2_21DefaultProxyFilterTagEEEEE
_ZTIN2nn2sf4cmif6client6detail13CmifProxyImplINS_2am7service21IStackableAppletProxyENS2_19CmifDomainProxyKindINS0_4hipc6client38Hipc2ClientSessionManagedProxyKindBaseINSA_18Hipc2ProxyKindBaseILNS9_6detail11MessageTypeE6EEEEEEENS0_30MemoryResourceAllocationPolicyENS6_19IOverlayAppletProxyENS3_19ProcessModifierImplINS2_21DefaultProxyFilterTagEEEEE
_ZN2nn3hid6detail17FinalizeDigitizerEv
_ZN2nn8settings6system11SetThemeKeyERKNS_8fssystem13ArchiveMacKeyE
_ZN2nn3hid33DisableNpadAnalogStickCenterClampEv
_ZN2nn2fs26DeleteDirectoryRecursivelyEPKc
_ZTSN2nn2fs3fsa24ISaveDataAttributeGetterE
_ZN2nn3ldn12CloseStationEv
_ZN2nn2os17GetMemoryHeapSizeEv
_ZTIN2nn5audio6detail24IAudioInManagerForAppletE
_ZTIN2nn5codec12IOpusEncoderE
_ZTIN2nn2sf6detail38ObjectImplFactoryWithStatefulAllocatorINS0_4cmif6client6detail9CmifProxyINS_5codec6detail20IHardwareOpusDecoderENS4_19CmifDomainProxyKindINS0_4hipc6client38Hipc2ClientSessionManagedProxyKindBaseINSC_18Hipc2ProxyKindBaseILNSB_6detail11MessageTypeE6EEEEEEENS0_30MemoryResourceAllocationPolicyENS5_19ProcessModifierImplINS4_21DefaultProxyFilterTagEEEvEESK_E6ObjectE
_ZN2nn2sf13SharedPointerINS_3spl6detail16IRandomInterfaceEED2Ev
_ZN2nn3mii21ParamCharInfoAccessorC1ERKNS0_8CharInfoE
_ZN2nn4pctl6detail3ipc35InitializeWatcherIpcSessionIfNeededEv
_ZN2nn2sf4cmif6client6detail13CmifProxyImplINS_5visrv2sf22IManagerDisplayServiceENS0_4hipc6client18Hipc2ProxyKindBaseILNS8_6detail11MessageTypeE6EEENS0_30MemoryResourceAllocationPolicyES7_NS3_19ProcessModifierImplINS2_21DefaultProxyFilterTagEEEE32_nn_sf_sync_SetTimestampTrackingEmb
_ZN2nn2sf4cmif6client6detail13CmifProxyImplINS_5visrv2sf26IApplicationDisplayServiceENS0_4hipc6client18Hipc2ProxyKindBaseILNS8_6detail11MessageTypeE6EEENS0_30MemoryResourceAllocationPolicyES7_NS3_19ProcessModifierImplINS2_21DefaultProxyFilterTagEEEE36_nn_sf_sync_GetManagerDisplayServiceENS0_3OutINS0_13SharedPointerINS6_22IManagerDisplayServiceEEEvEE
_ZN2nn5audio22SetSplitterDestinationEPNS0_19AudioRendererConfigEPNS0_12SplitterTypeEiPNS0_10SubMixTypeE
_ZN2nn2vi6detail18IndirectLayerTableC1Ev
NvRmSyncCreateFromFd
_ZNSt3__112future_errorD0Ev
_ZN2nn2fs17RamDiskFileSystem17DoCreateDirectoryEPKc
_ZTSN2nn4bcat6detail3ipc12IBcatServiceE
nnmem_nlib_thread_priority_max
_ZN2nn3hid6detail24NpadSharedMemoryAccessorD2Ev
_ZN2nn3hid6system6detail44GetSixAxisSensorAccurateUserCalibrationStateEPNS1_41SixAxisSensorAccurateUserCalibrationStateERKNS1_25UniqueSixAxisSensorHandleE
_ZN2nn2sf4cmif6client6detail13CmifProxyImplINS_3mii6detail21IImageDatabaseServiceENS0_4hipc6client18Hipc2ProxyKindBaseILNS8_6detail11MessageTypeE6EEENS0_30MemoryResourceAllocationPolicyES7_NS3_19ProcessModifierImplINS2_21DefaultProxyFilterTagEEEE21_nn_sf_sync_LoadImageERKNS0_9OutBufferERKNS_4util4UuidE
_ZNSt19bad_optional_accessD1Ev
feclearexcept
_ZN2nn5codec26CChannel_CodebookTableInitEPNS0_22CAacDecoderChannelInfoE
_ZN2nn5codec16CopyAlignedBlockEPNS0_10FDK_BITBUFEPhj
_ZN2nn2sf4cmif6client6detail13CmifProxyImplINS_8settings22IFactorySettingsServerENS0_4hipc6client18Hipc2ProxyKindBaseILNS7_6detail11MessageTypeE6EEENS0_30MemoryResourceAllocationPolicyES6_NS3_19ProcessModifierImplINS2_21DefaultProxyFilterTagEEEE29_nn_sf_sync_GetGyroscopeScaleENS0_3OutINS5_7factory14GyroscopeScaleEvEE
nnsocketBind
_ZN2nn5swkbd6detail18InlineKeyboardImpl17UnsetUserWordInfoEv
_ZThn32_N2nn2sf4cmif6client6detail13CmifProxyImplINS_2am7service15IAppletAccessorENS2_19CmifDomainProxyKindINS0_4hipc6client38Hipc2ClientSessionManagedProxyKindBaseINSA_18Hipc2ProxyKindBaseILNS9_6detail11MessageTypeE6EEEEEEENS0_30MemoryResourceAllocationPolicyES7_NS3_19ProcessModifierImplINS2_21DefaultProxyFilterTagEEEE17GetCmifBaseObjectEv
_ZN2nn4bcat22DeliveryCacheDirectory4OpenEPKc
_ZTIN2nn2os6detail26MultiWaitHolderOfSemaphoreE
_ZN2nn2sf4cmif6client6detail13CmifProxyImplINS_7account3nas29IOAuthProcedureForExternalNsaENS2_19CmifDomainProxyKindINS0_4hipc6client38Hipc2ClientSessionManagedProxyKindBaseINSA_18Hipc2ProxyKindBaseILNS9_6detail11MessageTypeE6EEEEEEENS0_25StatelessAllocationPolicyINS0_22ExpHeapStaticAllocatorILm2048ENS5_6detail12ObjectHolder24ObjectHolderAllocatorTagEEEEES7_NS3_19ProcessModifierImplINS2_21DefaultProxyFilterTagEEEE38_nn_sf_sync_GetLinkedNintendoAccountIdENS0_3OutINS5_17NintendoAccountIdEvEE
_ZNK2nn5audio15BehaviorManager11GetRevisionEv
_ZN2nn5audio6server24AudioRendererManagerImpl17AudioRendererImpl5StartEv
_ZN2nn4util10BitFlagSetILi256ENS_3hid11KeyboardKeyEE4FlagILi51EE4MaskE
_ZNK2nn3mii6detail12StoreDataRaw10GetEyeTypeEv
_Z33__nnmusl_GetCurrentThreadInternalPPN2nn2os10ThreadTypeEPP14pthread_data_t
_ZN2nn5album21GetSharePostedEntryIdEPcmRKNS0_7ShareIdE
_ZN2nn2fs6detail32WriteSaveDataFileSystemExtraDataENS0_15SaveDataSpaceIdEmRKNS0_17SaveDataExtraDataE
_ZN2nn3mii6detail11CoreDataRaw9SetHeightEi
_ZN2nn2sf4cmif6client6detail13CmifProxyImplINS_7account6detail9INotifierENS2_19CmifDomainProxyKindINS0_4hipc6client38Hipc2ClientSessionManagedProxyKindBaseINSA_18Hipc2ProxyKindBaseILNS9_6detail11MessageTypeE6EEEEEEENS0_25StatelessAllocationPolicyINS0_22ExpHeapStaticAllocatorILm2048ENS6_12ObjectHolder24ObjectHolderAllocatorTagEEEEES7_NS3_19ProcessModifierImplINS2_21DefaultProxyFilterTagEEEE26_nn_sf_sync_GetSystemEventENS0_3OutINS0_12NativeHandleEvEE
_ZN2nn4pctl11PairingInfoC2Ev
_ZN2nn5swkbd6detail18InlineKeyboardImpl8EnableSeENS0_7SeGroupEb
_ZNKSt9bad_alloc4whatEv
_ZN2nn5audio27IsValidMixBufferSampleCountEii
_ZN2nn2sf4hipc6client24Hipc2ClientCoreProcessorILNS1_6detail11MessageTypeE6ENS0_4cmif6detail14CoreMethodInfoINSt3__15tupleIJNS7_18BufferArgumentInfoILi0ELi6ELm0EEENS7_18OutRawArgumentInfoILm1ELm1ELl0EEENS7_17InRawArgumentInfoILm8ELm8ELl8EEENSF_ILm4ELm4ELl4EEENSF_ILm2ELm2ELl0EEEEEELm16ELm1ELb1EEESJ_E7ProcessEPNS2_26Hipc2ClientProxyBaseObjectENS6_6client24BufferClientArgumentTypeENSO_24OutRawClientArgumentTypeILm1ELm1EEENSO_23InRawClientArgumentTypeILm8ELm8EvEENSS_ILm4ELm4EvEENSS_ILm2ELm2EvEEj
_ZNK2nn5codec11OpusEncoder21GetPreSkipSampleCountEv
load_ttf
_ZN2nn2sf4cmif6client6detail13CmifProxyImplINS_7friends6detail3ipc14IFriendServiceENS2_19CmifDomainProxyKindINS0_4hipc6client38Hipc2ClientSessionManagedProxyKindBaseINSB_18Hipc2ProxyKindBaseILNSA_6detail11MessageTypeE6EEEEEEENS0_30MemoryResourceAllocationPolicyES8_NS3_19ProcessModifierImplINS2_21DefaultProxyFilterTagEEEE32_nn_sf_sync_GetSnsAccountLinkageENS0_3OutINS5_17SnsAccountLinkageEvEERKNS_7account3UidE
_ZN2nn5image11JpegEncoderD1Ev
_ZN2nn8settings6detail15GetEulaVersionsEPiPNS0_6system11EulaVersionEi
_ZN2nn6socket6detail10GetSockOptEiNS0_5LevelENS0_6OptionEPvPj
_ZNSt3__18ios_base9uppercaseE
_ZNSt3__117declare_reachableEPv
pthread_attr_getschedparam
_ZN2nn2sf4cmif6client6detail13CmifProxyImplINS_4bcat6detail3ipc12IBcatServiceENS2_19CmifDomainProxyKindINS0_4hipc6client38Hipc2ClientSessionManagedProxyKindBaseINSB_18Hipc2ProxyKindBaseILNSA_6detail11MessageTypeE6EEEEEEENS0_30MemoryResourceAllocationPolicyES8_NS3_19ProcessModifierImplINS2_21DefaultProxyFilterTagEEEE27_nn_sf_sync_GetDeliveryListENS0_3OutImvEERKNS0_9OutBufferENS_13ApplicationIdE
fseek
_ZN2nn2sf4hipc6client24Hipc2ClientCoreProcessorILNS1_6detail11MessageTypeE6ENS0_4cmif6detail14CoreMethodInfoINSt3__15tupleIJNS7_18BufferArgumentInfoILi0ELi22ELm52EEENS7_17InRawArgumentInfoILm4ELm4ELl0EEEEEELm4ELm0ELb0EEESF_E7ProcessEPNS2_26Hipc2ClientProxyBaseObjectENS6_6client24BufferClientArgumentTypeENSK_23InRawClientArgumentTypeILm4ELm4EvEEj
_ZTIN2nn2sf4cmif6client6detail9CmifProxyINS_4nifm6detail12IScanRequestENS2_19CmifDomainProxyKindINS0_4hipc6client38Hipc2ClientSessionManagedProxyKindBaseINSA_18Hipc2ProxyKindBaseILNS9_6detail11MessageTypeE6EEEEEEENS0_30MemoryResourceAllocationPolicyENS3_19ProcessModifierImplINS2_21DefaultProxyFilterTagEEEvEE
_ZZN2nn2sf40SimpleAllInOneHipcSubDomainClientManagerILm16EE27InitializeShimLibraryHolderINS_4nifm6detail14IStaticServiceENS0_4cmif6client6detail19ProcessModifierImplINS8_21DefaultProxyFilterTagEEEEENS_6ResultEPNS0_23ShimLibraryObjectHolderIT_EEPKcPNS_14MemoryResourceEENKUlPvE_clESM_
_ZN2nn2sf6detail39ObjectImplFactoryWithStatelessAllocatorINS0_4cmif6client6detail9CmifProxyINS_7account29IAccountServiceForApplicationENS4_19CmifDomainProxyKindINS0_4hipc6client38Hipc2ClientSessionManagedProxyKindBaseINSB_18Hipc2ProxyKindBaseILNSA_6detail11MessageTypeE6EEEEEEENS0_25StatelessAllocationPolicyINS0_22ExpHeapStaticAllocatorILm2048ENS7_6detail12ObjectHolder24ObjectHolderAllocatorTagEEEEENS5_19ProcessModifierImplINS4_21DefaultProxyFilterTagEEEvEESP_E6Object12AddReferenceEv
_ZN2nn5codec19aacDecoder_drcApplyEPNS0_8CDrcInfoEPvPNS0_22CAacDecoderChannelInfoEPNS0_15CDrcChannelDataEPiiii
_ZN2nn8settings6detail16GetSleepSettingsEPNS0_6system13SleepSettingsE
_ZN2nn8settings6detail32GetWirelessCertificationFileSizeEPm
NvDdkVicConfigureTransform
_ZTIN2nn2os6detail36MultiWaitHolderOfMessageQueueNotFullE
_ZN2nn4util17MessagePackWriter20WriteSignedInteger32Ei
_ZN2nn2sf4cmif6client6detail13CmifProxyImplINS_5visrv2sf26IApplicationDisplayServiceENS0_4hipc6client18Hipc2ProxyKindBaseILNS8_6detail11MessageTypeE6EEENS0_30MemoryResourceAllocationPolicyES7_NS3_19ProcessModifierImplINS2_21DefaultProxyFilterTagEEEE30_nn_sf_sync_OpenDefaultDisplayENS0_3OutImvEE
_ZNSt3__113basic_istreamIwNS_11char_traitsIwEEE3getERNS_15basic_streambufIwS2_EEw
_ZNK2nn3mii6detail11CoreDataRaw16GetEyebrowAspectEv
_ZTIN2nn2sf6detail38ObjectImplFactoryWithStatefulAllocatorINS0_4cmif6client6detail9CmifProxyINS_5prepo6detail3ipc13IPrepoServiceENS4_19CmifDomainProxyKindINS0_4hipc6client38Hipc2ClientSessionManagedProxyKindBaseINSD_18Hipc2ProxyKindBaseILNSC_6detail11MessageTypeE6EEEEEEENS0_30MemoryResourceAllocationPolicyENS5_19ProcessModifierImplINS4_21DefaultProxyFilterTagEEEvEESL_E6ObjectE
_ZN2nn2sf4cmif6client6detail13CmifProxyImplINS_8settings21ISystemSettingsServerENS0_4hipc6client18Hipc2ProxyKindBaseILNS7_6detail11MessageTypeE6EEENS0_30MemoryResourceAllocationPolicyES6_NS3_19ProcessModifierImplINS2_21DefaultProxyFilterTagEEEE48_nn_sf_sync_AcquireTelemetryDirtyFlagEventHandleENS0_3OutINS0_12NativeHandleEvEE
nnsocketRead
_ZN2nn5swkbd6detail18InlineKeyboardImpl16CalcMovedCursor_ENS_6applet13StorageHandleEm
_ZTSN2nn7account4baas18IGuestLoginRequestE
nncodecLibopus_silk_decoder_set_fs
_ZN2nn2sf4cmif6client34CmifDomainProxyClientCoreProcessorINS0_4hipc6client38Hipc2ClientSessionManagedProxyKindBaseINS5_18Hipc2ProxyKindBaseILNS4_6detail11MessageTypeE6EEEEENS1_6detail14CoreMethodInfoINSt3__15tupleIJNSC_21OutObjectArgumentInfoILi0ELi0EEENSC_18BufferArgumentInfoILi0ELi5ELm0EEEEEELm0ELm0ELb0EEESK_E21ProcessWithOutObjectsEPNS2_23CmifDomainClientMessageISB_E15ProxyBaseObjectENS2_27OutObjectClientArgumentTypeENS2_24BufferClientArgumentTypeEjPNS0_13SharedPointerINS0_14IServiceObjectEEE
_ZN2nn12notification8NotifierD2Ev
_ZN2nn2sf4cmif6client6detail13CmifProxyImplINS_8settings21ISystemSettingsServerENS0_4hipc6client18Hipc2ProxyKindBaseILNS7_6detail11MessageTypeE6EEENS0_30MemoryResourceAllocationPolicyES6_NS3_19ProcessModifierImplINS2_21DefaultProxyFilterTagEEEE43_nn_sf_sync_SetButtonConfigSettingsEmbeddedERKNS0_7InArrayINS5_6system20ButtonConfigSettingsEEE
_ZNK7android6Parcel10scanForFdsEv
_ZN2nn9hidconfig31IsButtonConfigStorageRightEmptyEi
_ZN2nn8settings6detail42SetConsoleSixAxisSensorAngularVelocityGainERKNS0_6system39ConsoleSixAxisSensorAngularVelocityGainE
_ZN2nn4util14TVFormatStringEPFvmPKciEmS2_St9__va_list
strtoimax
_ZN2nn2sf4cmif6client34CmifDomainProxyClientCoreProcessorINS0_4hipc6client38Hipc2ClientSessionManagedProxyKindBaseINS5_18Hipc2ProxyKindBaseILNS4_6detail11MessageTypeE6EEEEENS1_6detail14CoreMethodInfoINSt3__15tupleIJNSC_18OutRawArgumentInfoILm8ELm1ELl0EEEEEELm0ELm8ELb0EEESI_E7ProcessEPNS2_23CmifDomainClientMessageISB_E15ProxyBaseObjectENS2_24OutRawClientArgumentTypeILm8ELm1EEEj
_ZTIN2nn2sf4cmif6client6detail9CmifProxyINS_5visrv2sf23IApplicationRootServiceENS0_4hipc6client18Hipc2ProxyKindBaseILNS8_6detail11MessageTypeE6EEENS0_30MemoryResourceAllocationPolicyENS3_19ProcessModifierImplINS2_21DefaultProxyFilterTagEEEvEE
_ZNSt9exceptionD2Ev
__nnmusl_FinalizeConditionVariable
_ZN2nn3kpr15KeyCodeComposer5ClearEv
_ZN2nn4time14ToCalendarTimeEPNS0_12CalendarTimeEPNS0_22CalendarAdditionalInfoERKNS0_9PosixTimeERKNS0_12TimeZoneRuleE
_ZN2nn3mii16GetFavoriteColorENS0_13FavoriteColorENS0_9GammaTypeE
_ZN2nn3ngc6detail19BuildRankDictionaryEPjPhjPKj
_ZN2nn8settings6system28RequiresRunRepairTimeReviserEv
_ZN2nn5audio15PerformanceInfoC2Ev
_ZN2nn3hid6system10HasBatteryERKj
_ZN2nn7nlibsdk4heap14TlsHeapCentralD1Ev
_ZN2nn2sf4hipc6server2v121HipcServerSessionBase5ReplyEPvm
_ZN2nn7account29ShowNintendoAccountNnidLinkerERKNS0_3UidE
_ZN2nn2sf6detail38ObjectImplFactoryWithStatefulAllocatorINS0_4cmif6client6detail9CmifProxyINS_3hid15IAppletResourceENS0_4hipc6client18Hipc2ProxyKindBaseILNS9_6detail11MessageTypeE6EEENS0_30MemoryResourceAllocationPolicyENS5_19ProcessModifierImplINS4_21DefaultProxyFilterTagEEEvEESF_E6Object7ReleaseEv
_ZN2nn8irsensor22GetIrLedProcessorStateERKNS0_14IrCameraHandleE
_ZTSN2nn2pl6detail23IPlatformServiceManagerE
_ZN2nn7account36EnsureNetworkServiceAccountAvailableERKNS0_10UserHandleE
_ZN2nn2sf4cmif6client6detail13CmifProxyImplINS_6grcsrv11IMovieMakerENS2_19CmifDomainProxyKindINS0_4hipc6client38Hipc2ClientSessionManagedProxyKindBaseINS9_18Hipc2ProxyKindBaseILNS8_6detail11MessageTypeE6EEEEEEENS0_30MemoryResourceAllocationPolicyES6_NS3_19ProcessModifierImplINS2_21DefaultProxyFilterTagEEEE50_nn_sf_sync_GetOffscreenLayerAudioEncodeReadyEventENS0_3OutINS0_12NativeHandleEvEEm
_ZN2nn5audio6server18PerformanceManager13IsInitializedEv
_ZN2nn5audio6server6detail21InitializeAudioDeviceERKNS_6applet20AppletResourceUserIdE
_ZN2nn2sf4hipc6client24Hipc2ClientCoreProcessorILNS1_6detail11MessageTypeE6ENS0_4cmif6detail14CoreMethodInfoINSt3__15tupleIJNS7_17InRawArgumentInfoILm4ELm4ELl0EEENSB_ILm8ELm8ELl16EEENSB_ILm4ELm4ELl4EEENSB_ILm4ELm4ELl8EEEEEELm24ELm0ELb1EEESG_E7ProcessEPNS2_26Hipc2ClientProxyBaseObjectENS6_6client23InRawClientArgumentTypeILm4ELm4EvEENSM_ILm8ELm8EvEESN_SN_j
_ZN2nn3ngc6detail19BuildRankDictionaryEPjPhjPKm
_ZN2nn4pctl28IsFreeCommunicationAvailableEv
_ZN2nn2sf4cmif6client6detail13CmifProxyImplINS_5visrv2sf22IManagerDisplayServiceENS0_4hipc6client18Hipc2ProxyKindBaseILNS8_6detail11MessageTypeE6EEENS0_30MemoryResourceAllocationPolicyES7_NS3_19ProcessModifierImplINS2_21DefaultProxyFilterTagEEEE47_nn_sf_sync_UnregisterSharedBufferImporterAruidENS_2vi7fbshare18SharedBufferHandleENS_6applet20AppletResourceUserIdE
_ZNKSt3__112basic_stringIcNS_11char_traitsIcEENS_9allocatorIcEEE17find_first_not_ofEPKcmm
nnmem_nlib_rwlock_init
_ZNSt3__117__widen_from_utf8ILm32EED1Ev
_ZNSt9type_infoD0Ev
__nnmusl_ConsoleRead
swap_hhea
_ZN2nn2sf4cmif6client6detail13CmifProxyImplINS_3hid16IHidSystemServerENS0_4hipc6client18Hipc2ProxyKindBaseILNS7_6detail11MessageTypeE6EEENS0_30MemoryResourceAllocationPolicyES6_NS3_19ProcessModifierImplINS2_21DefaultProxyFilterTagEEEE39_nn_sf_sync_GetAvailableFirmwareVersionENS0_3OutINS5_6system15FirmwareVersionEvEENSJ_11UniquePadIdE
_ZTSN2nn5image11ExifBuilderE
wcsnlen
_ZN2nn4nifm21SetRequestRawPriorityENS0_13RequestHandleEh
_ZN2nn8settings6system14GetAudioVolumeEPNS1_11AudioVolumeENS1_17AudioVolumeTargetE
_ZN2nn2sf4cmif6client6detail13CmifProxyImplINS_3hid16IHidSystemServerENS0_4hipc6client18Hipc2ProxyKindBaseILNS7_6detail11MessageTypeE6EEENS0_30MemoryResourceAllocationPolicyES6_NS3_19ProcessModifierImplINS2_21DefaultProxyFilterTagEEEE53_nn_sf_sync_StartSixAxisSensorAccurateUserCalibrationENS5_6system25UniqueSixAxisSensorHandleENS_6applet20AppletResourceUserIdE
_ZN2nn8settings6system28GetButtonConfigSettingsRightEPNS1_20ButtonConfigSettingsEi
_ZN2nn8settings12LanguageCode8FrenchCaEv
__horizon_max_num_modules
_ZN2nn2sf4cmif6client6detail13CmifProxyImplINS_7account29IAccountServiceForApplicationENS2_19CmifDomainProxyKindINS0_4hipc6client38Hipc2ClientSessionManagedProxyKindBaseINS9_18Hipc2ProxyKindBaseILNS8_6detail11MessageTypeE6EEEEEEENS0_25StatelessAllocationPolicyINS0_22ExpHeapStaticAllocatorILm2048ENS5_6detail12ObjectHolder24ObjectHolderAllocatorTagEEEEES6_NS3_19ProcessModifierImplINS2_21DefaultProxyFilterTagEEEE35_nn_sf_sync_CreateGuestLoginRequestENS0_3OutINS0_13SharedPointerINS5_4baas18IGuestLoginRequestEEEvEEONS0_12NativeHandleEj
_ZN2nn4lmem6detail14GetHeapFillValEi
_ZN2nn2sf4cmif6client34CmifDomainProxyClientCoreProcessorINS0_4hipc6client38Hipc2ClientSessionManagedProxyKindBaseINS5_18Hipc2ProxyKindBaseILNS4_6detail11MessageTypeE6EEEEENS1_6detail14CoreMethodInfoINSt3__15tupleIJNSC_18BufferArgumentInfoILi0ELi26ELm256EEENSC_17InRawArgumentInfoILm8ELm4ELl0EEEEEELm8ELm0ELb0EEESK_E7ProcessEPNS2_23CmifDomainClientMessageISB_E15ProxyBaseObjectENS2_24BufferClientArgumentTypeENS2_23InRawClientArgumentTypeILm8ELm4EvEEj
NvRmMemHandleFree
fread_unlocked
nnosInitializeInterruptEvent
_ZNK2nn4diag6detail17SymbolTableParser7GetSizeEv
_ZN2nn4util10BitFlagSetILi256ENS_3hid11KeyboardKeyEE4FlagILi95EE4MaskE
nndetailImagePng_png_set_rows
_ZN2nn8settings6system24SetInitialLaunchSettingsERKNS1_21InitialLaunchSettingsE
_ZN2nn2sf6detail38ObjectImplFactoryWithStatefulAllocatorINS0_4cmif6client6detail9CmifProxyINS_3apm14ISystemManagerENS0_4hipc6client18Hipc2ProxyKindBaseILNS9_6detail11MessageTypeE6EEENS0_30MemoryResourceAllocationPolicyENS5_19ProcessModifierImplINS4_21DefaultProxyFilterTagEEEvEESF_E6Object7ReleaseEv
nncodecLibopus_ec_enc_uint
_ZN7android13GraphicBuffer4lockEjPPv
_ZNSt3__115basic_streambufIcNS_11char_traitsIcEEE7pubsyncEv
_ZN2nn5codec13decodeSbrDataEPNS0_15SBR_HEADER_DATAEPNS0_14SBR_FRAME_DATAEPNS0_19SBR_PREV_FRAME_DATAES4_S6_
_ZN2nn3hid6system6detail21InitializeSleepButtonEv
_ZN22nerd_gillette_internal5otete11ImageCodec212QuantizationILm0EEEiRhh
_ZN2nn2sf30SetGlobalDefaultMemoryResourceEPNS_14MemoryResourceE
_ZNSt3__112strstreambufC1EPalS1_
__parityti2
strncmp
_ZN2nn5audio6server14EffectInfoBaseC1Ev
_ZN2nn5audio20I3dl2ReverbParameter24SupportedChannelCountMaxE
_ZN2nn2sf4cmif6client34CmifDomainProxyClientCoreProcessorINS0_4hipc6client38Hipc2ClientSessionManagedProxyKindBaseINS5_18Hipc2ProxyKindBaseILNS4_6detail11MessageTypeE6EEEEENS1_6detail14CoreMethodInfoINSt3__15tupleIJNSC_18OutRawArgumentInfoILm8ELm8ELl8EEENSG_ILm1ELm1ELl0EEENSC_18BufferArgumentInfoILi0ELi33ELm0EEENSC_17InRawArgumentInfoILm4ELm4ELl0EEEEEELm4ELm16ELb0EEESN_E7ProcessEPNS2_23CmifDomainClientMessageISB_E15ProxyBaseObjectENS2_24OutRawClientArgumentTypeILm8ELm8EEENSU_ILm1ELm1EEENS2_24BufferClientArgumentTypeENS2_23InRawClientArgumentTypeILm4ELm4EvEEj
_ZN2nn2sf6detail38ObjectImplFactoryWithStatefulAllocatorINS0_4cmif6client6detail9CmifProxyINS_2am7service25IProcessWindingControllerENS4_19CmifDomainProxyKindINS0_4hipc6client38Hipc2ClientSessionManagedProxyKindBaseINSC_18Hipc2ProxyKindBaseILNSB_6detail11MessageTypeE6EEEEEEENS0_30MemoryResourceAllocationPolicyENS5_19ProcessModifierImplINS4_21DefaultProxyFilterTagEEEvEESK_E6Object7ReleaseEv
_ZTIN2nn2sf4cmif6client6detail13CmifProxyImplINS_2am7service18IAppletProxyCommonENS2_19CmifDomainProxyKindINS0_4hipc6client38Hipc2ClientSessionManagedProxyKindBaseINSA_18Hipc2ProxyKindBaseILNS9_6detail11MessageTypeE6EEEEEEENS0_30MemoryResourceAllocationPolicyENS6_19IOverlayAppletProxyENS3_19ProcessModifierImplINS2_21DefaultProxyFilterTagEEEEE
_ZN2nn5audio8SinkInfo13InputCountMaxE
_ZTSN2nn5audio6detail20IFinalOutputRecorderE
_ZTSN2nn3tma11IHtcManagerE
NvOsStrcpy
_ZNSt3__14stolERKNS_12basic_stringIcNS_11char_traitsIcEENS_9allocatorIcEEEEPmi
_ZN2nn4edid6cea86115VisitDataBlocksEPKhmPFbS3_mNS1_8BlockTagEPvES5_
_ZN2nn2fs25UpdateSaveDataMacForDebugEhm
_ZN2nn7nlibsdk4heap14TlsHeapCentral9AllocPhy_EPvm
_ZN2nn2sf4cmif6client6detail13CmifProxyImplINS_7account4baas22IManagerForApplicationENS2_19CmifDomainProxyKindINS0_4hipc6client38Hipc2ClientSessionManagedProxyKindBaseINSA_18Hipc2ProxyKindBaseILNS9_6detail11MessageTypeE6EEEEEEENS0_25StatelessAllocationPolicyINS0_22ExpHeapStaticAllocatorILm2048ENS5_6detail12ObjectHolder24ObjectHolderAllocatorTagEEEEES7_NS3_19ProcessModifierImplINS2_21DefaultProxyFilterTagEEEE28_nn_sf_sync_StoreOpenContextEv
_ZTIN2nn2pl6detail32IPlatformServiceManagerForSystemE
_ZTSN2nn2sf4cmif6client6detail9CmifProxyINS_2am7service21ILibraryAppletCreatorENS2_19CmifDomainProxyKindINS0_4hipc6client38Hipc2ClientSessionManagedProxyKindBaseINSA_18Hipc2ProxyKindBaseILNS9_6detail11MessageTypeE6EEEEEEENS0_30MemoryResourceAllocationPolicyENS3_19ProcessModifierImplINS2_21DefaultProxyFilterTagEEEvEE
_ZN2nn2sf4hipc6client24Hipc2ClientCoreProcessorILNS1_6detail11MessageTypeE6ENS0_4cmif6detail14CoreMethodInfoINSt3__15tupleIJNS7_18OutRawArgumentInfoILm20ELm4ELl0EEENS7_17InRawArgumentInfoILm2ELm2ELl0EEEEEELm2ELm20ELb0EEESF_E7ProcessEPNS2_26Hipc2ClientProxyBaseObjectENS6_6client24OutRawClientArgumentTypeILm20ELm4EEENSK_23InRawClientArgumentTypeILm2ELm2EvEEj
nncodecLibopus_validate_layout
_ZN2nn2sf4cmif6client6detail13CmifProxyImplINS_3hid15IHidDebugServerENS0_4hipc6client18Hipc2ProxyKindBaseILNS7_6detail11MessageTypeE6EEENS0_30MemoryResourceAllocationPolicyES6_NS3_19ProcessModifierImplINS2_21DefaultProxyFilterTagEEEE17GetCmifBaseObjectEv
nndetailImagePng_png_get_sCAL_s
_ZN7android6Region6orSelfERKS0_ii
_ZNSt3__112system_errorC2EiRKNS_14error_categoryEPKc
nncodecLibopus_silk_CNG_Reset
_ZN2nn4util10BitFlagSetILi256ENS_3hid11KeyboardKeyEE4FlagILi104EE4MaskE
_ZN2nn4time39AsyncEnsureNetworkClockAvailabilityTask9StartTaskEv
_ZN2nn5codec19FreeWorkBufferCore1EPPNS0_16CWorkBufferCore1E
_ZN7android14SurfaceControl20writeSurfaceToParcelERKNS_2spIS0_EEPNS_6ParcelE
_ZNKSt3__18time_getIcNS_19istreambuf_iteratorIcNS_11char_traitsIcEEEEE9__get_dayERiRS4_S4_RjRKNS_5ctypeIcEE
nndetailImagePng_png_access_version_number
_ZNK2nn3mii21ParamCharInfoAccessor10GetEyeTypeEv
_ZNSt3__121recursive_timed_mutexD2Ev
_ZN10__cxxabiv121__isOurExceptionClassEPK17_Unwind_Exception
_ZN2nn3hid6system6detail19BindHomeButtonEventEPNS_2os15SystemEventTypeENS3_14EventClearModeE
nncodecLibopus_silk_residual_energy16_covar_FIX
FDKcos
FDKfprintf
_ZN2nn3hid6detail24NpadSharedMemoryAccessor6AttachEPNS0_6server18SharedMemoryFormatE
_ZN2nn3hid15VibrationTargetC2Ev
_ZNK2nn3hid15VibrationTarget18GetActualVibrationEPNS0_14VibrationValueE
_ZN2nn7nlibsdk17VsnPrintfFallbackEPDsmPKDsSt9__va_list
_ZN2nn3mii6detail11CoreDataRaw7SetTypeEi
_ZN2nn3mii13ImageDatabase12DeleteImagesEPKNS_4util4UuidEi
nvcecSetLAddr
_ZNKSt3__17num_getIcNS_19istreambuf_iteratorIcNS_11char_traitsIcEEEEE6do_getES4_S4_RNS_8ios_baseERjS8_
_ZN2nn5codec6detail29VerifyOpusEncoderControlValueEP26nncodecLibopus_OpusEncoderii
_ZN2nn2fs23ScopedAutoAbortDisablerC1Ev
_ZN2nn2sf4cmif6client6detail13CmifProxyImplINS_3hid16IHidSystemServerENS0_4hipc6client18Hipc2ProxyKindBaseILNS7_6detail11MessageTypeE6EEENS0_30MemoryResourceAllocationPolicyES6_NS3_19ProcessModifierImplINS2_21DefaultProxyFilterTagEEEE28_nn_sf_sync_ActivateIrSensorEjbNS_6applet20AppletResourceUserIdE
_ZN2nn2la31NifmToNetConnectArgumentsWriterC1ENS_6ResultERKNS_4util4UuidEb
_ZN2nn2sf4cmif6client6detail13CmifProxyImplINS_2am7service15ISelfControllerENS2_19CmifDomainProxyKindINS0_4hipc6client38Hipc2ClientSessionManagedProxyKindBaseINSA_18Hipc2ProxyKindBaseILNS9_6detail11MessageTypeE6EEEEEEENS0_30MemoryResourceAllocationPolicyES7_NS3_19ProcessModifierImplINS2_21DefaultProxyFilterTagEEEE38_nn_sf_sync_SetDesirableKeyboardLayoutEj
_ZN2nn5audio16VoiceInfoManager16AcquireVoiceInfoEii
nnmem_nlib_strnlen
__fixsfsi
_ZN2nn5audio21RequestResumeAudioInsENS_6applet20AppletResourceUserIdENS_8TimeSpanE
_ZTIN2nn2sf13InterfaceInfoINS_5audio6detail14IAudioRendererEE4_tABINS5_5_tO2NINS2_6server24AudioRendererManagerImpl17AudioRendererImplEE4typeES4_E4typeE
_ZN2nn3hid6system33SetNotificationLedPatternForDebugENS1_22NotificationLedPatternERKNS1_11UniquePadIdE
_ZN2nn2sf4cmif6client6detail13CmifProxyImplINS_3hid15IHidDebugServerENS0_4hipc6client18Hipc2ProxyKindBaseILNS7_6detail11MessageTypeE6EEENS0_30MemoryResourceAllocationPolicyES6_NS3_19ProcessModifierImplINS2_21DefaultProxyFilterTagEEEE40_nn_sf_sync_DeactivateSevenSixAxisSensorEv
_ZN2nn2sf4hipc6client24Hipc2ClientCoreProcessorILNS1_6detail11MessageTypeE6ENS0_4cmif6detail14CoreMethodInfoINSt3__15tupleIJNS7_18OutRawArgumentInfoILm4ELm4ELl0EEENS7_17InRawArgumentInfoILm8ELm8ELl0EEENS7_18BufferArgumentInfoILi0ELi5ELm0EEENSF_ILi1ELi6ELm0EEEEEELm8ELm4ELb0EEESI_E7ProcessEPNS2_26Hipc2ClientProxyBaseObjectENS6_6client24OutRawClientArgumentTypeILm4ELm4EEENSN_23InRawClientArgumentTypeILm8ELm8EvEENSN_24BufferClientArgumentTypeESS_j
_ZN2nn4lmem6detail17GetExpHeapGroupIdEPNS1_8HeapHeadE
_ZN2nn4npns20NotificationReceiver23ListenToMyApplicationIdEv
_ZN2nn8settings23GetFullKeyGenericPadMapEPNS0_20FullKeyGenericPadMapENS0_12FullKeyIndexE
NvRmSurfaceSetDecompressionPolicy
scalbnf
_ZN2nn2os13GetSystemTickEv
_ZN2nn2fs27PathNormalizationFileSystem14DoGetEntryTypeEPNS0_18DirectoryEntryTypeEPKc
_ZNSt3__18__get_dbEv
_ZNK2nn2ro6detail8RoModule10ResolveSymEPmNS1_3Elf5Elf643SymE
_ZN2nn6socket11GAIStrErrorENS0_7AiErrnoE
_ZN2nn4util6detail7msgpack19WriteBinary32HeaderEPNS0_17MessagePackWriter11StreamParamEj
_ZN2nn2sf4cmif6client6detail13CmifProxyImplINS_3apm14ISystemManagerENS0_4hipc6client18Hipc2ProxyKindBaseILNS7_6detail11MessageTypeE6EEENS0_30MemoryResourceAllocationPolicyES6_NS3_19ProcessModifierImplINS2_21DefaultProxyFilterTagEEEE31_nn_sf_sync_GetPerformanceEventENS0_3OutINS0_12NativeHandleEvEENS5_11EventTargetE
_ZNK2nn5audio6server22CircularBufferSinkInfo26ShouldUpdateWorkBufferInfoEPKNS0_6common15SinkInParameterE
_ZZN2nn3hid7utility12StaticObjectINS0_6detail18NpadSessionManagerINS3_24NpadSharedMemoryAccessorEEEvE3GetEvE9s_Storage
_ZTSN2nn3ngc1t6detail9INotifierE
_ZN2nn8settings6detail23SetUsbFullKeyEnableFlagEb
_ZNK2nn4time13ClockSnapshot31GetStandardSteadyClockTimePointEv
NvRmStreamPushRelocType
_ZN2nn7account37InitializeBaasAccessTokenAccessorWithEONS_2sf13SharedPointerINS0_24IBaasAccessTokenAccessorEEE
_ZN2nn2sf4cmif6client6detail13CmifProxyImplINS_3nim6detail17IShopServiceAsyncENS0_4hipc6client18Hipc2ProxyKindBaseILNS8_6detail11MessageTypeE6EEENS0_30MemoryResourceAllocationPolicyES7_NS3_19ProcessModifierImplINS2_21DefaultProxyFilterTagEEEE16_nn_sf_sync_ReadENS0_3OutImvEEmRKNS0_9OutBufferE
_ZN7android6RegionaSERKS0_
_ZN2nn2sf4cmif6client6detail13CmifProxyImplINS_2am7service13ILockAccessorENS2_19CmifDomainProxyKindINS0_4hipc6client38Hipc2ClientSessionManagedProxyKindBaseINSA_18Hipc2ProxyKindBaseILNS9_6detail11MessageTypeE6EEEEEEENS0_30MemoryResourceAllocationPolicyES7_NS3_19ProcessModifierImplINS2_21DefaultProxyFilterTagEEEE20_nn_sf_sync_GetEventENS0_3OutINS0_12NativeHandleEvEE
_ZTIN2nn2sf6detail38ObjectImplFactoryWithStatefulAllocatorINS0_4cmif6client6detail9CmifProxyINS_2am7service17IWindowControllerENS4_19CmifDomainProxyKindINS0_4hipc6client38Hipc2ClientSessionManagedProxyKindBaseINSC_18Hipc2ProxyKindBaseILNSB_6detail11MessageTypeE6EEEEEEENS0_30MemoryResourceAllocationPolicyENS5_19ProcessModifierImplINS4_21DefaultProxyFilterTagEEEvEESK_E6ObjectE
_ZN2nn5audio15AudioBufferListINS0_25FinalOutputRecorderBufferEE5clearEv
_ZTSN2nn4util21IntrusiveListBaseNodeINS_3hid13VibrationNodeES3_EE
_ZN2nn2sf4cmif6client6detail13CmifProxyImplINS_6hidbus13IHidbusServerENS0_4hipc6client18Hipc2ProxyKindBaseILNS7_6detail11MessageTypeE6EEENS0_25StatelessAllocationPolicyINS0_22ExpHeapStaticAllocatorILm16384ENS5_6server12HidbusServerEEEEES6_NS3_19ProcessModifierImplINS2_21DefaultProxyFilterTagEEEE31_nn_sf_sync_GetExternalDeviceIdENS0_3OutIjvEENS5_9BusHandleE
_ZTSN2nn7account3nas34IOAuthProcedureForUserRegistrationE
_ZN2nn5audio6server24AudioRendererManagerImpl15AudioDeviceImplC1EPS2_RNS_6applet20AppletResourceUserIdEj
nncodecLibopus_celt_encoder_init
nncryptoAes192CtrEncryptorObjectSize
_ZTIN2nn7friends6detail3ipc15IServiceCreatorE
nnosGetCurrentThread
scalbnl
_ZN2nn5audio24RemoveCircularBufferSinkEPNS0_19AudioRendererConfigEPNS0_22CircularBufferSinkTypeEPNS0_12FinalMixTypeE
_ZN2nn5audio16SharedRingBufferC2Ev
_ZN2nn5image6detail4jpeg13jpeg_mem_termEPNS2_18jpeg_common_structE
_ZN2nn2sf6detail38ObjectImplFactoryWithStatefulAllocatorINS0_4cmif6client6detail9CmifProxyINS_2am7service15ISelfControllerENS4_19CmifDomainProxyKindINS0_4hipc6client38Hipc2ClientSessionManagedProxyKindBaseINSC_18Hipc2ProxyKindBaseILNSB_6detail11MessageTypeE6EEEEEEENS0_30MemoryResourceAllocationPolicyENS5_19ProcessModifierImplINS4_21DefaultProxyFilterTagEEEvEESK_E6Object7ReleaseEv
_ZN2nn8irsensor6detail31CreateIrSensorSystemServerProxyEPNS_2sf13SharedPointerINS0_21IIrSensorSystemServerEEE
_ZN22nerd_gillette_internal5otete11ImageCodec212QuantizationILm5EEEiRhh
_ZN2nn3nfc21AttachDeactivateEventEPNS_2os15SystemEventTypeERKNS0_12DeviceHandleE
_ZTSN2nn2sf4cmif6client6detail13CmifProxyImplINS_3ngc1t6detail25IServiceWithManagementApiENS0_4hipc6client18Hipc2ProxyKindBaseILNS9_6detail11MessageTypeE6EEENS0_30MemoryResourceAllocationPolicyES8_NS3_19ProcessModifierImplINS2_21DefaultProxyFilterTagEEEEE
_ZN2nn8settings25GetAvailableLanguageCodesEPNS0_12LanguageCodeEi
_ZNSt3__110__time_getD1Ev
_ZN2nn3hid6detail35SetSevenSixAxisSensorFusionStrengthEf
_ZN2nn3hid6detail27ReadPalmaApplicationSectionERKNS0_21PalmaConnectionHandleEim
_ZN2nn4util6detail13ZlibAllocator4FreeEPvS3_
_ZNK2nn3hid6server8RingLifoINS0_16TouchScreenStateILm16EEELi16ENS1_29TouchScreenStateAtomicStorageEE8ReadImplINS3_ILm3EEEEEiPT_i
_ZN2nn2sf4cmif6client34CmifDomainProxyClientCoreProcessorINS0_4hipc6client38Hipc2ClientSessionManagedProxyKindBaseINS5_18Hipc2ProxyKindBaseILNS4_6detail11MessageTypeE6EEEEENS1_6detail14CoreMethodInfoINSt3__15tupleIJNSC_17InRawArgumentInfoILm52ELm2ELl0EEEEEELm52ELm0ELb0EEESI_E7ProcessEPNS2_23CmifDomainClientMessageISB_E15ProxyBaseObjectENS2_23InRawClientArgumentTypeILm52ELm2EvEEj
_ZN2nn6applet26RequestToLaunchApplicationENS_3ncm13ApplicationIdENS0_13StorageHandleE
_ZN2nn5audio6detail19ApplyDelayEffect6chEPKNS0_14DelayParameterEPNS0_10DelayStateEPPKiPPii
_ZN2nn5codec12ScaleFactorsE
_ZN2nn6crypto6detail6BigNum7AddMultEPjPKjij
_ZN2nn3ngc6detail9SparseSet4SwapERS2_
_ZN2nn2sf4cmif6client6detail13CmifProxyImplINS_8settings21ISystemSettingsServerENS0_4hipc6client18Hipc2ProxyKindBaseILNS7_6detail11MessageTypeE6EEENS0_30MemoryResourceAllocationPolicyES6_NS3_19ProcessModifierImplINS2_21DefaultProxyFilterTagEEEE29_nn_sf_sync_GetHomeMenuSchemeENS0_3OutINS5_6system14HomeMenuSchemeEvEE
_ZNKSt3__17codecvtIDic11__mbstate_tE6do_outERS1_PKDiS5_RS5_PcS7_RS7_
__lesf2
_ZN2nn6crypto6detail8Sha1Impl7GetHashEPvm
_ZNK2nn3mii9StoreDataeqERKS1_
_ZN2nn3mii6detail16Ver3StoreDataRaw10SetDefaultEPNS1_11UtilityImplE
_ZN2nn4pctl37GetExemptApplicationListCountForDebugEv
_ZN2nn6socket8resolver10serializer13DNSSerializer8ToBufferIcEElPhmPT_
_ZN7android19initialize_string16Ev
_ZN2nn5codec22OpusMultiStreamDecoderC2Ev
nndetailImagePng_png_image_finish_read
_ZTIN2nn3ldn6detail19IUserServiceCreatorE
_ZN2nn2vi16GetSystemServiceEv
_ZN7android12NativeHandleC1EP13native_handleb
_ZN2nn4util10BitFlagSetILi256ENS_3hid11KeyboardKeyEE4FlagILi148EE4MaskE
_ZThn16_N2nn2sf4cmif6client6detail13CmifProxyImplINS_6jitsrv19IJitEnvironmentBaseENS0_4hipc6client18Hipc2ProxyKindBaseILNS7_6detail11MessageTypeE6EEENS0_30MemoryResourceAllocationPolicyENS5_15IJitEnvironmentENS3_19ProcessModifierImplINS2_21DefaultProxyFilterTagEEEE17GetCmifBaseObjectEv
nnmem_nlib_swapendian_64_generic
nnmem_nlib_timer_gettime
_ZN2nn2os6detail23CreateInterProcessEventEPNS1_21InterProcessEventTypeENS0_14EventClearModeE
_ZN2nn2fs4save4Path16IsContainingPathERKS2_S4_
_ZN2nn2sf4cmif6client6detail13CmifProxyImplINS_3hid16IHidSystemServerENS0_4hipc6client18Hipc2ProxyKindBaseILNS7_6detail11MessageTypeE6EEENS0_30MemoryResourceAllocationPolicyES6_NS3_19ProcessModifierImplINS2_21DefaultProxyFilterTagEEEE48_nn_sf_sync_GetSixAxisSensorUserCalibrationStageENS0_3OutIlvEENS5_6system25UniqueSixAxisSensorHandleE
_ZNK2nn3mii6detail12StoreDataRaw11GetHairTypeEv
nnosTimedPeekMessageQueue
_ZN2nn2sf6detail38ObjectImplFactoryWithStatefulAllocatorINS0_4cmif6client6detail9CmifProxyINS_4pctl6detail3ipc30IParentalControlServiceFactoryENS4_19CmifDomainProxyKindINS0_4hipc6client38Hipc2ClientSessionManagedProxyKindBaseINSD_18Hipc2ProxyKindBaseILNSC_6detail11MessageTypeE6EEEEEEENS0_30MemoryResourceAllocationPolicyENS5_19ProcessModifierImplINS4_21DefaultProxyFilterTagEEEvEESL_E6Object12AddReferenceEv
_ZN2nn2sf4cmif6client34CmifDomainProxyClientCoreProcessorINS0_4hipc6client38Hipc2ClientSessionManagedProxyKindBaseINS5_18Hipc2ProxyKindBaseILNS4_6detail11MessageTypeE6EEEEENS1_6detail14CoreMethodInfoINSt3__15tupleIJNSC_18BufferArgumentInfoILi0ELi6ELm0EEENSC_18OutRawArgumentInfoILm4ELm4ELl0EEENSI_ILm4ELm4ELl4EEEEEELm0ELm8ELb0EEESL_E7ProcessEPNS2_23CmifDomainClientMessageISB_E15ProxyBaseObjectENS2_24BufferClientArgumentTypeENS2_24OutRawClientArgumentTypeILm4ELm4EEESU_j
_ZN2nn2sf4cmif6client6detail13CmifProxyImplINS_3ssl2sf14ISslConnectionENS2_19CmifDomainProxyKindINS0_4hipc6client38Hipc2ClientSessionManagedProxyKindBaseINSA_18Hipc2ProxyKindBaseILNS9_6detail11MessageTypeE6EEEEEEENS0_24StatefulAllocationPolicyINS0_16ExpHeapAllocatorEEES7_NS3_19ProcessModifierImplINS2_21DefaultProxyFilterTagEEEE31_nn_sf_sync_SetSocketDescriptorEiNS0_3OutIivEE
_ZN2nn5codec24GetOpusEncoderSampleRateEPKNS0_15OpusEncoderTypeE
_ZN2nn3ngc15ProfanityFilter10InitializeEPvmb
_ZN2nn8settings7factory18GetGyroscopeOffsetEPNS1_15GyroscopeOffsetE
_ZN2nn2sf6detail38ObjectImplFactoryWithStatefulAllocatorINS0_4cmif6client6detail9CmifProxyINS_8settings28IFirmwareDebugSettingsServerENS0_4hipc6client18Hipc2ProxyKindBaseILNS9_6detail11MessageTypeE6EEENS0_30MemoryResourceAllocationPolicyENS5_19ProcessModifierImplINS4_21DefaultProxyFilterTagEEEvEESF_E6Object12AddReferenceEv
_ZNSt3__114__shared_countD2Ev
_ZN2nn2sf4cmif6client6detail13CmifProxyImplINS_7account4http15IOAuthProcedureENS2_19CmifDomainProxyKindINS0_4hipc6client38Hipc2ClientSessionManagedProxyKindBaseINSA_18Hipc2ProxyKindBaseILNS9_6detail11MessageTypeE6EEEEEEENS0_25StatelessAllocationPolicyINS0_22ExpHeapStaticAllocatorILm2048ENS5_6detail12ObjectHolder24ObjectHolderAllocatorTagEEEEENS5_3nas29IOAuthProcedureForExternalNsaENS3_19ProcessModifierImplINS2_21DefaultProxyFilterTagEEEE25_nn_sf_sync_ApplyResponseERKNS0_7InArrayIcEE
_ZN2nn7account38ExternalNetworkServiceAccountRegistrar34RegisterNetworkServiceAccountAsyncEPNS0_12AsyncContextE
_ZN2nn2sf4hipc6client24Hipc2ClientCoreProcessorILNS1_6detail11MessageTypeE6ENS0_4cmif6detail14CoreMethodInfoINSt3__15tupleIJNS7_18OutRawArgumentInfoILm24ELm4ELl4EEENSB_ILm1ELm1ELl0EEENS7_17InRawArgumentInfoILm4ELm4ELl4EEENSE_ILm24ELm4ELl8EEENSE_ILm1ELm1ELl0EEENSE_ILm20ELm4ELl32EEEEEELm52ELm28ELb0EEESJ_E7ProcessEPNS2_26Hipc2ClientProxyBaseObjectENS6_6client24OutRawClientArgumentTypeILm24ELm4EEENSP_ILm1ELm1EEENSO_23InRawClientArgumentTypeILm4ELm4EvEENSS_ILm24ELm4EvEENSS_ILm1ELm1EvEENSS_ILm20ELm4EvEEj
_ZN2nn5codec18adtsRead_CrcEndRegEPNS0_11STRUCT_ADTSEPNS0_13FDK_BITSTREAMEi
_ZTSN2nn5audio6server22PerformanceManagerImplINS1_33PerformanceManagerImplVersion1TagENS0_6common30PerformanceFrameHeaderVersion1ENS4_24PerformanceEntryVersion1ENS4_25PerformanceDetailVersion1ENS0_20PerformanceSysDetailEEE
_ZN2nn2sf4cmif6client6detail13CmifProxyImplINS_8settings21ISystemSettingsServerENS0_4hipc6client18Hipc2ProxyKindBaseILNS7_6detail11MessageTypeE6EEENS0_30MemoryResourceAllocationPolicyES6_NS3_19ProcessModifierImplINS2_21DefaultProxyFilterTagEEEE33_nn_sf_sync_GetBlePairingSettingsENS0_3OutIivEERKNS0_8OutArrayINS5_6system18BlePairingSettingsEEE
unw_local_addr_space
pthread_attr_setstack
_ZN2nn7account6detail24SimpleOAuthProcedureBaseC1Ev
_ZN2nn8irsensor18StopImageProcessorERKNS0_14IrCameraHandleE
_ZN2nn3mii6detail12StoreDataRaw17BuildWithCoreDataEPNS1_11UtilityImplERKNS1_11CoreDataRawE
NvRmChannelGetBackEnd
_ZN2nn3mii15PrivateDatabase9IsUpdatedEi
_ZN2nn3ngc6detail12OutputStream6Flush_Eb
_ZN2nn4time21SetDeviceLocationNameERKNS0_12LocationNameE
_ZN2nn4time39AsyncEnsureNetworkClockAvailabilityTaskC1Ev
regexec
_ZN2nn2sf4cmif6client6detail13CmifProxyImplINS_2am7service15ISelfControllerENS2_19CmifDomainProxyKindINS0_4hipc6client38Hipc2ClientSessionManagedProxyKindBaseINSA_18Hipc2ProxyKindBaseILNS9_6detail11MessageTypeE6EEEEEEENS0_30MemoryResourceAllocationPolicyES7_NS3_19ProcessModifierImplINS2_21DefaultProxyFilterTagEEEE39_nn_sf_sync_SetApplicationAlbumUserDataERKNS0_8InBufferE
_ZN2nn4util14DecompressZlibEPvmPKvmS1_m
_ZN7android6Region9translateERS0_RKS0_ii
_ZNKSt3__117moneypunct_bynameIcLb1EE13do_neg_formatEv
_ZTINSt3__120__codecvt_utf8_utf16IwEE
_ZNSt3__112basic_stringIwNS_11char_traitsIwEENS_9allocatorIwEEE6__initEPKwm
_ZN2nn2sf13SharedPointerINS_2am7service30IAllSystemAppletProxiesServiceEED2Ev
_ZN2nn2sf13InterfaceInfoINS_5audio6detail12IAudioDeviceEE4_tABINS5_5_tO2NINS2_6server24AudioRendererManagerImpl15AudioDeviceImplEE4typeES4_E4type38_nn_sf_sync_GetAudioDeviceOutputVolumeERKNS0_8InBufferENS0_3OutIfvEE
_ZN2nn2sf4cmif6client6detail13CmifProxyImplINS_3hid10IHidServerENS0_4hipc6client18Hipc2ProxyKindBaseILNS7_6detail11MessageTypeE6EEENS0_30MemoryResourceAllocationPolicyES6_NS3_19ProcessModifierImplINS2_21DefaultProxyFilterTagEEEE31_nn_sf_sync_WritePalmaWaveEntryENS5_21PalmaConnectionHandleEmmONS0_12NativeHandleEmm
_ZN2nn2sf4hipc6client24Hipc2ClientCoreProcessorILNS1_6detail11MessageTypeE6ENS0_4cmif6detail14CoreMethodInfoINSt3__15tupleIJNS7_18OutRawArgumentInfoILm36ELm4ELl0EEEEEELm0ELm36ELb0EEESD_E7ProcessEPNS2_26Hipc2ClientProxyBaseObjectENS6_6client24OutRawClientArgumentTypeILm36ELm4EEEj
_ZN2nn4time30g_pEphemeralNetworkSystemClockE
_ZN7android7BBinder10pingBinderEv
_ZNK2nn5audio6server16CommandGenerator30UseBiquadFilterFloatProcessingEv
_ZN2nn2sf4hipc6server2v16detail29HipcAllInOneServerManagerBase16ProcessAsSessionEPNS_2os19MultiWaitHolderTypeE
_ZN2nn4util16IntrusiveDicNode5EraseEPPS1_Pi
_ZNSt3__111__money_getIcE13__gather_infoEbRKNS_6localeERNS_10money_base7patternERcS8_RNS_12basic_stringIcNS_11char_traitsIcEENS_9allocatorIcEEEESF_SF_SF_Ri
_ZNSt3__112ctype_bynameIwEC2EPKcm
_ZN2nn5album24MovieMakerMovieParameter24SetVideoImageOrientationENS0_16ImageOrientationE
_ZN2nn2fs15GetFileOpenModeENS0_10FileHandleE
_ZN2nn2sf4cmif6client34CmifDomainProxyClientCoreProcessorINS0_4hipc6client38Hipc2ClientSessionManagedProxyKindBaseINS5_18Hipc2ProxyKindBaseILNS4_6detail11MessageTypeE6EEEEENS1_6detail14CoreMethodInfoINSt3__15tupleIJNSC_18OutRawArgumentInfoILm8ELm8ELl0EEENSC_18BufferArgumentInfoILi0ELi6ELm0EEENSC_17InRawArgumentInfoILm1ELm1ELl0EEENSK_ILm72ELm8ELl8EEEEEELm80ELm8ELb0EEESN_E7ProcessEPNS2_23CmifDomainClientMessageISB_E15ProxyBaseObjectENS2_24OutRawClientArgumentTypeILm8ELm8EEENS2_24BufferClientArgumentTypeENS2_23InRawClientArgumentTypeILm1ELm1EvEENSX_ILm72ELm8EvEEj
_ZN2nn3hid23VibrationNodeConnection7ConnectEPNS0_13VibrationNodeES3_
_ZN2nn3hid6system6detail28IsAnalogStickInCircumferenceEPbNS1_11UniquePadIdENS1_19AnalogStickPositionE
_ZTVNSt3__115time_get_bynameIcNS_19istreambuf_iteratorIcNS_11char_traitsIcEEEEEE
_ZN2nn3mii6detail11CoreDataRaw12SetHairColorEi
_ZN2nn3ngc64ProfanityWordDatabaseReloadRequestNotifierForPlatformRegionChinaC2EPNS0_1t6detail9INotifierE
_ZN2nn4time6detail41IsClockSnapshotAutomaticCorrectionEnabledERKNS0_13ClockSnapshotE
_ZNSt3__115__thread_structC1Ev
_ZTIN2nn3apm14ISystemManagerE
_ZN2nn5audio14GetAudioInNameEPKNS0_7AudioInE
_ZN2nn2sf4hipc6client24Hipc2ClientCoreProcessorILNS1_6detail11MessageTypeE6ENS0_4cmif6detail14CoreMethodInfoINSt3__15tupleIJNS7_17InRawArgumentInfoILm8ELm8ELl56EEENSB_ILm4ELm4ELl4EEENSB_ILm24ELm4ELl8EEENSB_ILm1ELm1ELl0EEENSB_ILm24ELm4ELl32EEENS7_18BufferArgumentInfoILi0ELi9ELm0EEENSB_ILm1ELm1ELl1EEENSB_ILm1ELm1ELl2EEEEEELm64ELm0ELb1EEESL_E7ProcessEPNS2_26Hipc2ClientProxyBaseObjectENS6_6client23InRawClientArgumentTypeILm8ELm8EvEENSR_ILm4ELm4EvEENSR_ILm24ELm4EvEENSR_ILm1ELm1EvEESU_NSQ_24BufferClientArgumentTypeESV_SV_j
_ZN2nn5swkbd14InlineKeyboard21SetUsbKeyboardEnabledEb
_ZN2nn4time23StandardUserSystemClock14GetCurrentTimeEPNS0_9PosixTimeE
_ZN2nn2sf4cmif6client6detail36GetClientProcessorImplWithObjectBaseINS2_19CmifDomainProxyKindINS0_4hipc6client38Hipc2ClientSessionManagedProxyKindBaseINS7_18Hipc2ProxyKindBaseILNS6_6detail11MessageTypeE6EEEEEEENS3_19ProcessModifierImplINS2_21DefaultProxyFilterTagEEEE14ObjectAssignerINS0_25StatelessAllocationPolicyINS0_22ExpHeapStaticAllocatorILm2048ENS_7account6detail12ObjectHolder24ObjectHolderAllocatorTagEEEEENS0_6detail23StatelessDummyAllocatorEE14AllocateObjectINSM_3nas29IOAuthProcedureForExternalNsaEEEvi
_ZTIN2nn5image10PngDecoderE
putwc
_ZN2nn2fs27PathNormalizationFileSystem15DoOpenDirectoryEPNSt3__110unique_ptrINS0_3fsa10IDirectoryENS2_14default_deleteIS5_EEEEPKcNS0_17OpenDirectoryModeE
_ZN2nn3ngc6detail11CalcSelect0EjjPKjS3_PKh
_ZN2nn4util15FileInputStream4OpenEPKc
nvgr_is_yuv16
fmod
feof_unlocked
nncodecLibopus_ec_enc_init
nncryptoAes192CtrDecryptorInitialize
_ZN2nn4htcs9FdSetZeroEPNS0_5FdSetE
_ZN2nn2sf4cmif6client34CmifDomainProxyClientCoreProcessorINS0_4hipc6client38Hipc2ClientSessionManagedProxyKindBaseINS5_18Hipc2ProxyKindBaseILNS4_6detail11MessageTypeE6EEEEENS1_6detail14CoreMethodInfoINSt3__15tupleIJNSC_18BufferArgumentInfoILi0ELi22ELm1568EEEEEELm0ELm0ELb0EEESI_E7ProcessEPNS2_23CmifDomainClientMessageISB_E15ProxyBaseObjectENS2_24BufferClientArgumentTypeEj
_ZTSN2nn2os6detail37MultiWaitHolderOfMessageQueueNotEmptyE
_ZN2nn2sf4cmif6client6detail13CmifProxyImplINS_8settings21ISystemSettingsServerENS0_4hipc6client18Hipc2ProxyKindBaseILNS7_6detail11MessageTypeE6EEENS0_30MemoryResourceAllocationPolicyES6_NS3_19ProcessModifierImplINS2_21DefaultProxyFilterTagEEEE43_nn_sf_sync_SetRequiresRunRepairTimeReviserEb
_ZTVN2nn5audio6server22PerformanceManagerImplINS1_33PerformanceManagerImplVersion2TagENS0_6common30PerformanceFrameHeaderVersion2ENS4_24PerformanceEntryVersion2ENS4_25PerformanceDetailVersion2ENS0_20PerformanceSysDetailEEE
_ZN2nn2sf4hipc6client24Hipc2ClientCoreProcessorILNS1_6detail11MessageTypeE6ENS0_4cmif6detail14CoreMethodInfoINSt3__15tupleIJNS7_17InRawArgumentInfoILm6ELm1ELl0EEENSB_ILm1ELm1ELl6EEENSB_ILm1ELm1ELl7EEENSB_ILm16ELm1ELl8EEEEEELm24ELm0ELb0EEESG_E7ProcessEPNS2_26Hipc2ClientProxyBaseObjectENS6_6client23InRawClientArgumentTypeILm6ELm1EvEENSM_ILm1ELm1EvEESO_NSM_ILm16ELm1EvEEj
_ZNK2nn2fs3dbm22AllocationTableStorage9SeekToTopEv
_ZN2nn2sf4cmif6client6detail13CmifProxyImplINS_3hid15IHidDebugServerENS0_4hipc6client18Hipc2ProxyKindBaseILNS7_6detail11MessageTypeE6EEENS0_30MemoryResourceAllocationPolicyES6_NS3_19ProcessModifierImplINS2_21DefaultProxyFilterTagEEEE35_nn_sf_sync_GetAnalogStickModelDataENS0_3OutINS5_5debug20AnalogStickModelDataEvEENSI_IbvEENS5_6system11UniquePadIdEi
_ZN2nn2os6detail39DetachWritableHandleOfInterProcessEventEPNS1_21InterProcessEventTypeE
squeeze_table_ptrs
_ZN2nn7friends6detail20AsyncContextInternal6InvokeEv
_ZN2nn2sf6detail38ObjectImplFactoryWithStatefulAllocatorINS0_4cmif6client6detail9CmifProxyINS_5prepo6detail3ipc13IPrepoServiceENS4_19CmifDomainProxyKindINS0_4hipc6client38Hipc2ClientSessionManagedProxyKindBaseINSD_18Hipc2ProxyKindBaseILNSC_6detail11MessageTypeE6EEEEEEENS0_30MemoryResourceAllocationPolicyENS5_19ProcessModifierImplINS4_21DefaultProxyFilterTagEEEvEESL_E6Object12AddReferenceEv
__fixsfti
_ZN2nn3hid6detail15FinalizeGestureEv
_ZN2nn2sf4cmif6client6detail13CmifProxyImplINS_3hid16IHidSystemServerENS0_4hipc6client18Hipc2ProxyKindBaseILNS7_6detail11MessageTypeE6EEENS0_30MemoryResourceAllocationPolicyES6_NS3_19ProcessModifierImplINS2_21DefaultProxyFilterTagEEEE30_nn_sf_sync_EnableHandheldHidsEv
_ZN2nn2la21CommonArgumentsWriter12SetLaVersionEj
_ZN2nn3ngc6detail9SparseSetD1Ev
_ZN2nn2sf4cmif6client6detail13CmifProxyImplIN3nns9hosbinder16IHOSBinderDriverENS0_4hipc6client18Hipc2ProxyKindBaseILNS8_6detail11MessageTypeE6EEENS0_30MemoryResourceAllocationPolicyES7_NS3_19ProcessModifierImplINS2_21DefaultProxyFilterTagEEEE27_nn_sf_sync_GetNativeHandleEijNS0_3OutINS0_12NativeHandleEvEE
_ZTSN2nn2sf4cmif6client6detail13CmifProxyImplINS_5visrv2sf18ISystemRootServiceENS0_4hipc6client18Hipc2ProxyKindBaseILNS8_6detail11MessageTypeE6EEENS0_30MemoryResourceAllocationPolicyES7_NS3_19ProcessModifierImplINS2_21DefaultProxyFilterTagEEEEE
_ZN2nn7friends6detail20AsyncMemoryAllocatorD2Ev
_ZN2nn3hid6system34IsFirmwareAvailableForNotificationENS1_11UniquePadIdE
_ZN2nn4lmem6detail15CreateFrameHeapEPvmi
_ZN2nn6socket6detail10GetSockOptEiiiPvPj
_ZTSN2nn3ssl2sf11ISslServiceE
NvUHashSearch
_ZN2nn2sf4cmif6client34CmifDomainProxyClientCoreProcessorINS0_4hipc6client38Hipc2ClientSessionManagedProxyKindBaseINS5_18Hipc2ProxyKindBaseILNS4_6detail11MessageTypeE6EEEEENS1_6detail14CoreMethodInfoINSt3__15tupleIJNSC_18OutRawArgumentInfoILm8ELm8ELl0EEENSC_17InRawArgumentInfoILm4ELm4ELl0EEEEEELm4ELm8ELb0EEESK_E7ProcessEPNS2_23CmifDomainClientMessageISB_E15ProxyBaseObjectENS2_24OutRawClientArgumentTypeILm8ELm8EEENS2_23InRawClientArgumentTypeILm4ELm4EvEEj
_ZN2nn3mii6detail13CoreDataTableE
_ZN7android9BpRefBase20onIncStrongAttemptedEjPKv
nearbyintf
_ZN2nn2sf4cmif6client34CmifDomainProxyClientCoreProcessorINS0_4hipc6client38Hipc2ClientSessionManagedProxyKindBaseINS5_18Hipc2ProxyKindBaseILNS4_6detail11MessageTypeE6EEEEENS1_6detail14CoreMethodInfoINSt3__15tupleIJNSC_18OutRawArgumentInfoILm1ELm1ELl0EEENSC_18BufferArgumentInfoILi0ELi5ELm0EEEEEELm0ELm1ELb0EEESK_E7ProcessEPNS2_23CmifDomainClientMessageISB_E15ProxyBaseObjectENS2_24OutRawClientArgumentTypeILm1ELm1EEENS2_24BufferClientArgumentTypeEj
_ZN2nn3ngc6detail15CompressedArray4SwapERS2_
_ZN2nn4nifm17SetNetworkProfileEPNS_4util4UuidERKNS0_18NetworkProfileDataE
_ZN2nn2sf4cmif6server6detail30CmifProcessFunctionTableGetterINS2_22CmifDomainServerObjectEvE7s_TableE
_ZN2nn5swkbd34GetRequiredTextCheckWorkBufferSizeEv
_ZN2nn3hid22GetNpadControllerColorEPNS0_19NpadControllerColorERKj
_ZN2nn3htc13GetBridgePortEPcm
_ZN2nn2sf4cmif6client6detail13CmifProxyImplINS_4nifm6detail8IRequestENS2_19CmifDomainProxyKindINS0_4hipc6client38Hipc2ClientSessionManagedProxyKindBaseINSA_18Hipc2ProxyKindBaseILNS9_6detail11MessageTypeE6EEEEEEENS0_30MemoryResourceAllocationPolicyES7_NS3_19ProcessModifierImplINS2_21DefaultProxyFilterTagEEEE18_nn_sf_sync_CancelEv
_ZN2nn2sf4hipc19RegisterHipcServiceEPNS_3svc6HandleEiPKc
NvRmSurfaceFree
nnmem_nlib_memutf8_to_utf16
_ZN2nn2sf4cmif6client34CmifDomainProxyClientCoreProcessorINS0_4hipc6client38Hipc2ClientSessionManagedProxyKindBaseINS5_18Hipc2ProxyKindBaseILNS4_6detail11MessageTypeE6EEEEENS1_6detail14CoreMethodInfoINSt3__15tupleIJNSC_18OutRawArgumentInfoILm16ELm1ELl0EEENSC_17InRawArgumentInfoILm16ELm8ELl0EEEEEELm16ELm16ELb0EEESK_E7ProcessEPNS2_23CmifDomainClientMessageISB_E15ProxyBaseObjectENS2_24OutRawClientArgumentTypeILm16ELm1EEENS2_23InRawClientArgumentTypeILm16ELm8EvEEj
_ZN2nn5codec19CPns_SetCorrelationEPNS0_8CPnsDataEiii
_ZN2nn2lm6detail15LogPacketHeader15SetLittleEndianEb
_ZN2nn3ngc6detail12BinaryWriter5FlushEv
_ZTIN2nn2sf6detail38ObjectImplFactoryWithStatefulAllocatorINS0_4cmif6client6detail9CmifProxyINS_8settings24ISettingsItemKeyIteratorENS0_4hipc6client18Hipc2ProxyKindBaseILNS9_6detail11MessageTypeE6EEENS0_30MemoryResourceAllocationPolicyENS5_19ProcessModifierImplINS4_21DefaultProxyFilterTagEEEvEESF_E6ObjectE
_ZN2nn3hid6system6detail34CancelAnalogStickManualCalibrationENS1_11UniquePadIdENS1_19AnalogStickPositionE
NvRmGpuDeviceClose
NvRmGpuDeviceGetPower
_ZN7android8Composer13setLayerStackERKNS_2spINS_21SurfaceComposerClientEEERKNS1_INS_7IBinderEEEj
nearbyintl
_ZThn32_N2nn2sf4cmif6client6detail13CmifProxyImplINS_2am7service16IAudioControllerENS2_19CmifDomainProxyKindINS0_4hipc6client38Hipc2ClientSessionManagedProxyKindBaseINSA_18Hipc2ProxyKindBaseILNS9_6detail11MessageTypeE6EEEEEEENS0_30MemoryResourceAllocationPolicyES7_NS3_19ProcessModifierImplINS2_21DefaultProxyFilterTagEEEE17GetCmifBaseObjectEv
_ZN2nn5codec3fftEiPiS1_
_ZN2nn2sf4cmif6client34CmifDomainProxyClientCoreProcessorINS0_4hipc6client38Hipc2ClientSessionManagedProxyKindBaseINS5_18Hipc2ProxyKindBaseILNS4_6detail11MessageTypeE6EEEEENS1_6detail14CoreMethodInfoINSt3__15tupleIJNSC_18OutRawArgumentInfoILm8ELm8ELl0EEENSC_17InRawArgumentInfoILm1ELm1ELl0EEENSI_ILm8ELm8ELl8EEEEEELm16ELm8ELb0EEESL_E7ProcessEPNS2_23CmifDomainClientMessageISB_E15ProxyBaseObjectENS2_24OutRawClientArgumentTypeILm8ELm8EEENS2_23InRawClientArgumentTypeILm1ELm1EvEENSU_ILm8ELm8EvEEj
_ZN2nn2sf4cmif6client6detail13CmifProxyImplINS_7timesrv6detail7service14IStaticServiceENS2_19CmifDomainProxyKindINS0_4hipc6client38Hipc2ClientSessionManagedProxyKindBaseINSB_18Hipc2ProxyKindBaseILNSA_6detail11MessageTypeE6EEEEEEENS0_30MemoryResourceAllocationPolicyES8_NS3_19ProcessModifierImplINS2_21DefaultProxyFilterTagEEEE48_nn_sf_sync_SetStandardSteadyClockInternalOffsetENS_12TimeSpanTypeE
_ZN2nn5audio24SetI3dl2ReverbParametersEPNS0_15I3dl2ReverbTypeEPKNS0_23I3dl2ReverbParameterSetE
_ZN2nn4lmem6detail14CreateUnitHeapEPvmmitNS0_13InfoPlacementEPNS1_8HeapHeadE
_ZN2nn2sf4cmif6client6detail13CmifProxyImplINS_4nifm6detail8IRequestENS2_19CmifDomainProxyKindINS0_4hipc6client38Hipc2ClientSessionManagedProxyKindBaseINSA_18Hipc2ProxyKindBaseILNS9_6detail11MessageTypeE6EEEEEEENS0_30MemoryResourceAllocationPolicyES7_NS3_19ProcessModifierImplINS2_21DefaultProxyFilterTagEEEE23_nn_sf_sync_SetSharableEb
__nnmusl_close_handle
_ZN2nn5audio6server12DetailAspectD2Ev
_ZTIN2nn4bcat6detail3ipc16INotifierServiceE
_ZN2nn2sf4cmif6client34CmifDomainProxyClientCoreProcessorINS0_4hipc6client38Hipc2ClientSessionManagedProxyKindBaseINS5_18Hipc2ProxyKindBaseILNS4_6detail11MessageTypeE6EEEEENS1_6detail14CoreMethodInfoINSt3__15tupleIJNSC_18OutRawArgumentInfoILm8ELm8ELl0EEENSC_18BufferArgumentInfoILi0ELi25ELm208EEENSI_ILi1ELi25ELm208EEEEEELm0ELm8ELb0EEESL_E7ProcessEPNS2_23CmifDomainClientMessageISB_E15ProxyBaseObjectENS2_24OutRawClientArgumentTypeILm8ELm8EEENS2_24BufferClientArgumentTypeESU_j
_ZNKSt3__120__codecvt_utf8_utf16IDsE5do_inER11__mbstate_tPKcS5_RS5_PDsS7_RS7_
android_atomic_acquire_load
_ZN7android6Parcel4Blob4initEbPvm
_ZN2nn2sf4cmif6client6detail13CmifProxyImplINS_2am7service15ISelfControllerENS2_19CmifDomainProxyKindINS0_4hipc6client38Hipc2ClientSessionManagedProxyKindBaseINSA_18Hipc2ProxyKindBaseILNS9_6detail11MessageTypeE6EEEEEEENS0_30MemoryResourceAllocationPolicyES7_NS3_19ProcessModifierImplINS2_21DefaultProxyFilterTagEEEE37_nn_sf_sync_CreateManagedDisplayLayerENS0_3OutImvEE
_ZN2nn2ec27ShowShopSubscriptionDetailsERKNS0_8CourseIdENS0_5NsUidERKNS_7account10UserHandleE
nnfontllFsSeekFile
_ZN2nn4htcs6detail25virtual_socket_collection12CreateSocketENS_2sf13SharedPointerINS_3tma7ISocketEEERi
_ZN2nn5image6detail4jpeg15jpeg_idct_15x15EPNS2_22jpeg_decompress_structEPNS2_19jpeg_component_infoEPsPPhi
_ZTSNSt3__113messages_baseE
_ZN2nn2sf4cmif6client6detail36GetClientProcessorImplWithObjectBaseINS2_19CmifDomainProxyKindINS0_4hipc6client38Hipc2ClientSessionManagedProxyKindBaseINS7_18Hipc2ProxyKindBaseILNS6_6detail11MessageTypeE6EEEEEEENS3_19ProcessModifierImplINS2_21DefaultProxyFilterTagEEEE14ObjectAssignerINS0_30MemoryResourceAllocationPolicyENS_14MemoryResourceEE14AllocateObjectINS_2am7service18IHomeMenuFunctionsEEEvi
_ZN2nn2ec6detail15ShowShopPageArg20CallbackUrlMaxLengthE
_ZN2nn7nlibsdk4heap14TlsHeapCentral7SetNameEPvPKc
_ZN2nn3mii6detail11CoreDataRaw12SetBeardTypeEi
_ZN2nn2sf4cmif6client6detail13CmifProxyImplINS_3ssl2sf11ISslContextENS2_19CmifDomainProxyKindINS0_4hipc6client38Hipc2ClientSessionManagedProxyKindBaseINSA_18Hipc2ProxyKindBaseILNS9_6detail11MessageTypeE6EEEEEEENS0_24StatefulAllocationPolicyINS0_16ExpHeapAllocatorEEES7_NS3_19ProcessModifierImplINS2_21DefaultProxyFilterTagEEEE30_nn_sf_sync_GetConnectionCountENS0_3OutIjvEE
_ZN2nn3nsd30EnableForcedGlobalServerAccessEv
_ZN2nn2sf4cmif6client34CmifDomainProxyClientCoreProcessorINS0_4hipc6client38Hipc2ClientSessionManagedProxyKindBaseINS5_18Hipc2ProxyKindBaseILNS4_6detail11MessageTypeE6EEEEENS1_6detail14CoreMethodInfoINSt3__15tupleIJNSC_17InRawArgumentInfoILm36ELm1ELl0EEEEEELm36ELm0ELb0EEESI_E7ProcessEPNS2_23CmifDomainClientMessageISB_E15ProxyBaseObjectENS2_23InRawClientArgumentTypeILm36ELm1EvEEj
_ZNSt3__115numpunct_bynameIwE6__initEPKc
_ZNK2nn3mii6detail16Ver3StoreDataRaw16GetFavoriteColorEv
_ZN2nn6socket8resolver10serializer19FreeHostentContentsERNS0_7HostEntE
_ZN2nn3web17OfflineWebSession8FinalizeEv
difftime
_ZN2nn8settings6system17SetPlatformRegionENS1_14PlatformRegionE
nnsocketRecv
_ZN2nn4util13TFormatStringEPFvmPKciEmS2_z
_ZNK2nn9bluetooth11GattService17GetEndGroupHandleEv
get_embedded_graymap
nnsocketSysctl
_ZNSt3__112basic_stringIcNS_11char_traitsIcEENS_9allocatorIcEEE4nposE
_ZN22nerd_gillette_internal5otete9SerializeINS0_15BitStreamReaderINS0_14InputBitStreamEEEEEbRNS0_5plato21PlatoReflectionPacketERT_
wcslen
_ZN2nn3web14ShowWebPageArg30SetMediaPlayerAutoCloseEnabledEb
_ZN2nn4util37GetLengthOfConvertedStringUtf32ToUtf8EPiPKDi
_ZNK2nn2sf13SharedPointerIN3nns9hosbinder16IHOSBinderDriverEE19FunctionForBoolTypeEv
_ZN2nn2sf4cmif6client6detail13CmifProxyImplINS_3hid16IHidSystemServerENS0_4hipc6client18Hipc2ProxyKindBaseILNS7_6detail11MessageTypeE6EEENS0_30MemoryResourceAllocationPolicyES6_NS3_19ProcessModifierImplINS2_21DefaultProxyFilterTagEEEE30_nn_sf_sync_DeleteButtonConfigENS5_6system11UniquePadIdE
_ZNSt3__113basic_ostreamIcNS_11char_traitsIcEEED2Ev
_ZN2nn5audio6server15SplitterContext19UpdateInternalStateEv
_ZN2nn5audio3dsp9ApplyMix1EPfPKffi
_ZN2nn3hid6detail44IsUnintendedHomeButtonInputProtectionEnabledEPbRKj
_ZN2nn3mii6detail22GetFacelineColorToVer3ENS0_13FacelineColorE
_ZTIN2nn4util16AbstractExecutorE
_ZN2nn2sf4cmif6client34CmifDomainProxyClientCoreProcessorINS0_4hipc6client38Hipc2ClientSessionManagedProxyKindBaseINS5_18Hipc2ProxyKindBaseILNS4_6detail11MessageTypeE6EEEEENS1_6detail14CoreMethodInfoINSt3__15tupleIJNSC_21OutObjectArgumentInfoILi0ELi0EEENSC_17InRawArgumentInfoILm8ELm8ELl0EEEEEELm8ELm0ELb0EEESK_E21ProcessWithOutObjectsEPNS2_23CmifDomainClientMessageISB_E15ProxyBaseObjectENS2_27OutObjectClientArgumentTypeENS2_23InRawClientArgumentTypeILm8ELm8EvEEjPNS0_13SharedPointerINS0_14IServiceObjectEEE
_ZN2nn7account36CheckNetworkServiceAvailabilityAsyncEPNS0_12AsyncContextERKNS0_27SystemProgramIdentificationE
_ZN2nn5srepo6detail15StructGenerator11AddKeyValueEPmPKcRKNS0_10Any64BitIdEPhmm
_ZN2nn5codec33Hcr_State_BODY_SIGN_ESC__ESC_WORDEPNS0_13FDK_BITSTREAMEPv
_ZN2nn3hid6system21GetUniquePadsFromNpadEPNS1_11UniquePadIdEiRKj
_ZN2nn5swkbd14InlineKeyboard15SetTouchEnabledEb
_ZN2nn5audio6common29GetSplitterInParamHeaderMagicEv
_ZNK2nn2fs6detail22LruFileDataCacheSystem15GetIndexOfCacheEPv
nnmem_nlib_dwprintf
_ZN2nn3err19ApplicationErrorArgC2EjPKcS3_RKNS_8settings12LanguageCodeE
_ZN2nn5audio6server38CommandProcessingTimeEstimatorVersion38EstimateERKNS0_26TDataSourceCommandVersion2ILNS0_9CommandIdE4EEE
_ZN2nn7account34NetworkServiceAccountAdministrator31DebugUnlinkNintendoAccountAsyncEPNS0_12AsyncContextE
_ZThn16_N2nn2sf4cmif6client6detail13CmifProxyImplINS_6capsrv2sf29IScreenShotApplicationServiceENS0_4hipc6client18Hipc2ProxyKindBaseILNS8_6detail11MessageTypeE6EEENS0_30MemoryResourceAllocationPolicyES7_NS3_19ProcessModifierImplINS2_21DefaultProxyFilterTagEEEE17GetCmifBaseObjectEv
_ZN2nn8settings12LanguageCode6GermanEv
unw_step
_ZTIN2nn2am7service18ISystemAppletProxyE
_ZN2nn5audio12OpenAudioOutEPNS0_8AudioOutEPKcRKNS0_17AudioOutParameterE
_ZN2nn9hidconfig22SetButtonConfigStorageERKNS0_16ButtonConfigLeftEi
_ZTIN2nn2os6detail33MultiWaitHolderOfNativeWaitObjectE
_ZN2nn2sf4hipc6client24Hipc2ClientCoreProcessorILNS1_6detail11MessageTypeE6ENS0_4cmif6detail14CoreMethodInfoINSt3__15tupleIJNS7_17InRawArgumentInfoILm32ELm4ELl0EEEEEELm32ELm0ELb0EEESD_E7ProcessEPNS2_26Hipc2ClientProxyBaseObjectENS6_6client23InRawClientArgumentTypeILm32ELm4EvEEj
_ZN2nn3web21ShowSystemDataPageArg8DataSizeE
_ZN2nn6applet26GetLibraryAppletExitReasonENS0_19LibraryAppletHandleE
_ZTIN2nn5fssrv2sf22ISaveDataChunkExporterE
_ZN2nn2sf4cmif6client6detail13CmifProxyImplINS_3hid16IHidSystemServerENS0_4hipc6client18Hipc2ProxyKindBaseILNS7_6detail11MessageTypeE6EEENS0_30MemoryResourceAllocationPolicyES6_NS3_19ProcessModifierImplINS2_21DefaultProxyFilterTagEEEE44_nn_sf_sync_GetUniquePadAppletDetailedUiTypeENS0_3OutINS5_6system20AppletDetailedUiTypeEvEENSJ_11UniquePadIdE
_ZN2nn6socket8resolver10serializer13DNSSerializer6SizeOfINS0_6InAddrEEEmPPKT_Rj
_ZN2nn2sf4cmif6client6detail13CmifProxyImplINS_7account4baas12IManagerBaseENS2_19CmifDomainProxyKindINS0_4hipc6client38Hipc2ClientSessionManagedProxyKindBaseINSA_18Hipc2ProxyKindBaseILNS9_6detail11MessageTypeE6EEEEEEENS0_25StatelessAllocationPolicyINS0_22ExpHeapStaticAllocatorILm2048ENS5_6detail12ObjectHolder24ObjectHolderAllocatorTagEEEEENS6_22IManagerForApplicationENS3_19ProcessModifierImplINS2_21DefaultProxyFilterTagEEEE35_nn_sf_sync_EnsureIdTokenCacheAsyncENS0_3OutINS0_13SharedPointerINSK_13IAsyncContextEEEvEE
_ZTIN2nn2sf4cmif6client6detail13CmifProxyImplINS_7account4baas28IFloatingRegistrationRequestENS2_19CmifDomainProxyKindINS0_4hipc6client38Hipc2ClientSessionManagedProxyKindBaseINSA_18Hipc2ProxyKindBaseILNS9_6detail11MessageTypeE6EEEEEEENS0_25StatelessAllocationPolicyINS0_22ExpHeapStaticAllocatorILm2048ENS5_6detail12ObjectHolder24ObjectHolderAllocatorTagEEEEES7_NS3_19ProcessModifierImplINS2_21DefaultProxyFilterTagEEEEE
_ZN2nn5audio31GetOscMessageNextArgumentAsBlobEPNS0_14OscMessageTypeE
_ZTSN2nn5audio6detail15IAudioInManagerE
_ZN2nn3hid22SetSupportedNpadIdTypeEPKjm
_ZN2nn2sf4cmif6client6detail13CmifProxyImplINS_3hid15IHidDebugServerENS0_4hipc6client18Hipc2ProxyKindBaseILNS7_6detail11MessageTypeE6EEENS0_30MemoryResourceAllocationPolicyES6_NS3_19ProcessModifierImplINS2_21DefaultProxyFilterTagEEEE27_nn_sf_sync_SetGyroscopeOdrENS5_5debug12GyroscopeOdrENS_6applet20AppletResourceUserIdE
_ZNSt3__15ctypeIcED2Ev
_ZN2nn2sf4cmif6client6detail13CmifProxyImplINS_2am7service22IGlobalStateControllerENS2_19CmifDomainProxyKindINS0_4hipc6client38Hipc2ClientSessionManagedProxyKindBaseINSA_18Hipc2ProxyKindBaseILNS9_6detail11MessageTypeE6EEEEEEENS0_30MemoryResourceAllocationPolicyES7_NS3_19ProcessModifierImplINS2_21DefaultProxyFilterTagEEEE29_nn_sf_sync_ShouldSleepOnBootENS0_3OutIbvEE
_ZNK2nn5audio6server14EffectInfoBase8GetMixIdEv
nnResultIsSuccess
_ZTIN2nn2sf4cmif6client6detail13CmifProxyImplINS_3apm8IManagerENS0_4hipc6client18Hipc2ProxyKindBaseILNS7_6detail11MessageTypeE6EEENS0_30MemoryResourceAllocationPolicyES6_NS3_19ProcessModifierImplINS2_21DefaultProxyFilterTagEEEEE
_ZN2nn9bluetooth19AcquireBleScanEventEPNS_2os15SystemEventTypeE
_ZNK2nn2ec28ConsumableServiceItemManager25ExportSerializedRightDataEPvm
_ZTIN2nn2sf6detail38ObjectImplFactoryWithStatefulAllocatorINS0_4cmif6client6detail9CmifProxyINS_3hid15IHidDebugServerENS0_4hipc6client18Hipc2ProxyKindBaseILNS9_6detail11MessageTypeE6EEENS0_30MemoryResourceAllocationPolicyENS5_19ProcessModifierImplINS4_21DefaultProxyFilterTagEEEvEESF_E6ObjectE
_ZN2nn8irsensor6detail15IrSensorSession17RunIrLedProcessorERKNS0_14IrCameraHandleERKNS0_26PackedIrLedProcessorConfigE
_ZN2nn8settings6detail14SetAudioVolumeERKNS0_6system11AudioVolumeEi
_ZN2nn4nifm21SetRequestKeptInSleepENS0_13RequestHandleEb
_ZN2nn2sf4cmif6client6detail13CmifProxyImplINS_4pctl6detail3ipc23IParentalControlServiceENS2_19CmifDomainProxyKindINS0_4hipc6client38Hipc2ClientSessionManagedProxyKindBaseINSB_18Hipc2ProxyKindBaseILNSA_6detail11MessageTypeE6EEEEEEENS0_30MemoryResourceAllocationPolicyES8_NS3_19ProcessModifierImplINS2_21DefaultProxyFilterTagEEEE25_nn_sf_sync_StopPlayTimerEv
_ZN2nn7account42NintendoAccountAuthorizationRequestContextC1Ev
_ZN2nn3ldn11IsValidSsidERKNS0_4SsidE
_ZN2nn5audio14AddBufferMixerEPNS0_19AudioRendererConfigEPNS0_15BufferMixerTypeEPNS0_10SubMixTypeE
_ZN2nn2fs3dbm21FileSystemControlAreaC2Ev
_ZN2nn3ngc6detail17MemoryInputStream6Close_Ev
_ZN2nn2oe20GetCurrentFocusStateEv
_ZN2nn2sf4cmif6client34CmifDomainProxyClientCoreProcessorINS0_4hipc6client38Hipc2ClientSessionManagedProxyKindBaseINS5_18Hipc2ProxyKindBaseILNS4_6detail11MessageTypeE6EEEEENS1_6detail14CoreMethodInfoINSt3__15tupleIJNSC_18OutRawArgumentInfoILm4ELm4ELl0EEENSG_ILm4ELm4ELl4EEENSC_17InRawArgumentInfoILm4ELm4ELl0EEENSJ_ILm4ELm4ELl4EEENSC_18BufferArgumentInfoILi0ELi33ELm0EEENSM_ILi1ELi33ELm0EEENSM_ILi2ELi33ELm0EEENSM_ILi3ELi33ELm0EEENSM_ILi4ELi34ELm0EEENSM_ILi5ELi34ELm0EEENSM_ILi6ELi34ELm0EEENSM_ILi7ELi34ELm0EEENSJ_ILm4ELm4ELl8EEEEEELm12ELm8ELb0EEESW_E7ProcessEPNS2_23CmifDomainClientMessageISB_E15ProxyBaseObjectENS2_24OutRawClientArgumentTypeILm4ELm4EEES14_NS2_23InRawClientArgumentTypeILm4ELm4EvEES16_NS2_24BufferClientArgumentTypeES17_S17_S17_S17_S17_S17_S17_S16_j
_ZN2nn2sf4cmif6client6detail36GetClientProcessorImplWithObjectBaseINS2_19CmifDomainProxyKindINS0_4hipc6client38Hipc2ClientSessionManagedProxyKindBaseINS7_18Hipc2ProxyKindBaseILNS6_6detail11MessageTypeE6EEEEEEENS3_19ProcessModifierImplINS2_21DefaultProxyFilterTagEEEE14ObjectAssignerINS0_25StatelessAllocationPolicyINS0_22ExpHeapStaticAllocatorILm2048ENS_7account6detail12ObjectHolder24ObjectHolderAllocatorTagEEEEENS0_6detail23StatelessDummyAllocatorEE14AllocateObjectINSN_9INotifierEEEvi
_ZTSN2nn2sf4cmif6client6detail9CmifProxyINS_7account6detail13IAsyncContextENS2_19CmifDomainProxyKindINS0_4hipc6client38Hipc2ClientSessionManagedProxyKindBaseINSA_18Hipc2ProxyKindBaseILNS9_6detail11MessageTypeE6EEEEEEENS0_25StatelessAllocationPolicyINS0_22ExpHeapStaticAllocatorILm2048ENS6_12ObjectHolder24ObjectHolderAllocatorTagEEEEENS3_19ProcessModifierImplINS2_21DefaultProxyFilterTagEEEvEE
map_char
_ZN2nn2vi13ObjectManager11m_LayerLockE
_ZTVNSt3__120__codecvt_utf8_utf16IDsEE
_ZN2nn5audio26SetPerformanceDetailTargetEPNS0_19AudioRendererConfigEPKNS0_10SubMixTypeE
_ZN2nn3btm4user27GetBleScanResultsForGeneralEPNS_9bluetooth13BleScanResultEh
_ZTSN2nn2sf4cmif6client6detail13CmifProxyImplINS_5visrv2sf21ISystemDisplayServiceENS0_4hipc6client18Hipc2ProxyKindBaseILNS8_6detail11MessageTypeE6EEENS0_30MemoryResourceAllocationPolicyES7_NS3_19ProcessModifierImplINS2_21DefaultProxyFilterTagEEEEE
_ZN2nn7account27GetUiResultFromContextStackEPNS0_11UiReturnArgENS_6applet13StorageHandleE
_ZN2nn4bcat17DeliveryCacheFile4ReadEPmlPvm
pcmDmx_ReadDvbAncData
_ZN2nn6crypto6detail7Md5ImplD1Ev
_ZN2nn8settings6detail28SetInRepairProcessEnableFlagEb
_ZN2nn7account33ExternalNetworkServiceAccountInfoD2Ev
_ZN2nn3err18ErrorResultVariantC1ERKNS0_9ErrorCodeE
nnosSignalTimerEvent
_ZN2nn2sf4cmif6client6detail13CmifProxyImplINS_7timesrv6detail7service12ISystemClockENS2_19CmifDomainProxyKindINS0_4hipc6client38Hipc2ClientSessionManagedProxyKindBaseINSB_18Hipc2ProxyKindBaseILNSA_6detail11MessageTypeE6EEEEEEENS0_30MemoryResourceAllocationPolicyES8_NS3_19ProcessModifierImplINS2_21DefaultProxyFilterTagEEEE12GetProxyInfoEv
_ZTIN2nn2sf6detail16ObjectHolderImplINS0_13InterfaceInfoINS_5audio6detail14IAudioRendererEE5_tO2NINS4_6server24AudioRendererManagerImpl17AudioRendererImplEE4typeEvEE
_ZN2nn3ngc15ProfanityFilter10InitializeEPvm
_ZTVNSt3__120__shared_ptr_pointerIPNS_21__horizon_thread_dataEPFvS2_ENS_9allocatorIS1_EEEE
_ZN2nn7account13ProfileEditor4SwapERS1_
_ZN2nn3hid6detail32SetNpadAnalogStickUseCenterClampEb
_ZN2nn3grc15CloseMovieLayerEPNS0_10MovieLayerE
_ZN2nn2am35InvokeWithSelfLibraryCreatorEnabledEPFvvE
_ZN2nn5audio6server17AudioRenderSystem21SetRenderingTimeLimitEi
_ZNK2nn3mii6detail16Ver3StoreDataRaw13GetAuthorTypeEv
__assert_fail
nndetailImagePng_png_get_gAMA_fixed
_ZNK2nn3mii6detail11CoreDataRaw12GetEyeRotateEv
_ZN2nn3mii6detail12StoreDataRaw12SetMustacheYEi
NvRmSyncSignalSemaphore
_ZN2nn5audio3dsp16UnmapUserPointerENS0_7CpuAddrEm
nnmem_nlib_utf32char_to_utf8
NvColorSpaceFromString
_ZNK2nn7account25CachedNintendoAccountInfo9GetGenderEPm
_ZN2nn5audio31OpenFinalOutputRecorderInternalEPNS0_19FinalOutputRecorderERKNS0_28FinalOutputRecorderParameterE
_ZNK2nn4http4json4Node5PrintEPcmPKc
_ZN2nn3hid6system31ApplyNpadSystemCommonPolicyFullEv
_ZTIN2nn2sf4cmif6client6detail9CmifProxyINS_2am7service25IProcessWindingControllerENS2_19CmifDomainProxyKindINS0_4hipc6client38Hipc2ClientSessionManagedProxyKindBaseINSA_18Hipc2ProxyKindBaseILNS9_6detail11MessageTypeE6EEEEEEENS0_30MemoryResourceAllocationPolicyENS3_19ProcessModifierImplINS2_21DefaultProxyFilterTagEEEvEE
_ZN2nn5codec15CPulseData_ReadEPNS0_13FDK_BITSTREAMEPNS0_10CPulseDataEPKsPKvs
_ZTVN2nn5image13ExifExtractorE
_ZN2nn8settings6detail30AdvanceSettingsItemKeyIteratorEPNS0_5fwdbg23SettingsItemKeyIteratorE
_ZNSt3__112future_errorC1ENS_10error_codeE
_ZN2nn2sf4cmif6client6detail13CmifProxyImplINS_5codec6detail20IHardwareOpusDecoderENS2_19CmifDomainProxyKindINS0_4hipc6client38Hipc2ClientSessionManagedProxyKindBaseINSA_18Hipc2ProxyKindBaseILNS9_6detail11MessageTypeE6EEEEEEENS0_30MemoryResourceAllocationPolicyES7_NS3_19ProcessModifierImplINS2_21DefaultProxyFilterTagEEEE17GetCmifBaseObjectEv
_ZTSN2nn2sf4cmif6client6detail13CmifProxyImplINS_4npns21INotificationReceiverENS0_4hipc6client18Hipc2ProxyKindBaseILNS7_6detail11MessageTypeE6EEENS0_30MemoryResourceAllocationPolicyES6_NS3_19ProcessModifierImplINS2_21DefaultProxyFilterTagEEEEE
_ZN2nn2ec27DebugForShopServiceAccessor13ScopedSessionD1Ev
_ZNKSt3__17num_getIcNS_19istreambuf_iteratorIcNS_11char_traitsIcEEEEE6do_getES4_S4_RNS_8ios_baseERjRb
_ZNSt3__117moneypunct_bynameIcLb1EE4initEPKc
_ZThn32_N2nn2sf4cmif6client6detail13CmifProxyImplINS_2am7service21ILibraryAppletCreatorENS2_19CmifDomainProxyKindINS0_4hipc6client38Hipc2ClientSessionManagedProxyKindBaseINSA_18Hipc2ProxyKindBaseILNS9_6detail11MessageTypeE6EEEEEEENS0_30MemoryResourceAllocationPolicyES7_NS3_19ProcessModifierImplINS2_21DefaultProxyFilterTagEEEE17GetCmifBaseObjectEv
_ZN2nn5codec30HardwareOpusMultiStreamDecoderD2Ev
_ZTSN2nn2sf6detail38ObjectImplFactoryWithStatefulAllocatorINS0_4cmif6client6detail9CmifProxyINS_5visrv2sf26IApplicationDisplayServiceENS0_4hipc6client18Hipc2ProxyKindBaseILNSA_6detail11MessageTypeE6EEENS0_30MemoryResourceAllocationPolicyENS5_19ProcessModifierImplINS4_21DefaultProxyFilterTagEEEvEESG_E6ObjectE
_ZNKSt3__17num_getIcNS_19istreambuf_iteratorIcNS_11char_traitsIcEEEEE6do_getES4_S4_RNS_8ios_baseERjRd
_ZNK2nn5audio16SharedRingBuffer14ContainsBufferEPKv
_ZN2nn5image6detail4jpeg25jpeg_calc_jpeg_dimensionsEPNS2_20jpeg_compress_structE
_ZN2nn2os24TimedReceiveMessageQueueEPmPNS0_16MessageQueueTypeENS_8TimeSpanE
_ZN2nn2sf4cmif6client34CmifDomainProxyClientCoreProcessorINS0_4hipc6client38Hipc2ClientSessionManagedProxyKindBaseINS5_18Hipc2ProxyKindBaseILNS4_6detail11MessageTypeE6EEEEENS1_6detail14CoreMethodInfoINSt3__15tupleIJNSC_18OutRawArgumentInfoILm8ELm4ELl0EEENSC_21OutHandleArgumentInfoILi0ELi1EEENSG_ILm4ELm4ELl8EEENSC_18BufferArgumentInfoILi0ELi10ELm0EEENSC_17InRawArgumentInfoILm16ELm8ELl0EEEEEELm16ELm12ELb0EEESP_E7ProcessEPNS2_23CmifDomainClientMessageISB_E15ProxyBaseObjectENS2_24OutRawClientArgumentTypeILm8ELm4EEENS2_27OutHandleClientArgumentTypeENSW_ILm4ELm4EEENS2_24BufferClientArgumentTypeENS2_23InRawClientArgumentTypeILm16ELm8EvEEj
_ZNKSt3__17num_getIcNS_19istreambuf_iteratorIcNS_11char_traitsIcEEEEE6do_getES4_S4_RNS_8ios_baseERjRe
wmemchr
_ZNK2nn3mii6detail16Ver3StoreDataRaw15GetEyebrowColorEv
_ZN2nn2sf4cmif6client6detail13CmifProxyImplINS_5visrv2sf21ISystemDisplayServiceENS0_4hipc6client18Hipc2ProxyKindBaseILNS8_6detail11MessageTypeE6EEENS0_30MemoryResourceAllocationPolicyES7_NS3_19ProcessModifierImplINS2_21DefaultProxyFilterTagEEEE21_nn_sf_sync_SetLayerZEml
_ZN2nn2sf4cmif6client6detail13CmifProxyImplINS_5visrv2sf22IManagerDisplayServiceENS0_4hipc6client18Hipc2ProxyKindBaseILNS8_6detail11MessageTypeE6EEENS0_30MemoryResourceAllocationPolicyES7_NS3_19ProcessModifierImplINS2_21DefaultProxyFilterTagEEEE26_nn_sf_sync_SetLayerConfigEmRKNS_2vi11LayerConfigE
_ZNKSt3__17num_getIcNS_19istreambuf_iteratorIcNS_11char_traitsIcEEEEE6do_getES4_S4_RNS_8ios_baseERjRf
_ZNSt3__117moneypunct_bynameIcLb0EE4initEPKc
_ZNSt3__15ctypeIcEC1EPKtbm
strncpy
_ZN2nn2sf4cmif6client6detail13CmifProxyImplINS_4nifm6detail15IGeneralServiceENS2_19CmifDomainProxyKindINS0_4hipc6client38Hipc2ClientSessionManagedProxyKindBaseINSA_18Hipc2ProxyKindBaseILNS9_6detail11MessageTypeE6EEEEEEENS0_30MemoryResourceAllocationPolicyES7_NS3_19ProcessModifierImplINS2_21DefaultProxyFilterTagEEEE50_nn_sf_sync_SetEthernetCommunicationEnabledForTestEb
_ZNSt3__117__assoc_sub_state24set_value_at_thread_exitEv
_ZN2nn5codec17drmRead_CrcEndRegEPNS0_10STRUCT_DRMEPNS0_13FDK_BITSTREAMEi
_ZN2nn2ec28ShowShopConsumableItemDetailERKNS0_12ConsumableIdENS0_5NsUidE
getFDindex
_ZN2nn3mii6detail12StoreDataRaw9SetGenderEi
_ZN2nn4nifm4ScanEPKsi
_ZN2nn5swkbd6detail18InlineKeyboardImpl15EnableBackspaceEb
_ZN2nn2sf4cmif6client6detail13CmifProxyImplINS_7account3nas21IAuthorizationRequestENS2_19CmifDomainProxyKindINS0_4hipc6client38Hipc2ClientSessionManagedProxyKindBaseINSA_18Hipc2ProxyKindBaseILNS9_6detail11MessageTypeE6EEEEEEENS0_25StatelessAllocationPolicyINS0_22ExpHeapStaticAllocatorILm2048ENS5_6detail12ObjectHolder24ObjectHolderAllocatorTagEEEEES7_NS3_19ProcessModifierImplINS2_21DefaultProxyFilterTagEEEE12GetProxyInfoEv
_ZN2nn2fs6detail17DirectoryAccessor13GetEntryCountEPl
nndetailImagePng_png_destroy_gamma_table
nndetailImagePng_png_get_gAMA
_ZNSt3__113basic_istreamIcNS_11char_traitsIcEEErsERb
_ZTCNSt3__114basic_iostreamIcNS_11char_traitsIcEEEE16_NS_13basic_ostreamIcS2_EE
_ZN2nn4htcs6detail7connectENS_2sf13SharedPointerINS_3tma7ISocketEEEPKNS0_12SockAddrHtcsERi
_ZN2nn3ngc70AcquireProfanityWordTemporalPassThroughIndicatorForPlatformRegionChinaEv
_ZN2nn5swkbd6detail18InlineKeyboardImpl13FinishApplet_Ev
_ZN2nn3hid6detail18GetDigitizerStatesEPiPNS0_14DigitizerStateEi
_ZNSt3__113basic_istreamIcNS_11char_traitsIcEEErsERd
_ZN2nn4http4json4Node5ArrayE
_ZN2nn3hid6system26EnableUsbFullKeyControllerEb
_ZN2nn5prepo6StructC1Ev
__nnDetailNintendoSdkNsoFile
_ZNSt3__113basic_istreamIcNS_11char_traitsIcEEErsERe
_ZNKSt3__17num_getIcNS_19istreambuf_iteratorIcNS_11char_traitsIcEEEEE6do_getES4_S4_RNS_8ios_baseERjRl
_ZN2nn2sf4cmif6client6detail13CmifProxyImplINS_7account4baas14IAdministratorENS2_19CmifDomainProxyKindINS0_4hipc6client38Hipc2ClientSessionManagedProxyKindBaseINSA_18Hipc2ProxyKindBaseILNS9_6detail11MessageTypeE6EEEEEEENS0_25StatelessAllocationPolicyINS0_22ExpHeapStaticAllocatorILm2048ENS5_6detail12ObjectHolder24ObjectHolderAllocatorTagEEEEES7_NS3_19ProcessModifierImplINS2_21DefaultProxyFilterTagEEEE43_nn_sf_sync_DebugSetAvailabilityErrorDetailEj
_ZN2nn2sf4cmif6client34CmifDomainProxyClientCoreProcessorINS0_4hipc6client38Hipc2ClientSessionManagedProxyKindBaseINS5_18Hipc2ProxyKindBaseILNS4_6detail11MessageTypeE6EEEEENS1_6detail14CoreMethodInfoINSt3__15tupleIJNSC_18OutRawArgumentInfoILm4ELm4ELl0EEENSG_ILm8ELm8ELl8EEENSC_17InRawArgumentInfoILm4ELm4ELl0EEENSC_18BufferArgumentInfoILi0ELi5ELm0EEENSJ_ILm4ELm4ELl4EEEEEELm8ELm16ELb0EEESO_E7ProcessEPNS2_23CmifDomainClientMessageISB_E15ProxyBaseObjectENS2_24OutRawClientArgumentTypeILm4ELm4EEENSV_ILm8ELm8EEENS2_23InRawClientArgumentTypeILm4ELm4EvEENS2_24BufferClientArgumentTypeESZ_j
nnmem_nlib_memutf8_to_utf32
_ZN2nn2sf4cmif6client6detail13CmifProxyImplINS_3ngc1t6detail25IServiceWithManagementApiENS0_4hipc6client18Hipc2ProxyKindBaseILNS9_6detail11MessageTypeE6EEENS0_30MemoryResourceAllocationPolicyES8_NS3_19ProcessModifierImplINS2_21DefaultProxyFilterTagEEEE38_nn_sf_sync_ConfigureAutoUpdateSettingEv
_ZN2nn2os25GetCurrentProcessorNumberEv
NvRmSurfaceComputePitch
_ZNSt3__112__rs_defaultD2Ev
_ZNSt3__113basic_istreamIcNS_11char_traitsIcEEErsERf
_ZNKSt3__17num_getIcNS_19istreambuf_iteratorIcNS_11char_traitsIcEEEEE6do_getES4_S4_RNS_8ios_baseERjRm
_ZN2nn2sf4hipc6client24Hipc2ClientCoreProcessorILNS1_6detail11MessageTypeE6ENS0_4cmif6detail14CoreMethodInfoINSt3__15tupleIJNS7_18BufferArgumentInfoILi0ELi5ELm0EEENS7_17InRawArgumentInfoILm8ELm8ELl0EEENS7_20InHandleArgumentInfoILi0ELi1EEEEEELm8ELm0ELb0EEESH_E7ProcessEPNS2_26Hipc2ClientProxyBaseObjectENS6_6client24BufferClientArgumentTypeENSM_23InRawClientArgumentTypeILm8ELm8EvEENSM_26InHandleClientArgumentTypeEj
_ZN2nn8irsensor31GetMomentProcessorDefaultConfigEPNS0_21MomentProcessorConfigE
_ZN2nn2os6detail27InterruptEventImplByHorizon9TimedWaitENS_8TimeSpanE
_ZN2nn2vi9GetLayerZEPiPKNS0_5LayerE
_ZNKSt3__110moneypunctIcLb1EE16do_negative_signEv
_ZN2nn2fs3dbm30BufferedAllocationTableStorageC2Ev
_ZN2nn4pctl14StartPlayTimerEv
FDKmemcmp
_ZN2nn2ec28ShowShopConsumableItemDetailENS_13ApplicationIdERKNS0_12ConsumableIdENS0_5NsUidERKNS_7account10UserHandleE
_ZN2nn3ssl6detail14ServiceSession13IsInitializedEv
_ZTVSt16nested_exception
_ZNSt3__113basic_istreamIcNS_11char_traitsIcEEErsERi
nncodecLibopus_opus_repacketizer_destroy
_ZNK2nn6crypto6detail6BigNum13GetDigitsBitsEv
_ZN2nn3hid6detail28DisablePairedPalmaConnectionEv
_ZN22nerd_gillette_internal5otete11ImageCodec213DecodeInPlaceItNS0_14InputBitStreamEZNS1_13DecodeInPlaceItEEbRKNS_15StaticImageViewIT_EERS3_fEUliiE_EEbS9_RT0_RKT1_f
_ZN2nn3mii6detail11UtilityImpl16MakeVer3CreateIdEPNS1_12Ver3CreateIdE
_ZTSN2nn2sf4cmif6client6detail13CmifProxyImplINS_7timesrv6detail7service16ITimeZoneServiceENS2_19CmifDomainProxyKindINS0_4hipc6client38Hipc2ClientSessionManagedProxyKindBaseINSB_18Hipc2ProxyKindBaseILNSA_6detail11MessageTypeE6EEEEEEENS0_30MemoryResourceAllocationPolicyES8_NS3_19ProcessModifierImplINS2_21DefaultProxyFilterTagEEEEE
_ZNSt3__113basic_istreamIcNS_11char_traitsIcEEErsERj
_ZTSN2nn2sf4cmif6client6detail13CmifProxyImplINS_7account4baas24IManagerForSystemServiceENS2_19CmifDomainProxyKindINS0_4hipc6client38Hipc2ClientSessionManagedProxyKindBaseINSA_18Hipc2ProxyKindBaseILNS9_6detail11MessageTypeE6EEEEEEENS0_25StatelessAllocationPolicyINS0_22ExpHeapStaticAllocatorILm2048ENS5_6detail12ObjectHolder24ObjectHolderAllocatorTagEEEEES7_NS3_19ProcessModifierImplINS2_21DefaultProxyFilterTagEEEEE
_ZN2nn2sf4cmif6client6detail13CmifProxyImplINS_6aocsrv6detail20IAddOnContentManagerENS0_4hipc6client18Hipc2ProxyKindBaseILNS8_6detail11MessageTypeE6EEENS0_30MemoryResourceAllocationPolicyES7_NS3_19ProcessModifierImplINS2_21DefaultProxyFilterTagEEEE28_nn_sf_sync_ListAddOnContentENS0_3OutIivEERKNS0_8OutArrayIiEEmii
_ZN2nn5codec12FDKcrcEndRegEPNS0_11FDK_CRCINFOEPNS0_13FDK_BITSTREAMEi
_ZN2nn3jit21DestroyJitEnvironmentENS0_9JitHandleE
_ZN2nn2sf4cmif6client6detail13CmifProxyImplINS_2am7service31ISystemAppletControllerForDebugENS2_19CmifDomainProxyKindINS0_4hipc6client38Hipc2ClientSessionManagedProxyKindBaseINSA_18Hipc2ProxyKindBaseILNS9_6detail11MessageTypeE6EEEEEEENS0_30MemoryResourceAllocationPolicyES7_NS3_19ProcessModifierImplINS2_21DefaultProxyFilterTagEEEE17GetCmifBaseObjectEv
FDKfseek
_ZN7android7String8D1Ev
nnmem_nlib_snprintf_fallback
_ZNSt3__113basic_istreamIcNS_11char_traitsIcEEErsERl
_ZTIN2nn2sf13InterfaceInfoINS0_4hipc6detail12IHipcManagerEE4_tABINS5_5_tO2NINS2_6server2v134HipcServerSessionManagerWithDomain15HipcManagerImplEE4typeES4_E4typeE
_ZNSt3__113basic_istreamIcNS_11char_traitsIcEEErsERm
_ZNKSt3__15ctypeIcE8do_widenEPKcS3_Pc
_ZNKSt3__17num_getIcNS_19istreambuf_iteratorIcNS_11char_traitsIcEEEEE6do_getES4_S4_RNS_8ios_baseERjRt
_ZN2nn5audio38GetRequiredBufferSizeForAuxI3dl2ReverbEii
_ZN2nn5audio6server38CommandProcessingTimeEstimatorVersion28EstimateERKNS0_19BiquadFilterCommandE
_ZN2nn4diag6detail16GetBacktraceImplEPmimm
_ZThn8_N2nn2fs6detail30FileSystemServiceObjectAdapter20GetMultiCommitTargetEv
_ZN2nn3mii6detail11CoreDataRaw12SetMoleScaleEi
_ZTIN2nn5audio6detail16IAudioOutManagerE
_ZN2nn2fs3dbm22AllocationTableStorage13AllocateBlockEj
nnsslConnectionCreate
nnmem_nlib_semaphore_post_ex
_ZNK2nn3ngc6detail15CompressedArrayixEm
_ZN2nn2sf4cmif6client6detail13CmifProxyImplINS_5visrv2sf21ISystemDisplayServiceENS0_4hipc6client18Hipc2ProxyKindBaseILNS8_6detail11MessageTypeE6EEENS0_30MemoryResourceAllocationPolicyES7_NS3_19ProcessModifierImplINS2_21DefaultProxyFilterTagEEEE31_nn_sf_sync_GetDisplayUnderscanENS0_3OutIlvEEm
_ZN2nn3htc23GetWorkingDirectoryPathEPcm
_ZTIN2nn2sf4cmif6client6detail13CmifProxyImplINS_3mii6detail16IDatabaseServiceENS2_19CmifDomainProxyKindINS0_4hipc6client38Hipc2ClientSessionManagedProxyKindBaseINSA_18Hipc2ProxyKindBaseILNS9_6detail11MessageTypeE6EEEEEEENS0_30MemoryResourceAllocationPolicyES7_NS3_19ProcessModifierImplINS2_21DefaultProxyFilterTagEEEEE
_ZN2nn8settingsneERKNS0_12LanguageCodeERKNS0_8LanguageE
_ZNKSt3__17num_getIcNS_19istreambuf_iteratorIcNS_11char_traitsIcEEEEE6do_getES4_S4_RNS_8ios_baseERjRx
_ZN2nn2fs11FileStorage10UpdateSizeEv
_ZN2nn6hidbus6detail23SetAppletResourceUserIdERKNS_6applet20AppletResourceUserIdE
_ZN2nn3mii6detail16GetNoselineColorENS0_9GammaTypeE
_ZN7android5Fence5mergeERKNS_7String8ERKNS_2spIS0_EES7_
_ZNKSt3__17num_getIcNS_19istreambuf_iteratorIcNS_11char_traitsIcEEEEE6do_getES4_S4_RNS_8ios_baseERjRy
_ZNSt3__18time_putIwNS_19ostreambuf_iteratorIwNS_11char_traitsIwEEEEE2idE
_ZN2nn3err13MakeErrorCodeENS0_21ErrorCodeCategoryTypeEj
_ZN2nn4nifm6detail13RequestClientC1ENS0_17RequirementPresetENS_2os14EventClearModeE
_ZN2nn8settings6system28SetNetworkSystemClockContextERKNS_4time18SystemClockContextE
_ZNSt3__113basic_istreamIcNS_11char_traitsIcEEErsERs
_ZTIN2nn2sf4cmif6client6detail13CmifProxyImplINS_7account29IAccountServiceForApplicationENS2_19CmifDomainProxyKindINS0_4hipc6client38Hipc2ClientSessionManagedProxyKindBaseINS9_18Hipc2ProxyKindBaseILNS8_6detail11MessageTypeE6EEEEEEENS0_25StatelessAllocationPolicyINS0_22ExpHeapStaticAllocatorILm2048ENS5_6detail12ObjectHolder24ObjectHolderAllocatorTagEEEEES6_NS3_19ProcessModifierImplINS2_21DefaultProxyFilterTagEEEEE
_ZN2nn3hid6system14ListUniquePadsEPNS1_11UniquePadIdEi
_ZN2nn4nifm6detail13RequestClientC2ENS0_17RequirementPresetENS_2os14EventClearModeE
_ZNSt3__113basic_istreamIcNS_11char_traitsIcEEErsERt
_ZNKSt3__117moneypunct_bynameIcLb0EE14do_frac_digitsEv
__nnmusl_force_add
_ZN2nn2sf4cmif6client6detail13CmifProxyImplINS_7account4baas14IAdministratorENS2_19CmifDomainProxyKindINS0_4hipc6client38Hipc2ClientSessionManagedProxyKindBaseINSA_18Hipc2ProxyKindBaseILNS9_6detail11MessageTypeE6EEEEEEENS0_25StatelessAllocationPolicyINS0_22ExpHeapStaticAllocatorILm2048ENS5_6detail12ObjectHolder24ObjectHolderAllocatorTagEEEEES7_NS3_19ProcessModifierImplINS2_21DefaultProxyFilterTagEEEE25_nn_sf_sync_RegisterAsyncENS0_3OutINS0_13SharedPointerINSK_13IAsyncContextEEEvEE
_ZTIN2nn2sf6detail38ObjectImplFactoryWithStatefulAllocatorINS0_4cmif6client6detail9CmifProxyINS_6capsrv2sf32IAlbumAccessorApplicationSessionENS0_4hipc6client18Hipc2ProxyKindBaseILNSA_6detail11MessageTypeE6EEENS0_30MemoryResourceAllocationPolicyENS5_19ProcessModifierImplINS4_21DefaultProxyFilterTagEEEvEESG_E6ObjectE
_ZN2nn4edid6detail22IsSuspendModeSupportedEh
_ZN2nn3hid6detail23StartSevenSixAxisSensorEv
_ZN2nn4pctl35UpdateExemptApplicationListForDebugEPKNS0_21ExemptApplicationInfoEi
_ZN2nn5audio36GetAudioRendererConfigWorkBufferSizeERKNS0_22AudioRendererParameterE
_ZNKSt3__110moneypunctIcLb1EE16do_thousands_sepEv
_ZNSt11logic_errorC2EPKc
_ZN2nn5audio36GetAudioRenderersProcessMasterVolumeEPfNS_6applet20AppletResourceUserIdE
_ZNK2nn5audio6server11AddressInfo21GetForceMappedDspAddrEv
_ZN2nn2sf6detail38ObjectImplFactoryWithStatefulAllocatorINS0_4cmif6client6detail9CmifProxyINS_4bcat6detail3ipc30IDeliveryCacheDirectoryServiceENS4_19CmifDomainProxyKindINS0_4hipc6client38Hipc2ClientSessionManagedProxyKindBaseINSD_18Hipc2ProxyKindBaseILNSC_6detail11MessageTypeE6EEEEEEENS0_30MemoryResourceAllocationPolicyENS5_19ProcessModifierImplINS4_21DefaultProxyFilterTagEEEvEESL_E6Object12AddReferenceEv
_ZTIN2nn2sf4hipc6server18Hipc2ServerMessageE
strcasestr
_ZTSN2nn2fs22ISaveDataChunkImporterE
_ZN2nn9hidconfig29DeleteButtonConfigStorageLeftEi
nnosTimedWaitInterruptEvent
_ZNSt3__113basic_istreamIcNS_11char_traitsIcEEErsERx
_ZN2nn2am36CreateSystemAppletControllerForDebugEv
_ZN2nn2sf4cmif6client6detail13CmifProxyImplINS_2am7service15IAppletAccessorENS2_19CmifDomainProxyKindINS0_4hipc6client38Hipc2ClientSessionManagedProxyKindBaseINSA_18Hipc2ProxyKindBaseILNS9_6detail11MessageTypeE6EEEEEEENS0_30MemoryResourceAllocationPolicyES7_NS3_19ProcessModifierImplINS2_21DefaultProxyFilterTagEEEE21_nn_sf_sync_GetResultEv
_ZN2nn5audio21SetBufferMixerEnabledEPNS0_15BufferMixerTypeEb
_ZN2nn5audio23RequestDetachMemoryPoolEPNS0_14MemoryPoolTypeE
_ZN2nn2fs40SaveDataTransferManagerForSaveDataRepair27OpenSaveDataImporterWithKeyEPNSt3__110unique_ptrINS0_25ISaveDataDivisionImporterENS2_14default_deleteIS4_EEEERKNS0_6AesKeyERKNS0_19InitialDataVersion2ERKNS0_6UserIdENS0_15SaveDataSpaceIdE
_ZN2nn7nlibsdk4heap12TlsHeapCache15ReleaseAllCacheEv
_ZN2nn5swkbd18MakePresetPasswordEPNS0_14KeyboardConfigE
_ZN2nn4util16AbstractExecutor10WaitSignalEv
_ZNSt3__113basic_istreamIcNS_11char_traitsIcEEErsERy
_ZN2nn5codec5f2PowEiiPi
_ZN2nn6fontll6detail27AddXValuesToOtfKerningTableEPiPNS0_15OtfKerningTableEtttt
_ZN2nn2os21SdkRecursiveMutexType7TryLockEv
_ZN2nn2sf4cmif6client34CmifDomainProxyClientCoreProcessorINS0_4hipc6client38Hipc2ClientSessionManagedProxyKindBaseINS5_18Hipc2ProxyKindBaseILNS4_6detail11MessageTypeE6EEEEENS1_6detail14CoreMethodInfoINSt3__15tupleIJNSC_21OutObjectArgumentInfoILi0ELi0EEENSC_17InRawArgumentInfoILm4ELm4ELl0EEENSI_ILm8ELm8ELl8EEEEEELm16ELm0ELb1EEESL_E21ProcessWithOutObjectsEPNS2_23CmifDomainClientMessageISB_E15ProxyBaseObjectENS2_27OutObjectClientArgumentTypeENS2_23InRawClientArgumentTypeILm4ELm4EvEENST_ILm8ELm8EvEEjPNS0_13SharedPointerINS0_14IServiceObjectEEE
NvOsMutexCreate
_ZN2nn2sf4cmif6client6detail13CmifProxyImplINS_7account19IAccountServiceBaseENS2_19CmifDomainProxyKindINS0_4hipc6client38Hipc2ClientSessionManagedProxyKindBaseINS9_18Hipc2ProxyKindBaseILNS8_6detail11MessageTypeE6EEEEEEENS0_25StatelessAllocationPolicyINS0_22ExpHeapStaticAllocatorILm2048ENS5_6detail12ObjectHolder24ObjectHolderAllocatorTagEEEEENS5_31IAccountServiceForAdministratorENS3_19ProcessModifierImplINS2_21DefaultProxyFilterTagEEEE43_nn_sf_sync_TrySelectUserWithoutInteractionENS0_3OutINS5_3UidEvEEb
_ZN2nn2sf4cmif6client6detail36GetClientProcessorImplWithObjectBaseINS2_19CmifDomainProxyKindINS0_4hipc6client38Hipc2ClientSessionManagedProxyKindBaseINS7_18Hipc2ProxyKindBaseILNS6_6detail11MessageTypeE6EEEEEEENS3_19ProcessModifierImplINS2_21DefaultProxyFilterTagEEEE14ObjectAssignerINS0_30MemoryResourceAllocationPolicyENS_14MemoryResourceEE14AllocateObjectINS_2am7service24ITransferStorageAccessorEEEvi
_ZN2nn2fs31SaveDataTransferManagerVersion229OpenSaveDataExporterByContextEPNSt3__110unique_ptrINS0_25ISaveDataDivisionExporterENS2_14default_deleteIS4_EEEERKNS4_13ExportContextE
_ZNK2nn3ngc6detail2Bp9LastChildEj
_ZN2nn2oe24RestartGamePlayRecordingEv
nnsocketFreeAddrInfo
_ZN2nn4util23StreamingDecompressGzipEPmS1_PvmPKvmPNS0_30StreamingDecompressZlibContextE
_ZTSN2nn7account4baas34IAsyncContextForLoginForOnlinePlayE
_ZNK2nn7account41CachedNintendoAccountInfoForSystemService5GetIdEv
_ZN2nn2sf4hipc6client24Hipc2ClientCoreProcessorILNS1_6detail11MessageTypeE6ENS0_4cmif6detail14CoreMethodInfoINSt3__15tupleIJNS7_18OutRawArgumentInfoILm4ELm4ELl0EEENSB_ILm4ELm4ELl4EEENS7_17InRawArgumentInfoILm8ELm8ELl8EEENSE_ILm4ELm4ELl0EEEEEELm16ELm8ELb1EEESH_E7ProcessEPNS2_26Hipc2ClientProxyBaseObjectENS6_6client24OutRawClientArgumentTypeILm4ELm4EEESO_NSM_23InRawClientArgumentTypeILm8ELm8EvEENSP_ILm4ELm4EvEEj
_ZN2nn5image11JpegDecoder6DecodeEPvmiS2_m
_ZN2nn2sf4hipc16GetPortProcessorEPKc
_ZN2nn5album22SaveAndShareScreenshotEPNS0_7ShareIdEPKvmNS0_9ImageSizeENS0_16ImageOrientationENS0_17AlbumReportOptionERKNS_7account3UidE
_ZN2nn5codec17aliasingReductionEPiPNS0_13ENV_CALC_NRGSES1_i
_ZN2nn3ngc6detail2Bp5ResetEv
_ZN2nn2ro10LoadModuleEPNS0_6ModuleEPKvPvmib
_ZTISt18bad_variant_access
_ZN2nn7account28NetworkServiceAccountManager32IsNetworkServiceAccountAvailableEPb
_ZN2nn2sf4hipc6client24Hipc2ClientCoreProcessorILNS1_6detail11MessageTypeE6ENS0_4cmif6detail14CoreMethodInfoINSt3__15tupleIJNS7_17InRawArgumentInfoILm8ELm8ELl56EEENSB_ILm4ELm4ELl4EEENSB_ILm24ELm4ELl8EEENSB_ILm1ELm1ELl0EEENSB_ILm24ELm4ELl32EEENSB_ILm1ELm1ELl1EEEEEELm64ELm0ELb1EEESI_E7ProcessEPNS2_26Hipc2ClientProxyBaseObjectENS6_6client23InRawClientArgumentTypeILm8ELm8EvEENSO_ILm4ELm4EvEENSO_ILm24ELm4EvEENSO_ILm1ELm1EvEESR_SS_j
_ZTIN2nn3ssl6detail10SslApiBaseE
_ZNSt9bad_allocD0Ev
nncodecLibopus_silk_noise_shape_analysis_FIX
nnosFinalizeMultiWaitHolder
NvRmGpuDeviceWaitSemaphore
_ZN2nn2sf4cmif6client6detail13CmifProxyImplINS_2am7service16IStorageAccessorENS2_19CmifDomainProxyKindINS0_4hipc6client38Hipc2ClientSessionManagedProxyKindBaseINSA_18Hipc2ProxyKindBaseILNS9_6detail11MessageTypeE6EEEEEEENS0_30MemoryResourceAllocationPolicyES7_NS3_19ProcessModifierImplINS2_21DefaultProxyFilterTagEEEE12GetProxyInfoEv
_ZN2nn2sf4cmif6client6detail36GetClientProcessorImplWithObjectBaseINS2_19CmifDomainProxyKindINS0_4hipc6client38Hipc2ClientSessionManagedProxyKindBaseINS7_18Hipc2ProxyKindBaseILNS6_6detail11MessageTypeE6EEEEEEENS3_19ProcessModifierImplINS2_21DefaultProxyFilterTagEEEE14ObjectAssignerINS0_30MemoryResourceAllocationPolicyENS_14MemoryResourceEE14AllocateObjectINS_2am7service13ILockAccessorEEEvi
_ZTSN2nn2sf4cmif6client6detail9CmifProxyINS_3mii6detail14IStaticServiceENS2_19CmifDomainProxyKindINS0_4hipc6client38Hipc2ClientSessionManagedProxyKindBaseINSA_18Hipc2ProxyKindBaseILNS9_6detail11MessageTypeE6EEEEEEENS0_30MemoryResourceAllocationPolicyENS3_19ProcessModifierImplINS2_21DefaultProxyFilterTagEEEvEE
_ZNK2nn4util15RelocationTable7Section10GetBasePtrEPv
_ZTINSt3__110money_baseE
_ZN2nn3hid24GetNpadCommunicationModeEv
ctanf
_ZN2nn2fs6detail18FileSystemAccessor10DeleteFileEPKc
_ZThn32_N2nn2sf4cmif6client6detail13CmifProxyImplINS_7friends6detail3ipc20INotificationServiceENS2_19CmifDomainProxyKindINS0_4hipc6client38Hipc2ClientSessionManagedProxyKindBaseINSB_18Hipc2ProxyKindBaseILNSA_6detail11MessageTypeE6EEEEEEENS0_30MemoryResourceAllocationPolicyES8_NS3_19ProcessModifierImplINS2_21DefaultProxyFilterTagEEEE17GetCmifBaseObjectEv
_ZN2nn3hid6detail18StartSixAxisSensorERKNS0_19SixAxisSensorHandleE
ctanh
_ZTIN2nn2sf6detail39ObjectImplFactoryWithStatelessAllocatorINS0_4cmif6client6detail9CmifProxyINS_7account6detail9INotifierENS4_19CmifDomainProxyKindINS0_4hipc6client38Hipc2ClientSessionManagedProxyKindBaseINSC_18Hipc2ProxyKindBaseILNSB_6detail11MessageTypeE6EEEEEEENS0_25StatelessAllocationPolicyINS0_22ExpHeapStaticAllocatorILm2048ENS8_12ObjectHolder24ObjectHolderAllocatorTagEEEEENS5_19ProcessModifierImplINS4_21DefaultProxyFilterTagEEEvEESP_E6ObjectE
_ZN2nn5audio22AudioRendererParameter14SubMixCountMaxE
_ZN2nn5audio17SetReverbLateModeEPNS0_10ReverbTypeENS1_8LateModeE
_ZTIN2nn5audio6server14ICommandBufferINS1_13CommandBufferEEE
_ZN2nn2fs4save12SaveDataFile5FlushEv
_ZN2nn4nifm30PersistTemporaryNetworkProfileENS0_20NetworkProfileHandleE
_ZNK2nn4time13ClockSnapshot51GetStandardNetworkSystemClockCalendarAdditionalInfoEv
_ZNSt3__115basic_streambufIcNS_11char_traitsIcEEE5imbueERKNS_6localeE
_ZN2nn5codec10AacDecoderD1Ev
_ZN2nn3hid28SetNpadJoyAssignmentModeDualERKj
_ZN2nn5image6detail4jpeg25jpeg_set_marker_processorEPNS2_22jpeg_decompress_structEiPFbS4_E
_ZN2nn3mii6detail12StoreDataRaw8SetNoseYEi
_ZN2nn2sf4hipc6detail25HipcMessageBufferAccessor15SetHeadPointersERKNS2_21HipcMessageHeaderInfoE
_ZN2nn3ngc6detail14ContentsReaderC2Ev
_ZN2nn2fs26ClearSdCardSimulationEventEv
ctanl
_ZN2nn5audio10MixManagerC1EPNS0_7MixInfoEiiii
_ZTIN2nn5audio6detail21IAudioRendererManagerE
_ZN2nn4bcat17DeliveryCacheFileC2EOS1_
_ZN2nn7friends29GetPlayHistoryRegistrationKeyEPNS0_26PlayHistoryRegistrationKeyERKNS_7account3UidEb
_ZN2nn2fs19MountImageDirectoryEPKcNS0_16ImageDirectoryIdE
_ZN2nn2sf4cmif6client6detail13CmifProxyImplINS_8settings21ISystemSettingsServerENS0_4hipc6client18Hipc2ProxyKindBaseILNS7_6detail11MessageTypeE6EEENS0_30MemoryResourceAllocationPolicyES6_NS3_19ProcessModifierImplINS2_21DefaultProxyFilterTagEEEE29_nn_sf_sync_SetLockScreenFlagEb
_ZN2nn2sf4cmif6client6detail13CmifProxyImplINS_2am7service21IApplicationFunctionsENS2_19CmifDomainProxyKindINS0_4hipc6client38Hipc2ClientSessionManagedProxyKindBaseINSA_18Hipc2ProxyKindBaseILNS9_6detail11MessageTypeE6EEEEEEENS0_30MemoryResourceAllocationPolicyES7_NS3_19ProcessModifierImplINS2_21DefaultProxyFilterTagEEEE12GetProxyInfoEv
_ZN2nn2vi26GetDisplayModeChangedEventEPNS_2os15SystemEventTypeEPNS0_7DisplayE
_IO_feof_unlocked
_ZN2nn6crypto6detail6BigNum9IncrementEPji
_ZN2nn2ec19ShopServiceAccessor13AsyncResponse3GetEPvm
_ZN2nn2fs27NotifySystemDataUpdateEventEv
_ZN2nn3hid6detail28FlushEnqueuedVibrationValuesEv
_ZNK2nn3mii6detail16Ver3StoreDataRaw16GetEyebrowRotateEv
_ZN2nn6socket6detail25CreateClientServiceByHipcEiPKc
__libc_version
_ZN2nn2sf4cmif6client6detail13CmifProxyImplINS_7account7profile8IProfileENS2_19CmifDomainProxyKindINS0_4hipc6client38Hipc2ClientSessionManagedProxyKindBaseINSA_18Hipc2ProxyKindBaseILNS9_6detail11MessageTypeE6EEEEEEENS0_25StatelessAllocationPolicyINS0_22ExpHeapStaticAllocatorILm2048ENS5_6detail12ObjectHolder24ObjectHolderAllocatorTagEEEEENS6_14IProfileEditorENS3_19ProcessModifierImplINS2_21DefaultProxyFilterTagEEEE17GetCmifBaseObjectEv
_ZNSt3__14stoiERKNS_12basic_stringIwNS_11char_traitsIwEENS_9allocatorIwEEEEPmi
_ZNSt3__112strstreambufC2EPhlS1_
_ZN2nn7account49ExternalNetworkServiceAccountIntroducingProcedureD0Ev
nncodecLibopus_ec_enc_bit_logp
_ZN2nn6crypto21GenerateHmacSha256MacEPvmPKvmS3_m
_ZN2nn5prepo6detail17ShimLibraryGlobalC1Ev
_ZN2nn8settings6system7GetEdidEPNS1_4EdidE
_ZTIN7android19IGraphicBufferAllocE
_ZN2nn4nifm27SubmitNetworkRequestAndWaitEv
_ZN2nn2sf4cmif6client6detail13CmifProxyImplINS_7timesrv6detail7service14IStaticServiceENS2_19CmifDomainProxyKindINS0_4hipc6client38Hipc2ClientSessionManagedProxyKindBaseINSB_18Hipc2ProxyKindBaseILNSA_6detail11MessageTypeE6EEEEEEENS0_30MemoryResourceAllocationPolicyES8_NS3_19ProcessModifierImplINS2_21DefaultProxyFilterTagEEEE12GetProxyInfoEv
nvdcPutCursor
__isoc99_fscanf
_ZN2nn2sf4cmif6client6detail13CmifProxyImplINS_2am7service15ISelfControllerENS2_19CmifDomainProxyKindINS0_4hipc6client38Hipc2ClientSessionManagedProxyKindBaseINSA_18Hipc2ProxyKindBaseILNS9_6detail11MessageTypeE6EEEEEEENS0_30MemoryResourceAllocationPolicyES7_NS3_19ProcessModifierImplINS2_21DefaultProxyFilterTagEEEE38_nn_sf_sync_SetHandlesRequestToDisplayEb
nncryptoHmacSha1GeneratorUpdate
_ZNK2nn3err14SystemErrorArg16GetDialogMessageEv
__strtod_l
_ZTVN2nn5audio6server14DeviceSinkInfoE
_ZN2nn4bcat22DeliveryCacheDirectoryD1Ev
_ZTSN2nn2sf6detail38ObjectImplFactoryWithStatefulAllocatorINS0_4cmif6client6detail9CmifProxyINS_7timesrv6detail7service16ITimeZoneServiceENS4_19CmifDomainProxyKindINS0_4hipc6client38Hipc2ClientSessionManagedProxyKindBaseINSD_18Hipc2ProxyKindBaseILNSC_6detail11MessageTypeE6EEEEEEENS0_30MemoryResourceAllocationPolicyENS5_19ProcessModifierImplINS4_21DefaultProxyFilterTagEEEvEESL_E6ObjectE
exp10
_ZN2nn5audio6server11SinkContext10InitializeEPNS1_12SinkInfoBaseEi
_ZN2nn2oe20NotifyRunningForTestEv
_ZN2nn8settings6system13GetLdnChannelEv
_ZN2nn2sf4cmif6client34CmifDomainProxyClientCoreProcessorINS0_4hipc6client38Hipc2ClientSessionManagedProxyKindBaseINS5_18Hipc2ProxyKindBaseILNS4_6detail11MessageTypeE6EEEEENS1_6detail14CoreMethodInfoINSt3__15tupleIJNSC_18OutRawArgumentInfoILm4ELm4ELl0EEENSG_ILm4ELm4ELl4EEENSC_17InRawArgumentInfoILm4ELm4ELl0EEENSC_18BufferArgumentInfoILi0ELi34ELm0EEENSJ_ILm4ELm4ELl4EEENSL_ILi1ELi34ELm0EEENSG_ILm4ELm4ELl8EEEEEELm8ELm12ELb0EEESQ_E7ProcessEPNS2_23CmifDomainClientMessageISB_E15ProxyBaseObjectENS2_24OutRawClientArgumentTypeILm4ELm4EEESY_NS2_23InRawClientArgumentTypeILm4ELm4EvEENS2_24BufferClientArgumentTypeES10_S11_SY_j
_ZN2nn3ntc4shim30EnsureNetworkClockAvailabilityEv
_ZN7android19GraphicBufferMapper9lockYCbCrEPK13native_handleiRKNS_4RectEP13android_ycbcr
_ZNSt3__127__tree_balance_after_insertIPNS_16__tree_node_baseIPvEEEEvT_S5_
_ZN2nn2sf4cmif6client6detail13CmifProxyImplINS_2am7service13ILockAccessorENS2_19CmifDomainProxyKindINS0_4hipc6client38Hipc2ClientSessionManagedProxyKindBaseINSA_18Hipc2ProxyKindBaseILNS9_6detail11MessageTypeE6EEEEEEENS0_30MemoryResourceAllocationPolicyES7_NS3_19ProcessModifierImplINS2_21DefaultProxyFilterTagEEEE17GetCmifBaseObjectEv
_ZN2nn3btm4user26InitializeBtmUserInterfaceEv
_ZN2nn5image6detail11GetExifInfoEPPKvPtPKhm
_ZTSN2nn2sf4cmif6client6detail13CmifProxyImplINS_2am7service21IStackableAppletProxyENS2_19CmifDomainProxyKindINS0_4hipc6client38Hipc2ClientSessionManagedProxyKindBaseINSA_18Hipc2ProxyKindBaseILNS9_6detail11MessageTypeE6EEEEEEENS0_30MemoryResourceAllocationPolicyENS6_19ILibraryAppletProxyENS3_19ProcessModifierImplINS2_21DefaultProxyFilterTagEEEEE
_ZTIN2nn7friends6detail3ipc28IDaemonSuspendSessionServiceE
_ZN2nn5audio25GetReleasedAudioOutBufferEPNS0_8AudioOutE
nndetailCryptoBignumAddWords
_ZN2nn8settings5fwdbg22SetMemoryUsageRateFlagEb
_ZN2nn2sf4cmif6client6detail13CmifProxyImplINS_8settings21ISystemSettingsServerENS0_4hipc6client18Hipc2ProxyKindBaseILNS7_6detail11MessageTypeE6EEENS0_30MemoryResourceAllocationPolicyES6_NS3_19ProcessModifierImplINS2_21DefaultProxyFilterTagEEEE27_nn_sf_sync_GetEulaVersionsENS0_3OutIivEERKNS0_8OutArrayINS5_6system11EulaVersionEEE
_ZN2nn5swkbd37GetLengthOfConvertedStringUtf8ToUtf16EPKc
_ZNKSt3__17num_getIwNS_19istreambuf_iteratorIwNS_11char_traitsIwEEEEE6do_getES4_S4_RNS_8ios_baseERjRb
_ZN2nn2fs28MountSaveDataInternalStorageEPKcNS0_15SaveDataSpaceIdEm
_ZN2nn2fs6detail24SaveDataImporterVersion214FinalizeImportEv
_ZN2nn3hid6system6detail14IsUsbConnectedEPbNS1_11UniquePadIdE
_ZNK2nn3mii21ParamCharInfoAccessor15GetEyebrowScaleEv
_ZN2nn2sf4cmif6client6detail13CmifProxyImplINS_5visrv2sf22IManagerDisplayServiceENS0_4hipc6client18Hipc2ProxyKindBaseILNS8_6detail11MessageTypeE6EEENS0_30MemoryResourceAllocationPolicyES7_NS3_19ProcessModifierImplINS2_21DefaultProxyFilterTagEEEE45_nn_sf_sync_RegisterSharedBufferImporterAruidENS_2vi7fbshare18SharedBufferHandleENS_6applet20AppletResourceUserIdE
_ZNSt3__113basic_istreamIcNS_11char_traitsIcEEErsERPv
_ZN2nn5audio6server24AudioRendererManagerImpl15AudioDeviceImpl19ListAudioDeviceNameERKNS_2sf9OutBufferENS4_3OutIivEE
_ZN2nn3kpr25IsKeyCodeMapModeSupportedERKNS0_10KeyCodeMapENS0_14KeyCodeMapModeE
_ZN2nn2sf4cmif6client34CmifDomainProxyClientCoreProcessorINS0_4hipc6client38Hipc2ClientSessionManagedProxyKindBaseINS5_18Hipc2ProxyKindBaseILNS4_6detail11MessageTypeE6EEEEENS1_6detail14CoreMethodInfoINSt3__15tupleIJNSC_17InRawArgumentInfoILm16ELm8ELl0EEENSC_18BufferArgumentInfoILi0ELi9ELm0EEENSI_ILi1ELi5ELm0EEENSG_ILm8ELm8ELl16EEEEEELm24ELm0ELb1EEESM_E7ProcessEPNS2_23CmifDomainClientMessageISB_E15ProxyBaseObjectENS2_23InRawClientArgumentTypeILm16ELm8EvEENS2_24BufferClientArgumentTypeESV_NST_ILm8ELm8EvEEj
_ZTIN2nn2sf4cmif6client6detail9CmifProxyINS_7timesrv6detail7service16ITimeZoneServiceENS2_19CmifDomainProxyKindINS0_4hipc6client38Hipc2ClientSessionManagedProxyKindBaseINSB_18Hipc2ProxyKindBaseILNSA_6detail11MessageTypeE6EEEEEEENS0_30MemoryResourceAllocationPolicyENS3_19ProcessModifierImplINS2_21DefaultProxyFilterTagEEEvEE
_ZNKSt3__17num_getIwNS_19istreambuf_iteratorIwNS_11char_traitsIwEEEEE6do_getES4_S4_RNS_8ios_baseERjRd
_ZNKSt3__17num_getIwNS_19istreambuf_iteratorIwNS_11char_traitsIwEEEEE6do_getES4_S4_RNS_8ios_baseERjRe
__bswapsi2
__isblank_l
_ZN2nn2fs24GetWindowsPathSkipLengthEPKc
_ZN2nn2sf4cmif6client6detail13CmifProxyImplINS_8settings21ISystemSettingsServerENS0_4hipc6client18Hipc2ProxyKindBaseILNS7_6detail11MessageTypeE6EEENS0_30MemoryResourceAllocationPolicyES6_NS3_19ProcessModifierImplINS2_21DefaultProxyFilterTagEEEE36_nn_sf_sync_GetUsb30DeviceEnableFlagENS0_3OutIbvEE
_ZN2nn3web21ShowSystemDataPageArgC2ERKNS_3ncm12SystemDataIdEPKc
_ZNKSt3__111__libcpp_db17__find_c_and_lockEPv
_ZNKSt3__17num_getIwNS_19istreambuf_iteratorIwNS_11char_traitsIwEEEEE6do_getES4_S4_RNS_8ios_baseERjRf
_ZN2nn7account8OpenUserEPNS0_10UserHandleERKNS0_3UidE
_ZN2nn2ec19ShowShopProductListEPKNS0_5NsUidEiPKc
_ZN2nn2fs18ForceEraseGameCardEv
_ZN2nn3mii6detail26GetOrderIndexByCommonColorENS0_11CommonColorE
nnosTrySendMessageQueue
__divdc3
_ZN2nn2sf4hipc6client24Hipc2ClientCoreProcessorILNS1_6detail11MessageTypeE6ENS0_4cmif6detail14CoreMethodInfoINSt3__15tupleIJNS7_17InRawArgumentInfoILm48ELm8ELl0EEENSB_ILm8ELm8ELl48EEEEEELm56ELm0ELb1EEESE_E7ProcessEPNS2_26Hipc2ClientProxyBaseObjectENS6_6client23InRawClientArgumentTypeILm48ELm8EvEENSK_ILm8ELm8EvEEj
_ZN2nn2oe26GetHdcpAuthenticationStateEv
nnosAllocateTlsSlot
_ZN2nn4pctl40GetFreeCommunicationApplicationListCountEv
_ZN2nn5codec11OpusEncoder10SetBitRateEi
_ZN2nn3ldn14GetNetworkInfoEPNS0_11NetworkInfoE
_ZN2nn3mii6detail11UtilityImpl16MakeVer3AuthorIdEPNS1_12Ver3AuthorIdE
_ZN2nn4util18MatrixRowMajor3x2f16ConstantIdentityE
_ZN2nn2sf4cmif6client6detail13CmifProxyImplINS_2am7service26ILibraryAppletSelfAccessorENS2_19CmifDomainProxyKindINS0_4hipc6client38Hipc2ClientSessionManagedProxyKindBaseINSA_18Hipc2ProxyKindBaseILNS9_6detail11MessageTypeE6EEEEEEENS0_30MemoryResourceAllocationPolicyES7_NS3_19ProcessModifierImplINS2_21DefaultProxyFilterTagEEEE51_nn_sf_sync_GetMainAppletApplicationDesiredLanguageENS0_3OutINS_8settings12LanguageCodeEvEE
_ZN2nn4util10BitFlagSetILi256ENS_3hid11KeyboardKeyEE4FlagILi46EE4MaskE
_ZNK7android6Parcel15setDataPositionEm
_ZN2nn5audio6server14DeviceSinkInfo26UpdateForCommandGenerationEv
nnutilZlib_crc32
_ZN2nn6socket11GetNameInfoEPK8sockaddrjPcjS4_jiPKNS0_14ResolverOptionEm
_ZN7android8BpMemoryC1ERKNS_2spINS_7IBinderEEE
FSS_map_char_variant
_ZN2nn5image6detail4jpeg20jpeg_finish_compressEPNS2_20jpeg_compress_structE
_ZN2nn8settings6detail39SetConsoleSixAxisSensorAccelerationGainERKNS0_6system36ConsoleSixAxisSensorAccelerationGainE
_ZNKSt3__17num_getIwNS_19istreambuf_iteratorIwNS_11char_traitsIwEEEEE6do_getES4_S4_RNS_8ios_baseERjRl
_ZNKSt3__17num_getIwNS_19istreambuf_iteratorIwNS_11char_traitsIwEEEEE6do_getES4_S4_RNS_8ios_baseERjRm
_ZTIN2nn5codec11IAacDecoderE
_ZN2nn2os11SetHostArgcEi
_ZN2nn9bluetooth25SetBleConnectionParameterERKNS0_7AddressERKNS0_22BleConnectionParameterEb
_ZN2nn3mii6detail11CoreDataRaw10SetEyeTypeEi
_ZN2nn2os6detail20AddressRegionManagerC2Emm
