_ZN2al18initActorPoseTFGSVEPNS_9LiveActorE = __main_start + 0x00835df0;
_ZN2al17initActorPoseTFSVEPNS_9LiveActorE = __main_start + 0x00835db0;
_ZN2al17initActorPoseTQSVEPNS_9LiveActorE = __main_start + 0x00835e30;
_ZN2al18initActorPoseTRMSVEPNS_9LiveActorE = __main_start + 0x00835d70;
_ZN2al17initActorPoseTRSVEPNS_9LiveActorE = __main_start + 0x00835d30;

_ZN2al8getTransEPKNS_9LiveActorE = __main_start + 0x0083f840;
_ZN2al9getRotateEPKNS_9LiveActorE = __main_start + 0x0083fa50;
_ZN2al8getScaleEPKNS_9LiveActorE = __main_start + 0x0083f850;
_ZN2al11getVelocityEPKNS_9LiveActorE = __main_start + 0x0083bb10;
_ZN2al8getFrontEPKNS_9LiveActorE = __main_start + 0x0083feb0;
_ZN2al7getQuatEPKNS_9LiveActorE = __main_start + 0x0083fe00;
_ZN2al10getGravityEPKNS_9LiveActorE = __main_start + 0x0083f830;

_ZN2al11getTransPtrEPNS_9LiveActorE = __main_start + 0x0083f9f0;
_ZN2al12getRotatePtrEPNS_9LiveActorE = __main_start + 0x0083fa60;
_ZN2al11getScalePtrEPNS_9LiveActorE = __main_start + 0x0083fc30;
_ZN2al14getVelocityPtrEPNS_9LiveActorE = __main_start + 0x0083bb20;
_ZN2al11getFrontPtrEPNS_9LiveActorE = __main_start + 0x0083fec0;
_ZN2al10getQuatPtrEPNS_9LiveActorE = __main_start + 0x0083fe10;
_ZN2al13getGravityPtrEPNS_9LiveActorE = __main_start + 0x00250530;

_ZN2al8setTransEPNS_9LiveActorERKN4sead7Vector3IfEE = __main_start + 0x0083f760;
_ZN2al8setTransEPNS_9LiveActorEfff = __main_start + 0x0083fa00;
_ZN2al9setTransXEPNS_9LiveActorEf = __main_start + 0x0083fa20;
_ZN2al9setTransYEPNS_9LiveActorEf = __main_start + 0x0083fa30;
_ZN2al9setTransZEPNS_9LiveActorEf = __main_start + 0x0083fa40;

_ZN2al9setRotateEPNS_9LiveActorERKN4sead7Vector3IfEE = __main_start + 0x0083f780;
_ZN2al10setRotateXEPNS_9LiveActorEf = __main_start + 0x0083fa70;
_ZN2al10setRotateYEPNS_9LiveActorEf = __main_start + 0x0083faa0;
_ZN2al10setRotateZEPNS_9LiveActorEf = __main_start + 0x0083fad0;

_ZN2al8setScaleEPNS_9LiveActorERKN4sead7Vector3IfEE = __main_start + 0x0083fcc0;
_ZN2al8setScaleEPNS_9LiveActorEfff = __main_start + 0x0083fd10;
_ZN2al8setScaleEPNS_9LiveActorEf = __main_start + 0x0083fd60;
_ZN2al9setScaleYEPNS_9LiveActorEf = __main_start + 0x00083fda0;
_ZN2al9setScaleZEPNS_9LiveActorEf = __main_start + 0x0083fdd0;

_ZN2al11setVelocityEPNS_9LiveActorERKN4sead7Vector3IfEE = __main_start + 0x0083bb30;
_ZN2al11setVelocityEPNS_9LiveActorEfff = __main_start + 0x0083bb70;
_ZN2al12setVelocityXEPNS_9LiveActorEf = __main_start + 0x0083bbc0;
_ZN2al12setVelocityYEPNS_9LiveActorEf = __main_start + 0x0083bbf0;

_ZN2al15setVelocityZeroEPNS_9LiveActorE = __main_start + 0x0083bc20;
_ZN2al15setVelocityJumpEPNS_9LiveActorEf = __main_start + 0x0083bc90;
_ZN2al22setVelocityToDirectionEPNS_9LiveActorERKN4sead7Vector3IfEEf = __main_start + 0x0083bd00;
_ZN2al20setVelocityToGravityEPNS_9LiveActorEf = __main_start + 0x0083bd70;
_ZN2al20addVelocityToGravityEPNS_9LiveActorEf = __main_start + 0x0083bf00;

_ZN2al8setFrontEPNS_9LiveActorERKN4sead7Vector3IfEE = __main_start + 0x0083fed0;

_ZN2al7setQuatEPNS_9LiveActorERKN4sead4QuatIfEE = __main_start + 0x0083fe30;

_ZN2al10setGravityEPNS_9LiveActorERKN4sead7Vector3IfEE = __main_start + 0x0083fe70;

_ZN2al14updatePoseQuatEPNS_9LiveActorERKN4sead4QuatIfEE = __main_start + 0x0083f890;

_ZN2al8copyPoseEPNS_9LiveActorEPKS0_ = __main_start + 0x0083f860;
