_ZN2al9LiveActorC1EPKc = __main_start + 0x0085b390;
_ZN2al9LiveActorC2EPKc = __main_start + 0x0085b500;
_ZN2al9LiveActorD1Ev = __main_start + 0x0085b680;
_ZN2al9LiveActorD2Ev = __main_start + 0x0085b680;
_ZN2al9LiveActorD4Ev = __main_start + 0x0085b720;

_ZNK2al9LiveActor14getNerveKeeperEv = __main_start + 0x00003750;
_ZN2al9LiveActor4initERKNS_13ActorInitInfoE = __main_start + 0x00003760;
_ZN2al9LiveActor18initAfterPlacementEv = __main_start + 0x0085b7c0;
_ZN2al9LiveActor6appearEv = __main_start + 0x0085b800;
_ZN2al9LiveActor8reappearEv = __main_start + 0x0085b850;
_ZN2al9LiveActor7respawnEv = __main_start + 0x00003770;
_ZN2al9LiveActor17makeActorAppearedEv = __main_start + 0x0085b860;
_ZN2al9LiveActor4killEv = __main_start + 0x0085b9b0;
_ZN2al9LiveActor12killCompleteEb = __main_start + 0x0085b9c0;
_ZN2al9LiveActor13makeActorDeadEv = __main_start + 0x0085b9d0;
_ZN2al9LiveActor9showActorEv = __main_start + 0x0085bb10;
_ZN2al9LiveActor9hideActorEv = __main_start + 0x0085bba0;
_ZN2al9LiveActor14startDemoActorEi = __main_start + 0x0085bc20;
_ZN2al9LiveActor12endDemoActorEi = __main_start + 0x0085bc30;
_ZN2al9LiveActor16changeScenarioIDEib = __main_start + 0x0085bc40;
_ZN2al9LiveActor17updateLinkedTransERKN4sead7Vector3IfEE = __main_start + 0x0085bc50;
_ZN2al9LiveActor8movementEv = __main_start + 0x0085bec0;
_ZN2al9LiveActor14movementPausedEb = __main_start + 0x0085bc60;
_ZN2al9LiveActor8calcAnimEv = __main_start + 0x0085c230;
_ZN2al9LiveActor11modelUpdateEv = __main_start + 0x0085c2a0;
_ZN2al9LiveActor17pausedModelUpdateEv = __main_start + 0x0085c350;
_ZNK2al9LiveActor4drawEv = __main_start + 0x0085c390;
_ZN2al9LiveActor5pauseEv = __main_start + 0x0085c3a0;
_ZN2al9LiveActor6resumeEv = __main_start + 0x0085c3b0;
_ZN2al9LiveActor12startClippedEv = __main_start + 0x0085c3c0;
_ZN2al9LiveActor10endClippedEv = __main_start + 0x0085c520;
_ZN2al9LiveActor17startClippedByLodEv = __main_start + 0x0085c6f0;
_ZN2al9LiveActor15endClippedByLodEv = __main_start + 0x0085c830;
_ZN2al9LiveActor11startFarLodEv = __main_start + 0x0085ca10;
_ZN2al9LiveActor9endFarLodEv = __main_start + 0x0085cad0;
_ZN2al9LiveActor18isFarLodSwitchOkayEv = __main_start + 0x00003780;
_ZNK2al9LiveActor14canLinkYOffsetEv = __main_start + 0x00003790;
_ZN2al9LiveActor12attackSensorEPNS_9HitSensorES2_ = __main_start + 0x000037a0;
_ZN2al9LiveActor10receiveMsgEPKNS_9SensorMsgEPNS_9HitSensorES5_ = __main_start + 0x000037b0;
_ZN2al9LiveActor21receiveMsgScreenPointEPKNS_9SensorMsgEPNS_13ScreenPointerEPNS_17ScreenPointTargetE = __main_start + 0x000037c0;
_ZN2al9LiveActor23receiveMsgScreenPointSMEPKNS_9SensorMsgEPNS_13ScreenPointerEPNS_17ScreenPointTargetE = __main_start + 0x0000037d0;
_ZNK2al9LiveActor7getNameEv = __main_start + 0x000037e0;
_ZN2al9LiveActor10getBaseMtxEv = __main_start + 0x0085cb90;
_ZNK2al9LiveActor15getEffectKeeperEv = __main_start + 0x000037f0;
_ZNK2al9LiveActor14getAudioKeeperEv = __main_start + 0x00003800;
_ZNK2al9LiveActor20getStageSwitchKeeperEv = __main_start + 0x00003810;
_ZNK2al9LiveActor17getSceneObjHolderEv = __main_start + 0x0085cbd0;
_ZNK2al9LiveActor20getCollisionDirectorEv = __main_start + 0x0085cbf0;
_ZNK2al9LiveActor18getAreaObjDirectorEv = __main_start + 0x0085cc10;
_ZNK2al9LiveActor18getSceneCameraInfoEv = __main_start + 0x0085cc30;
_ZNK2al9LiveActor20getCameraDirector_RSEv = __main_start + 0x0085cc50;
_ZNK2al9LiveActor14isInRouteDokanEv = __main_start + 0x00003820;
_ZN2al9LiveActor21initStageSwitchKeeperEv = __main_start + 0x0085ce00;
_ZN2al9LiveActor14getLinkedActorEv = __main_start + 0x00003830;
_ZN2al9LiveActor7controlEv = __main_start + 0x0085d030;
_ZN2al9LiveActor17calcAndSetBaseMtxEv = __main_start + 0x00003840;
_ZN2al9LiveActor14updateColliderEv = __main_start + 0x0085d040;

_ZThn8_NK2al9LiveActor15getEffectKeeperEv = __main_start + 0x000038c0;
_ZThn16_NK2al9LiveActor14getAudioKeeperEv = __main_start + 0x000038d0;
_ZThn32_NK2al9LiveActor7getNameEv = __main_start + 0x00003850;
_ZThn32_NK2al9LiveActor20getStageSwitchKeeperEv = __main_start + 0x00003870;
_ZThn32_N2al9LiveActor21initStageSwitchKeeperEv = __main_start + 0x0085ce30 ;
_ZThn40_NK2al9LiveActor17getSceneObjHolderEv = __main_start + 0x0085cbe0;
_ZThn48_NK2al9LiveActor18getAreaObjDirectorEv = __main_start + 0x0085cc20;
_ZThn56_NK2al9LiveActor20getCameraDirector_RSEv = __main_start + 0x0085cc40;
_ZThn64_NK2al9LiveActor18getSceneCameraInfoEv = __main_start + 0x0085cc60;
_ZThn72_NK2al9LiveActor20getCollisionDirectorEv = __main_start + 0x0085cc00;

_ZN2al9LiveActor16initActionKeeperEPKcS2_ = __main_start + 0x0085ccd0;
_ZN2al9LiveActor27initActorPrePassLightKeeperEPNS_23ActorPrePassLightKeeperE = __main_start + 0x0085cfe0;
_ZN2al9LiveActor12initColliderEffj = __main_start + 0x0085ce90;
_ZN2al9LiveActor15initExecuteInfoEPNS_16ActorExecuteInfoE = __main_start + 0x0085cc80;
_ZN2al9LiveActor13initHitSensorEi = __main_start + 0x0085cd20;
_ZN2al9LiveActor14initItemKeeperEi = __main_start + 0x0085cf60;
_ZN2al9LiveActor15initModelKeeperEPNS_11ModelKeeperE = __main_start + 0x0085cc90;
_ZN2al9LiveActor15initNerveKeeperEPNS_11NerveKeeperE = __main_start + 0x0085cd10;
_ZN2al9LiveActor14initPoseKeeperEPNS_19ActorPoseKeeperBaseE = __main_start + 0x0085cc70;
_ZN2al9LiveActor14initRailKeeperERKNS_13ActorInitInfoE = __main_start + 0x0085ce60;
_ZN2al9LiveActor13initSceneInfoEPNS_14ActorSceneInfoE = __main_start + 0x0085d000;
_ZN2al9LiveActor15initScoreKeeperEv = __main_start + 0x0085cfb0;
_ZN2al9LiveActor21initScreenPointKeeperEi = __main_start + 0x0085cd60;
_ZN2al9LiveActor16initShadowKeeperEPNS_12ShadowKeeperE = __main_start + 0x0085cf50;
