_ZN2al14CameraPoser_RS9loadParamERKNS_9ByamlIterE = __main_start + 0x008f7d20;
_ZN2al14CameraPoser_RS6updateEv = __main_start + 0x008f7980;
_ZN2al14CameraPoser_RS4initEv = __main_start + 0x008f7d00;
_ZNK2al14CameraPoser_RS18getAreaObjDirectorEv = __main_start + 0x00922700;
_ZN2al14CameraPoser_RS18initByPlacementObjERKNS_13PlacementInfoE = __main_start + 0x008f7d10;
_ZN2al14CameraPoser_RS7endInitEv = __main_start + 0x00067830;
_ZN2al14CameraPoser_RS3endEv = __main_start + 0x00067840;
_ZNK2al14CameraPoser_RS16makeLookAtCameraEPN4sead12LookAtCameraE = __main_start + 0x0006fc10;
_ZN2al14CameraPoser_RS24receiveRequestFromObjectERKNS_23CameraObjectRequestInfoE = __main_start + 0x00067850;
_ZNK2al14CameraPoser_RS9isZoomingEv = __main_start + 0x00067860;
_ZNK2al14CameraPoser_RS19isEnableRotateByPadEv = __main_start + 0x00922660;
_ZN2al14CameraPoser_RS17startSnapShotModeEv = __main_start + 0x00067860;
_ZN2al14CameraPoser_RS15endSnapShotModeEv = __main_start + 0x00067890;
_ZNK2al14CameraPoser_RS7getNameEv = __main_start + 0x000678a0;
_ZNK2al14CameraPoser_RS20getCollisionDirectorEv = __main_start + 0x00922710;
_ZNK2al14CameraPoser_RS14getNerveKeeperEv = __main_start + 0x000678b0;
_ZNK2al14CameraPoser_RS14getAudioKeeperEv = __main_start + 0x000678c0;
_ZNK2al14CameraPoser_RS12getRailRiderEv = __main_start + 0x00922760;
_ZN2al14CameraPoser_RS4loadERKNS_9ByamlIterE = __main_start + 0x009229e0;
_ZN2al14CameraPoser_RS22requestTurnToDirectionEPKNS_14CameraTurnInfoE = __main_start + 0x000678f0;
_ZThn8_NK2al14CameraPoser_RS14getAudioKeeperEv = __main_start + 0x00067900;
_ZThn16_NK2al14CameraPoser_RS20getCollisionDirectorEv = __main_start + 0x00922720;
_ZThn24_NK2al14CameraPoser_RS7getNameEv = __main_start + 0x00067910;
_ZThn32_NK2al14CameraPoser_RS14getNerveKeeperEv = __main_start + 0x00067920;
_ZThn40_NK2al14CameraPoser_RS12getRailRiderEv = __main_start + 0x00922780;
