_ZN2al12ActorFactoryC2EPKc = __main_start + 0x0080f030;
_ZN2al12ActorFactoryC4EPKc = __main_start + 0x0080f030;

/* LiveActor* al::createActorFunction<T>(const char*) */
/* unneeded since actor table entries are copied automatically now */
/* symbols for actors in al like al::Sky are wrong (::Sky instead) */

_ZN2al19createActorFunctionI14AllDeadWatcherEEPNS_9LiveActorEPKc = __main_start + 0x003d8700;
_ZN2al19createActorFunctionI24DisasterBlockDeadWatcherEEPNS_9LiveActorEPKc = __main_start + 0x003d8740;
_ZN2al19createActorFunctionI19AssistSlideMapPartsEEPNS_9LiveActorEPKc = __main_start + 0x003d8780;
_ZN2al19createActorFunctionI24AssistSlideMapPartsGroupEEPNS_9LiveActorEPKc = __main_start + 0x003d87c0;
_ZN2al19createActorFunctionI12BalanceTruckEEPNS_9LiveActorEPKc = __main_start + 0x003d8800;
_ZN2al19createActorFunctionI4BallEEPNS_9LiveActorEPKc = __main_start + 0x003d8840;
_ZN2al19createActorFunctionI11BallGimmickEEPNS_9LiveActorEPKc = __main_start + 0x003d8880;
_ZN2al19createActorFunctionI8BallSnowEEPNS_9LiveActorEPKc = __main_start + 0x003d88c0;
_ZN2al19createActorFunctionI8BallYarnEEPNS_9LiveActorEPKc = __main_start + 0x003d8900;
_ZN2al19createActorFunctionI8BallNekoEEPNS_9LiveActorEPKc = __main_start + 0x003d8900;
_ZN2al19createActorFunctionI10BgmPlayObjEEPNS_9LiveActorEPKc = __main_start + 0x003d8940;
_ZN2al19createActorFunctionI10BgmStopObjEEPNS_9LiveActorEPKc = __main_start + 0x003d8980;
_ZN2al19createActorFunctionI16BgmRegionChangerEEPNS_9LiveActorEPKc = __main_start + 0x003d89c0;
_ZN2al19createActorFunctionI4BirdEEPNS_9LiveActorEPKc = __main_start + 0x003d8a00;
_ZN2al19createActorFunctionI15BlockAssistLeafEEPNS_9LiveActorEPKc = __main_start + 0x003d8a40;
_ZN2al19createActorFunctionI10BlockBrickEEPNS_9LiveActorEPKc = __main_start + 0x003d8a80;
_ZN2al19createActorFunctionI13BlockBrickBigEEPNS_9LiveActorEPKc = __main_start + 0x003d8ac0;
_ZN2al19createActorFunctionI19BlockBrickBreakableEEPNS_9LiveActorEPKc = __main_start + 0x003d8b00;
_ZN2al19createActorFunctionI31BlockBrickBreakableCourseSelectEEPNS_9LiveActorEPKc = __main_start + 0x003d8b40;
_ZN2al19createActorFunctionI18BlockChoiceWatcherEEPNS_9LiveActorEPKc = __main_start + 0x003d8b80;
_ZN2al19createActorFunctionI10BlockEmptyEEPNS_9LiveActorEPKc = __main_start + 0x003d8bc0;
_ZN2al19createActorFunctionI22BlockEmptyCourseSelectEEPNS_9LiveActorEPKc = __main_start + 0x003d8c00;
_ZN2al19createActorFunctionI9BlockHardEEPNS_9LiveActorEPKc = __main_start + 0x003d8c40;
_ZN2al19createActorFunctionI18BlockHardLaserOnlyEEPNS_9LiveActorEPKc = __main_start + 0x003d8c80;
_ZN2al19createActorFunctionI8BlockPowEEPNS_9LiveActorEPKc = __main_start + 0x003d8cc0;
_ZN2al19createActorFunctionI13BlockQuestionEEPNS_9LiveActorEPKc = __main_start + 0x003d8d00;
_ZN2al19createActorFunctionI25BlockQuestionCourseSelectEEPNS_9LiveActorEPKc = __main_start + 0x003d8d40;
_ZN2al19createActorFunctionI13BlockRouletteEEPNS_9LiveActorEPKc = __main_start + 0x003d8d80;
_ZN2al19createActorFunctionI9BlockRailEEPNS_9LiveActorEPKc = __main_start + 0x003d8dc0;
_ZN2al19createActorFunctionI14BlockRailMoverEEPNS_9LiveActorEPKc = __main_start + 0x003d8e00;
_ZN2al19createActorFunctionI9BlockSlotEEPNS_9LiveActorEPKc = __main_start + 0x003d8e40;
_ZN2al19createActorFunctionI11BlockSwitchEEPNS_9LiveActorEPKc = __main_start + 0x003d8e80;
_ZN2al19createActorFunctionI16BlockTransparentEEPNS_9LiveActorEPKc = __main_start + 0x003d8ec0;
_ZN2al19createActorFunctionI16BobsledDashPanelEEPNS_9LiveActorEPKc = __main_start + 0x003d8f00;
_ZN2al19createActorFunctionI4BombEEPNS_9LiveActorEPKc = __main_start + 0x003d8f40;
_ZN2al19createActorFunctionI9BombBoundEEPNS_9LiveActorEPKc = __main_start + 0x003d8f80;
_ZN2al19createActorFunctionI18BombBoundGeneratorEEPNS_9LiveActorEPKc = __main_start + 0x003d8fc0;
_ZN2al19createActorFunctionI23BombBoundQuickGeneratorEEPNS_9LiveActorEPKc = __main_start + 0x003d8fc0;
_ZN2al19createActorFunctionI7BombHeiEEPNS_9LiveActorEPKc = __main_start + 0x003d9000;
_ZN2al19createActorFunctionI15BombHeiLauncherEEPNS_9LiveActorEPKc = __main_start + 0x003d9040;
_ZN2al19createActorFunctionI5BonzeEEPNS_9LiveActorEPKc = __main_start + 0x003d9080;
_ZN2al19createActorFunctionI13BoomerangBrosEEPNS_9LiveActorEPKc = __main_start + 0x003d90c0;
_ZN2al19createActorFunctionI15BoomerangFlowerEEPNS_9LiveActorEPKc = __main_start + 0x003d9100;
_ZN2al19createActorFunctionI12BossBunretsuEEPNS_9LiveActorEPKc = __main_start + 0x003d9140;
_ZN2al19createActorFunctionI11BossGorobonEEPNS_9LiveActorEPKc = __main_start + 0x003d9180;
_ZN2al19createActorFunctionI10BossWackunEEPNS_9LiveActorEPKc = __main_start + 0x003d91c0;
_ZN2al19createActorFunctionI7BoxCoinEEPNS_9LiveActorEPKc = __main_start + 0x003d9200;
_ZN2al19createActorFunctionI9BoxKillerEEPNS_9LiveActorEPKc = __main_start + 0x003d9240;
_ZN2al19createActorFunctionI17BoxKillerLauncherEEPNS_9LiveActorEPKc = __main_start + 0x003d9280;
_ZN2al19createActorFunctionI9BoxKuriboEEPNS_9LiveActorEPKc = __main_start + 0x003d92c0;
_ZN2al19createActorFunctionI8BoxLightEEPNS_9LiveActorEPKc = __main_start + 0x003d9300;
_ZN2al19createActorFunctionI13BreakMapPartsEEPNS_9LiveActorEPKc = __main_start + 0x003d9340;
_ZN2al19createActorFunctionI17BreakMapPartsBombEEPNS_9LiveActorEPKc = __main_start + 0x003d9340;
_ZN2al19createActorFunctionI17BreakMapPartsSandEEPNS_9LiveActorEPKc = __main_start + 0x003d9340;
_ZN2al19createActorFunctionI18BreakMapPartsGiantEEPNS_9LiveActorEPKc = __main_start + 0x003d9340;
_ZN2al19createActorFunctionI6BubbleEEPNS_9LiveActorEPKc = __main_start + 0x003d9380;
_ZN2al19createActorFunctionI4BullEEPNS_9LiveActorEPKc = __main_start + 0x003d93c0;
_ZN2al19createActorFunctionI6BunbunEEPNS_9LiveActorEPKc = __main_start + 0x003d9400;
_ZN2al19createActorFunctionI4BushEEPNS_9LiveActorEPKc = __main_start + 0x003d9440;
_ZN2al19createActorFunctionI5ByugoEEPNS_9LiveActorEPKc = __main_start + 0x003d9480;
_ZN2al19createActorFunctionI27CameraInSwitchOnAreaWatcherEEPNS_9LiveActorEPKc = __main_start + 0x003d94c0;
_ZN2al19createActorFunctionI17CameraLookAtPointEEPNS_9LiveActorEPKc = __main_start + 0x003d9500;
_ZN2al19createActorFunctionI19CameraRailHolder_RSEEPNS_9LiveActorEPKc = __main_start + 0x003d9540;
_ZN2al19createActorFunctionI18CameraRailObserverEEPNS_9LiveActorEPKc = __main_start + 0x003d9580;
_ZN2al19createActorFunctionI10CameraWallEEPNS_9LiveActorEPKc = __main_start + 0x003d95c0;
_ZN2al19createActorFunctionI11CandlestandEEPNS_9LiveActorEPKc = __main_start + 0x003d9600;
_ZN2al19createActorFunctionI18CandlestandWatcherEEPNS_9LiveActorEPKc = __main_start + 0x003d9640;
_ZN2al19createActorFunctionI7CatGullEEPNS_9LiveActorEPKc = __main_start + 0x003d9680;
_ZN2al19createActorFunctionI10CheckPointEEPNS_9LiveActorEPKc = __main_start + 0x003d96c0;
_ZN2al19createActorFunctionI14CheckpointFlagEEPNS_9LiveActorEPKc = __main_start + 0x003d9700;
_ZN2al19createActorFunctionI22ChikaChikaBlockWatcherEEPNS_9LiveActorEPKc = __main_start + 0x003d9740;
_ZN2al19createActorFunctionI12ChikuwaBlockEEPNS_9LiveActorEPKc = __main_start + 0x003d9780;
_ZN2al19createActorFunctionI14ChorobonColonyEEPNS_9LiveActorEPKc = __main_start + 0x003d97c0;
_ZN2al19createActorFunctionI18ChorobonCubeHolderEEPNS_9LiveActorEPKc = __main_start + 0x003d9800;
_ZN2al19createActorFunctionI14ChorobonHolderEEPNS_9LiveActorEPKc = __main_start + 0x003d9840;
_ZN2al19createActorFunctionI11ClimbHandleEEPNS_9LiveActorEPKc = __main_start + 0x003d9880;
_ZN2al19createActorFunctionI19ClimbHandleMapPartsEEPNS_9LiveActorEPKc = __main_start + 0x003d98c0;
_ZN2al19createActorFunctionI13ClockMapPartsEEPNS_9LiveActorEPKc = __main_start + 0x003d9900;
_ZN2al19createActorFunctionI18CloudBonusLauncherEEPNS_9LiveActorEPKc = __main_start + 0x003d9940;
_ZN2al19createActorFunctionI4CoinEEPNS_9LiveActorEPKc = __main_start + 0x003d9980;
_ZN2al19createActorFunctionI18CoinBlowConcentricEEPNS_9LiveActorEPKc = __main_start + 0x003d99c0;
_ZN2al19createActorFunctionI17CoinBlowGeneratorEEPNS_9LiveActorEPKc = __main_start + 0x003d9a00;
_ZN2al19createActorFunctionI13CoinChameleonEEPNS_9LiveActorEPKc = __main_start + 0x003d9a40;
_ZN2al19createActorFunctionI25CoinChameleonCourseSelectEEPNS_9LiveActorEPKc = __main_start + 0x003d9a80;
_ZN2al19createActorFunctionI19CoinCirclePlacementEEPNS_9LiveActorEPKc = __main_start + 0x003d9ac0;
_ZN2al19createActorFunctionI18CoinCollectWatcherEEPNS_9LiveActorEPKc = __main_start + 0x003d9b00;
_ZN2al19createActorFunctionI20CoinConcentricCircleEEPNS_9LiveActorEPKc = __main_start + 0x003d9b40;
_ZN2al19createActorFunctionI16CoinCourseSelectEEPNS_9LiveActorEPKc = __main_start + 0x003d9b80;
_ZN2al19createActorFunctionI17CoinFallGeneratorEEPNS_9LiveActorEPKc = __main_start + 0x003d9bc0;
_ZN2al19createActorFunctionI9CoinFallsEEPNS_9LiveActorEPKc = __main_start + 0x003d9c00;
_ZN2al19createActorFunctionI8CoinLineEEPNS_9LiveActorEPKc = __main_start + 0x003d9c40;
_ZN2al19createActorFunctionI8CoinRailEEPNS_9LiveActorEPKc = __main_start + 0x003d9c80;
_ZN2al19createActorFunctionI11CoinRedRingEEPNS_9LiveActorEPKc = __main_start + 0x003d9cc0;
_ZN2al19createActorFunctionI8CoinRingEEPNS_9LiveActorEPKc = __main_start + 0x003d9d00;
_ZN2al19createActorFunctionI9CoinStackEEPNS_9LiveActorEPKc = __main_start + 0x003d9d40;
_ZN2al19createActorFunctionI15CoinStackMovingEEPNS_9LiveActorEPKc = __main_start + 0x003d9d80;
_ZN2al19createActorFunctionI17CollectRingHolderEEPNS_9LiveActorEPKc = __main_start + 0x003d9dc0;
_ZN2al19createActorFunctionI18CollisionSearchObjEEPNS_9LiveActorEPKc = __main_start + 0x003d9e00;
_ZN2al19createActorFunctionI16ConveyerMapPartsEEPNS_9LiveActorEPKc = __main_start + 0x003d9e40;
_ZN2al19createActorFunctionI16ConveyorMapPartsEEPNS_9LiveActorEPKc = __main_start + 0x003d9e40;
_ZN2al19createActorFunctionI30CourseSelectBgmEventControllerEEPNS_9LiveActorEPKc = __main_start + 0x003d9e80;
_ZN2al19createActorFunctionI17CourseSelectCloudEEPNS_9LiveActorEPKc = __main_start + 0x003d9ec0;
_ZN2al19createActorFunctionI17CourseSelectDokanEEPNS_9LiveActorEPKc = __main_start + 0x003d9f00;
_ZN2al19createActorFunctionI21CourseSelectDokanHideEEPNS_9LiveActorEPKc = __main_start + 0x003d9f00;
_ZN2al19createActorFunctionI21CourseSelectMiniatureEEPNS_9LiveActorEPKc = __main_start + 0x003d9f40;
_ZN2al19createActorFunctionI16CourseSelectNodeEEPNS_9LiveActorEPKc = __main_start + 0x003d9f80;
_ZN2al19createActorFunctionI24CourseSelectRhythmObjectEEPNS_9LiveActorEPKc = __main_start + 0x003d9fc0;
_ZN2al19createActorFunctionI18CourseSelectRocketEEPNS_9LiveActorEPKc = __main_start + 0x003da000;
_ZN2al19createActorFunctionI22CourseSelectRouteDokanEEPNS_9LiveActorEPKc = __main_start + 0x003da040;
_ZN2al19createActorFunctionI16CourseSelectWallEEPNS_9LiveActorEPKc = __main_start + 0x003da080;
_ZN2al19createActorFunctionI26CourseSelectWorldWarpDokanEEPNS_9LiveActorEPKc = __main_start + 0x003da0c0;
_ZN2al19createActorFunctionI4CrabEEPNS_9LiveActorEPKc = __main_start + 0x003da100;
_ZN2al19createActorFunctionI7CrawlerEEPNS_9LiveActorEPKc = __main_start + 0x003da140;
_ZN2al19createActorFunctionI16CrawlerGeneratorEEPNS_9LiveActorEPKc = __main_start + 0x003da180;
_ZN2al19createActorFunctionI17CubeMapControllerEEPNS_9LiveActorEPKc = __main_start + 0x003da1c0;
_ZN2al19createActorFunctionI10DarkBowserEEPNS_9LiveActorEPKc = __main_start + 0x003da200;
_ZN2al19createActorFunctionI24DarkBowserLaserIndicatorEEPNS_9LiveActorEPKc = __main_start + 0x003da240;
_ZN2al19createActorFunctionI9DashPanelEEPNS_9LiveActorEPKc = __main_start + 0x003da280;
_ZN2al19createActorFunctionI20DestructableMapPartsEEPNS_9LiveActorEPKc = __main_start + 0x003da2c0;
_ZN2al19createActorFunctionI19DisasterFixMapPartsEEPNS_9LiveActorEPKc = __main_start + 0x003da300;
_ZN2al19createActorFunctionI21DisasterFixedMapPartsEEPNS_9LiveActorEPKc = __main_start + 0x003da300;
_ZN2al19createActorFunctionI26DemoEventGateKeeperCheckerEEPNS_9LiveActorEPKc = __main_start + 0x003da340;
_ZN2al19createActorFunctionI12DemoAnimaticEEPNS_9LiveActorEPKc = __main_start + 0x003da380;
_ZN2al19createActorFunctionI12DemoCutsceneEEPNS_9LiveActorEPKc = __main_start + 0x003da3c0;
_ZN2al19createActorFunctionI11DemoKoopaW7EEPNS_9LiveActorEPKc = __main_start + 0x003da400;
_ZN2al19createActorFunctionI11DemoObjBaseEEPNS_9LiveActorEPKc = __main_start + 0x003da440;
_ZN2al19createActorFunctionI17DemoOpeningSwitchEEPNS_9LiveActorEPKc = __main_start + 0x003da480;
_ZN2al19createActorFunctionI17DemoStartPositionEEPNS_9LiveActorEPKc = __main_start + 0x003da4c0;
_ZN2al19createActorFunctionI30DemoTimerStageSwitchControllerEEPNS_9LiveActorEPKc = __main_start + 0x003da500;
_ZN2al19createActorFunctionI22DisasterModeControllerEEPNS_9LiveActorEPKc = __main_start + 0x003da540;
_ZN2al19createActorFunctionI13DisasterSpikeEEPNS_9LiveActorEPKc = __main_start + 0x003da580;
_ZN2al19createActorFunctionI19DisasterSpikeBouncyEEPNS_9LiveActorEPKc = __main_start + 0x003da5c0;
_ZN2al19createActorFunctionI25DirectionalLightRequesterEEPNS_9LiveActorEPKc = __main_start + 0x003da600;
_ZN2al19createActorFunctionI5DokanEEPNS_9LiveActorEPKc = __main_start + 0x003da640;
_ZN2al19createActorFunctionI7DoorKeyEEPNS_9LiveActorEPKc = __main_start + 0x003da680;
_ZN2al19createActorFunctionI8DoorLockEEPNS_9LiveActorEPKc = __main_start + 0x003da6c0;
_ZN2al19createActorFunctionI15DokanUpsideDownEEPNS_9LiveActorEPKc = __main_start + 0x003da640;
_ZN2al19createActorFunctionI14DokanWorldWarpEEPNS_9LiveActorEPKc = __main_start + 0x003da700;
_ZN2al19createActorFunctionI8DonketsuEEPNS_9LiveActorEPKc = __main_start + 0x003da740;
_ZN2al19createActorFunctionI6DossunEEPNS_9LiveActorEPKc = __main_start + 0x003da780;
_ZN2al19createActorFunctionI11DoubleMarioEEPNS_9LiveActorEPKc = __main_start + 0x003da7c0;
_ZN2al19createActorFunctionI17EchoBlockMapPartsEEPNS_9LiveActorEPKc = __main_start + 0x003da800;
_ZN2al19createActorFunctionI9EffectObjEEPNS_9LiveActorEPKc = __main_start + 0x003da840;
_ZN2al19createActorFunctionI26EffectObjBattleArenaBunBunEEPNS_9LiveActorEPKc = __main_start + 0x003da880;
_ZN2al19createActorFunctionI21EffectObjFollowCameraEEPNS_9LiveActorEPKc = __main_start + 0x003da8c0;
_ZN2al19createActorFunctionI14EnemyGeneratorEEPNS_9LiveActorEPKc = __main_start + 0x003da900;
_ZN2al19createActorFunctionI29EnterCatMarioMiddleViewRocketEEPNS_9LiveActorEPKc = __main_start + 0x003da940;
_ZN2al19createActorFunctionI12FallMapPartsEEPNS_9LiveActorEPKc = __main_start + 0x003da980;
_ZN2al19createActorFunctionI27FairyHouseIllustItemWatcherEEPNS_9LiveActorEPKc = __main_start + 0x003da9c0;
_ZN2al19createActorFunctionI8FairyMiiEEPNS_9LiveActorEPKc = __main_start + 0x003daa00;
_ZN2al19createActorFunctionI8FairyNpcEEPNS_9LiveActorEPKc = __main_start + 0x003daa40;
_ZN2al19createActorFunctionI19FairyNpcWithGlassesEEPNS_9LiveActorEPKc = __main_start + 0x003daa80;
_ZN2al19createActorFunctionI13FairyPrincessEEPNS_9LiveActorEPKc = __main_start + 0x003daac0;
_ZN2al19createActorFunctionI13FallingPillarEEPNS_9LiveActorEPKc = __main_start + 0x003dab00;
_ZN2al19createActorFunctionI19FieryRotateMapPartsEEPNS_9LiveActorEPKc = __main_start + 0x003dab40;
_ZN2al19createActorFunctionI11FireBarRootEEPNS_9LiveActorEPKc = __main_start + 0x003dab80;
_ZN2al19createActorFunctionI8FireBrosEEPNS_9LiveActorEPKc = __main_start + 0x003dabc0;
_ZN2al19createActorFunctionI10FireFlowerEEPNS_9LiveActorEPKc = __main_start + 0x003dac00;
_ZN2al19createActorFunctionI9FireworksEEPNS_9LiveActorEPKc = __main_start + 0x003dac40;
_ZN2al19createActorFunctionI19FireworksControllerEEPNS_9LiveActorEPKc = __main_start + 0x003dac80;
_ZN2al19createActorFunctionI18FireworksEffectObjEEPNS_9LiveActorEPKc = __main_start + 0x003dacc0;
_ZN2al19createActorFunctionI10FishColonyEEPNS_9LiveActorEPKc = __main_start + 0x003dad00;
_ZN2al19createActorFunctionI11FixMapPartsEEPNS_9LiveActorEPKc = __main_start + 0x003dad40;
_ZN2al19createActorFunctionI13FixedMapPartsEEPNS_9LiveActorEPKc = __main_start + 0x003dad40;
_ZN2al19createActorFunctionI15FlipCircusDoorAEEPNS_9LiveActorEPKc = __main_start + 0x003dad80;
_ZN2al19createActorFunctionI9FlingPoleEEPNS_9LiveActorEPKc = __main_start + 0x003dadc0;
_ZN2al19createActorFunctionI9FlipPanelEEPNS_9LiveActorEPKc = __main_start + 0x003dae00;
_ZN2al19createActorFunctionI15FloaterMapPartsEEPNS_9LiveActorEPKc = __main_start + 0x003daea0;
_ZN2al19createActorFunctionI15FloatingTerrainEEPNS_9LiveActorEPKc = __main_start + 0x003daee0;
_ZN2al19createActorFunctionI22FloatingIslandRailPartEEPNS_9LiveActorEPKc = __main_start + 0x003daf20;
_ZN2al19createActorFunctionI9FlowerCatEEPNS_9LiveActorEPKc = __main_start + 0x003daf60;
_ZN2al19createActorFunctionI12FlowerCactusEEPNS_9LiveActorEPKc = __main_start + 0x003dafa0;
_ZN2al19createActorFunctionI12FlowerRhythmEEPNS_9LiveActorEPKc = __main_start + 0x003dafe0;
_ZN2al19createActorFunctionI13FlyOverCameraEEPNS_9LiveActorEPKc = __main_start + 0x003db020;
_ZN2al19createActorFunctionI12FogRequesterEEPNS_9LiveActorEPKc = __main_start + 0x003db060;
_ZN2al19createActorFunctionI12FortressGoalEEPNS_9LiveActorEPKc = __main_start + 0x003db0a0;
_ZN2al19createActorFunctionI15FrameOutCheckerEEPNS_9LiveActorEPKc = __main_start + 0x003db0e0;
_ZN2al19createActorFunctionI10FugumannenEEPNS_9LiveActorEPKc = __main_start + 0x003db120;
_ZN2al19createActorFunctionI5GabonEEPNS_9LiveActorEPKc = __main_start + 0x003db160;
_ZN2al19createActorFunctionI6GamaneEEPNS_9LiveActorEPKc = __main_start + 0x003db1a0;
_ZN2al19createActorFunctionI17GateKeeperCheckerEEPNS_9LiveActorEPKc = __main_start + 0x003db1e0;
_ZN2al19createActorFunctionI12GateMapPartsEEPNS_9LiveActorEPKc = __main_start + 0x003db220;
_ZN2al19createActorFunctionI5GessoEEPNS_9LiveActorEPKc = __main_start + 0x003db260;
_ZN2al19createActorFunctionI12GeneratorBoxEEPNS_9LiveActorEPKc = __main_start + 0x003db2a0;
_ZN2al19createActorFunctionI17GhostPlayerHolderEEPNS_9LiveActorEPKc = __main_start + 0x003db2e0;
_ZN2al19createActorFunctionI23GiantTouchBreakMapPartsEEPNS_9LiveActorEPKc = __main_start + 0x003db320;
_ZN2al19createActorFunctionI12GigaBellItemEEPNS_9LiveActorEPKc = __main_start + 0x003db360;
_ZN2al19createActorFunctionI22GoalBonusGameBlockSlotEEPNS_9LiveActorEPKc = __main_start + 0x003db3a0;
_ZN2al19createActorFunctionI8GoalDoorEEPNS_9LiveActorEPKc = __main_start + 0x003db3e0;
_ZN2al19createActorFunctionI8GoalItemEEPNS_9LiveActorEPKc = __main_start + 0x003db420;
_ZN2al19createActorFunctionI15GoalItemWatcherEEPNS_9LiveActorEPKc = __main_start + 0x003db460;
_ZN2al19createActorFunctionI12GoalPedestalEEPNS_9LiveActorEPKc = __main_start + 0x003db4a0;
_ZN2al19createActorFunctionI8GoalPoleEEPNS_9LiveActorEPKc = __main_start + 0x003db4e0;
_ZN2al19createActorFunctionI15GoalPoleRunawayEEPNS_9LiveActorEPKc = __main_start + 0x003db4e0;
_ZN2al19createActorFunctionI15GodRayRequesterEEPNS_9LiveActorEPKc = __main_start + 0x003db520;
_ZN2al19createActorFunctionI7GondolaEEPNS_9LiveActorEPKc = __main_start + 0x003db560;
_ZN2al19createActorFunctionI4GongEEPNS_9LiveActorEPKc = __main_start + 0x003db5a0;
_ZN2al19createActorFunctionI7GorobonEEPNS_9LiveActorEPKc = __main_start + 0x003db5e0;
_ZN2al19createActorFunctionI9GotogotonEEPNS_9LiveActorEPKc = __main_start + 0x003db620;
_ZN2al19createActorFunctionI22GraphicsAreaControllerEEPNS_9LiveActorEPKc = __main_start + 0x003db660;
_ZN2al19createActorFunctionI25GraphicsObjShadowMaskCubeEEPNS_9LiveActorEPKc = __main_start + 0x003db6a0;
_ZN2al19createActorFunctionI27GraphicsObjShadowMaskSphereEEPNS_9LiveActorEPKc = __main_start + 0x003db6e0;
_ZN2al19createActorFunctionI9GrassHighEEPNS_9LiveActorEPKc = __main_start + 0x003db720;
_ZN2al19createActorFunctionI9GreenCoinEEPNS_9LiveActorEPKc = __main_start + 0x003db760;
_ZN2al19createActorFunctionI9GreenRingEEPNS_9LiveActorEPKc = __main_start + 0x003db7a0;
_ZN2al19createActorFunctionI9GreenStarEEPNS_9LiveActorEPKc = __main_start + 0x003db7e0;
_ZN2al19createActorFunctionI25GreenStarMisteryBoxSeriesEEPNS_9LiveActorEPKc = __main_start + 0x003db7e0;
_ZN2al19createActorFunctionI23GreenStarKinopioBrigadeEEPNS_9LiveActorEPKc = __main_start + 0x003db7e0;
_ZN2al19createActorFunctionI14GreenStarStandEEPNS_9LiveActorEPKc = __main_start + 0x003db820;
_ZN2al19createActorFunctionI24GroupClippingDummyTargetEEPNS_9LiveActorEPKc = __main_start + 0x003db860;
_ZN2al19createActorFunctionI8GustWindEEPNS_9LiveActorEPKc = __main_start + 0x003db8a0;
_ZN2al19createActorFunctionI8GuideObjEEPNS_9LiveActorEPKc = __main_start + 0x003db8e0;
_ZN2al19createActorFunctionI18GuideMessageAppearEEPNS_9LiveActorEPKc = __main_start + 0x003db920;
_ZN2al19createActorFunctionI7HacchinEEPNS_9LiveActorEPKc = __main_start + 0x003db960;
_ZN2al19createActorFunctionI10HammerBrosEEPNS_9LiveActorEPKc = __main_start + 0x003db9a0;
_ZN2al19createActorFunctionI20HexScrollAppearPartsEEPNS_9LiveActorEPKc = __main_start + 0x003db9e0;
_ZN2al19createActorFunctionI10IllustItemEEPNS_9LiveActorEPKc = __main_start + 0x003dba20;
_ZN2al19createActorFunctionI5ImozoEEPNS_9LiveActorEPKc = __main_start + 0x003dba60;
_ZN2al19createActorFunctionI7InkBombEEPNS_9LiveActorEPKc = __main_start + 0x003dbaa0;
_ZN2al19createActorFunctionI8InkPatchEEPNS_9LiveActorEPKc = __main_start + 0x003dbae0;
_ZN2al19createActorFunctionI9InkPuddleEEPNS_9LiveActorEPKc = __main_start + 0x003dbb20;
_ZN2al19createActorFunctionI18InteractableCatToyEEPNS_9LiveActorEPKc = __main_start + 0x003dbb60;
_ZN2al19createActorFunctionI18IntroFlyOverCameraEEPNS_9LiveActorEPKc = __main_start + 0x003dbba0;
_ZN2al19createActorFunctionI10IslandFlagEEPNS_9LiveActorEPKc = __main_start + 0x003dbbe0;
_ZN2al19createActorFunctionI21IslandKeyMoveMapPartsEEPNS_9LiveActorEPKc = __main_start + 0x003dbc20;
_ZN2al19createActorFunctionI20ItemBubbleSingleModeEEPNS_9LiveActorEPKc = __main_start + 0x003dbc60;
_ZN2al19createActorFunctionI13JumpFlipPanelEEPNS_9LiveActorEPKc = __main_start + 0x003dbca0;
_ZN2al19createActorFunctionI19JumpFlipSweetsCreamEEPNS_9LiveActorEPKc = __main_start + 0x003dbce0;
_ZN2al19createActorFunctionI9JumpPanelEEPNS_9LiveActorEPKc = __main_start + 0x003dbd20;
_ZN2al19createActorFunctionI6KameckEEPNS_9LiveActorEPKc = __main_start + 0x003dbd60;
_ZN2al19createActorFunctionI25KarakuriCastleDoorWatcherEEPNS_9LiveActorEPKc = __main_start + 0x003dbda0;
_ZN2al19createActorFunctionI9KaronWingEEPNS_9LiveActorEPKc = __main_start + 0x003dbde0;
_ZN2al19createActorFunctionI15KeyMoveMapPartsEEPNS_9LiveActorEPKc = __main_start + 0x003dbe20;
_ZN2al19createActorFunctionI24KeyMoveMapPartsGeneratorEEPNS_9LiveActorEPKc = __main_start + 0x003dbe60;
_ZN2al19createActorFunctionI24KeyMoveLoopLiftGeneratorEEPNS_9LiveActorEPKc = __main_start + 0x003dbea0;
_ZN2al19createActorFunctionI14KillerLauncherEEPNS_9LiveActorEPKc = __main_start + 0x003dbee0;
_ZN2al19createActorFunctionI21KillerTankPartsNeedleEEPNS_9LiveActorEPKc = __main_start + 0x003dbf20;
_ZN2al19createActorFunctionI10KinokoGigaEEPNS_9LiveActorEPKc = __main_start + 0x003dbf60;
_ZN2al19createActorFunctionI11KinokoOneUpEEPNS_9LiveActorEPKc = __main_start + 0x003dbfa0;
_ZN2al19createActorFunctionI23KinokoOneUpCourseSelectEEPNS_9LiveActorEPKc = __main_start + 0x003dbfe0;
_ZN2al19createActorFunctionI11KinokoSuperEEPNS_9LiveActorEPKc = __main_start + 0x003dc020;
_ZN2al19createActorFunctionI14KinokoTreasureEEPNS_9LiveActorEPKc = __main_start + 0x003dc060;
_ZN2al19createActorFunctionI21KinopioBrigadeCheckerEEPNS_9LiveActorEPKc = __main_start + 0x003dc0a0;
_ZN2al19createActorFunctionI17KinopioBrigadeNpcEEPNS_9LiveActorEPKc = __main_start + 0x003dc0e0;
_ZN2al19createActorFunctionI21KinopioBrigadeWatcherEEPNS_9LiveActorEPKc = __main_start + 0x003dc120;
_ZN2al19createActorFunctionI10KinopioNpcEEPNS_9LiveActorEPKc = __main_start + 0x003dc160;
_ZN2al19createActorFunctionI5KouraEEPNS_9LiveActorEPKc = __main_start + 0x003dc1a0;
_ZN2al19createActorFunctionI9KouraGoldEEPNS_9LiveActorEPKc = __main_start + 0x003dc1e0;
_ZN2al19createActorFunctionI10KoopaChaseEEPNS_9LiveActorEPKc = __main_start + 0x003dc220;
_ZN2al19createActorFunctionI19KoopaChaseWarpDummyEEPNS_9LiveActorEPKc = __main_start + 0x003dc260;
_ZN2al19createActorFunctionI13KoopaChaseCarEEPNS_9LiveActorEPKc = __main_start + 0x003dc2a0;
_ZN2al19createActorFunctionI22KoopaFireBallGeneratorEEPNS_9LiveActorEPKc = __main_start + 0x003dc2e0;
_ZN2al19createActorFunctionI13KoopaGraffitiEEPNS_9LiveActorEPKc = __main_start + 0x003dc320;
_ZN2al19createActorFunctionI19KoopaLastAttackFireEEPNS_9LiveActorEPKc = __main_start + 0x003dc360;
_ZN2al19createActorFunctionI25KoopaLastBeforeCheckPointEEPNS_9LiveActorEPKc = __main_start + 0x003dc3a0;
_ZN2al19createActorFunctionI17KoopaLastBlockPowEEPNS_9LiveActorEPKc = __main_start + 0x003dc3e0;
_ZN2al19createActorFunctionI18KoopaLastBreakWallEEPNS_9LiveActorEPKc = __main_start + 0x003dc420;
_ZN2al19createActorFunctionI24KoopaLastDefendeBlockPowEEPNS_9LiveActorEPKc = __main_start + 0x003dc460;
_ZN2al19createActorFunctionI19KoopaLastDemoAppearEEPNS_9LiveActorEPKc = __main_start + 0x003dc4a0;
_ZN2al19createActorFunctionI14KoopaLastFloorEEPNS_9LiveActorEPKc = __main_start + 0x003dc4e0;
_ZN2al19createActorFunctionI13KoopaLastWallEEPNS_9LiveActorEPKc = __main_start + 0x003dc520;
_ZN2al19createActorFunctionI18KoopaLastWallClimbEEPNS_9LiveActorEPKc = __main_start + 0x003dc560;
_ZN2al19createActorFunctionI22KoopaLastWallClimbDownEEPNS_9LiveActorEPKc = __main_start + 0x003dc5a0;
_ZN2al19createActorFunctionI14KoopaSignBoardEEPNS_9LiveActorEPKc = __main_start + 0x003dc5e0;
_ZN2al19createActorFunctionI6KuriboEEPNS_9LiveActorEPKc = __main_start + 0x003dc620;
_ZN2al19createActorFunctionI15KuriboClimbRailEEPNS_9LiveActorEPKc = __main_start + 0x003dc660;
_ZN2al19createActorFunctionI18KuriboClimbSyncObjEEPNS_9LiveActorEPKc = __main_start + 0x003dc6a0;
_ZN2al19createActorFunctionI10KuriboMiniEEPNS_9LiveActorEPKc = __main_start + 0x003dc6e0;
_ZN2al19createActorFunctionI19KuriboMiniGeneratorEEPNS_9LiveActorEPKc = __main_start + 0x003dc720;
_ZN2al19createActorFunctionI11KuriboTowerEEPNS_9LiveActorEPKc = __main_start + 0x003dc760;
_ZN2al19createActorFunctionI8KyoroHeiEEPNS_9LiveActorEPKc = __main_start + 0x003dc7a0;
_ZN2al19createActorFunctionI7KyupponEEPNS_9LiveActorEPKc = __main_start + 0x003dc7e0;
_ZN2al19createActorFunctionI7LanternEEPNS_9LiveActorEPKc = __main_start + 0x003dc820;
_ZN2al19createActorFunctionI10LavaGeyserEEPNS_9LiveActorEPKc = __main_start + 0x003dc860;
_ZN2al19createActorFunctionI8LiftMikeEEPNS_9LiveActorEPKc = __main_start + 0x003dc8a0;
_ZN2al19createActorFunctionI17LiftMikeBlockRailEEPNS_9LiveActorEPKc = __main_start + 0x003dc8e0;
_ZN2al19createActorFunctionI13LiftMikeSlideEEPNS_9LiveActorEPKc = __main_start + 0x003dc920;
_ZN2al19createActorFunctionI10LighthouseEEPNS_9LiveActorEPKc = __main_start + 0x003dc960;
_ZN2al19createActorFunctionI16LighthouseSimpleEEPNS_9LiveActorEPKc = __main_start + 0x003dc9a0;
_ZN2al19createActorFunctionI19LightningControllerEEPNS_9LiveActorEPKc = __main_start + 0x003dc9e0;
_ZN2al19createActorFunctionI11LuckyIslandEEPNS_9LiveActorEPKc = __main_start + 0x003dca20;
_ZN2al19createActorFunctionI21LuckyIslandControllerEEPNS_9LiveActorEPKc = __main_start + 0x003dca60;
_ZN2al19createActorFunctionI9MagmaFishEEPNS_9LiveActorEPKc = __main_start + 0x003dcaa0;
_ZN2al19createActorFunctionI14MarchGeneratorEEPNS_9LiveActorEPKc = __main_start + 0x003dcae0;
_ZN2al19createActorFunctionI10MeraWanwanEEPNS_9LiveActorEPKc = __main_start + 0x003dcb20;
_ZN2al19createActorFunctionI6MirrorEEPNS_9LiveActorEPKc = __main_start + 0x003dcb60;
_ZN2al19createActorFunctionI12MoamoaHolderEEPNS_9LiveActorEPKc = __main_start + 0x003dcba0;
_ZN2al19createActorFunctionI9MultiLiftEEPNS_9LiveActorEPKc = __main_start + 0x003dcbe0;
_ZN2al19createActorFunctionI10MysteryBoxEEPNS_9LiveActorEPKc = __main_start + 0x003dcc20;
_ZN2al19createActorFunctionI19MysteryHouseCheckerEEPNS_9LiveActorEPKc = __main_start + 0x003dcc60;
_ZN2al19createActorFunctionI13NeedleBarRootEEPNS_9LiveActorEPKc = __main_start + 0x003dcca0;
_ZN2al19createActorFunctionI12NeedleRollerEEPNS_9LiveActorEPKc = __main_start + 0x003dcce0;
_ZN2al19createActorFunctionI21NeedleRollerGeneratorEEPNS_9LiveActorEPKc = __main_start + 0x003dcd20;
_ZN2al19createActorFunctionI17NeedleRollerSwingEEPNS_9LiveActorEPKc = __main_start + 0x003dcd60;
_ZN2al19createActorFunctionI10NeedleSeedEEPNS_9LiveActorEPKc = __main_start + 0x003dcda0;
_ZN2al19createActorFunctionI10NeedleTrapEEPNS_9LiveActorEPKc = __main_start + 0x003dcde0;
_ZN2al19createActorFunctionI4NekoEEPNS_9LiveActorEPKc = __main_start + 0x003dce20;
_ZN2al19createActorFunctionI10NekoParentEEPNS_9LiveActorEPKc = __main_start + 0x003dce20;
_ZN2al19createActorFunctionI8NokonokoEEPNS_9LiveActorEPKc = __main_start + 0x003dce60;
_ZN2al19createActorFunctionI23OccludedEffectRequesterEEPNS_9LiveActorEPKc = __main_start + 0x003dcea0;
_ZN2al19createActorFunctionI18OceanWaterIndirectEEPNS_9LiveActorEPKc = __main_start + 0x003dcee0;
_ZN2al19createActorFunctionI19OceanWaterDynamicV1EEPNS_9LiveActorEPKc = __main_start + 0x003dcf20;
_ZN2al19createActorFunctionI25OceanWaterDynamicDeferredEEPNS_9LiveActorEPKc = __main_start + 0x003dcf20;
_ZN2al19createActorFunctionI11OneSideStepEEPNS_9LiveActorEPKc = __main_start + 0x003dcf60;
_ZN2al19createActorFunctionI20OneSideStepGeneratorEEPNS_9LiveActorEPKc = __main_start + 0x003dcfa0;
_ZN2al19createActorFunctionI10PackunFireEEPNS_9LiveActorEPKc = __main_start + 0x003dcfe0;
_ZN2al19createActorFunctionI12PackunFlowerEEPNS_9LiveActorEPKc = __main_start + 0x003dd020;
_ZN2al19createActorFunctionI19PackunFlowerWithPotEEPNS_9LiveActorEPKc = __main_start + 0x003dd060;
_ZN2al19createActorFunctionI14PanelNotePaintEEPNS_9LiveActorEPKc = __main_start + 0x003dd0a0;
_ZN2al19createActorFunctionI19PanelNotePaintGroupEEPNS_9LiveActorEPKc = __main_start + 0x003dd0e0;
_ZN2al19createActorFunctionI4PetoEEPNS_9LiveActorEPKc = __main_start + 0x003dd120;
_ZN2al19createActorFunctionI10PipePackunEEPNS_9LiveActorEPKc = __main_start + 0x003dd160;
_ZN2al19createActorFunctionI22PlayerPointLightingObjEEPNS_9LiveActorEPKc = __main_start + 0x003dd1a0;
_ZN2al19createActorFunctionI21PlayerSpotLightingObjEEPNS_9LiveActorEPKc = __main_start + 0x003dd1e0;
_ZN2al19createActorFunctionI14PlessieTerrainEEPNS_9LiveActorEPKc = __main_start + 0x003dd220;
_ZN2al19createActorFunctionI16PrePassLineLightEEPNS_9LiveActorEPKc = __main_start + 0x003dd260;
_ZN2al19createActorFunctionI17PrePassPointLightEEPNS_9LiveActorEPKc = __main_start + 0x003dd390;
_ZN2al19createActorFunctionI16PrePassProjLightEEPNS_9LiveActorEPKc = __main_start + 0x003dd4c0;
_ZN2al19createActorFunctionI21PrePassProjOrthoLightEEPNS_9LiveActorEPKc = __main_start + 0x003dd650;
_ZN2al19createActorFunctionI16PrePassSpotLightEEPNS_9LiveActorEPKc = __main_start + 0x003dd7d0;
_ZN2al19createActorFunctionI16PressureDeathObjEEPNS_9LiveActorEPKc = __main_start + 0x003dd940;
_ZN2al19createActorFunctionI23PSwitchTimerCoinWatcherEEPNS_9LiveActorEPKc = __main_start + 0x003dd980;
_ZN2al19createActorFunctionI12BoxPropellerEEPNS_9LiveActorEPKc = __main_start + 0x003dd9c0;
_ZN2al19createActorFunctionI9PlayerNpcEEPNS_9LiveActorEPKc = __main_start + 0x003dda00;
_ZN2al19createActorFunctionI10ProminenceEEPNS_9LiveActorEPKc = __main_start + 0x003dda40;
_ZN2al19createActorFunctionI8PukupukuEEPNS_9LiveActorEPKc = __main_start + 0x003dda80;
_ZN2al19createActorFunctionI11PukupukuFlyEEPNS_9LiveActorEPKc = __main_start + 0x003ddac0;
_ZN2al19createActorFunctionI6PunpunEEPNS_9LiveActorEPKc = __main_start + 0x003ddb00;
_ZN2al19createActorFunctionI6RabbitEEPNS_9LiveActorEPKc = __main_start + 0x003ddb40;
_ZN2al19createActorFunctionI9RabbitNpcEEPNS_9LiveActorEPKc = __main_start + 0x003ddb80;
_ZN2al19createActorFunctionI9RabbitBigEEPNS_9LiveActorEPKc = __main_start + 0x003ddb40;
_ZN2al19createActorFunctionI12RaftConveyerEEPNS_9LiveActorEPKc = __main_start + 0x003ddbc0;
_ZN2al19createActorFunctionI6RaidonEEPNS_9LiveActorEPKc = __main_start + 0x003ddc00;
_ZN2al19createActorFunctionI9RaidonNpcEEPNS_9LiveActorEPKc = __main_start + 0x003ddc40;
_ZN2al19createActorFunctionI10RaidonSurfEEPNS_9LiveActorEPKc = __main_start + 0x003ddc80;
_ZN2al19createActorFunctionI16RailMoveMapPartsEEPNS_9LiveActorEPKc = __main_start + 0x003ddcc0;
_ZN2al19createActorFunctionI7KuribonEEPNS_9LiveActorEPKc = __main_start + 0x003ddd00;
_ZN2al19createActorFunctionI10RingBeamerEEPNS_9LiveActorEPKc = __main_start + 0x003ddd40;
_ZN2al19createActorFunctionI19RollingCubeMapPartsEEPNS_9LiveActorEPKc = __main_start + 0x003ddd80;
_ZN2al19createActorFunctionI28RollingCubeMapPartsGeneratorEEPNS_9LiveActorEPKc = __main_start + 0x003dddc0;
_ZN2al19createActorFunctionI14RotateMapPartsEEPNS_9LiveActorEPKc = __main_start + 0x003dde00;
_ZN2al19createActorFunctionI10RouteDokanEEPNS_9LiveActorEPKc = __main_start + 0x003dde40;
_ZN2al19createActorFunctionI17RouteDokanBazookaEEPNS_9LiveActorEPKc = __main_start + 0x003dde80;
_ZN2al19createActorFunctionI18RouteDokanLauncherEEPNS_9LiveActorEPKc = __main_start + 0x003ddec0;
_ZN2al19createActorFunctionI6RunnerEEPNS_9LiveActorEPKc = __main_start + 0x003ddf00;
_ZN2al19createActorFunctionI15SaveDataCheckerEEPNS_9LiveActorEPKc = __main_start + 0x003ddf40;
_ZN2al19createActorFunctionI13SamboSnowHeadEEPNS_9LiveActorEPKc = __main_start + 0x003ddf80;
_ZN2al19createActorFunctionI9SePlayObjEEPNS_9LiveActorEPKc = __main_start + 0x003ddfc0;
_ZN2al19createActorFunctionI10SePlayRailEEPNS_9LiveActorEPKc = __main_start + 0x003de000;
_ZN2al19createActorFunctionI7SeaweedEEPNS_9LiveActorEPKc = __main_start + 0x003de040;
_ZN2al19createActorFunctionI14SeesawMapPartsEEPNS_9LiveActorEPKc = __main_start + 0x003de080;
_ZN2al19createActorFunctionI6ShardsEEPNS_9LiveActorEPKc = __main_start + 0x003de0c0;
_ZN2al19createActorFunctionI13ShardsWatcherEEPNS_9LiveActorEPKc = __main_start + 0x003de100;
_ZN2al19createActorFunctionI23ShadowMarioPlayerHolderEEPNS_9LiveActorEPKc = __main_start + 0x003de140;
_ZN2al19createActorFunctionI9SignBoardEEPNS_9LiveActorEPKc = __main_start + 0x003de180;
_ZN2al19createActorFunctionI20SingleModeCheckpointEEPNS_9LiveActorEPKc = __main_start + 0x003de1c0;
_ZN2al19createActorFunctionI24SingleModeCheckpointFlagEEPNS_9LiveActorEPKc = __main_start + 0x003de1c0;
_ZN2al19createActorFunctionI10SinkedItemEEPNS_9LiveActorEPKc = __main_start + 0x003de200;
_ZN2al19createActorFunctionI10SkateShoesEEPNS_9LiveActorEPKc = __main_start + 0x003de240;
_ZN2al19createActorFunctionI6SkatisEEPNS_9LiveActorEPKc = __main_start + 0x003de280;
_ZN2al19createActorFunctionI7SkipperEEPNS_9LiveActorEPKc = __main_start + 0x003de2c0;
_ZN2al19createActorFunctionI11SkipperWeakEEPNS_9LiveActorEPKc = __main_start + 0x003de300;
_ZN2al19createActorFunctionI3SkyEEPNS_9LiveActorEPKc = __main_start + 0x003de340;
_ZN2al19createActorFunctionI13SkyProjectionEEPNS_9LiveActorEPKc = __main_start + 0x003de380;
_ZN2al19createActorFunctionI13SlideMapPartsEEPNS_9LiveActorEPKc = __main_start + 0x003de3c0;
_ZN2al19createActorFunctionI17SoundKeyMovePartsEEPNS_9LiveActorEPKc = __main_start + 0x003de400;
_ZN2al19createActorFunctionI7SpinnerEEPNS_9LiveActorEPKc = __main_start + 0x003de440;
_ZN2al19createActorFunctionI15SplatterPlotterEEPNS_9LiveActorEPKc = __main_start + 0x003de480;
_ZN2al19createActorFunctionI18SpotLightPatrollerEEPNS_9LiveActorEPKc = __main_start + 0x003de4c0;
_ZN2al19createActorFunctionI26SpotLightPatrollerObserverEEPNS_9LiveActorEPKc = __main_start + 0x003de500;
_ZN2al19createActorFunctionI28StageStartBindDemoCasinoRoomEEPNS_9LiveActorEPKc = __main_start + 0x003de540;
_ZN2al19createActorFunctionI32StageStartBindDemoKinopioBrigadeEEPNS_9LiveActorEPKc = __main_start + 0x003de580;
_ZN2al19createActorFunctionI30StageStartBindDemoKinopioHouseEEPNS_9LiveActorEPKc = __main_start + 0x003de5c0;
_ZN2al19createActorFunctionI30StageStartBindDemoMysteryHouseEEPNS_9LiveActorEPKc = __main_start + 0x003de600;
_ZN2al19createActorFunctionI21StageStartEventCameraEEPNS_9LiveActorEPKc = __main_start + 0x003de640;
_ZN2al19createActorFunctionI19StageStartEventDemoEEPNS_9LiveActorEPKc = __main_start + 0x003de680;
_ZN2al19createActorFunctionI20StageStartEventSoundEEPNS_9LiveActorEPKc = __main_start + 0x003de6c0;
_ZN2al19createActorFunctionI17StepScrollWatcherEEPNS_9LiveActorEPKc = __main_start + 0x003de700;
_ZN2al19createActorFunctionI23StrongHipDropReactPointEEPNS_9LiveActorEPKc = __main_start + 0x003de740;
_ZN2al19createActorFunctionI9SuperBellEEPNS_9LiveActorEPKc = __main_start + 0x003de780;
_ZN2al19createActorFunctionI16SuperBellSpecialEEPNS_9LiveActorEPKc = __main_start + 0x003de7c0;
_ZN2al19createActorFunctionI8GigaBellEEPNS_9LiveActorEPKc = __main_start + 0x003de800;
_ZN2al19createActorFunctionI10KuriboGigaEEPNS_9LiveActorEPKc = __main_start + 0x003de840;
_ZN2al19createActorFunctionI15GigaBellManagerEEPNS_9LiveActorEPKc = __main_start + 0x003de880;
_ZN2al19createActorFunctionI16GigaBellPedestalEEPNS_9LiveActorEPKc = __main_start + 0x003de8c0;
_ZN2al19createActorFunctionI8GigaRockEEPNS_9LiveActorEPKc = __main_start + 0x003de900;
_ZN2al19createActorFunctionI11SuperBowserEEPNS_9LiveActorEPKc = __main_start + 0x003de940;
_ZN2al19createActorFunctionI16SuperBowserShellEEPNS_9LiveActorEPKc = __main_start + 0x003de980;
_ZN2al19createActorFunctionI14SuperbViewAreaEEPNS_9LiveActorEPKc = __main_start + 0x003de9c0;
_ZN2al19createActorFunctionI10SuperKouraEEPNS_9LiveActorEPKc = __main_start + 0x003dea00;
_ZN2al19createActorFunctionI9SuperLeafEEPNS_9LiveActorEPKc = __main_start + 0x003dea40;
_ZN2al19createActorFunctionI14SuperSkateRailEEPNS_9LiveActorEPKc = __main_start + 0x003dea80;
_ZN2al19createActorFunctionI15SuperSkateShoesEEPNS_9LiveActorEPKc = __main_start + 0x003deac0;
_ZN2al19createActorFunctionI9SuperStarEEPNS_9LiveActorEPKc = __main_start + 0x003deb00;
_ZN2al19createActorFunctionI12SurfMapPartsEEPNS_9LiveActorEPKc = __main_start + 0x003deb40;
_ZN2al19createActorFunctionI7SwimmerEEPNS_9LiveActorEPKc = __main_start + 0x003deb80;
_ZN2al19createActorFunctionI13SwingMapPartsEEPNS_9LiveActorEPKc = __main_start + 0x003debc0;
_ZN2al19createActorFunctionI9SwitchAndEEPNS_9LiveActorEPKc = __main_start + 0x003dec00;
_ZN2al19createActorFunctionI19SwitchRotateWatcherEEPNS_9LiveActorEPKc = __main_start + 0x003dec40;
_ZN2al19createActorFunctionI18SwitchBlockWatcherEEPNS_9LiveActorEPKc = __main_start + 0x003dec80;
_ZN2al19createActorFunctionI19SwitchBlockMapPartsEEPNS_9LiveActorEPKc = __main_start + 0x003dec80;
_ZN2al19createActorFunctionI24SyumockConveyerGeneratorEEPNS_9LiveActorEPKc = __main_start + 0x003decc0;
_ZN2al19createActorFunctionI15SyumockRailMoveEEPNS_9LiveActorEPKc = __main_start + 0x003ded00;
_ZN2al19createActorFunctionI13SyumockRotateEEPNS_9LiveActorEPKc = __main_start + 0x003ded40;
_ZN2al19createActorFunctionI6TakoboEEPNS_9LiveActorEPKc = __main_start + 0x003ded80;
_ZN2al19createActorFunctionI7TentackEEPNS_9LiveActorEPKc = __main_start + 0x003dedc0;
_ZN2al19createActorFunctionI10TentackLv3EEPNS_9LiveActorEPKc = __main_start + 0x003dee00;
_ZN2al19createActorFunctionI15TentenGeneratorEEPNS_9LiveActorEPKc = __main_start + 0x003dee40;
_ZN2al19createActorFunctionI21TentenGeneratorNormalEEPNS_9LiveActorEPKc = __main_start + 0x003dee40;
_ZN2al19createActorFunctionI5TerenEEPNS_9LiveActorEPKc = __main_start + 0x003dee80;
_ZN2al19createActorFunctionI6TeresaEEPNS_9LiveActorEPKc = __main_start + 0x003deec0;
_ZN2al19createActorFunctionI19TeresaConveyorBenchEEPNS_9LiveActorEPKc = __main_start + 0x003def00;
_ZN2al19createActorFunctionI23TeresaConveyorTeresaBigEEPNS_9LiveActorEPKc = __main_start + 0x003def40;
_ZN2al19createActorFunctionI15TeresaFakeDokanEEPNS_9LiveActorEPKc = __main_start + 0x003def80;
_ZN2al19createActorFunctionI16TeresaFakeObjectEEPNS_9LiveActorEPKc = __main_start + 0x003defc0;
_ZN2al19createActorFunctionI10TeresaWallEEPNS_9LiveActorEPKc = __main_start + 0x003df000;
_ZN2al19createActorFunctionI4TicoEEPNS_9LiveActorEPKc = __main_start + 0x003df040;
_ZN2al19createActorFunctionI16TicoCourseSelectEEPNS_9LiveActorEPKc = __main_start + 0x003df080;
_ZN2al19createActorFunctionI10TimerClockEEPNS_9LiveActorEPKc = __main_start + 0x003df0c0;
_ZN2al19createActorFunctionI15TimerCoinHolderEEPNS_9LiveActorEPKc = __main_start + 0x003df100;
_ZN2al19createActorFunctionI9TimerGateEEPNS_9LiveActorEPKc = __main_start + 0x003df140;
_ZN2al19createActorFunctionI16TimerStageSwitchEEPNS_9LiveActorEPKc = __main_start + 0x003df180;
_ZN2al19createActorFunctionI6TogezoEEPNS_9LiveActorEPKc = __main_start + 0x003df1c0;
_ZN2al19createActorFunctionI21TouchReactionMapPartsEEPNS_9LiveActorEPKc = __main_start + 0x003df200;
_ZN2al19createActorFunctionI18TrampleSwitchTimerEEPNS_9LiveActorEPKc = __main_start + 0x003df240;
_ZN2al19createActorFunctionI13TrampleSwitchEEPNS_9LiveActorEPKc = __main_start + 0x003df280;
_ZN2al19createActorFunctionI18TrampleSwitchCharaEEPNS_9LiveActorEPKc = __main_start + 0x003df2c0;
_ZN2al19createActorFunctionI21TrampleSwitchGoalItemEEPNS_9LiveActorEPKc = __main_start + 0x003df300;
_ZN2al19createActorFunctionI17TrampleSwitchGoldEEPNS_9LiveActorEPKc = __main_start + 0x003df340;
_ZN2al19createActorFunctionI28TrampleSwitchTogetherWatcherEEPNS_9LiveActorEPKc = __main_start + 0x003df380;
_ZN2al19createActorFunctionI10TrampolineEEPNS_9LiveActorEPKc = __main_start + 0x003df3c0;
_ZN2al19createActorFunctionI15TransparentWallEEPNS_9LiveActorEPKc = __main_start + 0x003df400;
_ZN2al19createActorFunctionI7TrapezeEEPNS_9LiveActorEPKc = __main_start + 0x003df440;
_ZN2al19createActorFunctionI4TreeEEPNS_9LiveActorEPKc = __main_start + 0x003df480;
_ZN2al19createActorFunctionI17TreeFarLodWatcherEEPNS_9LiveActorEPKc = __main_start + 0x003df4c0;
_ZN2al19createActorFunctionI9TreeStumpEEPNS_9LiveActorEPKc = __main_start + 0x003df500;
_ZN2al19createActorFunctionI16TreeStumpWatcherEEPNS_9LiveActorEPKc = __main_start + 0x003df540;
_ZN2al19createActorFunctionI9TuccondorEEPNS_9LiveActorEPKc = __main_start + 0x003df580;
_ZN2al19createActorFunctionI15TuccondorAroundEEPNS_9LiveActorEPKc = __main_start + 0x003df5c0;
_ZN2al19createActorFunctionI13TuccondorTrapEEPNS_9LiveActorEPKc = __main_start + 0x003df600;
_ZN2al19createActorFunctionI5UkiboEEPNS_9LiveActorEPKc = __main_start + 0x003df640;
_ZN2al19createActorFunctionI21VisibleSwitchMapPartsEEPNS_9LiveActorEPKc = __main_start + 0x003df680;
_ZN2al19createActorFunctionI8WarpCubeEEPNS_9LiveActorEPKc = __main_start + 0x003df6c0;
_ZN2al19createActorFunctionI8WarpDoorEEPNS_9LiveActorEPKc = __main_start + 0x003df700;
_ZN2al19createActorFunctionI18WaterAreaMoveModelEEPNS_9LiveActorEPKc = __main_start + 0x003df740;
_ZN2al19createActorFunctionI13WheelMapPartsEEPNS_9LiveActorEPKc = __main_start + 0x003df780;
_ZN2al19createActorFunctionI12WheelWatcherEEPNS_9LiveActorEPKc = __main_start + 0x003df7c0;
_ZN2al19createActorFunctionI14WobbleMapPartsEEPNS_9LiveActorEPKc = __main_start + 0x003df800;
_ZN2al19createActorFunctionI7WoodBoxEEPNS_9LiveActorEPKc = __main_start + 0x003df840;
_ZN2al19createActorFunctionI13WoodLogBridgeEEPNS_9LiveActorEPKc = __main_start + 0x003df880;
_ZN2al19createActorFunctionI19ZigzagBuildingCoverEEPNS_9LiveActorEPKc = __main_start + 0x003df8c0;
_ZN2al19createActorFunctionI16TestAndoBowserJrEEPNS_9LiveActorEPKc = __main_start + 0x003df900;
_ZN2al19createActorFunctionI7KoopaJrEEPNS_9LiveActorEPKc = __main_start + 0x003df900;
_ZN2al19createActorFunctionI13ThrowMapPartsEEPNS_9LiveActorEPKc = __main_start + 0x003df940;
_ZN2al19createActorFunctionI19TimeLimitStepSwitchEEPNS_9LiveActorEPKc = __main_start + 0x003df980;
_ZN2al19createActorFunctionI19WindowMessageAppearEEPNS_9LiveActorEPKc = __main_start + 0x003df9c0;
_ZN2al19createActorFunctionI10ZoneHolderEEPNS_9LiveActorEPKc = __main_start + 0x003dfa00;
_ZN2al19createActorFunctionI6IslandEEPNS_9LiveActorEPKc = __main_start + 0x003dfa00;
_ZN2al19createActorFunctionI16TestAndoGoalPoleEEPNS_9LiveActorEPKc = __main_start + 0x003dfa40;
